; Listing generated by Microsoft (R) Optimizing Compiler Version 19.37.32822.0 

	TITLE	C:\TouchGFXProjects\KraftHeinz_DS3600\TouchGFX\build\Debug\obj\ApplicationFontProvider.obj
	.686P
	.XMM
	include listing.inc
	.model	flat

INCLUDELIB MSVCRTD
INCLUDELIB OLDNAMES

msvcjmc	SEGMENT
__E2605D79_concurrencysal@h DB 01H
__D6EC426F_sal@h DB 01H
__5DEEAB32_vadefs@h DB 01H
__7FAFA22A_vcruntime@h DB 01H
__113C7B9B_stdarg@h DB 01H
__1B0272D9_corecrt@h DB 01H
__19139D6C_assert@h DB 01H
__25E3C554_stdint@h DB 01H
__38966392_Config@hpp DB 01H
__B7E12544_Types@hpp DB 01H
__1884D0FD_Unicode@hpp DB 01H
__F92B836C_Font@hpp DB 01H
__94546108_FontManager@hpp DB 01H
__3DB777A9_ApplicationFontProvider@hpp DB 01H
__7B30E016_ConstFont@hpp DB 01H
__5EC25F12_GeneratedFont@hpp DB 01H
__9B72E737_xkeycheck@h DB 01H
__1F1F6A39_yvals_core@h DB 01H
__8407F7D8_cassert DB 01H
__6FC95654_Texts@hpp DB 01H
__64F0DC05_TypedText@hpp DB 01H
__0A858183_TypedTextDatabase@hpp DB 01H
__FC9A84CD_ApplicationFontProvider@cpp DB 01H
msvcjmc	ENDS
PUBLIC	?getFont@ApplicationFontProvider@@UAEPAVFont@touchgfx@@G@Z ; ApplicationFontProvider::getFont
PUBLIC	__JustMyCode_Default
EXTRN	?getFonts@TypedTextDatabase@@YAPAPBVFont@touchgfx@@XZ:PROC ; TypedTextDatabase::getFonts
EXTRN	@__CheckForDebuggerJustMyCode@4:PROC
EXTRN	__RTC_CheckEsp:PROC
EXTRN	__RTC_InitBase:PROC
EXTRN	__RTC_Shutdown:PROC
;	COMDAT rtc$TMZ
rtc$TMZ	SEGMENT
__RTC_Shutdown.rtc$TMZ DD FLAT:__RTC_Shutdown
rtc$TMZ	ENDS
;	COMDAT rtc$IMZ
rtc$IMZ	SEGMENT
__RTC_InitBase.rtc$IMZ DD FLAT:__RTC_InitBase
rtc$IMZ	ENDS
; Function compile flags: /Odt
;	COMDAT __JustMyCode_Default
_TEXT	SEGMENT
__JustMyCode_Default PROC				; COMDAT
	push	ebp
	mov	ebp, esp
	pop	ebp
	ret	0
__JustMyCode_Default ENDP
_TEXT	ENDS
; Function compile flags: /Odtp /RTCsu /ZI
;	COMDAT ?getFont@ApplicationFontProvider@@UAEPAVFont@touchgfx@@G@Z
_TEXT	SEGMENT
tv65 = -208						; size = 4
_this$ = -8						; size = 4
_typography$ = 8					; size = 2
?getFont@ApplicationFontProvider@@UAEPAVFont@touchgfx@@G@Z PROC ; ApplicationFontProvider::getFont, COMDAT
; _this$ = ecx
; File C:\TouchGFXProjects\KraftHeinz_DS3600\TouchGFX\generated\fonts\src\ApplicationFontProvider.cpp
; Line 9
	push	ebp
	mov	ebp, esp
	sub	esp, 208				; 000000d0H
	push	ebx
	push	esi
	push	edi
	push	ecx
	lea	edi, DWORD PTR [ebp-16]
	mov	ecx, 4
	mov	eax, -858993460				; ccccccccH
	rep stosd
	pop	ecx
	mov	DWORD PTR _this$[ebp], ecx
	mov	ecx, OFFSET __FC9A84CD_ApplicationFontProvider@cpp
	call	@__CheckForDebuggerJustMyCode@4
; Line 10
	movzx	eax, WORD PTR _typography$[ebp]
	mov	DWORD PTR tv65[ebp], eax
	cmp	DWORD PTR tv65[ebp], 22			; 00000016H
	ja	$LN27@getFont
	mov	ecx, DWORD PTR tv65[ebp]
	jmp	DWORD PTR $LN29@getFont[ecx*4]
$LN4@getFont:
; Line 14
	call	?getFonts@TypedTextDatabase@@YAPAPBVFont@touchgfx@@XZ ; TypedTextDatabase::getFonts
	mov	ecx, 4
	imul	edx, ecx, 0
	mov	eax, DWORD PTR [eax+edx]
	jmp	$LN1@getFont
$LN5@getFont:
; Line 17
	call	?getFonts@TypedTextDatabase@@YAPAPBVFont@touchgfx@@XZ ; TypedTextDatabase::getFonts
	mov	ecx, 4
	shl	ecx, 0
	mov	eax, DWORD PTR [eax+ecx]
	jmp	$LN1@getFont
$LN6@getFont:
; Line 20
	call	?getFonts@TypedTextDatabase@@YAPAPBVFont@touchgfx@@XZ ; TypedTextDatabase::getFonts
	mov	ecx, 4
	shl	ecx, 1
	mov	eax, DWORD PTR [eax+ecx]
	jmp	$LN1@getFont
$LN7@getFont:
; Line 23
	call	?getFonts@TypedTextDatabase@@YAPAPBVFont@touchgfx@@XZ ; TypedTextDatabase::getFonts
	mov	ecx, 4
	imul	edx, ecx, 3
	mov	eax, DWORD PTR [eax+edx]
	jmp	$LN1@getFont
$LN8@getFont:
; Line 26
	call	?getFonts@TypedTextDatabase@@YAPAPBVFont@touchgfx@@XZ ; TypedTextDatabase::getFonts
	mov	ecx, 4
	shl	ecx, 2
	mov	eax, DWORD PTR [eax+ecx]
	jmp	$LN1@getFont
$LN9@getFont:
; Line 29
	call	?getFonts@TypedTextDatabase@@YAPAPBVFont@touchgfx@@XZ ; TypedTextDatabase::getFonts
	mov	ecx, 4
	shl	ecx, 1
	mov	eax, DWORD PTR [eax+ecx]
	jmp	$LN1@getFont
$LN10@getFont:
; Line 32
	call	?getFonts@TypedTextDatabase@@YAPAPBVFont@touchgfx@@XZ ; TypedTextDatabase::getFonts
	mov	ecx, 4
	imul	edx, ecx, 5
	mov	eax, DWORD PTR [eax+edx]
	jmp	$LN1@getFont
$LN11@getFont:
; Line 35
	call	?getFonts@TypedTextDatabase@@YAPAPBVFont@touchgfx@@XZ ; TypedTextDatabase::getFonts
	mov	ecx, 4
	imul	edx, ecx, 6
	mov	eax, DWORD PTR [eax+edx]
	jmp	$LN1@getFont
$LN12@getFont:
; Line 38
	call	?getFonts@TypedTextDatabase@@YAPAPBVFont@touchgfx@@XZ ; TypedTextDatabase::getFonts
	mov	ecx, 4
	imul	edx, ecx, 7
	mov	eax, DWORD PTR [eax+edx]
	jmp	$LN1@getFont
$LN13@getFont:
; Line 41
	call	?getFonts@TypedTextDatabase@@YAPAPBVFont@touchgfx@@XZ ; TypedTextDatabase::getFonts
	mov	ecx, 4
	shl	ecx, 3
	mov	eax, DWORD PTR [eax+ecx]
	jmp	$LN1@getFont
$LN14@getFont:
; Line 44
	call	?getFonts@TypedTextDatabase@@YAPAPBVFont@touchgfx@@XZ ; TypedTextDatabase::getFonts
	mov	ecx, 4
	shl	ecx, 1
	mov	eax, DWORD PTR [eax+ecx]
	jmp	$LN1@getFont
$LN15@getFont:
; Line 47
	call	?getFonts@TypedTextDatabase@@YAPAPBVFont@touchgfx@@XZ ; TypedTextDatabase::getFonts
	mov	ecx, 4
	imul	edx, ecx, 3
	mov	eax, DWORD PTR [eax+edx]
	jmp	$LN1@getFont
$LN16@getFont:
; Line 50
	call	?getFonts@TypedTextDatabase@@YAPAPBVFont@touchgfx@@XZ ; TypedTextDatabase::getFonts
	mov	ecx, 4
	imul	edx, ecx, 9
	mov	eax, DWORD PTR [eax+edx]
	jmp	$LN1@getFont
$LN17@getFont:
; Line 53
	call	?getFonts@TypedTextDatabase@@YAPAPBVFont@touchgfx@@XZ ; TypedTextDatabase::getFonts
	mov	ecx, 4
	imul	edx, ecx, 10
	mov	eax, DWORD PTR [eax+edx]
	jmp	$LN1@getFont
$LN18@getFont:
; Line 56
	call	?getFonts@TypedTextDatabase@@YAPAPBVFont@touchgfx@@XZ ; TypedTextDatabase::getFonts
	mov	ecx, 4
	imul	edx, ecx, 11
	mov	eax, DWORD PTR [eax+edx]
	jmp	$LN1@getFont
$LN19@getFont:
; Line 59
	call	?getFonts@TypedTextDatabase@@YAPAPBVFont@touchgfx@@XZ ; TypedTextDatabase::getFonts
	mov	ecx, 4
	shl	ecx, 1
	mov	eax, DWORD PTR [eax+ecx]
	jmp	SHORT $LN1@getFont
$LN20@getFont:
; Line 62
	call	?getFonts@TypedTextDatabase@@YAPAPBVFont@touchgfx@@XZ ; TypedTextDatabase::getFonts
	mov	ecx, 4
	imul	edx, ecx, 12
	mov	eax, DWORD PTR [eax+edx]
	jmp	SHORT $LN1@getFont
$LN21@getFont:
; Line 65
	call	?getFonts@TypedTextDatabase@@YAPAPBVFont@touchgfx@@XZ ; TypedTextDatabase::getFonts
	mov	ecx, 4
	imul	edx, ecx, 5
	mov	eax, DWORD PTR [eax+edx]
	jmp	SHORT $LN1@getFont
$LN22@getFont:
; Line 68
	call	?getFonts@TypedTextDatabase@@YAPAPBVFont@touchgfx@@XZ ; TypedTextDatabase::getFonts
	mov	ecx, 4
	imul	edx, ecx, 6
	mov	eax, DWORD PTR [eax+edx]
	jmp	SHORT $LN1@getFont
$LN23@getFont:
; Line 71
	call	?getFonts@TypedTextDatabase@@YAPAPBVFont@touchgfx@@XZ ; TypedTextDatabase::getFonts
	mov	ecx, 4
	imul	edx, ecx, 12
	mov	eax, DWORD PTR [eax+edx]
	jmp	SHORT $LN1@getFont
$LN24@getFont:
; Line 74
	call	?getFonts@TypedTextDatabase@@YAPAPBVFont@touchgfx@@XZ ; TypedTextDatabase::getFonts
	mov	ecx, 4
	imul	edx, ecx, 13
	mov	eax, DWORD PTR [eax+edx]
	jmp	SHORT $LN1@getFont
$LN25@getFont:
; Line 77
	call	?getFonts@TypedTextDatabase@@YAPAPBVFont@touchgfx@@XZ ; TypedTextDatabase::getFonts
	mov	ecx, 4
	shl	ecx, 1
	mov	eax, DWORD PTR [eax+ecx]
	jmp	SHORT $LN1@getFont
$LN26@getFont:
; Line 80
	call	?getFonts@TypedTextDatabase@@YAPAPBVFont@touchgfx@@XZ ; TypedTextDatabase::getFonts
	mov	ecx, 4
	imul	edx, ecx, 9
	mov	eax, DWORD PTR [eax+edx]
	jmp	SHORT $LN1@getFont
$LN27@getFont:
; Line 82
	xor	eax, eax
$LN1@getFont:
; Line 84
	pop	edi
	pop	esi
	pop	ebx
	add	esp, 208				; 000000d0H
	cmp	ebp, esp
	call	__RTC_CheckEsp
	mov	esp, ebp
	pop	ebp
	ret	4
$LN29@getFont:
	DD	$LN4@getFont
	DD	$LN5@getFont
	DD	$LN6@getFont
	DD	$LN7@getFont
	DD	$LN8@getFont
	DD	$LN9@getFont
	DD	$LN10@getFont
	DD	$LN11@getFont
	DD	$LN12@getFont
	DD	$LN13@getFont
	DD	$LN14@getFont
	DD	$LN15@getFont
	DD	$LN16@getFont
	DD	$LN17@getFont
	DD	$LN18@getFont
	DD	$LN19@getFont
	DD	$LN20@getFont
	DD	$LN21@getFont
	DD	$LN22@getFont
	DD	$LN23@getFont
	DD	$LN24@getFont
	DD	$LN25@getFont
	DD	$LN26@getFont
?getFont@ApplicationFontProvider@@UAEPAVFont@touchgfx@@G@Z ENDP ; ApplicationFontProvider::getFont
_TEXT	ENDS
END
