; Listing generated by Microsoft (R) Optimizing Compiler Version 19.37.32822.0 

	TITLE	C:\TouchGFXProjects\KraftHeinz_DS3600\TouchGFX\build\Debug\obj\BitmapDatabase.obj
	.686P
	.XMM
	include listing.inc
	.model	flat

INCLUDELIB MSVCRTD
INCLUDELIB OLDNAMES

EXTRN	?image_barcode@@3QBEB:BYTE			; image_barcode
EXTRN	?image_barcode_active@@3QBEB:BYTE		; image_barcode_active
EXTRN	?image_batchon@@3QBEB:BYTE			; image_batchon
EXTRN	?image_battery_high@@3QBEB:BYTE			; image_battery_high
EXTRN	?image_battery_high3x@@3QBEB:BYTE		; image_battery_high3x
EXTRN	?image_battery_high5x@@3QBEB:BYTE		; image_battery_high5x
EXTRN	?image_battery_high_eol@@3QBEB:BYTE		; image_battery_high_eol
EXTRN	?image_battery_low@@3QBEB:BYTE			; image_battery_low
EXTRN	?image_battery_low3x@@3QBEB:BYTE		; image_battery_low3x
EXTRN	?image_battery_low5x@@3QBEB:BYTE		; image_battery_low5x
EXTRN	?image_battery_low_eol@@3QBEB:BYTE		; image_battery_low_eol
EXTRN	?image_battery_med@@3QBEB:BYTE			; image_battery_med
EXTRN	?image_battery_med3x@@3QBEB:BYTE		; image_battery_med3x
EXTRN	?image_battery_med5x@@3QBEB:BYTE		; image_battery_med5x
EXTRN	?image_battery_med_eol@@3QBEB:BYTE		; image_battery_med_eol
EXTRN	?image_battery_med_high@@3QBEB:BYTE		; image_battery_med_high
EXTRN	?image_battery_med_high3x@@3QBEB:BYTE		; image_battery_med_high3x
EXTRN	?image_battery_med_high5x@@3QBEB:BYTE		; image_battery_med_high5x
EXTRN	?image_battery_med_high_eol@@3QBEB:BYTE		; image_battery_med_high_eol
EXTRN	?image_battery_med_low@@3QBEB:BYTE		; image_battery_med_low
EXTRN	?image_battery_med_low3x@@3QBEB:BYTE		; image_battery_med_low3x
EXTRN	?image_battery_med_low5x@@3QBEB:BYTE		; image_battery_med_low5x
EXTRN	?image_battery_med_low_eol@@3QBEB:BYTE		; image_battery_med_low_eol
EXTRN	?image_blue_progressindicators_bg_large_progress_indicator_bg_square_0_degrees@@3QBEB:BYTE ; image_blue_progressindicators_bg_large_progress_indicator_bg_square_0_degrees
EXTRN	?image_blue_progressindicators_bg_medium_progress_indicator_bg_square_0_degrees@@3QBEB:BYTE ; image_blue_progressindicators_bg_medium_progress_indicator_bg_square_0_degrees
EXTRN	?image_bluetooth_alt@@3QBEB:BYTE		; image_bluetooth_alt
EXTRN	?image_bluetooth_alt_active@@3QBEB:BYTE		; image_bluetooth_alt_active
EXTRN	?image_check@@3QBEB:BYTE			; image_check
EXTRN	?image_check_active@@3QBEB:BYTE			; image_check_active
EXTRN	?image_down@@3QBEB:BYTE				; image_down
EXTRN	?image_exclamation@@3QBEB:BYTE			; image_exclamation
EXTRN	?image_exclamation_active@@3QBEB:BYTE		; image_exclamation_active
EXTRN	?image_focusradiooff@@3QBEB:BYTE		; image_focusradiooff
EXTRN	?image_focusradioon@@3QBEB:BYTE			; image_focusradioon
EXTRN	?image_home@@3QBEB:BYTE				; image_home
EXTRN	?image_left@@3QBEB:BYTE				; image_left
EXTRN	?image_location_active@@3QBEB:BYTE		; image_location_active
EXTRN	?image_location_hover@@3QBEB:BYTE		; image_location_hover
EXTRN	?image_location_on@@3QBEB:BYTE			; image_location_on
EXTRN	?image_mdi_arrow_back@@3QBEB:BYTE		; image_mdi_arrow_back
EXTRN	?image_mdi_arrow_back_selected@@3QBEB:BYTE	; image_mdi_arrow_back_selected
EXTRN	?image_minus@@3QBEB:BYTE			; image_minus
EXTRN	?image_minus_active@@3QBEB:BYTE			; image_minus_active
EXTRN	?image_nonbattery@@3QBEB:BYTE			; image_nonbattery
EXTRN	?image_preview@@3QBEB:BYTE			; image_preview
EXTRN	?image_radiooff@@3QBEB:BYTE			; image_radiooff
EXTRN	?image_radioon@@3QBEB:BYTE			; image_radioon
EXTRN	?image_right@@3QBEB:BYTE			; image_right
EXTRN	?image_shiftblue@@3QBEB:BYTE			; image_shiftblue
EXTRN	?image_shiftgreen@@3QBEB:BYTE			; image_shiftgreen
EXTRN	?image_splashlight@@3QBEB:BYTE			; image_splashlight
EXTRN	?image_up@@3QBEB:BYTE				; image_up
EXTRN	?image_white_dot_official@@3QBEB:BYTE		; image_white_dot_official
msvcjmc	SEGMENT
__E2605D79_concurrencysal@h DB 01H
__D6EC426F_sal@h DB 01H
__5DEEAB32_vadefs@h DB 01H
__7FAFA22A_vcruntime@h DB 01H
__1B0272D9_corecrt@h DB 01H
__19139D6C_assert@h DB 01H
__25E3C554_stdint@h DB 01H
__38966392_Config@hpp DB 01H
__B7E12544_Types@hpp DB 01H
__9B72E737_xkeycheck@h DB 01H
__1F1F6A39_yvals_core@h DB 01H
__8407F7D8_cassert DB 01H
__3076C47D_Bitmap@hpp DB 01H
__CAAAEF37_BitmapDatabase@hpp DB 01H
__E91BC899_BitmapDatabase@cpp DB 01H
msvcjmc	ENDS
CONST	SEGMENT
?bitmap_database@@3QBUBitmapData@Bitmap@touchgfx@@B DD FLAT:?image_barcode@@3QBEB ; bitmap_database
	DD	00H
	DW	028H
	DW	028H
	DW	01dH
	DW	0aH
	DW	04H
	DW	04014H
	DD	FLAT:?image_barcode_active@@3QBEB
	DD	00H
	DW	028H
	DW	028H
	DW	01dH
	DW	0aH
	DW	04H
	DW	04014H
	DD	FLAT:?image_batchon@@3QBEB
	DD	00H
	DW	020H
	DW	020H
	DW	09H
	DW	0dH
	DW	0eH
	DW	0400eH
	DD	FLAT:?image_battery_high@@3QBEB
	DD	00H
	DW	020H
	DW	020H
	DW	09H
	DW	06H
	DW	0eH
	DW	04016H
	DD	FLAT:?image_battery_high3x@@3QBEB
	DD	00H
	DW	060H
	DW	060H
	DW	01cH
	DW	011H
	DW	028H
	DW	04046H
	DD	FLAT:?image_battery_high5x@@3QBEB
	DD	00H
	DW	045H
	DW	08dH
	DW	00H
	DW	014H
	DW	044H
	DW	04074H
	DD	FLAT:?image_battery_high_eol@@3QBEB
	DD	00H
	DW	020H
	DW	020H
	DW	07H
	DW	06H
	DW	012H
	DW	04018H
	DD	FLAT:?image_battery_low@@3QBEB
	DD	00H
	DW	020H
	DW	020H
	DW	09H
	DW	06H
	DW	0eH
	DW	04017H
	DD	FLAT:?image_battery_low3x@@3QBEB
	DD	00H
	DW	060H
	DW	060H
	DW	01cH
	DW	011H
	DW	028H
	DW	04047H
	DD	FLAT:?image_battery_low5x@@3QBEB
	DD	00H
	DW	046H
	DW	08bH
	DW	01H
	DW	013H
	DW	044H
	DW	04075H
	DD	FLAT:?image_battery_low_eol@@3QBEB
	DD	00H
	DW	020H
	DW	020H
	DW	07H
	DW	05H
	DW	012H
	DW	04019H
	DD	FLAT:?image_battery_med@@3QBEB
	DD	00H
	DW	020H
	DW	020H
	DW	09H
	DW	06H
	DW	0eH
	DW	04017H
	DD	FLAT:?image_battery_med3x@@3QBEB
	DD	00H
	DW	060H
	DW	060H
	DW	01cH
	DW	011H
	DW	028H
	DW	04047H
	DD	FLAT:?image_battery_med5x@@3QBEB
	DD	00H
	DW	046H
	DW	08dH
	DW	01H
	DW	014H
	DW	044H
	DW	04075H
	DD	FLAT:?image_battery_med_eol@@3QBEB
	DD	00H
	DW	020H
	DW	020H
	DW	07H
	DW	05H
	DW	012H
	DW	04019H
	DD	FLAT:?image_battery_med_high@@3QBEB
	DD	00H
	DW	020H
	DW	020H
	DW	09H
	DW	06H
	DW	0eH
	DW	04017H
	DD	FLAT:?image_battery_med_high3x@@3QBEB
	DD	00H
	DW	060H
	DW	060H
	DW	01cH
	DW	011H
	DW	028H
	DW	04047H
	DD	FLAT:?image_battery_med_high5x@@3QBEB
	DD	00H
	DW	046H
	DW	08cH
	DW	01H
	DW	014H
	DW	044H
	DW	04075H
	DD	FLAT:?image_battery_med_high_eol@@3QBEB
	DD	00H
	DW	020H
	DW	020H
	DW	07H
	DW	05H
	DW	012H
	DW	04019H
	DD	FLAT:?image_battery_med_low@@3QBEB
	DD	00H
	DW	020H
	DW	020H
	DW	09H
	DW	06H
	DW	0eH
	DW	04017H
	DD	FLAT:?image_battery_med_low3x@@3QBEB
	DD	00H
	DW	060H
	DW	060H
	DW	01cH
	DW	011H
	DW	028H
	DW	04047H
	DD	FLAT:?image_battery_med_low5x@@3QBEB
	DD	00H
	DW	046H
	DW	08cH
	DW	01H
	DW	013H
	DW	044H
	DW	04075H
	DD	FLAT:?image_battery_med_low_eol@@3QBEB
	DD	00H
	DW	020H
	DW	020H
	DW	07H
	DW	05H
	DW	012H
	DW	04019H
	DD	FLAT:?image_blue_progressindicators_bg_large_progress_indicator_bg_square_0_degrees@@3QBEB
	DD	00H
	DW	0140H
	DW	0aH
	DW	00H
	DW	00H
	DW	0140H
	DW	0aH
	DD	FLAT:?image_blue_progressindicators_bg_medium_progress_indicator_bg_square_0_degrees@@3QBEB
	DD	00H
	DW	0b8H
	DW	014H
	DW	00H
	DW	00H
	DW	0b8H
	DW	014H
	DD	FLAT:?image_bluetooth_alt@@3QBEB
	DD	00H
	DW	020H
	DW	020H
	DW	016H
	DW	08H
	DW	02H
	DW	04010H
	DD	FLAT:?image_bluetooth_alt_active@@3QBEB
	DD	00H
	DW	020H
	DW	020H
	DW	016H
	DW	08H
	DW	02H
	DW	04010H
	DD	FLAT:?image_check@@3QBEB
	DD	00H
	DW	028H
	DW	028H
	DW	0dH
	DW	08H
	DW	0aH
	DW	04009H
	DD	FLAT:?image_check_active@@3QBEB
	DD	00H
	DW	028H
	DW	028H
	DW	0dH
	DW	08H
	DW	0aH
	DW	04009H
	DD	FLAT:?image_down@@3QBEB
	DD	00H
	DW	020H
	DW	020H
	DW	09H
	DW	0aH
	DW	0dH
	DW	04006H
	DD	FLAT:?image_exclamation@@3QBEB
	DD	00H
	DW	028H
	DW	028H
	DW	016H
	DW	0cH
	DW	09H
	DW	04010H
	DD	FLAT:?image_exclamation_active@@3QBEB
	DD	00H
	DW	028H
	DW	028H
	DW	016H
	DW	0cH
	DW	09H
	DW	04010H
	DD	FLAT:?image_focusradiooff@@3QBEB
	DD	00H
	DW	020H
	DW	020H
	DW	01bH
	DW	0dH
	DW	02H
	DW	04006H
	DD	FLAT:?image_focusradioon@@3QBEB
	DD	00H
	DW	020H
	DW	020H
	DW	0cH
	DW	0bH
	DW	08H
	DW	0400aH
	DD	FLAT:?image_home@@3QBEB
	DD	00H
	DW	020H
	DW	020H
	DW	09H
	DW	0dH
	DW	0eH
	DW	04008H
	DD	FLAT:?image_left@@3QBEB
	DD	00H
	DW	020H
	DW	020H
	DW	0dH
	DW	0bH
	DW	08H
	DW	04009H
	DD	FLAT:?image_location_active@@3QBEB
	DD	00H
	DW	020H
	DW	020H
	DW	0bH
	DW	010H
	DW	0aH
	DW	04007H
	DD	FLAT:?image_location_hover@@3QBEB
	DD	00H
	DW	020H
	DW	020H
	DW	0bH
	DW	010H
	DW	0aH
	DW	04007H
	DD	FLAT:?image_location_on@@3QBEB
	DD	00H
	DW	020H
	DW	020H
	DW	0bH
	DW	010H
	DW	0aH
	DW	04007H
	DD	FLAT:?image_mdi_arrow_back@@3QBEB
	DD	00H
	DW	020H
	DW	020H
	DW	07H
	DW	0fH
	DW	013H
	DW	04002H
	DD	FLAT:?image_mdi_arrow_back_selected@@3QBEB
	DD	00H
	DW	020H
	DW	020H
	DW	00H
	DW	00H
	DW	020H
	DW	020H
	DD	FLAT:?image_minus@@3QBEB
	DD	00H
	DW	028H
	DW	028H
	DW	0cH
	DW	09H
	DW	010H
	DW	04009H
	DD	FLAT:?image_minus_active@@3QBEB
	DD	00H
	DW	028H
	DW	028H
	DW	0cH
	DW	09H
	DW	010H
	DW	04009H
	DD	FLAT:?image_nonbattery@@3QBEB
	DD	00H
	DW	020H
	DW	020H
	DW	00H
	DW	00H
	DW	020H
	DW	020H
	DD	FLAT:?image_preview@@3QBEB
	DD	00H
	DW	0100H
	DW	0c0H
	DW	00H
	DW	00H
	DW	0100H
	DW	0c0H
	DD	FLAT:?image_radiooff@@3QBEB
	DD	00H
	DW	020H
	DW	020H
	DW	01bH
	DW	0dH
	DW	02H
	DW	04006H
	DD	FLAT:?image_radioon@@3QBEB
	DD	00H
	DW	020H
	DW	020H
	DW	0cH
	DW	0bH
	DW	08H
	DW	0400aH
	DD	FLAT:?image_right@@3QBEB
	DD	00H
	DW	020H
	DW	020H
	DW	0bH
	DW	0bH
	DW	08H
	DW	04009H
	DD	FLAT:?image_shiftblue@@3QBEB
	DD	00H
	DW	02cH
	DW	020H
	DW	05H
	DW	04H
	DW	022H
	DW	04018H
	DD	FLAT:?image_shiftgreen@@3QBEB
	DD	00H
	DW	02cH
	DW	020H
	DW	05H
	DW	04H
	DW	022H
	DW	04018H
	DD	FLAT:?image_splashlight@@3QBEB
	DD	00H
	DW	0140H
	DW	0f0H
	DW	00H
	DW	00H
	DW	0140H
	DW	0f0H
	DD	FLAT:?image_up@@3QBEB
	DD	00H
	DW	020H
	DW	020H
	DW	09H
	DW	0fH
	DW	0dH
	DW	04006H
	DD	FLAT:?image_white_dot_official@@3QBEB
	DD	00H
	DW	08H
	DW	08H
	DW	02H
	DW	01H
	DW	04H
	DW	04006H
CONST	ENDS
PUBLIC	?getInstance@BitmapDatabase@@YAPBUBitmapData@Bitmap@touchgfx@@XZ ; BitmapDatabase::getInstance
PUBLIC	?getInstanceSize@BitmapDatabase@@YAGXZ		; BitmapDatabase::getInstanceSize
PUBLIC	__JustMyCode_Default
EXTRN	@__CheckForDebuggerJustMyCode@4:PROC
EXTRN	__RTC_CheckEsp:PROC
EXTRN	__RTC_InitBase:PROC
EXTRN	__RTC_Shutdown:PROC
;	COMDAT rtc$TMZ
rtc$TMZ	SEGMENT
__RTC_Shutdown.rtc$TMZ DD FLAT:__RTC_Shutdown
rtc$TMZ	ENDS
;	COMDAT rtc$IMZ
rtc$IMZ	SEGMENT
__RTC_InitBase.rtc$IMZ DD FLAT:__RTC_InitBase
rtc$IMZ	ENDS
; Function compile flags: /Odt
;	COMDAT __JustMyCode_Default
_TEXT	SEGMENT
__JustMyCode_Default PROC				; COMDAT
	push	ebp
	mov	ebp, esp
	pop	ebp
	ret	0
__JustMyCode_Default ENDP
_TEXT	ENDS
; Function compile flags: /Odtp /RTCsu /ZI
;	COMDAT ?getInstanceSize@BitmapDatabase@@YAGXZ
_TEXT	SEGMENT
?getInstanceSize@BitmapDatabase@@YAGXZ PROC		; BitmapDatabase::getInstanceSize, COMDAT
; File C:\TouchGFXProjects\KraftHeinz_DS3600\TouchGFX\generated\images\src\BitmapDatabase.cpp
; Line 126
	push	ebp
	mov	ebp, esp
	sub	esp, 192				; 000000c0H
	push	ebx
	push	esi
	push	edi
	mov	edi, ebp
	xor	ecx, ecx
	mov	eax, -858993460				; ccccccccH
	rep stosd
	mov	ecx, OFFSET __E91BC899_BitmapDatabase@cpp
	call	@__CheckForDebuggerJustMyCode@4
; Line 127
	mov	eax, 53					; 00000035H
; Line 128
	pop	edi
	pop	esi
	pop	ebx
	add	esp, 192				; 000000c0H
	cmp	ebp, esp
	call	__RTC_CheckEsp
	mov	esp, ebp
	pop	ebp
	ret	0
?getInstanceSize@BitmapDatabase@@YAGXZ ENDP		; BitmapDatabase::getInstanceSize
_TEXT	ENDS
; Function compile flags: /Odtp /RTCsu /ZI
;	COMDAT ?getInstance@BitmapDatabase@@YAPBUBitmapData@Bitmap@touchgfx@@XZ
_TEXT	SEGMENT
?getInstance@BitmapDatabase@@YAPBUBitmapData@Bitmap@touchgfx@@XZ PROC ; BitmapDatabase::getInstance, COMDAT
; File C:\TouchGFXProjects\KraftHeinz_DS3600\TouchGFX\generated\images\src\BitmapDatabase.cpp
; Line 121
	push	ebp
	mov	ebp, esp
	sub	esp, 192				; 000000c0H
	push	ebx
	push	esi
	push	edi
	mov	edi, ebp
	xor	ecx, ecx
	mov	eax, -858993460				; ccccccccH
	rep stosd
	mov	ecx, OFFSET __E91BC899_BitmapDatabase@cpp
	call	@__CheckForDebuggerJustMyCode@4
; Line 122
	mov	eax, OFFSET ?bitmap_database@@3QBUBitmapData@Bitmap@touchgfx@@B
; Line 123
	pop	edi
	pop	esi
	pop	ebx
	add	esp, 192				; 000000c0H
	cmp	ebp, esp
	call	__RTC_CheckEsp
	mov	esp, ebp
	pop	ebp
	ret	0
?getInstance@BitmapDatabase@@YAPBUBitmapData@Bitmap@touchgfx@@XZ ENDP ; BitmapDatabase::getInstance
_TEXT	ENDS
END
