; Listing generated by Microsoft (R) Optimizing Compiler Version 19.37.32822.0 

	TITLE	C:\TouchGFXProjects\KraftHeinz_DS3600\TouchGFX\build\Debug\obj\Font_RobotoCondensed_Bold_48_4bpp_0.obj
	.686P
	.XMM
	include listing.inc
	.model	flat

INCLUDELIB MSVCRTD
INCLUDELIB OLDNAMES

PUBLIC	?unicodes_RobotoCondensed_Bold_48_4bpp_0@@3QBEB	; unicodes_RobotoCondensed_Bold_48_4bpp_0
msvcjmc	SEGMENT
__E2605D79_concurrencysal@h DB 01H
__D6EC426F_sal@h DB 01H
__5DEEAB32_vadefs@h DB 01H
__7FAFA22A_vcruntime@h DB 01H
__1B0272D9_corecrt@h DB 01H
__19139D6C_assert@h DB 01H
__25E3C554_stdint@h DB 01H
__38966392_Config@hpp DB 01H
__B7E12544_Types@hpp DB 01H
__0FB33816_Font_RobotoCondensed_Bold_48_4bpp_0@cpp DB 01H
msvcjmc	ENDS
CONST	SEGMENT
?unicodes_RobotoCondensed_Bold_48_4bpp_0@@3QBEB DB 00H	; unicodes_RobotoCondensed_Bold_48_4bpp_0
	DB	00H
	DB	00H
	DB	094H
	DB	0ecH
	DB	0efH
	DB	0adH
	DB	016H
	DB	00H
	DB	00H
	DB	00H
	DB	00H
	DB	00H
	DB	0c2H
	DB	0ffH
	DB	0ffH
	DB	0ffH
	DB	0ffH
	DB	0efH
	DB	07H
	DB	00H
	DB	00H
	DB	00H
	DB	050H
	DB	0feH
	DB	0ffH
	DB	0ffH
	DB	0ffH
	DB	0ffH
	DB	0ffH
	DB	0bfH
	DB	01H
	DB	00H
	DB	00H
	DB	0f3H
	DB	0ffH
	DB	0ffH
	DB	0ffH
	DB	0ffH
	DB	0ffH
	DB	0ffH
	DB	0ffH
	DB	0bH
	DB	00H
	DB	010H
	DB	0feH
	DB	0ffH
	DB	0ffH
	DB	0ffH
	DB	0ffH
	DB	0ffH
	DB	0ffH
	DB	0ffH
	DB	06fH
	DB	00H
	DB	070H
	DB	0ffH
	DB	0ffH
	DB	0ffH
	DB	0cfH
	DB	0a9H
	DB	0ffH
	DB	0ffH
	DB	0ffH
	DB	0dfH
	DB	00H
	DB	0c0H
	DB	0ffH
	DB	0ffH
	DB	0ffH
	DB	07H
	DB	00H
	DB	0e3H
	DB	0ffH
	DB	0ffH
	DB	0ffH
	DB	02H
	DB	0f0H
	DB	0ffH
	DB	0ffH
	DB	0cfH
	DB	00H
	DB	00H
	DB	080H
	DB	0ffH
	DB	0ffH
	DB	0ffH
	DB	06H
	DB	0e1H
	DB	0eeH
	DB	0eeH
	DB	08eH
	DB	00H
	DB	00H
	DB	040H
	DB	0ffH
	DB	0ffH
	DB	0ffH
	DB	07H
	DB	00H
	DB	00H
	DB	00H
	DB	00H
	DB	00H
	DB	00H
	DB	020H
	DB	0ffH
	DB	0ffH
	DB	0ffH
	DB	07H
	DB	00H
	DB	00H
	DB	00H
	DB	00H
	DB	00H
	DB	00H
	DB	040H
	DB	0ffH
	DB	0ffH
	DB	0ffH
	DB	06H
	DB	00H
	DB	00H
	DB	00H
	DB	00H
	DB	00H
	DB	00H
	DB	080H
	DB	0ffH
	DB	0ffH
	DB	0ffH
	DB	02H
	DB	00H
	DB	00H
	DB	00H
	DB	00H
	DB	00H
	DB	00H
	DB	0e2H
	DB	0ffH
	DB	0ffH
	DB	0bfH
	DB	00H
	DB	00H
	DB	00H
	DB	00H
	DB	050H
	DB	066H
	DB	096H
	DB	0feH
	DB	0ffH
	DB	0ffH
	DB	03eH
	DB	00H
	DB	00H
	DB	00H
	DB	00H
	DB	0d0H
	DB	0ffH
	DB	0ffH
	DB	0ffH
	DB	0ffH
	DB	0ffH
	DB	05H
	DB	00H
	DB	00H
	DB	00H
	DB	00H
	DB	0d0H
	DB	0ffH
	DB	0ffH
	DB	0ffH
	DB	0ffH
	DB	04dH
	DB	00H
	DB	00H
	DB	00H
	DB	00H
	DB	00H
	DB	0d0H
	DB	0ffH
	DB	0ffH
	DB	0ffH
	DB	0ffH
	DB	02aH
	DB	00H
	DB	00H
	DB	00H
	DB	00H
	DB	00H
	DB	0d0H
	DB	0ffH
	DB	0ffH
	DB	0ffH
	DB	0ffH
	DB	0efH
	DB	05H
	DB	00H
	DB	00H
	DB	00H
	DB	00H
	DB	0d0H
	DB	0ffH
	DB	0ffH
	DB	0ffH
	DB	0ffH
	DB	0ffH
	DB	03fH
	DB	00H
	DB	00H
	DB	00H
	DB	00H
	DB	00H
	DB	00H
	DB	020H
	DB	0f8H
	DB	0ffH
	DB	0ffH
	DB	0dfH
	DB	00H
	DB	00H
	DB	00H
	DB	00H
	DB	00H
	DB	00H
	DB	00H
	DB	080H
	DB	0ffH
	DB	0ffH
	DB	0ffH
	DB	05H
	DB	00H
	DB	00H
	DB	00H
	DB	00H
	DB	00H
	DB	00H
	DB	010H
	DB	0ffH
	DB	0ffH
	DB	0ffH
	DB	09H
	DB	00H
	DB	00H
	DB	00H
	DB	00H
	DB	00H
	DB	00H
	DB	00H
	DB	0fcH
	DB	0ffH
	DB	0ffH
	DB	0cH
	DB	00H
	DB	00H
	DB	00H
	DB	00H
	DB	00H
	DB	00H
	DB	00H
	DB	0fbH
	DB	0ffH
	DB	0ffH
	DB	0dH
	DB	0b4H
	DB	0bbH
	DB	0bbH
	DB	03bH
	DB	00H
	DB	00H
	DB	00H
	DB	0fcH
	DB	0ffH
	DB	0ffH
	DB	0dH
	DB	0f5H
	DB	0ffH
	DB	0ffH
	DB	06fH
	DB	00H
	DB	00H
	DB	00H
	DB	0feH
	DB	0ffH
	DB	0ffH
	DB	0cH
	DB	0f3H
	DB	0ffH
	DB	0ffH
	DB	0bfH
	DB	00H
	DB	00H
	DB	050H
	DB	0ffH
	DB	0ffH
	DB	0ffH
	DB	0aH
	DB	0e0H
	DB	0ffH
	DB	0ffH
	DB	0ffH
	DB	06H
	DB	00H
	DB	0d2H
	DB	0ffH
	DB	0ffH
	DB	0ffH
	DB	06H
	DB	090H
	DB	0ffH
	DB	0ffH
	DB	0ffH
	DB	0cfH
	DB	0a9H
	DB	0feH
	DB	0ffH
	DB	0ffH
	DB	0efH
	DB	01H
	DB	020H
	DB	0ffH
	DB	0ffH
	DB	0ffH
	DB	0ffH
	DB	0ffH
	DB	0ffH
	DB	0ffH
	DB	0ffH
	DB	07fH
	DB	00H
	DB	00H
	DB	0f6H
	DB	0ffH
	DB	0ffH
	DB	0ffH
	DB	0ffH
	DB	0ffH
	DB	0ffH
	DB	0ffH
	DB	0aH
	DB	00H
	DB	00H
	DB	070H
	DB	0ffH
	DB	0ffH
	DB	0ffH
	DB	0ffH
	DB	0ffH
	DB	0ffH
	DB	0afH
	DB	01H
	DB	00H
	DB	00H
	DB	00H
	DB	0d4H
	DB	0ffH
	DB	0ffH
	DB	0ffH
	DB	0ffH
	DB	0efH
	DB	06H
	DB	00H
	DB	00H
	DB	00H
	DB	00H
	DB	00H
	DB	095H
	DB	0edH
	DB	0efH
	DB	09dH
	DB	05H
	DB	00H
	DB	00H
	DB	00H
	DB	00H
	DB	00H
	DB	00H
	DB	00H
	DB	00H
	DB	095H
	DB	0ecH
	DB	0ffH
	DB	01H
	DB	00H
	DB	00H
	DB	00H
	DB	00H
	DB	00H
	DB	010H
	DB	0e7H
	DB	0ffH
	DB	0ffH
	DB	0ffH
	DB	01H
	DB	00H
	DB	00H
	DB	00H
	DB	00H
	DB	00H
	DB	0d3H
	DB	0ffH
	DB	0ffH
	DB	0ffH
	DB	0ffH
	DB	01H
	DB	00H
	DB	00H
	DB	00H
	DB	00H
	DB	060H
	DB	0ffH
	DB	0ffH
	DB	0ffH
	DB	0ffH
	DB	0ffH
	DB	01H
	DB	00H
	DB	00H
	DB	00H
	DB	00H
	DB	0f5H
	DB	0ffH
	DB	0ffH
	DB	0ffH
	DB	0ffH
	DB	0ffH
	DB	01H
	DB	00H
	DB	00H
	DB	00H
	DB	020H
	DB	0feH
	DB	0ffH
	DB	0ffH
	DB	0ffH
	DB	0dfH
	DB	0abH
	DB	00H
	DB	00H
	DB	00H
	DB	00H
	DB	0c0H
	DB	0ffH
	DB	0ffH
	DB	0ffH
	DB	08eH
	DB	02H
	DB	00H
	DB	00H
	DB	00H
	DB	00H
	DB	00H
	DB	0f5H
	DB	0ffH
	DB	0ffH
	DB	0cfH
	DB	02H
	DB	00H
	DB	00H
	DB	00H
	DB	00H
	DB	00H
	DB	00H
	DB	0fdH
	DB	0ffH
	DB	0ffH
	DB	01dH
	DB	00H
	DB	00H
	DB	00H
	DB	00H
	DB	00H
	DB	00H
	DB	030H
	DB	0ffH
	DB	0ffH
	DB	0ffH
	DB	04H
	DB	00H
	DB	00H
	DB	00H
	DB	00H
	DB	00H
	DB	00H
	DB	090H
	DB	0ffH
	DB	0ffH
	DB	0bfH
	DB	00H
	DB	063H
	DB	067H
	DB	03H
	DB	00H
	DB	00H
	DB	00H
	DB	0d0H
	DB	0ffH
	DB	0ffH
	DB	06fH
	DB	0d4H
	DB	0ffH
	DB	0ffH
	DB	0cfH
	DB	03H
	DB	00H
	DB	00H
	DB	0f1H
	DB	0ffH
	DB	0ffH
	DB	09fH
	DB	0ffH
	DB	0ffH
	DB	0ffH
	DB	0ffH
	DB	05fH
	DB	00H
	DB	00H
	DB	0f4H
	DB	0ffH
	DB	0ffH
	DB	0ffH
	DB	0ffH
	DB	0ffH
	DB	0ffH
	DB	0ffH
	DB	0ffH
	DB	03H
	DB	00H
	DB	0f6H
	DB	0ffH
	DB	0ffH
	DB	0ffH
	DB	0ffH
	DB	0ffH
	DB	0ffH
	DB	0ffH
	DB	0ffH
	DB	0cH
	DB	00H
	DB	0f8H
	DB	0ffH
	DB	0ffH
	DB	0ffH
	DB	0ffH
	DB	0ffH
	DB	0ffH
	DB	0ffH
	DB	0ffH
	DB	05fH
	DB	00H
	DB	0f9H
	DB	0ffH
	DB	0ffH
	DB	0ffH
	DB	02aH
	DB	041H
	DB	0feH
	DB	0ffH
	DB	0ffH
	DB	0bfH
	DB	00H
	DB	0f9H
	DB	0ffH
	DB	0ffH
	DB	0afH
	DB	00H
	DB	00H
	DB	0f3H
	DB	0ffH
	DB	0ffH
	DB	0ffH
	DB	01H
	DB	0faH
	DB	0ffH
	DB	0ffH
	DB	02fH
	DB	00H
	DB	00H
	DB	0a0H
	DB	0ffH
	DB	0ffH
	DB	0ffH
	DB	03H
	DB	0faH
	DB	0ffH
	DB	0ffH
	DB	0eH
	DB	00H
	DB	00H
	DB	050H
	DB	0ffH
	DB	0ffH
	DB	0ffH
	DB	06H
	DB	0faH
	DB	0ffH
	DB	0ffH
	DB	0eH
	DB	00H
	DB	00H
	DB	020H
	DB	0ffH
	DB	0ffH
	DB	0ffH
	DB	07H
	DB	0f9H
	DB	0ffH
	DB	0ffH
	DB	0eH
	DB	00H
	DB	00H
	DB	010H
	DB	0ffH
	DB	0ffH
	DB	0ffH
	DB	08H
	DB	0f8H
	DB	0ffH
	DB	0ffH
	DB	0fH
	DB	00H
	DB	00H
	DB	010H
	DB	0ffH
	DB	0ffH
	DB	0ffH
	DB	08H
	DB	0f7H
	DB	0ffH
	DB	0ffH
	DB	01fH
	DB	00H
	DB	00H
	DB	020H
	DB	0ffH
	DB	0ffH
	DB	0ffH
	DB	08H
	DB	0f4H
	DB	0ffH
	DB	0ffH
	DB	03fH
	DB	00H
	DB	00H
	DB	040H
	DB	0ffH
	DB	0ffH
	DB	0ffH
	DB	06H
	DB	0f1H
	DB	0ffH
	DB	0ffH
	DB	07fH
	DB	00H
	DB	00H
	DB	080H
	DB	0ffH
	DB	0ffH
	DB	0ffH
	DB	03H
	DB	0c0H
	DB	0ffH
	DB	0ffH
	DB	0dfH
	DB	00H
	DB	00H
	DB	0e0H
	DB	0ffH
	DB	0ffH
	DB	0efH
	DB	00H
	DB	070H
	DB	0ffH
	DB	0ffH
	DB	0ffH
	DB	08H
	DB	00H
	DB	0f9H
	DB	0ffH
	DB	0ffH
	DB	09fH
	DB	00H
	DB	010H
	DB	0feH
	DB	0ffH
	DB	0ffH
	DB	0cfH
	DB	0c9H
	DB	0ffH
	DB	0ffH
	DB	0ffH
	DB	03fH
	DB	00H
	DB	00H
	DB	0f6H
	DB	0ffH
	DB	0ffH
	DB	0ffH
	DB	0ffH
	DB	0ffH
	DB	0ffH
	DB	0ffH
	DB	09H
	DB	00H
	DB	00H
	DB	0b0H
	DB	0ffH
	DB	0ffH
	DB	0ffH
	DB	0ffH
	DB	0ffH
	DB	0ffH
	DB	0dfH
	DB	01H
	DB	00H
	DB	00H
	DB	010H
	DB	0fbH
	DB	0ffH
	DB	0ffH
	DB	0ffH
	DB	0ffH
	DB	0ffH
	DB	02dH
	DB	00H
	DB	00H
	DB	00H
	DB	00H
	DB	080H
	DB	0ffH
	DB	0ffH
	DB	0ffH
	DB	0ffH
	DB	0afH
	DB	01H
	DB	00H
	DB	00H
	DB	00H
	DB	00H
	DB	00H
	DB	072H
	DB	0dcH
	DB	0efH
	DB	08cH
	DB	03H
	DB	00H
	DB	00H
	DB	00H
	DB	0f6H
	DB	0ffH
	DB	0ffH
	DB	0ffH
	DB	0ffH
	DB	0ffH
	DB	0ffH
	DB	0ffH
	DB	0ffH
	DB	0ffH
	DB	04fH
	DB	0f6H
	DB	0ffH
	DB	0ffH
	DB	0ffH
	DB	0ffH
	DB	0ffH
	DB	0ffH
	DB	0ffH
	DB	0ffH
	DB	0ffH
	DB	04fH
	DB	0f6H
	DB	0ffH
	DB	0ffH
	DB	0ffH
	DB	0ffH
	DB	0ffH
	DB	0ffH
	DB	0ffH
	DB	0ffH
	DB	0ffH
	DB	04fH
	DB	0f6H
	DB	0ffH
	DB	0ffH
	DB	0ffH
	DB	0ffH
	DB	0ffH
	DB	0ffH
	DB	0ffH
	DB	0ffH
	DB	0ffH
	DB	04fH
	DB	0f6H
	DB	0ffH
	DB	0ffH
	DB	0ffH
	DB	0ffH
	DB	0ffH
	DB	0ffH
	DB	0ffH
	DB	0ffH
	DB	0ffH
	DB	01eH
	DB	083H
	DB	088H
	DB	088H
	DB	088H
	DB	088H
	DB	088H
	DB	088H
	DB	0feH
	DB	0ffH
	DB	0ffH
	DB	0aH
	DB	00H
	DB	00H
	DB	00H
	DB	00H
	DB	00H
	DB	00H
	DB	010H
	DB	0ffH
	DB	0ffH
	DB	0ffH
	DB	04H
	DB	00H
	DB	00H
	DB	00H
	DB	00H
	DB	00H
	DB	00H
	DB	070H
	DB	0ffH
	DB	0ffH
	DB	0efH
	DB	00H
	DB	00H
	DB	00H
	DB	00H
	DB	00H
	DB	00H
	DB	00H
	DB	0d0H
	DB	0ffH
	DB	0ffH
	DB	09fH
	DB	00H
	DB	00H
	DB	00H
	DB	00H
	DB	00H
	DB	00H
	DB	00H
	DB	0f3H
	DB	0ffH
	DB	0ffH
	DB	03fH
	DB	00H
	DB	00H
	DB	00H
	DB	00H
	DB	00H
	DB	00H
	DB	00H
	DB	0f9H
	DB	0ffH
	DB	0ffH
	DB	0dH
	DB	00H
	DB	00H
	DB	00H
	DB	00H
	DB	00H
	DB	00H
	DB	010H
	DB	0feH
	DB	0ffH
	DB	0ffH
	DB	08H
	DB	00H
	DB	00H
	DB	00H
	DB	00H
	DB	00H
	DB	00H
	DB	060H
	DB	0ffH
	DB	0ffH
	DB	0ffH
	DB	02H
	DB	00H
	DB	00H
	DB	00H
	DB	00H
	DB	00H
	DB	00H
	DB	0b0H
	DB	0ffH
	DB	0ffH
	DB	0cfH
	DB	00H
	DB	00H
	DB	00H
	DB	00H
	DB	00H
	DB	00H
	DB	00H
	DB	0f2H
	DB	0ffH
	DB	0ffH
	DB	07fH
	DB	00H
	DB	00H
	DB	00H
	DB	00H
	DB	00H
	DB	00H
	DB	00H
	DB	0f8H
	DB	0ffH
	DB	0ffH
	DB	01fH
	DB	00H
	DB	00H
	DB	00H
	DB	00H
	DB	00H
	DB	00H
	DB	00H
	DB	0fdH
	DB	0ffH
	DB	0ffH
	DB	0bH
	DB	00H
	DB	00H
	DB	00H
	DB	00H
	DB	00H
	DB	00H
	DB	040H
	DB	0ffH
	DB	0ffH
	DB	0ffH
	DB	05H
	DB	00H
	DB	00H
	DB	00H
	DB	00H
	DB	00H
	DB	00H
	DB	0a0H
	DB	0ffH
	DB	0ffH
	DB	0efH
	DB	01H
	DB	00H
	DB	00H
	DB	00H
	DB	00H
	DB	00H
	DB	00H
	DB	0f1H
	DB	0ffH
	DB	0ffH
	DB	0afH
	DB	00H
	DB	00H
	DB	00H
	DB	00H
	DB	00H
	DB	00H
	DB	00H
	DB	0f6H
	DB	0ffH
	DB	0ffH
	DB	04fH
	DB	00H
	DB	00H
	DB	00H
	DB	00H
	DB	00H
	DB	00H
	DB	00H
	DB	0fcH
	DB	0ffH
	DB	0ffH
	DB	0eH
	DB	00H
	DB	00H
	DB	00H
	DB	00H
	DB	00H
	DB	00H
	DB	030H
	DB	0ffH
	DB	0ffH
	DB	0ffH
	DB	09H
	DB	00H
	DB	00H
	DB	00H
	DB	00H
	DB	00H
	DB	00H
	DB	080H
	DB	0ffH
	DB	0ffH
	DB	0ffH
	DB	03H
	DB	00H
	DB	00H
	DB	00H
	DB	00H
	DB	00H
	DB	00H
	DB	0e0H
	DB	0ffH
	DB	0ffH
	DB	0dfH
	DB	00H
	DB	00H
	DB	00H
	DB	00H
	DB	00H
	DB	00H
	DB	00H
	DB	0f5H
	DB	0ffH
	DB	0ffH
	DB	08fH
	DB	00H
	DB	00H
	DB	00H
	DB	00H
	DB	00H
	DB	00H
	DB	00H
	DB	0faH
	DB	0ffH
	DB	0ffH
	DB	02fH
	DB	00H
	DB	00H
	DB	00H
	DB	00H
	DB	00H
	DB	00H
	DB	010H
	DB	0ffH
	DB	0ffH
	DB	0ffH
	DB	0cH
	DB	00H
	DB	00H
	DB	00H
	DB	00H
	DB	00H
	DB	00H
	DB	070H
	DB	0ffH
	DB	0ffH
	DB	0ffH
	DB	07H
	DB	00H
	DB	00H
	DB	00H
	DB	00H
	DB	00H
	DB	00H
	DB	0d0H
	DB	0ffH
	DB	0ffH
	DB	0ffH
	DB	01H
	DB	00H
	DB	00H
	DB	00H
	DB	00H
	DB	00H
	DB	00H
	DB	0f3H
	DB	0ffH
	DB	0ffH
	DB	0bfH
	DB	00H
	DB	00H
	DB	00H
	DB	00H
	DB	00H
	DB	00H
	DB	00H
	DB	0f9H
	DB	0ffH
	DB	0ffH
	DB	05fH
	DB	00H
	DB	00H
	DB	00H
	DB	00H
	DB	00H
	DB	00H
	DB	010H
	DB	0feH
	DB	0ffH
	DB	0ffH
	DB	01eH
	DB	00H
	DB	00H
	DB	00H
	DB	00H
	DB	00H
	DB	00H
	DB	050H
	DB	0ffH
	DB	0ffH
	DB	0ffH
	DB	0aH
	DB	00H
	DB	00H
	DB	00H
	DB	00H
	DB	00H
	DB	00H
	DB	00H
	DB	010H
	DB	0b7H
	DB	0edH
	DB	0dfH
	DB	08bH
	DB	02H
	DB	00H
	DB	00H
	DB	00H
	DB	00H
	DB	0e7H
	DB	0ffH
	DB	0ffH
	DB	0ffH
	DB	0ffH
	DB	0afH
	DB	01H
	DB	00H
	DB	00H
	DB	0b0H
	DB	0ffH
	DB	0ffH
	DB	0ffH
	DB	0ffH
	DB	0ffH
	DB	0ffH
	DB	02dH
	DB	00H
	DB	00H
	DB	0f9H
	DB	0ffH
	DB	0ffH
	DB	0ffH
	DB	0ffH
	DB	0ffH
	DB	0ffH
	DB	0cfH
	DB	00H
	DB	030H
	DB	0ffH
	DB	0ffH
	DB	0ffH
	DB	0ffH
	DB	0ffH
	DB	0ffH
	DB	0ffH
	DB	0ffH
	DB	06H
	DB	090H
	DB	0ffH
	DB	0ffH
	DB	0ffH
	DB	0afH
	DB	0e9H
	DB	0ffH
	DB	0ffH
	DB	0ffH
	DB	0dH
	DB	0d0H
	DB	0ffH
	DB	0ffH
	DB	0ffH
	DB	05H
	DB	010H
	DB	0feH
	DB	0ffH
	DB	0ffH
	DB	02fH
	DB	0f0H
	DB	0ffH
	DB	0ffH
	DB	0cfH
	DB	00H
	DB	00H
	DB	0f8H
	DB	0ffH
	DB	0ffH
	DB	04fH
	DB	0f1H
	DB	0ffH
	DB	0ffH
	DB	09fH
	DB	00H
	DB	00H
	DB	0f5H
	DB	0ffH
	DB	0ffH
	DB	05fH
	DB	0f1H
	DB	0ffH
	DB	0ffH
	DB	09fH
	DB	00H
	DB	00H
	DB	0f4H
	DB	0ffH
	DB	0ffH
	DB	05fH
	DB	0e0H
	DB	0ffH
	DB	0ffH
	DB	0afH
	DB	00H
	DB	00H
	DB	0f6H
	DB	0ffH
	DB	0ffH
	DB	03fH
	DB	0a0H
	DB	0ffH
	DB	0ffH
	DB	0efH
	DB	01H
	DB	00H
	DB	0fbH
	DB	0ffH
	DB	0ffH
	DB	0dH
	DB	040H
	DB	0ffH
	DB	0ffH
	DB	0ffH
	DB	02aH
	DB	061H
	DB	0ffH
	DB	0ffH
	DB	0ffH
	DB	07H
	DB	00H
	DB	0f8H
	DB	0ffH
	DB	0ffH
	DB	0ffH
	DB	0ffH
	DB	0ffH
	DB	0ffH
	DB	0bfH
	DB	00H
	DB	00H
	DB	0a0H
	DB	0ffH
	DB	0ffH
	DB	0ffH
	DB	0ffH
	DB	0ffH
	DB	0ffH
	DB	01cH
	DB	00H
	DB	00H
	DB	00H
	DB	0f8H
	DB	0ffH
	DB	0ffH
	DB	0ffH
	DB	0ffH
	DB	0bfH
	DB	00H
	DB	00H
	DB	00H
	DB	050H
	DB	0feH
	DB	0ffH
	DB	0ffH
	DB	0ffH
	DB	0ffH
	DB	0ffH
	DB	07H
	DB	00H
	DB	00H
	DB	0f5H
	DB	0ffH
	DB	0ffH
	DB	0ffH
	DB	0ffH
	DB	0ffH
	DB	0ffH
	DB	08fH
	DB	00H
	DB	020H
	DB	0feH
	DB	0ffH
	DB	0ffH
	DB	0aeH
	DB	0e9H
	DB	0ffH
	DB	0ffH
	DB	0ffH
	DB	05H
	DB	0b0H
	DB	0ffH
	DB	0ffH
	DB	0efH
	DB	03H
	DB	010H
	DB	0fcH
	DB	0ffH
	DB	0ffH
	DB	01eH
	DB	0f2H
	DB	0ffH
	DB	0ffH
	DB	07fH
	DB	00H
	DB	00H
	DB	0f4H
	DB	0ffH
	DB	0ffH
	DB	05fH
	DB	0f6H
	DB	0ffH
	DB	0ffH
	DB	02fH
	DB	00H
	DB	00H
	DB	0e0H
	DB	0ffH
	DB	0ffH
	DB	0afH
	DB	0f9H
	DB	0ffH
	DB	0ffH
	DB	0fH
	DB	00H
	DB	00H
	DB	0c0H
	DB	0ffH
	DB	0ffH
	DB	0cfH
	DB	0faH
	DB	0ffH
	DB	0ffH
	DB	0eH
	DB	00H
	DB	00H
	DB	0b0H
	DB	0ffH
	DB	0ffH
	DB	0efH
	DB	0faH
	DB	0ffH
	DB	0ffH
	DB	0fH
	DB	00H
	DB	00H
	DB	0c0H
	DB	0ffH
	DB	0ffH
	DB	0efH
	DB	0f9H
	DB	0ffH
	DB	0ffH
	DB	02fH
	DB	00H
	DB	00H
	DB	0e0H
	DB	0ffH
	DB	0ffH
	DB	0cfH
	DB	0f7H
	DB	0ffH
	DB	0ffH
	DB	07fH
	DB	00H
	DB	00H
	DB	0f3H
	DB	0ffH
	DB	0ffH
	DB	0afH
	DB	0f3H
	DB	0ffH
	DB	0ffH
	DB	0efH
	DB	02H
	DB	010H
	DB	0fcH
	DB	0ffH
	DB	0ffH
	DB	07fH
	DB	0d0H
	DB	0ffH
	DB	0ffH
	DB	0ffH
	DB	0aeH
	DB	0d9H
	DB	0ffH
	DB	0ffH
	DB	0ffH
	DB	02fH
	DB	060H
	DB	0ffH
	DB	0ffH
	DB	0ffH
	DB	0ffH
	DB	0ffH
	DB	0ffH
	DB	0ffH
	DB	0ffH
	DB	0aH
	DB	00H
	DB	0faH
	DB	0ffH
	DB	0ffH
	DB	0ffH
	DB	0ffH
	DB	0ffH
	DB	0ffH
	DB	0dfH
	DB	01H
	DB	00H
	DB	0b1H
	DB	0ffH
	DB	0ffH
	DB	0ffH
	DB	0ffH
	DB	0ffH
	DB	0ffH
	DB	03dH
	DB	00H
	DB	00H
	DB	00H
	DB	0e8H
	DB	0ffH
	DB	0ffH
	DB	0ffH
	DB	0ffH
	DB	0afH
	DB	01H
	DB	00H
	DB	00H
	DB	00H
	DB	010H
	DB	0b7H
	DB	0edH
	DB	0efH
	DB	08cH
	DB	03H
	DB	00H
	DB	00H
	DB	00H
	DB	00H
	DB	040H
	DB	0c9H
	DB	0feH
	DB	0deH
	DB	059H
	DB	00H
	DB	00H
	DB	00H
	DB	00H
	DB	030H
	DB	0fcH
	DB	0ffH
	DB	0ffH
	DB	0ffH
	DB	0ffH
	DB	04dH
	DB	00H
	DB	00H
	DB	00H
	DB	0e4H
	DB	0ffH
	DB	0ffH
	DB	0ffH
	DB	0ffH
	DB	0ffH
	DB	0ffH
	DB	05H
	DB	00H
	DB	020H
	DB	0feH
	DB	0ffH
	DB	0ffH
	DB	0ffH
	DB	0ffH
	DB	0ffH
	DB	0ffH
	DB	03fH
	DB	00H
	DB	0b0H
	DB	0ffH
	DB	0ffH
	DB	0ffH
	DB	0ffH
	DB	0ffH
	DB	0ffH
	DB	0ffH
	DB	0bfH
	DB	00H
	DB	0f2H
	DB	0ffH
	DB	0ffH
	DB	0ffH
	DB	0adH
	DB	0fdH
	DB	0ffH
	DB	0ffH
	DB	0ffH
	DB	02H
	DB	0f7H
	DB	0ffH
	DB	0ffH
	DB	0bfH
	DB	00H
	DB	0b0H
	DB	0ffH
	DB	0ffH
	DB	0ffH
	DB	06H
	DB	0faH
	DB	0ffH
	DB	0ffH
	DB	03fH
	DB	00H
	DB	040H
	DB	0ffH
	DB	0ffH
	DB	0ffH
	DB	08H
	DB	0fbH
	DB	0ffH
	DB	0ffH
	DB	0eH
	DB	00H
	DB	010H
	DB	0ffH
	DB	0ffH
	DB	0ffH
	DB	0aH
	DB	065H
	DB	066H
	DB	066H
	DB	05H
	DB	00H
	DB	00H
	DB	0ffH
	DB	0ffH
	DB	0ffH
	DB	09H
	DB	00H
	DB	00H
	DB	00H
	DB	00H
	DB	00H
	DB	020H
	DB	0ffH
	DB	0ffH
	DB	0ffH
	DB	07H
	DB	00H
	DB	00H
	DB	00H
	DB	00H
	DB	00H
	DB	070H
	DB	0ffH
	DB	0ffH
	DB	0ffH
	DB	03H
	DB	00H
	DB	00H
	DB	00H
	DB	00H
	DB	00H
	DB	0e1H
	DB	0ffH
	DB	0ffH
	DB	0dfH
	DB	00H
	DB	00H
	DB	00H
	DB	00H
	DB	00H
	DB	00H
	DB	0fbH
	DB	0ffH
	DB	0ffH
	DB	05fH
	DB	00H
	DB	00H
	DB	00H
	DB	00H
	DB	00H
	DB	0a0H
	DB	0ffH
	DB	0ffH
	DB	0ffH
	DB	0aH
	DB	00H
	DB	00H
	DB	00H
	DB	00H
	DB	00H
	DB	0f7H
	DB	0ffH
	DB	0ffH
	DB	0dfH
	DB	01H
	DB	00H
	DB	00H
	DB	00H
	DB	00H
	DB	040H
	DB	0ffH
	DB	0ffH
	DB	0ffH
	DB	02dH
	DB	00H
	DB	00H
	DB	00H
	DB	00H
	DB	00H
	DB	0c0H
	DB	0ffH
	DB	0ffH
	DB	0efH
	DB	03H
	DB	00H
	DB	00H
	DB	00H
	DB	00H
	DB	00H
	DB	0f4H
	DB	0ffH
	DB	0ffH
	DB	05fH
	DB	00H
	DB	00H
	DB	00H
	DB	00H
	DB	00H
	DB	00H
	DB	0f8H
	DB	0ffH
	DB	0ffH
	DB	0bH
	DB	00H
	DB	00H
	DB	00H
	DB	00H
	DB	00H
	DB	00H
	DB	0fbH
	DB	0ffH
	DB	0ffH
	DB	05H
	DB	00H
	DB	00H
	DB	00H
	DB	00H
	DB	00H
	DB	00H
	DB	0fcH
	DB	0ffH
	DB	0ffH
	DB	01H
	DB	00H
	DB	00H
	DB	00H
	DB	00H
	DB	00H
	DB	00H
	DB	0fdH
	DB	0ffH
	DB	0ffH
	DB	00H
	DB	00H
	DB	00H
	DB	00H
	DB	00H
	DB	00H
	DB	00H
	DB	054H
	DB	055H
	DB	055H
	DB	00H
	DB	00H
	DB	00H
	DB	00H
	DB	00H
	DB	00H
	DB	00H
	DB	00H
	DB	00H
	DB	00H
	DB	00H
	DB	00H
	DB	00H
	DB	00H
	DB	00H
	DB	00H
	DB	00H
	DB	00H
	DB	00H
	DB	00H
	DB	00H
	DB	00H
	DB	00H
	DB	00H
	DB	00H
	DB	00H
	DB	00H
	DB	00H
	DB	033H
	DB	01H
	DB	00H
	DB	00H
	DB	00H
	DB	00H
	DB	00H
	DB	00H
	DB	00H
	DB	0d3H
	DB	0ffH
	DB	06eH
	DB	00H
	DB	00H
	DB	00H
	DB	00H
	DB	00H
	DB	00H
	DB	010H
	DB	0feH
	DB	0ffH
	DB	0ffH
	DB	04H
	DB	00H
	DB	00H
	DB	00H
	DB	00H
	DB	00H
	DB	060H
	DB	0ffH
	DB	0ffH
	DB	0ffH
	DB	0aH
	DB	00H
	DB	00H
	DB	00H
	DB	00H
	DB	00H
	DB	070H
	DB	0ffH
	DB	0ffH
	DB	0ffH
	DB	0bH
	DB	00H
	DB	00H
	DB	00H
	DB	00H
	DB	00H
	DB	040H
	DB	0ffH
	DB	0ffH
	DB	0ffH
	DB	08H
	DB	00H
	DB	00H
	DB	00H
	DB	00H
	DB	00H
	DB	00H
	DB	0fcH
	DB	0ffH
	DB	0efH
	DB	02H
	DB	00H
	DB	00H
	DB	00H
	DB	00H
	DB	00H
	DB	00H
	DB	0a1H
	DB	0feH
	DB	03bH
	DB	00H
	DB	00H
	DB	00H
	DB	00H
	DB	0f4H
	DB	0ffH
	DB	0ffH
	DB	0ffH
	DB	0ffH
	DB	0deH
	DB	08bH
	DB	03H
	DB	00H
	DB	00H
	DB	00H
	DB	00H
	DB	0f4H
	DB	0ffH
	DB	0ffH
	DB	0ffH
	DB	0ffH
	DB	0ffH
	DB	0ffH
	DB	0dfH
	DB	05H
	DB	00H
	DB	00H
	DB	00H
	DB	0f4H
	DB	0ffH
	DB	0ffH
	DB	0ffH
	DB	0ffH
	DB	0ffH
	DB	0ffH
	DB	0ffH
	DB	0bfH
	DB	01H
	DB	00H
	DB	00H
	DB	0f4H
	DB	0ffH
	DB	0ffH
	DB	0ffH
	DB	0ffH
	DB	0ffH
	DB	0ffH
	DB	0ffH
	DB	0ffH
	DB	02cH
	DB	00H
	DB	00H
	DB	0f4H
	DB	0ffH
	DB	0ffH
	DB	0ffH
	DB	0ffH
	DB	0ffH
	DB	0ffH
	DB	0ffH
	DB	0ffH
	DB	0cfH
	DB	00H
	DB	00H
	DB	0f4H
	DB	0ffH
	DB	0ffH
	DB	0efH
	DB	0ccH
	DB	0edH
	DB	0ffH
	DB	0ffH
	DB	0ffH
	DB	0ffH
	DB	09H
	DB	00H
	DB	0f4H
	DB	0ffH
	DB	0ffH
	DB	0afH
	DB	00H
	DB	00H
	DB	0a3H
	DB	0ffH
	DB	0ffH
	DB	0ffH
	DB	02fH
	DB	00H
	DB	0f4H
	DB	0ffH
	DB	0ffH
	DB	0afH
	DB	00H
	DB	00H
	DB	00H
	DB	0f8H
	DB	0ffH
	DB	0ffH
	DB	09fH
	DB	00H
	DB	0f4H
	DB	0ffH
	DB	0ffH
	DB	0afH
	DB	00H
	DB	00H
	DB	00H
	DB	0d0H
	DB	0ffH
	DB	0ffH
	DB	0ffH
	DB	01H
	DB	0f4H
	DB	0ffH
	DB	0ffH
	DB	0afH
	DB	00H
	DB	00H
	DB	00H
	DB	080H
	DB	0ffH
	DB	0ffH
	DB	0ffH
	DB	04H
	DB	0f4H
	DB	0ffH
	DB	0ffH
	DB	0afH
	DB	00H
	DB	00H
	DB	00H
	DB	040H
	DB	0ffH
	DB	0ffH
	DB	0ffH
	DB	08H
	DB	0f4H
	DB	0ffH
	DB	0ffH
	DB	0afH
	DB	00H
	DB	00H
	DB	00H
	DB	020H
	DB	0ffH
	DB	0ffH
	DB	0ffH
	DB	0bH
	DB	0f4H
	DB	0ffH
	DB	0ffH
	DB	0afH
	DB	00H
	DB	00H
	DB	00H
	DB	010H
	DB	0ffH
	DB	0ffH
	DB	0ffH
	DB	0cH
	DB	0f4H
	DB	0ffH
	DB	0ffH
	DB	0afH
	DB	00H
	DB	00H
	DB	00H
	DB	00H
	DB	0ffH
	DB	0ffH
	DB	0ffH
	DB	0dH
	DB	0f4H
	DB	0ffH
	DB	0ffH
	DB	0afH
	DB	00H
	DB	00H
	DB	00H
	DB	00H
	DB	0ffH
	DB	0ffH
	DB	0ffH
	DB	0eH
	DB	0f4H
	DB	0ffH
	DB	0ffH
	DB	0afH
	DB	00H
	DB	00H
	DB	00H
	DB	00H
	DB	0ffH
	DB	0ffH
	DB	0ffH
	DB	0eH
	DB	0f4H
	DB	0ffH
	DB	0ffH
	DB	0afH
	DB	00H
	DB	00H
	DB	00H
	DB	00H
	DB	0ffH
	DB	0ffH
	DB	0ffH
	DB	0eH
	DB	0f4H
	DB	0ffH
	DB	0ffH
	DB	0afH
	DB	00H
	DB	00H
	DB	00H
	DB	00H
	DB	0ffH
	DB	0ffH
	DB	0ffH
	DB	0eH
	DB	0f4H
	DB	0ffH
	DB	0ffH
	DB	0afH
	DB	00H
	DB	00H
	DB	00H
	DB	00H
	DB	0ffH
	DB	0ffH
	DB	0ffH
	DB	0eH
	DB	0f4H
	DB	0ffH
	DB	0ffH
	DB	0afH
	DB	00H
	DB	00H
	DB	00H
	DB	00H
	DB	0ffH
	DB	0ffH
	DB	0ffH
	DB	0eH
	DB	0f4H
	DB	0ffH
	DB	0ffH
	DB	0afH
	DB	00H
	DB	00H
	DB	00H
	DB	00H
	DB	0ffH
	DB	0ffH
	DB	0ffH
	DB	0dH
	DB	0f4H
	DB	0ffH
	DB	0ffH
	DB	0afH
	DB	00H
	DB	00H
	DB	00H
	DB	010H
	DB	0ffH
	DB	0ffH
	DB	0ffH
	DB	0cH
	DB	0f4H
	DB	0ffH
	DB	0ffH
	DB	0afH
	DB	00H
	DB	00H
	DB	00H
	DB	020H
	DB	0ffH
	DB	0ffH
	DB	0ffH
	DB	0bH
	DB	0f4H
	DB	0ffH
	DB	0ffH
	DB	0afH
	DB	00H
	DB	00H
	DB	00H
	DB	040H
	DB	0ffH
	DB	0ffH
	DB	0ffH
	DB	08H
	DB	0f4H
	DB	0ffH
	DB	0ffH
	DB	0afH
	DB	00H
	DB	00H
	DB	00H
	DB	080H
	DB	0ffH
	DB	0ffH
	DB	0ffH
	DB	05H
	DB	0f4H
	DB	0ffH
	DB	0ffH
	DB	0afH
	DB	00H
	DB	00H
	DB	00H
	DB	0d0H
	DB	0ffH
	DB	0ffH
	DB	0ffH
	DB	01H
	DB	0f4H
	DB	0ffH
	DB	0ffH
	DB	0afH
	DB	00H
	DB	00H
	DB	00H
	DB	0f8H
	DB	0ffH
	DB	0ffH
	DB	0afH
	DB	00H
	DB	0f4H
	DB	0ffH
	DB	0ffH
	DB	0afH
	DB	00H
	DB	00H
	DB	0a3H
	DB	0ffH
	DB	0ffH
	DB	0ffH
	DB	03fH
	DB	00H
	DB	0f4H
	DB	0ffH
	DB	0ffH
	DB	0efH
	DB	0bbH
	DB	0ecH
	DB	0ffH
	DB	0ffH
	DB	0ffH
	DB	0ffH
	DB	09H
	DB	00H
	DB	0f4H
	DB	0ffH
	DB	0ffH
	DB	0ffH
	DB	0ffH
	DB	0ffH
	DB	0ffH
	DB	0ffH
	DB	0ffH
	DB	0cfH
	DB	01H
	DB	00H
	DB	0f4H
	DB	0ffH
	DB	0ffH
	DB	0ffH
	DB	0ffH
	DB	0ffH
	DB	0ffH
	DB	0ffH
	DB	0ffH
	DB	02dH
	DB	00H
	DB	00H
	DB	0f4H
	DB	0ffH
	DB	0ffH
	DB	0ffH
	DB	0ffH
	DB	0ffH
	DB	0ffH
	DB	0ffH
	DB	0bfH
	DB	01H
	DB	00H
	DB	00H
	DB	0f4H
	DB	0ffH
	DB	0ffH
	DB	0ffH
	DB	0ffH
	DB	0ffH
	DB	0ffH
	DB	0dfH
	DB	05H
	DB	00H
	DB	00H
	DB	00H
	DB	0f4H
	DB	0ffH
	DB	0ffH
	DB	0ffH
	DB	0ffH
	DB	0deH
	DB	07bH
	DB	03H
	DB	00H
	DB	00H
	DB	00H
	DB	00H
	DB	0f4H
	DB	0ffH
	DB	0ffH
	DB	0dfH
	DB	00H
	DB	00H
	DB	00H
	DB	00H
	DB	040H
	DB	0ffH
	DB	0ffH
	DB	0ffH
	DB	09H
	DB	0f4H
	DB	0ffH
	DB	0ffH
	DB	0ffH
	DB	05H
	DB	00H
	DB	00H
	DB	00H
	DB	040H
	DB	0ffH
	DB	0ffH
	DB	0ffH
	DB	09H
	DB	0f4H
	DB	0ffH
	DB	0ffH
	DB	0ffH
	DB	0cH
	DB	00H
	DB	00H
	DB	00H
	DB	040H
	DB	0ffH
	DB	0ffH
	DB	0ffH
	DB	09H
	DB	0f4H
	DB	0ffH
	DB	0ffH
	DB	0ffH
	DB	03fH
	DB	00H
	DB	00H
	DB	00H
	DB	040H
	DB	0ffH
	DB	0ffH
	DB	0ffH
	DB	09H
	DB	0f4H
	DB	0ffH
	DB	0ffH
	DB	0ffH
	DB	0afH
	DB	00H
	DB	00H
	DB	00H
	DB	040H
	DB	0ffH
	DB	0ffH
	DB	0ffH
	DB	09H
	DB	0f4H
	DB	0ffH
	DB	0ffH
	DB	0ffH
	DB	0ffH
	DB	02H
	DB	00H
	DB	00H
	DB	040H
	DB	0ffH
	DB	0ffH
	DB	0ffH
	DB	09H
	DB	0f4H
	DB	0ffH
	DB	0ffH
	DB	0ffH
	DB	0ffH
	DB	09H
	DB	00H
	DB	00H
	DB	040H
	DB	0ffH
	DB	0ffH
	DB	0ffH
	DB	09H
	DB	0f4H
	DB	0ffH
	DB	0ffH
	DB	0ffH
	DB	0ffH
	DB	01eH
	DB	00H
	DB	00H
	DB	040H
	DB	0ffH
	DB	0ffH
	DB	0ffH
	DB	09H
	DB	0f4H
	DB	0ffH
	DB	0ffH
	DB	0ffH
	DB	0ffH
	DB	07fH
	DB	00H
	DB	00H
	DB	040H
	DB	0ffH
	DB	0ffH
	DB	0ffH
	DB	09H
	DB	0f4H
	DB	0ffH
	DB	0ffH
	DB	0ffH
	DB	0ffH
	DB	0efH
	DB	00H
	DB	00H
	DB	040H
	DB	0ffH
	DB	0ffH
	DB	0ffH
	DB	09H
	DB	0f4H
	DB	0ffH
	DB	0ffH
	DB	0ffH
	DB	0ffH
	DB	0ffH
	DB	06H
	DB	00H
	DB	040H
	DB	0ffH
	DB	0ffH
	DB	0ffH
	DB	09H
	DB	0f4H
	DB	0ffH
	DB	0ffH
	DB	0ffH
	DB	0ffH
	DB	0ffH
	DB	0dH
	DB	00H
	DB	040H
	DB	0ffH
	DB	0ffH
	DB	0ffH
	DB	09H
	DB	0f4H
	DB	0ffH
	DB	0ffH
	DB	0afH
	DB	0feH
	DB	0ffH
	DB	04fH
	DB	00H
	DB	040H
	DB	0ffH
	DB	0ffH
	DB	0ffH
	DB	09H
	DB	0f4H
	DB	0ffH
	DB	0ffH
	DB	0afH
	DB	0f8H
	DB	0ffH
	DB	0bfH
	DB	00H
	DB	040H
	DB	0ffH
	DB	0ffH
	DB	0ffH
	DB	09H
	DB	0f4H
	DB	0ffH
	DB	0ffH
	DB	0afH
	DB	0f2H
	DB	0ffH
	DB	0ffH
	DB	03H
	DB	040H
	DB	0ffH
	DB	0ffH
	DB	0ffH
	DB	09H
	DB	0f4H
	DB	0ffH
	DB	0ffH
	DB	0afH
	DB	0a0H
	DB	0ffH
	DB	0ffH
	DB	0aH
	DB	040H
	DB	0ffH
	DB	0ffH
	DB	0ffH
	DB	09H
	DB	0f4H
	DB	0ffH
	DB	0ffH
	DB	0afH
	DB	030H
	DB	0ffH
	DB	0ffH
	DB	02fH
	DB	040H
	DB	0ffH
	DB	0ffH
	DB	0ffH
	DB	09H
	DB	0f4H
	DB	0ffH
	DB	0ffH
	DB	0afH
	DB	00H
	DB	0fbH
	DB	0ffH
	DB	08fH
	DB	040H
	DB	0ffH
	DB	0ffH
	DB	0ffH
	DB	09H
	DB	0f4H
	DB	0ffH
	DB	0ffH
	DB	0afH
	DB	00H
	DB	0f4H
	DB	0ffH
	DB	0efH
	DB	041H
	DB	0ffH
	DB	0ffH
	DB	0ffH
	DB	09H
	DB	0f4H
	DB	0ffH
	DB	0ffH
	DB	0afH
	DB	00H
	DB	0d0H
	DB	0ffH
	DB	0ffH
	DB	047H
	DB	0ffH
	DB	0ffH
	DB	0ffH
	DB	09H
	DB	0f4H
	DB	0ffH
	DB	0ffH
	DB	0afH
	DB	00H
	DB	060H
	DB	0ffH
	DB	0ffH
	DB	04dH
	DB	0ffH
	DB	0ffH
	DB	0ffH
	DB	09H
	DB	0f4H
	DB	0ffH
	DB	0ffH
	DB	0afH
	DB	00H
	DB	00H
	DB	0feH
	DB	0ffH
	DB	09fH
	DB	0ffH
	DB	0ffH
	DB	0ffH
	DB	09H
	DB	0f4H
	DB	0ffH
	DB	0ffH
	DB	0afH
	DB	00H
	DB	00H
	DB	0f7H
	DB	0ffH
	DB	0ffH
	DB	0ffH
	DB	0ffH
	DB	0ffH
	DB	09H
	DB	0f4H
	DB	0ffH
	DB	0ffH
	DB	0afH
	DB	00H
	DB	00H
	DB	0e1H
	DB	0ffH
	DB	0ffH
	DB	0ffH
	DB	0ffH
	DB	0ffH
	DB	09H
	DB	0f4H
	DB	0ffH
	DB	0ffH
	DB	0afH
	DB	00H
	DB	00H
	DB	090H
	DB	0ffH
	DB	0ffH
	DB	0ffH
	DB	0ffH
	DB	0ffH
	DB	09H
	DB	0f4H
	DB	0ffH
	DB	0ffH
	DB	0afH
	DB	00H
	DB	00H
	DB	020H
	DB	0ffH
	DB	0ffH
	DB	0ffH
	DB	0ffH
	DB	0ffH
	DB	09H
	DB	0f4H
	DB	0ffH
	DB	0ffH
	DB	0afH
	DB	00H
	DB	00H
	DB	00H
	DB	0faH
	DB	0ffH
	DB	0ffH
	DB	0ffH
	DB	0ffH
	DB	09H
	DB	0f4H
	DB	0ffH
	DB	0ffH
	DB	0afH
	DB	00H
	DB	00H
	DB	00H
	DB	0f3H
	DB	0ffH
	DB	0ffH
	DB	0ffH
	DB	0ffH
	DB	09H
	DB	0f4H
	DB	0ffH
	DB	0ffH
	DB	0afH
	DB	00H
	DB	00H
	DB	00H
	DB	0c0H
	DB	0ffH
	DB	0ffH
	DB	0ffH
	DB	0ffH
	DB	09H
	DB	0f4H
	DB	0ffH
	DB	0ffH
	DB	0afH
	DB	00H
	DB	00H
	DB	00H
	DB	050H
	DB	0ffH
	DB	0ffH
	DB	0ffH
	DB	0ffH
	DB	09H
	DB	0f4H
	DB	0ffH
	DB	0ffH
	DB	0afH
	DB	00H
	DB	00H
	DB	00H
	DB	00H
	DB	0fdH
	DB	0ffH
	DB	0ffH
	DB	0ffH
	DB	09H
	DB	0f4H
	DB	0ffH
	DB	0ffH
	DB	0afH
	DB	00H
	DB	00H
	DB	00H
	DB	00H
	DB	0f6H
	DB	0ffH
	DB	0ffH
	DB	0ffH
	DB	09H
	DB	0f4H
	DB	0ffH
	DB	0ffH
	DB	0afH
	DB	00H
	DB	00H
	DB	00H
	DB	00H
	DB	0e1H
	DB	0ffH
	DB	0ffH
	DB	0ffH
	DB	09H
	DB	0f4H
	DB	0ffH
	DB	0ffH
	DB	0afH
	DB	00H
	DB	00H
	DB	00H
	DB	00H
	DB	080H
	DB	0ffH
	DB	0ffH
	DB	0ffH
	DB	09H
	DB	00H
	DB	00H
	DB	00H
	DB	020H
	DB	0a7H
	DB	0edH
	DB	0efH
	DB	09cH
	DB	05H
	DB	00H
	DB	00H
	DB	00H
	DB	00H
	DB	00H
	DB	020H
	DB	0faH
	DB	0ffH
	DB	0ffH
	DB	0ffH
	DB	0ffH
	DB	0dfH
	DB	06H
	DB	00H
	DB	00H
	DB	00H
	DB	00H
	DB	0e5H
	DB	0ffH
	DB	0ffH
	DB	0ffH
	DB	0ffH
	DB	0ffH
	DB	0ffH
	DB	0afH
	DB	01H
	DB	00H
	DB	00H
	DB	050H
	DB	0ffH
	DB	0ffH
	DB	0ffH
	DB	0ffH
	DB	0ffH
	DB	0ffH
	DB	0ffH
	DB	0ffH
	DB	0bH
	DB	00H
	DB	00H
	DB	0e2H
	DB	0ffH
	DB	0ffH
	DB	0ffH
	DB	0ffH
	DB	0ffH
	DB	0ffH
	DB	0ffH
	DB	0ffH
	DB	07fH
	DB	00H
	DB	00H
	DB	0faH
	DB	0ffH
	DB	0ffH
	DB	0ffH
	DB	0cfH
	DB	0dbH
	DB	0ffH
	DB	0ffH
	DB	0ffH
	DB	0efH
	DB	01H
	DB	010H
	DB	0feH
	DB	0ffH
	DB	0ffH
	DB	0bfH
	DB	01H
	DB	00H
	DB	0e4H
	DB	0ffH
	DB	0ffH
	DB	0ffH
	DB	07H
	DB	040H
	DB	0ffH
	DB	0ffH
	DB	0ffH
	DB	01eH
	DB	00H
	DB	00H
	DB	060H
	DB	0ffH
	DB	0ffH
	DB	0ffH
	DB	0cH
	DB	050H
	DB	0ffH
	DB	0ffH
	DB	0ffH
	DB	09H
	DB	00H
	DB	00H
	DB	00H
	DB	0feH
	DB	0ffH
	DB	0ffH
	DB	0eH
	DB	060H
	DB	0ffH
	DB	0ffH
	DB	0ffH
	DB	08H
	DB	00H
	DB	00H
	DB	00H
	DB	0fcH
	DB	0ffH
	DB	0ffH
	DB	01fH
	DB	050H
	DB	0ffH
	DB	0ffH
	DB	0ffH
	DB	0aH
	DB	00H
	DB	00H
	DB	00H
	DB	054H
	DB	055H
	DB	055H
	DB	015H
	DB	020H
	DB	0ffH
	DB	0ffH
	DB	0ffH
	DB	04fH
	DB	00H
	DB	00H
	DB	00H
	DB	00H
	DB	00H
	DB	00H
	DB	00H
	DB	00H
	DB	0fcH
	DB	0ffH
	DB	0ffH
	DB	0efH
	DB	06H
	DB	00H
	DB	00H
	DB	00H
	DB	00H
	DB	00H
	DB	00H
	DB	00H
	DB	0f5H
	DB	0ffH
	DB	0ffH
	DB	0ffH
	DB	0cfH
	DB	04H
	DB	00H
	DB	00H
	DB	00H
	DB	00H
	DB	00H
	DB	00H
	DB	0a0H
	DB	0ffH
	DB	0ffH
	DB	0ffH
	DB	0ffH
	DB	0dfH
	DB	017H
	DB	00H
	DB	00H
	DB	00H
	DB	00H
	DB	00H
	DB	010H
	DB	0fbH
	DB	0ffH
	DB	0ffH
	DB	0ffH
	DB	0ffH
	DB	0ffH
	DB	019H
	DB	00H
	DB	00H
	DB	00H
	DB	00H
	DB	00H
	DB	090H
	DB	0ffH
	DB	0ffH
	DB	0ffH
	DB	0ffH
	DB	0ffH
	DB	0efH
	DB	07H
	DB	00H
	DB	00H
	DB	00H
	DB	00H
	DB	00H
	DB	0d4H
	DB	0ffH
	DB	0ffH
	DB	0ffH
	DB	0ffH
	DB	0ffH
	DB	0bfH
	DB	01H
	DB	00H
	DB	00H
	DB	00H
	DB	00H
	DB	00H
	DB	0c6H
	DB	0ffH
	DB	0ffH
	DB	0ffH
	DB	0ffH
	DB	0ffH
	DB	0cH
	DB	00H
	DB	00H
	DB	00H
	DB	00H
	DB	00H
	DB	00H
	DB	0a3H
	DB	0ffH
	DB	0ffH
	DB	0ffH
	DB	0ffH
	DB	09fH
	DB	00H
	DB	00H
	DB	00H
	DB	00H
	DB	00H
	DB	00H
	DB	00H
	DB	091H
	DB	0ffH
	DB	0ffH
	DB	0ffH
	DB	0ffH
	DB	02H
	DB	00H
	DB	00H
	DB	00H
	DB	00H
	DB	00H
	DB	00H
	DB	00H
	DB	0e3H
	DB	0ffH
	DB	0ffH
	DB	0ffH
	DB	08H
	DB	00H
	DB	00H
	DB	00H
	DB	00H
	DB	00H
	DB	00H
	DB	00H
	DB	050H
	DB	0ffH
	DB	0ffH
	DB	0ffH
	DB	0cH
	DB	0f4H
	DB	0ffH
	DB	0ffH
	DB	0afH
	DB	00H
	DB	00H
	DB	00H
	DB	00H
	DB	0feH
	DB	0ffH
	DB	0ffH
	DB	0fH
	DB	0f3H
	DB	0ffH
	DB	0ffH
	DB	0cfH
	DB	00H
	DB	00H
	DB	00H
	DB	00H
	DB	0fdH
	DB	0ffH
	DB	0ffH
	DB	01fH
	DB	0f0H
	DB	0ffH
	DB	0ffH
	DB	0efH
	DB	00H
	DB	00H
	DB	00H
	DB	00H
	DB	0feH
	DB	0ffH
	DB	0ffH
	DB	01fH
	DB	0c0H
	DB	0ffH
	DB	0ffH
	DB	0ffH
	DB	06H
	DB	00H
	DB	00H
	DB	030H
	DB	0ffH
	DB	0ffH
	DB	0ffH
	DB	0eH
	DB	060H
	DB	0ffH
	DB	0ffH
	DB	0ffH
	DB	06eH
	DB	00H
	DB	00H
	DB	0c2H
	DB	0ffH
	DB	0ffH
	DB	0ffH
	DB	0bH
	DB	00H
	DB	0fdH
	DB	0ffH
	DB	0ffH
	DB	0ffH
	DB	0beH
	DB	0caH
	DB	0ffH
	DB	0ffH
	DB	0ffH
	DB	0ffH
	DB	06H
	DB	00H
	DB	0f4H
	DB	0ffH
	DB	0ffH
	DB	0ffH
	DB	0ffH
	DB	0ffH
	DB	0ffH
	DB	0ffH
	DB	0ffH
	DB	0dfH
	DB	01H
	DB	00H
	DB	070H
	DB	0ffH
	DB	0ffH
	DB	0ffH
	DB	0ffH
	DB	0ffH
	DB	0ffH
	DB	0ffH
	DB	0ffH
	DB	04fH
	DB	00H
	DB	00H
	DB	00H
	DB	0e5H
	DB	0ffH
	DB	0ffH
	DB	0ffH
	DB	0ffH
	DB	0ffH
	DB	0ffH
	DB	0efH
	DB	05H
	DB	00H
	DB	00H
	DB	00H
	DB	020H
	DB	0faH
	DB	0ffH
	DB	0ffH
	DB	0ffH
	DB	0ffH
	DB	0ffH
	DB	02bH
	DB	00H
	DB	00H
	DB	00H
	DB	00H
	DB	00H
	DB	010H
	DB	0a6H
	DB	0edH
	DB	0efH
	DB	0bdH
	DB	027H
	DB	00H
	DB	00H
	DB	00H
	DB	0fcH
	DB	0ffH
	DB	0ffH
	DB	0ffH
	DB	0ffH
	DB	0ffH
	DB	0ffH
	DB	0ffH
	DB	0ffH
	DB	0ffH
	DB	0ffH
	DB	0dfH
	DB	0fcH
	DB	0ffH
	DB	0ffH
	DB	0ffH
	DB	0ffH
	DB	0ffH
	DB	0ffH
	DB	0ffH
	DB	0ffH
	DB	0ffH
	DB	0ffH
	DB	0dfH
	DB	0fcH
	DB	0ffH
	DB	0ffH
	DB	0ffH
	DB	0ffH
	DB	0ffH
	DB	0ffH
	DB	0ffH
	DB	0ffH
	DB	0ffH
	DB	0ffH
	DB	0dfH
	DB	0fcH
	DB	0ffH
	DB	0ffH
	DB	0ffH
	DB	0ffH
	DB	0ffH
	DB	0ffH
	DB	0ffH
	DB	0ffH
	DB	0ffH
	DB	0ffH
	DB	0dfH
	DB	0fcH
	DB	0ffH
	DB	0ffH
	DB	0ffH
	DB	0ffH
	DB	0ffH
	DB	0ffH
	DB	0ffH
	DB	0ffH
	DB	0ffH
	DB	0ffH
	DB	0dfH
	DB	0c9H
	DB	0ccH
	DB	0ccH
	DB	0ccH
	DB	0fdH
	DB	0ffH
	DB	0ffH
	DB	0dfH
	DB	0ccH
	DB	0ccH
	DB	0ccH
	DB	0acH
	DB	00H
	DB	00H
	DB	00H
	DB	00H
	DB	0f8H
	DB	0ffH
	DB	0ffH
	DB	06fH
	DB	00H
	DB	00H
	DB	00H
	DB	00H
	DB	00H
	DB	00H
	DB	00H
	DB	00H
	DB	0f8H
	DB	0ffH
	DB	0ffH
	DB	06fH
	DB	00H
	DB	00H
	DB	00H
	DB	00H
	DB	00H
	DB	00H
	DB	00H
	DB	00H
	DB	0f8H
	DB	0ffH
	DB	0ffH
	DB	06fH
	DB	00H
	DB	00H
	DB	00H
	DB	00H
	DB	00H
	DB	00H
	DB	00H
	DB	00H
	DB	0f8H
	DB	0ffH
	DB	0ffH
	DB	06fH
	DB	00H
	DB	00H
	DB	00H
	DB	00H
	DB	00H
	DB	00H
	DB	00H
	DB	00H
	DB	0f8H
	DB	0ffH
	DB	0ffH
	DB	06fH
	DB	00H
	DB	00H
	DB	00H
	DB	00H
	DB	00H
	DB	00H
	DB	00H
	DB	00H
	DB	0f8H
	DB	0ffH
	DB	0ffH
	DB	06fH
	DB	00H
	DB	00H
	DB	00H
	DB	00H
	DB	00H
	DB	00H
	DB	00H
	DB	00H
	DB	0f8H
	DB	0ffH
	DB	0ffH
	DB	06fH
	DB	00H
	DB	00H
	DB	00H
	DB	00H
	DB	00H
	DB	00H
	DB	00H
	DB	00H
	DB	0f8H
	DB	0ffH
	DB	0ffH
	DB	06fH
	DB	00H
	DB	00H
	DB	00H
	DB	00H
	DB	00H
	DB	00H
	DB	00H
	DB	00H
	DB	0f8H
	DB	0ffH
	DB	0ffH
	DB	06fH
	DB	00H
	DB	00H
	DB	00H
	DB	00H
	DB	00H
	DB	00H
	DB	00H
	DB	00H
	DB	0f8H
	DB	0ffH
	DB	0ffH
	DB	06fH
	DB	00H
	DB	00H
	DB	00H
	DB	00H
	DB	00H
	DB	00H
	DB	00H
	DB	00H
	DB	0f8H
	DB	0ffH
	DB	0ffH
	DB	06fH
	DB	00H
	DB	00H
	DB	00H
	DB	00H
	DB	00H
	DB	00H
	DB	00H
	DB	00H
	DB	0f8H
	DB	0ffH
	DB	0ffH
	DB	06fH
	DB	00H
	DB	00H
	DB	00H
	DB	00H
	DB	00H
	DB	00H
	DB	00H
	DB	00H
	DB	0f8H
	DB	0ffH
	DB	0ffH
	DB	06fH
	DB	00H
	DB	00H
	DB	00H
	DB	00H
	DB	00H
	DB	00H
	DB	00H
	DB	00H
	DB	0f8H
	DB	0ffH
	DB	0ffH
	DB	06fH
	DB	00H
	DB	00H
	DB	00H
	DB	00H
	DB	00H
	DB	00H
	DB	00H
	DB	00H
	DB	0f8H
	DB	0ffH
	DB	0ffH
	DB	06fH
	DB	00H
	DB	00H
	DB	00H
	DB	00H
	DB	00H
	DB	00H
	DB	00H
	DB	00H
	DB	0f8H
	DB	0ffH
	DB	0ffH
	DB	06fH
	DB	00H
	DB	00H
	DB	00H
	DB	00H
	DB	00H
	DB	00H
	DB	00H
	DB	00H
	DB	0f8H
	DB	0ffH
	DB	0ffH
	DB	06fH
	DB	00H
	DB	00H
	DB	00H
	DB	00H
	DB	00H
	DB	00H
	DB	00H
	DB	00H
	DB	0f8H
	DB	0ffH
	DB	0ffH
	DB	06fH
	DB	00H
	DB	00H
	DB	00H
	DB	00H
	DB	00H
	DB	00H
	DB	00H
	DB	00H
	DB	0f8H
	DB	0ffH
	DB	0ffH
	DB	06fH
	DB	00H
	DB	00H
	DB	00H
	DB	00H
	DB	00H
	DB	00H
	DB	00H
	DB	00H
	DB	0f8H
	DB	0ffH
	DB	0ffH
	DB	06fH
	DB	00H
	DB	00H
	DB	00H
	DB	00H
	DB	00H
	DB	00H
	DB	00H
	DB	00H
	DB	0f8H
	DB	0ffH
	DB	0ffH
	DB	06fH
	DB	00H
	DB	00H
	DB	00H
	DB	00H
	DB	00H
	DB	00H
	DB	00H
	DB	00H
	DB	0f8H
	DB	0ffH
	DB	0ffH
	DB	06fH
	DB	00H
	DB	00H
	DB	00H
	DB	00H
	DB	00H
	DB	00H
	DB	00H
	DB	00H
	DB	0f8H
	DB	0ffH
	DB	0ffH
	DB	06fH
	DB	00H
	DB	00H
	DB	00H
	DB	00H
	DB	00H
	DB	00H
	DB	00H
	DB	00H
	DB	0f8H
	DB	0ffH
	DB	0ffH
	DB	06fH
	DB	00H
	DB	00H
	DB	00H
	DB	00H
	DB	00H
	DB	00H
	DB	00H
	DB	00H
	DB	0f8H
	DB	0ffH
	DB	0ffH
	DB	06fH
	DB	00H
	DB	00H
	DB	00H
	DB	00H
	DB	00H
	DB	00H
	DB	00H
	DB	00H
	DB	0f8H
	DB	0ffH
	DB	0ffH
	DB	06fH
	DB	00H
	DB	00H
	DB	00H
	DB	00H
	DB	00H
	DB	00H
	DB	00H
	DB	00H
	DB	0f8H
	DB	0ffH
	DB	0ffH
	DB	06fH
	DB	00H
	DB	00H
	DB	00H
	DB	00H
	DB	00H
	DB	00H
	DB	00H
	DB	00H
	DB	0f8H
	DB	0ffH
	DB	0ffH
	DB	06fH
	DB	00H
	DB	00H
	DB	00H
	DB	00H
	DB	00H
	DB	00H
	DB	00H
	DB	072H
	DB	0dbH
	DB	0eeH
	DB	0bdH
	DB	027H
	DB	00H
	DB	00H
	DB	00H
	DB	00H
	DB	00H
	DB	081H
	DB	0ffH
	DB	0ffH
	DB	0ffH
	DB	0ffH
	DB	0efH
	DB	07H
	DB	00H
	DB	00H
	DB	00H
	DB	010H
	DB	0fbH
	DB	0ffH
	DB	0ffH
	DB	0ffH
	DB	0ffH
	DB	0ffH
	DB	0afH
	DB	00H
	DB	00H
	DB	00H
	DB	0b0H
	DB	0ffH
	DB	0ffH
	DB	0ffH
	DB	0ffH
	DB	0ffH
	DB	0ffH
	DB	0ffH
	DB	07H
	DB	00H
	DB	00H
	DB	0f5H
	DB	0ffH
	DB	0ffH
	DB	0ffH
	DB	0ffH
	DB	0ffH
	DB	0ffH
	DB	0ffH
	DB	02fH
	DB	00H
	DB	00H
	DB	0fdH
	DB	0ffH
	DB	0ffH
	DB	0dfH
	DB	099H
	DB	0fdH
	DB	0ffH
	DB	0ffH
	DB	08fH
	DB	00H
	DB	040H
	DB	0ffH
	DB	0ffH
	DB	0ffH
	DB	09H
	DB	00H
	DB	0b0H
	DB	0ffH
	DB	0ffH
	DB	0efH
	DB	00H
	DB	090H
	DB	0ffH
	DB	0ffH
	DB	0efH
	DB	01H
	DB	00H
	DB	030H
	DB	0ffH
	DB	0ffH
	DB	0ffH
	DB	02H
	DB	0c0H
	DB	0ffH
	DB	0ffH
	DB	0bfH
	DB	00H
	DB	00H
	DB	00H
	DB	0ffH
	DB	0ffH
	DB	0ffH
	DB	05H
	DB	0f0H
	DB	0ffH
	DB	0ffH
	DB	08fH
	DB	00H
	DB	00H
	DB	00H
	DB	0fdH
	DB	0ffH
	DB	0ffH
	DB	07H
	DB	0f1H
	DB	0ffH
	DB	0ffH
	DB	0dfH
	DB	0aaH
	DB	0aaH
	DB	0aaH
	DB	0feH
	DB	0ffH
	DB	0ffH
	DB	08H
	DB	0f2H
	DB	0ffH
	DB	0ffH
	DB	0ffH
	DB	0ffH
	DB	0ffH
	DB	0ffH
	DB	0ffH
	DB	0ffH
	DB	0ffH
	DB	09H
	DB	0f3H
	DB	0ffH
	DB	0ffH
	DB	0ffH
	DB	0ffH
	DB	0ffH
	DB	0ffH
	DB	0ffH
	DB	0ffH
	DB	0ffH
	DB	0aH
	DB	0f3H
	DB	0ffH
	DB	0ffH
	DB	0ffH
	DB	0ffH
	DB	0ffH
	DB	0ffH
	DB	0ffH
	DB	0ffH
	DB	0ffH
	DB	0aH
	DB	0f2H
	DB	0ffH
	DB	0ffH
	DB	0ffH
	DB	0ffH
	DB	0ffH
	DB	0ffH
	DB	0ffH
	DB	0ffH
	DB	0ffH
	DB	0aH
	DB	0f1H
	DB	0ffH
	DB	0ffH
	DB	07fH
	DB	00H
	DB	00H
	DB	00H
	DB	00H
	DB	00H
	DB	00H
	DB	00H
	DB	0f0H
	DB	0ffH
	DB	0ffH
	DB	09fH
	DB	00H
	DB	00H
	DB	00H
	DB	00H
	DB	00H
	DB	00H
	DB	00H
	DB	0d0H
	DB	0ffH
	DB	0ffH
	DB	0dfH
	DB	00H
	DB	00H
	DB	00H
	DB	00H
	DB	00H
	DB	00H
	DB	00H
	DB	0a0H
	DB	0ffH
	DB	0ffH
	DB	0ffH
	DB	04H
	DB	00H
	DB	00H
	DB	00H
	DB	091H
	DB	00H
	DB	00H
	DB	060H
	DB	0ffH
	DB	0ffH
	DB	0ffH
	DB	03dH
	DB	00H
	DB	00H
	DB	050H
	DB	0fdH
	DB	08H
	DB	00H
	DB	00H
	DB	0feH
	DB	0ffH
	DB	0ffH
	DB	0ffH
	DB	09bH
	DB	0a9H
	DB	0feH
	DB	0ffH
	DB	02fH
	DB	00H
	DB	00H
	DB	0f6H
	DB	0ffH
	DB	0ffH
	DB	0ffH
	DB	0ffH
	DB	0ffH
	DB	0ffH
	DB	0ffH
	DB	0cfH
	DB	00H
	DB	00H
	DB	0a0H
	DB	0ffH
	DB	0ffH
	DB	0ffH
	DB	0ffH
	DB	0ffH
	DB	0ffH
	DB	0ffH
	DB	0dfH
	DB	01H
	DB	00H
	DB	010H
	DB	0faH
	DB	0ffH
	DB	0ffH
	DB	0ffH
	DB	0ffH
	DB	0ffH
	DB	0ffH
	DB	02dH
	DB	00H
	DB	00H
	DB	00H
	DB	060H
	DB	0feH
	DB	0ffH
	DB	0ffH
	DB	0ffH
	DB	0ffH
	DB	08eH
	DB	01H
	DB	00H
	DB	00H
	DB	00H
	DB	00H
	DB	051H
	DB	0c9H
	DB	0feH
	DB	0deH
	DB	06aH
	DB	01H
	DB	00H
	DB	00H
	DB	00H
	DB	040H
	DB	088H
	DB	088H
	DB	088H
	DB	01H
	DB	00H
	DB	00H
	DB	080H
	DB	0ffH
	DB	0ffH
	DB	0ffH
	DB	02H
	DB	00H
	DB	00H
	DB	080H
	DB	0ffH
	DB	0ffH
	DB	0ffH
	DB	02H
	DB	00H
	DB	00H
	DB	080H
	DB	0ffH
	DB	0ffH
	DB	0ffH
	DB	02H
	DB	00H
	DB	00H
	DB	080H
	DB	0ffH
	DB	0ffH
	DB	0ffH
	DB	02H
	DB	00H
	DB	00H
	DB	080H
	DB	0ffH
	DB	0ffH
	DB	0ffH
	DB	02H
	DB	00H
	DB	00H
	DB	080H
	DB	0ffH
	DB	0ffH
	DB	0ffH
	DB	02H
	DB	00H
	DB	0f7H
	DB	0ffH
	DB	0ffH
	DB	0ffH
	DB	0ffH
	DB	0ffH
	DB	08fH
	DB	0f7H
	DB	0ffH
	DB	0ffH
	DB	0ffH
	DB	0ffH
	DB	0ffH
	DB	08fH
	DB	0f7H
	DB	0ffH
	DB	0ffH
	DB	0ffH
	DB	0ffH
	DB	0ffH
	DB	08fH
	DB	0f7H
	DB	0ffH
	DB	0ffH
	DB	0ffH
	DB	0ffH
	DB	0ffH
	DB	08fH
	DB	0f7H
	DB	0ffH
	DB	0ffH
	DB	0ffH
	DB	0ffH
	DB	0ffH
	DB	08fH
	DB	00H
	DB	080H
	DB	0ffH
	DB	0ffH
	DB	0ffH
	DB	02H
	DB	00H
	DB	00H
	DB	080H
	DB	0ffH
	DB	0ffH
	DB	0ffH
	DB	02H
	DB	00H
	DB	00H
	DB	080H
	DB	0ffH
	DB	0ffH
	DB	0ffH
	DB	02H
	DB	00H
	DB	00H
	DB	080H
	DB	0ffH
	DB	0ffH
	DB	0ffH
	DB	02H
	DB	00H
	DB	00H
	DB	080H
	DB	0ffH
	DB	0ffH
	DB	0ffH
	DB	02H
	DB	00H
	DB	00H
	DB	080H
	DB	0ffH
	DB	0ffH
	DB	0ffH
	DB	02H
	DB	00H
	DB	00H
	DB	080H
	DB	0ffH
	DB	0ffH
	DB	0ffH
	DB	02H
	DB	00H
	DB	00H
	DB	080H
	DB	0ffH
	DB	0ffH
	DB	0ffH
	DB	02H
	DB	00H
	DB	00H
	DB	080H
	DB	0ffH
	DB	0ffH
	DB	0ffH
	DB	02H
	DB	00H
	DB	00H
	DB	080H
	DB	0ffH
	DB	0ffH
	DB	0ffH
	DB	02H
	DB	00H
	DB	00H
	DB	080H
	DB	0ffH
	DB	0ffH
	DB	0ffH
	DB	02H
	DB	00H
	DB	00H
	DB	080H
	DB	0ffH
	DB	0ffH
	DB	0ffH
	DB	02H
	DB	00H
	DB	00H
	DB	080H
	DB	0ffH
	DB	0ffH
	DB	0ffH
	DB	02H
	DB	00H
	DB	00H
	DB	070H
	DB	0ffH
	DB	0ffH
	DB	0ffH
	DB	03H
	DB	00H
	DB	00H
	DB	070H
	DB	0ffH
	DB	0ffH
	DB	0ffH
	DB	07H
	DB	00H
	DB	00H
	DB	050H
	DB	0ffH
	DB	0ffH
	DB	0ffH
	DB	0bfH
	DB	08aH
	DB	00H
	DB	020H
	DB	0ffH
	DB	0ffH
	DB	0ffH
	DB	0ffH
	DB	0afH
	DB	00H
	DB	00H
	DB	0fcH
	DB	0ffH
	DB	0ffH
	DB	0ffH
	DB	0afH
	DB	00H
	DB	00H
	DB	0f4H
	DB	0ffH
	DB	0ffH
	DB	0ffH
	DB	0afH
	DB	00H
	DB	00H
	DB	070H
	DB	0ffH
	DB	0ffH
	DB	0ffH
	DB	0afH
	DB	00H
	DB	00H
	DB	00H
	DB	093H
	DB	0fdH
	DB	0deH
	DB	04aH
	DB	0f2H
	DB	0ffH
	DB	0ffH
	DB	04fH
	DB	00H
	DB	00H
	DB	0f5H
	DB	0ffH
	DB	0afH
	DB	00H
	DB	00H
	DB	0e0H
	DB	0ffH
	DB	0ffH
	DB	06fH
	DB	0e0H
	DB	0ffH
	DB	0ffH
	DB	06fH
	DB	00H
	DB	00H
	DB	0f8H
	DB	0ffH
	DB	0dfH
	DB	00H
	DB	00H
	DB	0f1H
	DB	0ffH
	DB	0ffH
	DB	03fH
	DB	0b0H
	DB	0ffH
	DB	0ffH
	DB	08fH
	DB	00H
	DB	00H
	DB	0fcH
	DB	0ffH
	DB	0ffH
	DB	02H
	DB	00H
	DB	0f4H
	DB	0ffH
	DB	0ffH
	DB	0fH
	DB	070H
	DB	0ffH
	DB	0ffH
	DB	0bfH
	DB	00H
	DB	010H
	DB	0ffH
	DB	0ffH
	DB	0ffH
	DB	05H
	DB	00H
	DB	0f6H
	DB	0ffH
	DB	0ffH
	DB	0cH
	DB	040H
	DB	0ffH
	DB	0ffH
	DB	0dfH
	DB	00H
	DB	040H
	DB	0ffH
	DB	0ffH
	DB	0ffH
	DB	09H
	DB	00H
	DB	0f8H
	DB	0ffH
	DB	0ffH
	DB	09H
	DB	010H
	DB	0ffH
	DB	0ffH
	DB	0ffH
	DB	00H
	DB	070H
	DB	0ffH
	DB	0ffH
	DB	0ffH
	DB	0cH
	DB	00H
	DB	0fbH
	DB	0ffH
	DB	0ffH
	DB	06H
	DB	00H
	DB	0fdH
	DB	0ffH
	DB	0ffH
	DB	03H
	DB	0b0H
	DB	0ffH
	DB	0ffH
	DB	0ffH
	DB	01fH
	DB	00H
	DB	0fdH
	DB	0ffH
	DB	0ffH
	DB	03H
	DB	00H
	DB	0faH
	DB	0ffH
	DB	0ffH
	DB	05H
	DB	0e0H
	DB	0ffH
	DB	0ffH
	DB	0ffH
	DB	04fH
	DB	010H
	DB	0ffH
	DB	0ffH
	DB	0ffH
	DB	00H
	DB	00H
	DB	0f7H
	DB	0ffH
	DB	0ffH
	DB	07H
	DB	0f3H
	DB	0ffH
	DB	0ffH
	DB	0ffH
	DB	08fH
	DB	030H
	DB	0ffH
	DB	0ffH
	DB	0cfH
	DB	00H
	DB	00H
	DB	0f4H
	DB	0ffH
	DB	0ffH
	DB	0aH
	DB	0f6H
	DB	0ffH
	DB	0ffH
	DB	0ffH
	DB	0bfH
	DB	050H
	DB	0ffH
	DB	0ffH
	DB	09fH
	DB	00H
	DB	00H
	DB	0f1H
	DB	0ffH
	DB	0ffH
	DB	0cH
	DB	0f9H
	DB	0ffH
	DB	0ffH
	DB	0ffH
	DB	0efH
	DB	080H
	DB	0ffH
	DB	0ffH
	DB	06fH
	DB	00H
	DB	00H
	DB	0d0H
	DB	0ffH
	DB	0ffH
	DB	0eH
	DB	0fdH
	DB	0ffH
	DB	0bfH
	DB	0ffH
	DB	0ffH
	DB	0a3H
	DB	0ffH
	DB	0ffH
	DB	03fH
	DB	00H
	DB	00H
	DB	0a0H
	DB	0ffH
	DB	0ffH
	DB	03fH
	DB	0ffH
	DB	0ffH
	DB	07cH
	DB	0ffH
	DB	0ffH
	DB	0c7H
	DB	0ffH
	DB	0ffH
	DB	0fH
	DB	00H
	DB	00H
	DB	070H
	DB	0ffH
	DB	0ffH
	DB	09fH
	DB	0ffH
	DB	0ffH
	DB	038H
	DB	0ffH
	DB	0ffH
	DB	0fbH
	DB	0ffH
	DB	0ffH
	DB	0cH
	DB	00H
	DB	00H
	DB	040H
	DB	0ffH
	DB	0ffH
	DB	0efH
	DB	0ffH
	DB	0ffH
	DB	05H
	DB	0feH
	DB	0ffH
	DB	0ffH
	DB	0ffH
	DB	0ffH
	DB	09H
	DB	00H
	DB	00H
	DB	010H
	DB	0ffH
	DB	0ffH
	DB	0ffH
	DB	0ffH
	DB	0ffH
	DB	01H
	DB	0fbH
	DB	0ffH
	DB	0ffH
	DB	0ffH
	DB	0ffH
	DB	06H
	DB	00H
	DB	00H
	DB	00H
	DB	0fdH
	DB	0ffH
	DB	0ffH
	DB	0ffH
	DB	0dfH
	DB	00H
	DB	0f8H
	DB	0ffH
	DB	0ffH
	DB	0ffH
	DB	0ffH
	DB	03H
	DB	00H
	DB	00H
	DB	00H
	DB	0faH
	DB	0ffH
	DB	0ffH
	DB	0ffH
	DB	09fH
	DB	00H
	DB	0f4H
	DB	0ffH
	DB	0ffH
	DB	0ffH
	DB	0efH
	DB	00H
	DB	00H
	DB	00H
	DB	00H
	DB	0f7H
	DB	0ffH
	DB	0ffH
	DB	0ffH
	DB	06fH
	DB	00H
	DB	0f1H
	DB	0ffH
	DB	0ffH
	DB	0ffH
	DB	0cfH
	DB	00H
	DB	00H
	DB	00H
	DB	00H
	DB	0f4H
	DB	0ffH
	DB	0ffH
	DB	0ffH
	DB	02fH
	DB	00H
	DB	0c0H
	DB	0ffH
	DB	0ffH
	DB	0ffH
	DB	09fH
	DB	00H
	DB	00H
	DB	00H
	DB	00H
	DB	0f1H
	DB	0ffH
	DB	0ffH
	DB	0ffH
	DB	0dH
	DB	00H
	DB	080H
	DB	0ffH
	DB	0ffH
	DB	0ffH
	DB	06fH
	DB	00H
	DB	00H
	DB	00H
	DB	00H
	DB	0d0H
	DB	0ffH
	DB	0ffH
	DB	0ffH
	DB	0aH
	DB	00H
	DB	050H
	DB	0ffH
	DB	0ffH
	DB	0ffH
	DB	03fH
	DB	00H
	DB	00H
	DB	00H
	DB	00H
	DB	0a0H
	DB	0ffH
	DB	0ffH
	DB	0ffH
	DB	06H
	DB	00H
	DB	010H
	DB	0ffH
	DB	0ffH
	DB	0ffH
	DB	0eH
	DB	00H
	DB	00H
	DB	00H
	DB	00H
	DB	070H
	DB	0ffH
	DB	0ffH
	DB	0ffH
	DB	03H
	DB	00H
	DB	00H
	DB	0fdH
	DB	0ffH
	DB	0ffH
	DB	0cH
	DB	00H
	DB	00H
	DB	00H
	DB	00H
	DB	040H
	DB	0ffH
	DB	0ffH
	DB	0efH
	DB	00H
	DB	00H
	DB	00H
	DB	0f9H
	DB	0ffH
	DB	0ffH
	DB	09H
	DB	00H
	DB	00H
	DB	00H
	DB	00H
	DB	010H
	DB	0ffH
	DB	0ffH
	DB	0afH
	DB	00H
	DB	00H
	DB	00H
	DB	0f6H
	DB	0ffH
	DB	0ffH
	DB	05H
	DB	00H
	DB	00H
	DB	0b0H
	DB	0ffH
	DB	0ffH
	DB	0ffH
	DB	04H
	DB	00H
	DB	050H
	DB	0ffH
	DB	0ffH
	DB	0ffH
	DB	0aH
	DB	050H
	DB	0ffH
	DB	0ffH
	DB	0ffH
	DB	09H
	DB	00H
	DB	0b0H
	DB	0ffH
	DB	0ffH
	DB	0ffH
	DB	03H
	DB	00H
	DB	0fdH
	DB	0ffH
	DB	0ffH
	DB	01eH
	DB	00H
	DB	0f2H
	DB	0ffH
	DB	0ffH
	DB	0bfH
	DB	00H
	DB	00H
	DB	0f6H
	DB	0ffH
	DB	0ffH
	DB	06fH
	DB	00H
	DB	0f8H
	DB	0ffH
	DB	0ffH
	DB	04fH
	DB	00H
	DB	00H
	DB	0e1H
	DB	0ffH
	DB	0ffH
	DB	0bfH
	DB	00H
	DB	0fdH
	DB	0ffH
	DB	0ffH
	DB	0dH
	DB	00H
	DB	00H
	DB	080H
	DB	0ffH
	DB	0ffH
	DB	0ffH
	DB	042H
	DB	0ffH
	DB	0ffH
	DB	0ffH
	DB	06H
	DB	00H
	DB	00H
	DB	010H
	DB	0ffH
	DB	0ffH
	DB	0ffH
	DB	0a8H
	DB	0ffH
	DB	0ffH
	DB	0efH
	DB	00H
	DB	00H
	DB	00H
	DB	00H
	DB	0f9H
	DB	0ffH
	DB	0ffH
	DB	0fdH
	DB	0ffH
	DB	0ffH
	DB	07fH
	DB	00H
	DB	00H
	DB	00H
	DB	00H
	DB	0f2H
	DB	0ffH
	DB	0ffH
	DB	0ffH
	DB	0ffH
	DB	0ffH
	DB	01eH
	DB	00H
	DB	00H
	DB	00H
	DB	00H
	DB	0b0H
	DB	0ffH
	DB	0ffH
	DB	0ffH
	DB	0ffH
	DB	0ffH
	DB	08H
	DB	00H
	DB	00H
	DB	00H
	DB	00H
	DB	040H
	DB	0ffH
	DB	0ffH
	DB	0ffH
	DB	0ffH
	DB	0ffH
	DB	02H
	DB	00H
	DB	00H
	DB	00H
	DB	00H
	DB	00H
	DB	0fcH
	DB	0ffH
	DB	0ffH
	DB	0ffH
	DB	0afH
	DB	00H
	DB	00H
	DB	00H
	DB	00H
	DB	00H
	DB	00H
	DB	0f6H
	DB	0ffH
	DB	0ffH
	DB	0ffH
	DB	03fH
	DB	00H
	DB	00H
	DB	00H
	DB	00H
	DB	00H
	DB	00H
	DB	0f9H
	DB	0ffH
	DB	0ffH
	DB	0ffH
	DB	07fH
	DB	00H
	DB	00H
	DB	00H
	DB	00H
	DB	00H
	DB	010H
	DB	0ffH
	DB	0ffH
	DB	0ffH
	DB	0ffH
	DB	0dfH
	DB	00H
	DB	00H
	DB	00H
	DB	00H
	DB	00H
	DB	080H
	DB	0ffH
	DB	0ffH
	DB	0ffH
	DB	0ffH
	DB	0ffH
	DB	05H
	DB	00H
	DB	00H
	DB	00H
	DB	00H
	DB	0e1H
	DB	0ffH
	DB	0ffH
	DB	0ffH
	DB	0ffH
	DB	0ffH
	DB	0cH
	DB	00H
	DB	00H
	DB	00H
	DB	00H
	DB	0f6H
	DB	0ffH
	DB	0ffH
	DB	0ffH
	DB	0ffH
	DB	0ffH
	DB	04fH
	DB	00H
	DB	00H
	DB	00H
	DB	00H
	DB	0fdH
	DB	0ffH
	DB	0ffH
	DB	0daH
	DB	0ffH
	DB	0ffH
	DB	0bfH
	DB	00H
	DB	00H
	DB	00H
	DB	050H
	DB	0ffH
	DB	0ffH
	DB	0ffH
	DB	074H
	DB	0ffH
	DB	0ffH
	DB	0ffH
	DB	02H
	DB	00H
	DB	00H
	DB	0c0H
	DB	0ffH
	DB	0ffH
	DB	0efH
	DB	010H
	DB	0ffH
	DB	0ffH
	DB	0ffH
	DB	09H
	DB	00H
	DB	00H
	DB	0f3H
	DB	0ffH
	DB	0ffH
	DB	08fH
	DB	00H
	DB	0faH
	DB	0ffH
	DB	0ffH
	DB	01fH
	DB	00H
	DB	00H
	DB	0faH
	DB	0ffH
	DB	0ffH
	DB	02fH
	DB	00H
	DB	0f4H
	DB	0ffH
	DB	0ffH
	DB	08fH
	DB	00H
	DB	020H
	DB	0ffH
	DB	0ffH
	DB	0ffH
	DB	0cH
	DB	00H
	DB	0e0H
	DB	0ffH
	DB	0ffH
	DB	0efH
	DB	01H
	DB	090H
	DB	0ffH
	DB	0ffH
	DB	0ffH
	DB	06H
	DB	00H
	DB	080H
	DB	0ffH
	DB	0ffH
	DB	0ffH
	DB	06H
	DB	0e1H
	DB	0ffH
	DB	0ffH
	DB	0efH
	DB	01H
	DB	00H
	DB	020H
	DB	0ffH
	DB	0ffH
	DB	0ffH
	DB	0dH
CONST	ENDS
PUBLIC	__JustMyCode_Default
; Function compile flags: /Odt
;	COMDAT __JustMyCode_Default
_TEXT	SEGMENT
__JustMyCode_Default PROC				; COMDAT
	push	ebp
	mov	ebp, esp
	pop	ebp
	ret	0
__JustMyCode_Default ENDP
_TEXT	ENDS
END
