; Listing generated by Microsoft (R) Optimizing Compiler Version 19.37.32822.0 

	TITLE	C:\TouchGFXProjects\KraftHeinz_DS3600\TouchGFX\build\Debug\obj\Font_RobotoCondensed_Regular_26_4bpp_0.obj
	.686P
	.XMM
	include listing.inc
	.model	flat

INCLUDELIB MSVCRTD
INCLUDELIB OLDNAMES

PUBLIC	?unicodes_RobotoCondensed_Regular_26_4bpp_0@@3QBEB ; unicodes_RobotoCondensed_Regular_26_4bpp_0
msvcjmc	SEGMENT
__E2605D79_concurrencysal@h DB 01H
__D6EC426F_sal@h DB 01H
__5DEEAB32_vadefs@h DB 01H
__7FAFA22A_vcruntime@h DB 01H
__1B0272D9_corecrt@h DB 01H
__19139D6C_assert@h DB 01H
__25E3C554_stdint@h DB 01H
__38966392_Config@hpp DB 01H
__B7E12544_Types@hpp DB 01H
__F2A12E47_Font_RobotoCondensed_Regular_26_4bpp_0@cpp DB 01H
msvcjmc	ENDS
CONST	SEGMENT
?unicodes_RobotoCondensed_Regular_26_4bpp_0@@3QBEB DB 0feH ; unicodes_RobotoCondensed_Regular_26_4bpp_0
	DB	06H
	DB	0feH
	DB	06H
	DB	0feH
	DB	05H
	DB	0feH
	DB	05H
	DB	0feH
	DB	05H
	DB	0feH
	DB	05H
	DB	0fdH
	DB	05H
	DB	0fdH
	DB	04H
	DB	0fdH
	DB	04H
	DB	0fdH
	DB	04H
	DB	0fdH
	DB	04H
	DB	0fcH
	DB	04H
	DB	0fcH
	DB	03H
	DB	043H
	DB	01H
	DB	00H
	DB	00H
	DB	00H
	DB	00H
	DB	096H
	DB	01H
	DB	0ffH
	DB	07H
	DB	0eaH
	DB	04H
	DB	0f4H
	DB	08H
	DB	0ecH
	DB	0f4H
	DB	08H
	DB	0edH
	DB	0f4H
	DB	07H
	DB	0ddH
	DB	0f4H
	DB	05H
	DB	0cdH
	DB	0f4H
	DB	04H
	DB	0bdH
	DB	0f4H
	DB	03H
	DB	09dH
	DB	041H
	DB	01H
	DB	023H
	DB	00H
	DB	00H
	DB	0b0H
	DB	0fH
	DB	060H
	DB	05fH
	DB	00H
	DB	00H
	DB	00H
	DB	0d0H
	DB	0cH
	DB	080H
	DB	02fH
	DB	00H
	DB	00H
	DB	00H
	DB	0f0H
	DB	0aH
	DB	0b0H
	DB	0fH
	DB	00H
	DB	00H
	DB	00H
	DB	0f3H
	DB	08H
	DB	0d0H
	DB	0dH
	DB	00H
	DB	00H
	DB	00H
	DB	0f5H
	DB	06H
	DB	0f0H
	DB	0bH
	DB	00H
	DB	00H
	DB	00H
	DB	0f7H
	DB	04H
	DB	0f2H
	DB	09H
	DB	00H
	DB	080H
	DB	0ffH
	DB	0ffH
	DB	0ffH
	DB	0ffH
	DB	0ffH
	DB	08H
	DB	060H
	DB	0ccH
	DB	0feH
	DB	0ccH
	DB	0fdH
	DB	0ccH
	DB	06H
	DB	00H
	DB	00H
	DB	0beH
	DB	00H
	DB	0f9H
	DB	01H
	DB	00H
	DB	00H
	DB	020H
	DB	09fH
	DB	00H
	DB	0ecH
	DB	00H
	DB	00H
	DB	00H
	DB	040H
	DB	06fH
	DB	00H
	DB	0bfH
	DB	00H
	DB	00H
	DB	00H
	DB	070H
	DB	03fH
	DB	020H
	DB	08fH
	DB	00H
	DB	00H
	DB	0f5H
	DB	0ffH
	DB	0ffH
	DB	0ffH
	DB	0ffH
	DB	0cfH
	DB	00H
	DB	0b4H
	DB	0fbH
	DB	0beH
	DB	0dbH
	DB	0cfH
	DB	09bH
	DB	00H
	DB	00H
	DB	0f0H
	DB	0bH
	DB	0a0H
	DB	01fH
	DB	00H
	DB	00H
	DB	00H
	DB	0f2H
	DB	08H
	DB	0d0H
	DB	0dH
	DB	00H
	DB	00H
	DB	00H
	DB	0f5H
	DB	06H
	DB	0f0H
	DB	0bH
	DB	00H
	DB	00H
	DB	00H
	DB	0f7H
	DB	03H
	DB	0f2H
	DB	08H
	DB	00H
	DB	00H
	DB	00H
	DB	0faH
	DB	01H
	DB	0f5H
	DB	06H
	DB	00H
	DB	00H
	DB	00H
	DB	00H
	DB	0f3H
	DB	08H
	DB	00H
	DB	00H
	DB	00H
	DB	00H
	DB	0f3H
	DB	08H
	DB	00H
	DB	00H
	DB	00H
	DB	00H
	DB	0f5H
	DB	09H
	DB	00H
	DB	00H
	DB	00H
	DB	0c3H
	DB	0ffH
	DB	0dfH
	DB	04H
	DB	00H
	DB	010H
	DB	0feH
	DB	0cfH
	DB	0feH
	DB	03fH
	DB	00H
	DB	080H
	DB	0dfH
	DB	02H
	DB	0c1H
	DB	0bfH
	DB	00H
	DB	0c0H
	DB	07fH
	DB	00H
	DB	050H
	DB	0ffH
	DB	01H
	DB	0e0H
	DB	04fH
	DB	00H
	DB	010H
	DB	0ffH
	DB	03H
	DB	0e0H
	DB	05fH
	DB	00H
	DB	00H
	DB	0aaH
	DB	03H
	DB	0b0H
	DB	0cfH
	DB	00H
	DB	00H
	DB	00H
	DB	00H
	DB	050H
	DB	0ffH
	DB	02bH
	DB	00H
	DB	00H
	DB	00H
	DB	00H
	DB	0f8H
	DB	0ffH
	DB	03aH
	DB	00H
	DB	00H
	DB	00H
	DB	050H
	DB	0fdH
	DB	0ffH
	DB	09H
	DB	00H
	DB	00H
	DB	00H
	DB	040H
	DB	0fcH
	DB	08fH
	DB	00H
	DB	00H
	DB	00H
	DB	00H
	DB	0a0H
	DB	0efH
	DB	01H
	DB	011H
	DB	01H
	DB	00H
	DB	010H
	DB	0ffH
	DB	04H
	DB	0f8H
	DB	0bH
	DB	00H
	DB	00H
	DB	0fdH
	DB	06H
	DB	0f7H
	DB	0dH
	DB	00H
	DB	00H
	DB	0feH
	DB	05H
	DB	0f3H
	DB	05fH
	DB	00H
	DB	060H
	DB	0ffH
	DB	02H
	DB	0b0H
	DB	0ffH
	DB	079H
	DB	0faH
	DB	0afH
	DB	00H
	DB	010H
	DB	0fcH
	DB	0ffH
	DB	0ffH
	DB	01bH
	DB	00H
	DB	00H
	DB	040H
	DB	0fbH
	DB	04aH
	DB	00H
	DB	00H
	DB	00H
	DB	00H
	DB	0f7H
	DB	05H
	DB	00H
	DB	00H
	DB	00H
	DB	00H
	DB	0f7H
	DB	05H
	DB	00H
	DB	00H
	DB	030H
	DB	0fcH
	DB	05dH
	DB	00H
	DB	00H
	DB	00H
	DB	00H
	DB	00H
	DB	0e1H
	DB	09eH
	DB	0fdH
	DB	03H
	DB	00H
	DB	00H
	DB	00H
	DB	00H
	DB	0f6H
	DB	04H
	DB	0f2H
	DB	09H
	DB	00H
	DB	03aH
	DB	00H
	DB	00H
	DB	0f9H
	DB	01H
	DB	0d0H
	DB	0cH
	DB	050H
	DB	05fH
	DB	00H
	DB	00H
	DB	0faH
	DB	00H
	DB	0c0H
	DB	0cH
	DB	0d0H
	DB	0cH
	DB	00H
	DB	00H
	DB	0f8H
	DB	02H
	DB	0e0H
	DB	0bH
	DB	0f6H
	DB	04H
	DB	00H
	DB	00H
	DB	0f4H
	DB	019H
	DB	0f7H
	DB	07H
	DB	0bdH
	DB	00H
	DB	00H
	DB	00H
	DB	0a0H
	DB	0ffH
	DB	0cfH
	DB	070H
	DB	03fH
	DB	00H
	DB	00H
	DB	00H
	DB	00H
	DB	075H
	DB	06H
	DB	0e1H
	DB	0bH
	DB	00H
	DB	00H
	DB	00H
	DB	00H
	DB	00H
	DB	00H
	DB	0f8H
	DB	03H
	DB	00H
	DB	00H
	DB	00H
	DB	00H
	DB	00H
	DB	010H
	DB	0aeH
	DB	020H
	DB	077H
	DB	02H
	DB	00H
	DB	00H
	DB	00H
	DB	080H
	DB	02fH
	DB	0e3H
	DB	0ffH
	DB	05fH
	DB	00H
	DB	00H
	DB	00H
	DB	0f2H
	DB	09H
	DB	0ecH
	DB	023H
	DB	0ddH
	DB	00H
	DB	00H
	DB	00H
	DB	0f9H
	DB	012H
	DB	09fH
	DB	00H
	DB	0f7H
	DB	03H
	DB	00H
	DB	020H
	DB	08fH
	DB	020H
	DB	07fH
	DB	00H
	DB	0f5H
	DB	04H
	DB	00H
	DB	0a0H
	DB	01eH
	DB	020H
	DB	08fH
	DB	00H
	DB	0f6H
	DB	04H
	DB	00H
	DB	0d1H
	DB	08H
	DB	00H
	DB	0beH
	DB	00H
	DB	0faH
	DB	01H
	DB	00H
	DB	010H
	DB	01H
	DB	00H
	DB	0f8H
	DB	0abH
	DB	09fH
	DB	00H
	DB	00H
	DB	00H
	DB	00H
	DB	00H
	DB	080H
	DB	0eeH
	DB	019H
	DB	00H
	DB	00H
	DB	070H
	DB	0fdH
	DB	07dH
	DB	00H
	DB	00H
	DB	00H
	DB	00H
	DB	0f9H
	DB	0ffH
	DB	0ffH
	DB	08H
	DB	00H
	DB	00H
	DB	020H
	DB	0ffH
	DB	07H
	DB	0f5H
	DB	01fH
	DB	00H
	DB	00H
	DB	060H
	DB	0efH
	DB	00H
	DB	0c0H
	DB	05fH
	DB	00H
	DB	00H
	DB	070H
	DB	0cfH
	DB	00H
	DB	0b0H
	DB	05fH
	DB	00H
	DB	00H
	DB	050H
	DB	0efH
	DB	00H
	DB	0e1H
	DB	02fH
	DB	00H
	DB	00H
	DB	010H
	DB	0ffH
	DB	016H
	DB	0fcH
	DB	0aH
	DB	00H
	DB	00H
	DB	00H
	DB	0f9H
	DB	0deH
	DB	0cfH
	DB	01H
	DB	00H
	DB	00H
	DB	00H
	DB	0e1H
	DB	0ffH
	DB	01bH
	DB	00H
	DB	00H
	DB	00H
	DB	00H
	DB	0e4H
	DB	0ffH
	DB	05H
	DB	00H
	DB	00H
	DB	00H
	DB	040H
	DB	0ffH
	DB	0fcH
	DB	02eH
	DB	010H
	DB	088H
	DB	00H
	DB	0e1H
	DB	08fH
	DB	0d1H
	DB	0bfH
	DB	020H
	DB	0dfH
	DB	00H
	DB	0f7H
	DB	0dH
	DB	030H
	DB	0ffH
	DB	057H
	DB	0cfH
	DB	00H
	DB	0faH
	DB	09H
	DB	00H
	DB	0f7H
	DB	0bfH
	DB	08fH
	DB	00H
	DB	0faH
	DB	0aH
	DB	00H
	DB	0b0H
	DB	0ffH
	DB	03fH
	DB	00H
	DB	0f7H
	DB	0dH
	DB	00H
	DB	020H
	DB	0ffH
	DB	0cH
	DB	00H
	DB	0f2H
	DB	0afH
	DB	01H
	DB	0b2H
	DB	0ffH
	DB	04fH
	DB	00H
	DB	050H
	DB	0ffH
	DB	0efH
	DB	0ffH
	DB	0ceH
	DB	0dfH
	DB	01H
	DB	00H
	DB	0a3H
	DB	0feH
	DB	09dH
	DB	022H
	DB	0feH
	DB	09H
	DB	0faH
	DB	03H
	DB	0faH
	DB	03H
	DB	0faH
	DB	02H
	DB	0faH
	DB	01H
	DB	0faH
	DB	01H
	DB	0faH
	DB	00H
	DB	011H
	DB	00H
	DB	00H
	DB	00H
	DB	070H
	DB	02H
	DB	00H
	DB	00H
	DB	0f6H
	DB	05H
	DB	00H
	DB	030H
	DB	0bfH
	DB	00H
	DB	00H
	DB	0c0H
	DB	02fH
	DB	00H
	DB	00H
	DB	0f5H
	DB	09H
	DB	00H
	DB	00H
	DB	0fcH
	DB	03H
	DB	00H
	DB	030H
	DB	0dfH
	DB	00H
	DB	00H
	DB	080H
	DB	09fH
	DB	00H
	DB	00H
	DB	0b0H
	DB	06fH
	DB	00H
	DB	00H
	DB	0e0H
	DB	03fH
	DB	00H
	DB	00H
	DB	0f2H
	DB	01fH
	DB	00H
	DB	00H
	DB	0f3H
	DB	0fH
	DB	00H
	DB	00H
	DB	0f4H
	DB	0eH
	DB	00H
	DB	00H
	DB	0f5H
	DB	0dH
	DB	00H
	DB	00H
	DB	0f4H
	DB	0eH
	DB	00H
	DB	00H
	DB	0f4H
	DB	0eH
	DB	00H
	DB	00H
	DB	0f2H
	DB	01fH
	DB	00H
	DB	00H
	DB	0f0H
	DB	02fH
	DB	00H
	DB	00H
	DB	0c0H
	DB	05fH
	DB	00H
	DB	00H
	DB	080H
	DB	08fH
	DB	00H
	DB	00H
	DB	030H
	DB	0cfH
	DB	00H
	DB	00H
	DB	00H
	DB	0fdH
	DB	02H
	DB	00H
	DB	00H
	DB	0f6H
	DB	08H
	DB	00H
	DB	00H
	DB	0c0H
	DB	01eH
	DB	00H
	DB	00H
	DB	040H
	DB	0afH
	DB	00H
	DB	00H
	DB	00H
	DB	0f8H
	DB	05H
	DB	00H
	DB	00H
	DB	080H
	DB	02H
	DB	080H
	DB	00H
	DB	00H
	DB	00H
	DB	0f3H
	DB	09H
	DB	00H
	DB	00H
	DB	090H
	DB	05fH
	DB	00H
	DB	00H
	DB	010H
	DB	0eeH
	DB	01H
	DB	00H
	DB	00H
	DB	0f7H
	DB	07H
	DB	00H
	DB	00H
	DB	0f2H
	DB	01eH
	DB	00H
	DB	00H
	DB	0b0H
	DB	05fH
	DB	00H
	DB	00H
	DB	070H
	DB	0afH
	DB	00H
	DB	00H
	DB	030H
	DB	0efH
	DB	00H
	DB	00H
	DB	010H
	DB	0ffH
	DB	02H
	DB	00H
	DB	00H
	DB	0feH
	DB	05H
	DB	00H
	DB	00H
	DB	0fcH
	DB	06H
	DB	00H
	DB	00H
	DB	0fcH
	DB	07H
	DB	00H
	DB	00H
	DB	0fbH
	DB	07H
	DB	00H
	DB	00H
	DB	0fcH
	DB	07H
	DB	00H
	DB	00H
	DB	0fdH
	DB	06H
	DB	00H
	DB	00H
	DB	0feH
	DB	05H
	DB	00H
	DB	00H
	DB	0ffH
	DB	02H
	DB	00H
	DB	030H
	DB	0efH
	DB	00H
	DB	00H
	DB	070H
	DB	0afH
	DB	00H
	DB	00H
	DB	0a0H
	DB	06fH
	DB	00H
	DB	00H
	DB	0e1H
	DB	01eH
	DB	00H
	DB	00H
	DB	0f5H
	DB	08H
	DB	00H
	DB	00H
	DB	0ecH
	DB	01H
	DB	00H
	DB	070H
	DB	06fH
	DB	00H
	DB	00H
	DB	0f3H
	DB	0aH
	DB	00H
	DB	00H
	DB	0a1H
	DB	00H
	DB	00H
	DB	00H
	DB	00H
	DB	00H
	DB	0f5H
	DB	09H
	DB	00H
	DB	00H
	DB	00H
	DB	00H
	DB	0f5H
	DB	08H
	DB	00H
	DB	00H
	DB	00H
	DB	00H
	DB	0f4H
	DB	08H
	DB	00H
	DB	00H
	DB	0d3H
	DB	027H
	DB	0f4H
	DB	07H
	DB	0a5H
	DB	06H
	DB	0f7H
	DB	0ffH
	DB	0fdH
	DB	0ecH
	DB	0ffH
	DB	0aH
	DB	030H
	DB	0c8H
	DB	0ffH
	DB	0efH
	DB	05aH
	DB	01H
	DB	00H
	DB	030H
	DB	0ffH
	DB	04fH
	DB	00H
	DB	00H
	DB	00H
	DB	0d1H
	DB	07fH
	DB	0dfH
	DB	01H
	DB	00H
	DB	00H
	DB	0f9H
	DB	09H
	DB	0f9H
	DB	0aH
	DB	00H
	DB	020H
	DB	0efH
	DB	01H
	DB	0d1H
	DB	03fH
	DB	00H
	DB	00H
	DB	043H
	DB	00H
	DB	040H
	DB	04H
	DB	00H
	DB	00H
	DB	00H
	DB	075H
	DB	04H
	DB	00H
	DB	00H
	DB	00H
	DB	00H
	DB	0faH
	DB	08H
	DB	00H
	DB	00H
	DB	00H
	DB	00H
	DB	0faH
	DB	08H
	DB	00H
	DB	00H
	DB	00H
	DB	00H
	DB	0faH
	DB	08H
	DB	00H
	DB	00H
	DB	00H
	DB	00H
	DB	0faH
	DB	08H
	DB	00H
	DB	00H
	DB	00H
	DB	00H
	DB	0faH
	DB	08H
	DB	00H
	DB	00H
	DB	0feH
	DB	0ffH
	DB	0ffH
	DB	0ffH
	DB	0ffH
	DB	0bH
	DB	0feH
	DB	0ffH
	DB	0ffH
	DB	0ffH
	DB	0ffH
	DB	0bH
	DB	033H
	DB	033H
	DB	0fbH
	DB	03aH
	DB	033H
	DB	02H
	DB	00H
	DB	00H
	DB	0faH
	DB	08H
	DB	00H
	DB	00H
	DB	00H
	DB	00H
	DB	0faH
	DB	08H
	DB	00H
	DB	00H
	DB	00H
	DB	00H
	DB	0faH
	DB	08H
	DB	00H
	DB	00H
	DB	00H
	DB	00H
	DB	0faH
	DB	08H
	DB	00H
	DB	00H
	DB	00H
	DB	00H
	DB	0faH
	DB	08H
	DB	00H
	DB	00H
	DB	060H
	DB	0efH
	DB	060H
	DB	0efH
	DB	060H
	DB	0cfH
	DB	090H
	DB	09fH
	DB	0e1H
	DB	03fH
	DB	0f6H
	DB	09H
	DB	040H
	DB	00H
	DB	0e6H
	DB	0eeH
	DB	0beH
	DB	0f6H
	DB	0ffH
	DB	0dfH
	DB	080H
	DB	04bH
	DB	0f2H
	DB	0bfH
	DB	0b0H
	DB	06eH
	DB	00H
	DB	00H
	DB	00H
	DB	0f4H
	DB	09H
	DB	00H
	DB	00H
	DB	00H
	DB	0f9H
	DB	04H
	DB	00H
	DB	00H
	DB	00H
	DB	0eeH
	DB	00H
	DB	00H
	DB	00H
	DB	040H
	DB	09fH
	DB	00H
	DB	00H
	DB	00H
	DB	090H
	DB	05fH
	DB	00H
	DB	00H
	DB	00H
	DB	0e0H
	DB	0eH
	DB	00H
	DB	00H
	DB	00H
	DB	0f3H
	DB	0aH
	DB	00H
	DB	00H
	DB	00H
	DB	0f8H
	DB	05H
	DB	00H
	DB	00H
	DB	00H
	DB	0fdH
	DB	01H
	DB	00H
	DB	00H
	DB	030H
	DB	0afH
	DB	00H
	DB	00H
	DB	00H
	DB	080H
	DB	06fH
	DB	00H
	DB	00H
	DB	00H
	DB	0d0H
	DB	01fH
	DB	00H
	DB	00H
	DB	00H
	DB	0f3H
	DB	0bH
	DB	00H
	DB	00H
	DB	00H
	DB	0f8H
	DB	06H
	DB	00H
	DB	00H
	DB	00H
	DB	0fcH
	DB	01H
	DB	00H
	DB	00H
	DB	020H
	DB	0bfH
	DB	00H
	DB	00H
	DB	00H
	DB	070H
	DB	06fH
	DB	00H
	DB	00H
	DB	00H
	DB	0c0H
	DB	02fH
	DB	00H
	DB	00H
	DB	00H
	DB	0f2H
	DB	0cH
	DB	00H
	DB	00H
	DB	00H
	DB	0f7H
	DB	07H
	DB	00H
	DB	00H
	DB	00H
	DB	00H
	DB	091H
	DB	0fdH
	DB	08dH
	DB	00H
	DB	00H
	DB	010H
	DB	0fdH
	DB	0ffH
	DB	0ffH
	DB	0bH
	DB	00H
	DB	090H
	DB	0dfH
	DB	02H
	DB	0e4H
	DB	06fH
	DB	00H
	DB	0e0H
	DB	04fH
	DB	00H
	DB	070H
	DB	0cfH
	DB	00H
	DB	0f3H
	DB	0eH
	DB	00H
	DB	030H
	DB	0ffH
	DB	01H
	DB	0f6H
	DB	0cH
	DB	00H
	DB	00H
	DB	0ffH
	DB	03H
	DB	0f7H
	DB	0bH
	DB	00H
	DB	00H
	DB	0feH
	DB	04H
	DB	0f8H
	DB	0aH
	DB	00H
	DB	00H
	DB	0fdH
	DB	05H
	DB	0f8H
	DB	0aH
	DB	00H
	DB	00H
	DB	0fdH
	DB	05H
	DB	0f8H
	DB	0aH
	DB	00H
	DB	00H
	DB	0fdH
	DB	05H
	DB	0f8H
	DB	0aH
	DB	00H
	DB	00H
	DB	0fdH
	DB	05H
	DB	0f8H
	DB	0aH
	DB	00H
	DB	00H
	DB	0fdH
	DB	05H
	DB	0f7H
	DB	0bH
	DB	00H
	DB	00H
	DB	0feH
	DB	04H
	DB	0f6H
	DB	0cH
	DB	00H
	DB	00H
	DB	0ffH
	DB	03H
	DB	0f3H
	DB	0fH
	DB	00H
	DB	030H
	DB	0ffH
	DB	01H
	DB	0e0H
	DB	05fH
	DB	00H
	DB	080H
	DB	0cfH
	DB	00H
	DB	080H
	DB	0dfH
	DB	03H
	DB	0e4H
	DB	06fH
	DB	00H
	DB	010H
	DB	0fdH
	DB	0efH
	DB	0ffH
	DB	0bH
	DB	00H
	DB	00H
	DB	091H
	DB	0fdH
	DB	08dH
	DB	00H
	DB	00H
	DB	00H
	DB	010H
	DB	0d6H
	DB	03H
	DB	010H
	DB	0e8H
	DB	0ffH
	DB	03H
	DB	0f9H
	DB	0ffH
	DB	0ffH
	DB	03H
	DB	0ffH
	DB	04aH
	DB	0ffH
	DB	03H
	DB	028H
	DB	010H
	DB	0ffH
	DB	03H
	DB	00H
	DB	010H
	DB	0ffH
	DB	03H
	DB	00H
	DB	010H
	DB	0ffH
	DB	03H
	DB	00H
	DB	010H
	DB	0ffH
	DB	03H
	DB	00H
	DB	010H
	DB	0ffH
	DB	03H
	DB	00H
	DB	010H
	DB	0ffH
	DB	03H
	DB	00H
	DB	010H
	DB	0ffH
	DB	03H
	DB	00H
	DB	010H
	DB	0ffH
	DB	03H
	DB	00H
	DB	010H
	DB	0ffH
	DB	03H
	DB	00H
	DB	010H
	DB	0ffH
	DB	03H
	DB	00H
	DB	010H
	DB	0ffH
	DB	03H
	DB	00H
	DB	010H
	DB	0ffH
	DB	03H
	DB	00H
	DB	010H
	DB	0ffH
	DB	03H
	DB	00H
	DB	010H
	DB	0ffH
	DB	03H
	DB	00H
	DB	010H
	DB	0ffH
	DB	03H
	DB	00H
	DB	0a3H
	DB	0feH
	DB	08dH
	DB	01H
	DB	00H
	DB	050H
	DB	0ffH
	DB	0ffH
	DB	0ffH
	DB	01dH
	DB	00H
	DB	0e1H
	DB	0afH
	DB	02H
	DB	0e5H
	DB	09fH
	DB	00H
	DB	0f7H
	DB	0eH
	DB	00H
	DB	080H
	DB	0efH
	DB	00H
	DB	0fbH
	DB	09H
	DB	00H
	DB	030H
	DB	0ffH
	DB	01H
	DB	0c9H
	DB	06H
	DB	00H
	DB	020H
	DB	0ffH
	DB	01H
	DB	00H
	DB	00H
	DB	00H
	DB	040H
	DB	0efH
	DB	00H
	DB	00H
	DB	00H
	DB	00H
	DB	090H
	DB	09fH
	DB	00H
	DB	00H
	DB	00H
	DB	00H
	DB	0f2H
	DB	03fH
	DB	00H
	DB	00H
	DB	00H
	DB	00H
	DB	0fbH
	DB	0aH
	DB	00H
	DB	00H
	DB	00H
	DB	070H
	DB	0efH
	DB	02H
	DB	00H
	DB	00H
	DB	00H
	DB	0f3H
	DB	05fH
	DB	00H
	DB	00H
	DB	00H
	DB	010H
	DB	0fdH
	DB	09H
	DB	00H
	DB	00H
	DB	00H
	DB	0a0H
	DB	0cfH
	DB	01H
	DB	00H
	DB	00H
	DB	00H
	DB	0f7H
	DB	02eH
	DB	00H
	DB	00H
	DB	00H
	DB	030H
	DB	0ffH
	DB	05H
	DB	00H
	DB	00H
	DB	00H
	DB	0d1H
	DB	09fH
	DB	00H
	DB	00H
	DB	00H
	DB	00H
	DB	0f7H
	DB	0efH
	DB	0eeH
	DB	0eeH
	DB	0eeH
	DB	0bH
	DB	0f8H
	DB	0ffH
	DB	0ffH
	DB	0ffH
	DB	0ffH
	DB	0cH
	DB	00H
	DB	0b4H
	DB	0feH
	DB	07cH
	DB	00H
	DB	00H
	DB	050H
	DB	0ffH
	DB	0ffH
	DB	0ffH
	DB	0bH
	DB	00H
	DB	0f2H
	DB	09fH
	DB	01H
	DB	0f5H
	DB	06fH
	DB	00H
	DB	0f7H
	DB	0dH
	DB	00H
	DB	090H
	DB	0bfH
	DB	00H
	DB	0f9H
	DB	09H
	DB	00H
	DB	060H
	DB	0dfH
	DB	00H
	DB	00H
	DB	00H
	DB	00H
	DB	060H
	DB	0dfH
	DB	00H
	DB	00H
	DB	00H
	DB	00H
	DB	0a0H
	DB	09fH
	DB	00H
	DB	00H
	DB	00H
	DB	00H
	DB	0f7H
	DB	02eH
	DB	00H
	DB	00H
	DB	090H
	DB	0feH
	DB	0efH
	DB	04H
	DB	00H
	DB	00H
	DB	0a0H
	DB	0ffH
	DB	0efH
	DB	06H
	DB	00H
	DB	00H
	DB	00H
	DB	020H
	DB	0f7H
	DB	05fH
	DB	00H
	DB	00H
	DB	00H
	DB	00H
	DB	080H
	DB	0cfH
	DB	00H
	DB	00H
	DB	00H
	DB	00H
	DB	040H
	DB	0ffH
	DB	00H
	DB	043H
	DB	02H
	DB	00H
	DB	020H
	DB	0ffH
	DB	02H
	DB	0faH
	DB	09H
	DB	00H
	DB	030H
	DB	0ffH
	DB	01H
	DB	0f8H
	DB	0dH
	DB	00H
	DB	080H
	DB	0cfH
	DB	00H
	DB	0f2H
	DB	09fH
	DB	01H
	DB	0e5H
	DB	06fH
	DB	00H
	DB	070H
	DB	0ffH
	DB	0ffH
	DB	0ffH
	DB	0aH
	DB	00H
	DB	00H
	DB	0b4H
	DB	0feH
	DB	06cH
	DB	00H
	DB	00H
	DB	00H
	DB	00H
	DB	00H
	DB	090H
	DB	0ffH
	DB	00H
	DB	00H
	DB	00H
	DB	00H
	DB	00H
	DB	0f2H
	DB	0ffH
	DB	00H
	DB	00H
	DB	00H
	DB	00H
	DB	00H
	DB	0faH
	DB	0ffH
	DB	00H
	DB	00H
	DB	00H
	DB	00H
	DB	020H
	DB	0ffH
	DB	0ffH
	DB	00H
	DB	00H
	DB	00H
	DB	00H
	DB	0a0H
	DB	09fH
	DB	0ffH
	DB	00H
	DB	00H
	DB	00H
	DB	00H
	DB	0f3H
	DB	04dH
	DB	0ffH
	DB	00H
	DB	00H
	DB	00H
	DB	00H
	DB	0faH
	DB	046H
	DB	0ffH
	DB	00H
	DB	00H
	DB	00H
	DB	030H
	DB	0dfH
	DB	040H
	DB	0ffH
	DB	00H
	DB	00H
	DB	00H
	DB	0a0H
	DB	06fH
	DB	040H
	DB	0ffH
	DB	00H
	DB	00H
	DB	00H
	DB	0f3H
	DB	0eH
	DB	040H
	DB	0ffH
	DB	00H
	DB	00H
	DB	00H
	DB	0fbH
	DB	07H
	DB	040H
	DB	0ffH
	DB	00H
	DB	00H
	DB	030H
	DB	0efH
	DB	01H
	DB	040H
	DB	0ffH
	DB	00H
	DB	00H
	DB	0b0H
	DB	07fH
	DB	00H
	DB	040H
	DB	0ffH
	DB	00H
	DB	00H
	DB	0f2H
	DB	0ffH
	DB	0ffH
	DB	0ffH
	DB	0ffH
	DB	0ffH
	DB	01H
	DB	0e3H
	DB	0eeH
	DB	0eeH
	DB	0eeH
	DB	0ffH
	DB	0eeH
	DB	01H
	DB	00H
	DB	00H
	DB	00H
	DB	040H
	DB	0ffH
	DB	00H
	DB	00H
	DB	00H
	DB	00H
	DB	00H
	DB	040H
	DB	0ffH
	DB	00H
	DB	00H
	DB	00H
	DB	00H
	DB	00H
	DB	040H
	DB	0ffH
	DB	00H
	DB	00H
	DB	00H
	DB	00H
	DB	00H
	DB	040H
	DB	0ffH
	DB	00H
	DB	00H
	DB	00H
	DB	0fdH
	DB	0ffH
	DB	0ffH
	DB	0ffH
	DB	04H
	DB	00H
	DB	0feH
	DB	0ffH
	DB	0ffH
	DB	0ffH
	DB	04H
	DB	00H
	DB	0ffH
	DB	033H
	DB	033H
	DB	033H
	DB	01H
	DB	010H
	DB	0ffH
	DB	00H
	DB	00H
	DB	00H
	DB	00H
	DB	030H
	DB	0efH
	DB	00H
	DB	00H
	DB	00H
	DB	00H
	DB	040H
	DB	0cfH
	DB	00H
	DB	00H
	DB	00H
	DB	00H
	DB	050H
	DB	0bfH
	DB	00H
	DB	01H
	DB	00H
	DB	00H
	DB	060H
	DB	0cfH
	DB	0fbH
	DB	0dfH
	DB	06H
	DB	00H
	DB	080H
	DB	0ffH
	DB	0ffH
	DB	0ffH
	DB	07fH
	DB	00H
	DB	060H
	DB	0ceH
	DB	03H
	DB	0c3H
	DB	0efH
	DB	01H
	DB	00H
	DB	010H
	DB	00H
	DB	020H
	DB	0ffH
	DB	06H
	DB	00H
	DB	00H
	DB	00H
	DB	00H
	DB	0faH
	DB	0aH
	DB	00H
	DB	00H
	DB	00H
	DB	00H
	DB	0f8H
	DB	0bH
	DB	00H
	DB	00H
	DB	00H
	DB	00H
	DB	0f8H
	DB	0bH
	DB	0f1H
	DB	01fH
	DB	00H
	DB	00H
	DB	0faH
	DB	09H
	DB	0d0H
	DB	06fH
	DB	00H
	DB	010H
	DB	0feH
	DB	06H
	DB	070H
	DB	0efH
	DB	04H
	DB	0a1H
	DB	0efH
	DB	01H
	DB	00H
	DB	0fbH
	DB	0ffH
	DB	0ffH
	DB	04fH
	DB	00H
	DB	00H
	DB	070H
	DB	0fdH
	DB	0aeH
	DB	03H
	DB	00H
	DB	00H
	DB	00H
	DB	093H
	DB	0fdH
	DB	05H
	DB	00H
	DB	00H
	DB	080H
	DB	0ffH
	DB	0ffH
	DB	05H
	DB	00H
	DB	00H
	DB	0f6H
	DB	0afH
	DB	03H
	DB	00H
	DB	00H
	DB	010H
	DB	0feH
	DB	09H
	DB	00H
	DB	00H
	DB	00H
	DB	070H
	DB	0dfH
	DB	00H
	DB	00H
	DB	00H
	DB	00H
	DB	0c0H
	DB	08fH
	DB	00H
	DB	00H
	DB	00H
	DB	00H
	DB	0f0H
	DB	04fH
	DB	00H
	DB	00H
	DB	00H
	DB	00H
	DB	0f2H
	DB	03fH
	DB	0eaH
	DB	0beH
	DB	03H
	DB	00H
	DB	0f4H
	DB	0dfH
	DB	0ffH
	DB	0ffH
	DB	03fH
	DB	00H
	DB	0f4H
	DB	0efH
	DB	05H
	DB	0c2H
	DB	0cfH
	DB	00H
	DB	0f5H
	DB	05fH
	DB	00H
	DB	030H
	DB	0ffH
	DB	03H
	DB	0f5H
	DB	0eH
	DB	00H
	DB	00H
	DB	0fdH
	DB	06H
	DB	0f4H
	DB	0eH
	DB	00H
	DB	00H
	DB	0fbH
	DB	08H
	DB	0f3H
	DB	01fH
	DB	00H
	DB	00H
	DB	0fbH
	DB	08H
	DB	0f0H
	DB	04fH
	DB	00H
	DB	00H
	DB	0fdH
	DB	06H
	DB	0a0H
	DB	0afH
	DB	00H
	DB	030H
	DB	0ffH
	DB	03H
	DB	030H
	DB	0ffH
	DB	06H
	DB	0c2H
	DB	0bfH
	DB	00H
	DB	00H
	DB	0f8H
	DB	0ffH
	DB	0ffH
	DB	02eH
	DB	00H
	DB	00H
	DB	060H
	DB	0fcH
	DB	0aeH
	DB	02H
	DB	00H
	DB	0feH
	DB	0ffH
	DB	0ffH
	DB	0ffH
	DB	0ffH
	DB	0aH
	DB	0edH
	DB	0eeH
	DB	0eeH
	DB	0eeH
	DB	0ffH
	DB	09H
	DB	00H
	DB	00H
	DB	00H
	DB	00H
	DB	0fdH
	DB	04H
	DB	00H
	DB	00H
	DB	00H
	DB	040H
	DB	0dfH
	DB	00H
	DB	00H
	DB	00H
	DB	00H
	DB	0a0H
	DB	08fH
	DB	00H
	DB	00H
	DB	00H
	DB	00H
	DB	0e1H
	DB	03fH
	DB	00H
	DB	00H
	DB	00H
	DB	00H
	DB	0f6H
	DB	0cH
	DB	00H
	DB	00H
	DB	00H
	DB	00H
	DB	0fbH
	DB	07H
	DB	00H
	DB	00H
	DB	00H
	DB	020H
	DB	0ffH
	DB	02H
	DB	00H
	DB	00H
	DB	00H
	DB	080H
	DB	0bfH
	DB	00H
	DB	00H
	DB	00H
	DB	00H
	DB	0d0H
	DB	06fH
	DB	00H
	DB	00H
	DB	00H
	DB	00H
	DB	0f4H
	DB	01eH
	DB	00H
	DB	00H
	DB	00H
	DB	00H
	DB	0f9H
	DB	0aH
	DB	00H
	DB	00H
	DB	00H
	DB	010H
	DB	0feH
	DB	04H
	DB	00H
	DB	00H
	DB	00H
	DB	050H
	DB	0efH
	DB	00H
	DB	00H
	DB	00H
	DB	00H
	DB	0b0H
	DB	09fH
	DB	00H
	DB	00H
	DB	00H
	DB	00H
	DB	0f2H
	DB	03fH
	DB	00H
	DB	00H
	DB	00H
	DB	00H
	DB	0f7H
	DB	0dH
	DB	00H
	DB	00H
	DB	00H
	DB	00H
	DB	0fdH
	DB	07H
	DB	00H
	DB	00H
	DB	00H
	DB	00H
	DB	092H
	DB	0feH
	DB	08dH
	DB	01H
	DB	00H
	DB	020H
	DB	0feH
	DB	0ffH
	DB	0ffH
	DB	01cH
	DB	00H
	DB	0a0H
	DB	0dfH
	DB	03H
	DB	0f5H
	DB	07fH
	DB	00H
	DB	0f1H
	DB	05fH
	DB	00H
	DB	080H
	DB	0cfH
	DB	00H
	DB	0f2H
	DB	02fH
	DB	00H
	DB	050H
	DB	0efH
	DB	00H
	DB	0f2H
	DB	02fH
	DB	00H
	DB	040H
	DB	0efH
	DB	00H
	DB	0e0H
	DB	05fH
	DB	00H
	DB	080H
	DB	0bfH
	DB	00H
	DB	070H
	DB	0dfH
	DB	03H
	DB	0e4H
	DB	04fH
	DB	00H
	DB	00H
	DB	0f9H
	DB	0ffH
	DB	0ffH
	DB	06H
	DB	00H
	DB	00H
	DB	0f9H
	DB	0ffH
	DB	0efH
	DB	06H
	DB	00H
	DB	080H
	DB	0dfH
	DB	013H
	DB	0e5H
	DB	05fH
	DB	00H
	DB	0f2H
	DB	03fH
	DB	00H
	DB	060H
	DB	0dfH
	DB	00H
	DB	0f6H
	DB	0dH
	DB	00H
	DB	010H
	DB	0ffH
	DB	03H
	DB	0f8H
	DB	0bH
	DB	00H
	DB	00H
	DB	0feH
	DB	05H
	DB	0f7H
	DB	0cH
	DB	00H
	DB	00H
	DB	0ffH
	DB	04H
	DB	0f4H
	DB	02fH
	DB	00H
	DB	040H
	DB	0ffH
	DB	01H
	DB	0d0H
	DB	0bfH
	DB	02H
	DB	0d3H
	DB	0afH
	DB	00H
	DB	030H
	DB	0feH
	DB	0ffH
	DB	0ffH
	DB	02dH
	DB	00H
	DB	00H
	DB	0a2H
	DB	0feH
	DB	09dH
	DB	01H
	DB	00H
	DB	00H
	DB	0a2H
	DB	0eeH
	DB	04cH
	DB	00H
	DB	00H
	DB	020H
	DB	0feH
	DB	0ffH
	DB	0ffH
	DB	05H
	DB	00H
	DB	0c0H
	DB	0cfH
	DB	012H
	DB	0faH
	DB	01eH
	DB	00H
	DB	0f3H
	DB	02fH
	DB	00H
	DB	0e1H
	DB	07fH
	DB	00H
	DB	0f7H
	DB	0cH
	DB	00H
	DB	080H
	DB	0cfH
	DB	00H
	DB	0f9H
	DB	09H
	DB	00H
	DB	040H
	DB	0efH
	DB	00H
	DB	0faH
	DB	08H
	DB	00H
	DB	030H
	DB	0ffH
	DB	01H
	DB	0f9H
	DB	09H
	DB	00H
	DB	010H
	DB	0ffH
	DB	02H
	DB	0f8H
	DB	0cH
	DB	00H
	DB	030H
	DB	0ffH
	DB	02H
	DB	0f4H
	DB	02fH
	DB	00H
	DB	0a0H
	DB	0ffH
	DB	02H
	DB	0d0H
	DB	0cfH
	DB	012H
	DB	0f9H
	DB	0ffH
	DB	01H
	DB	040H
	DB	0ffH
	DB	0ffH
	DB	0bfH
	DB	0ffH
	DB	00H
	DB	00H
	DB	0b3H
	DB	0deH
	DB	047H
	DB	0dfH
	DB	00H
	DB	00H
	DB	00H
	DB	00H
	DB	070H
	DB	0afH
	DB	00H
	DB	00H
	DB	00H
	DB	00H
	DB	0c0H
	DB	05fH
	DB	00H
	DB	00H
	DB	00H
	DB	00H
	DB	0f6H
	DB	01dH
	DB	00H
	DB	00H
	DB	010H
	DB	093H
	DB	0ffH
	DB	05H
	DB	00H
	DB	00H
	DB	0f7H
	DB	0ffH
	DB	06fH
	DB	00H
	DB	00H
	DB	00H
	DB	0e7H
	DB	08cH
	DB	02H
	DB	00H
	DB	00H
	DB	0c1H
	DB	05eH
	DB	0f3H
	DB	0afH
	DB	090H
	DB	03bH
	DB	00H
	DB	00H
	DB	00H
	DB	00H
	DB	00H
	DB	00H
	DB	00H
	DB	00H
	DB	00H
	DB	00H
	DB	00H
	DB	00H
	DB	00H
	DB	00H
	DB	00H
	DB	00H
	DB	090H
	DB	03bH
	DB	0f3H
	DB	09fH
	DB	0c1H
	DB	05eH
	DB	030H
	DB	0deH
	DB	02H
	DB	080H
	DB	0ffH
	DB	05H
	DB	020H
	DB	0abH
	DB	01H
	DB	00H
	DB	00H
	DB	00H
	DB	00H
	DB	00H
	DB	00H
	DB	00H
	DB	00H
	DB	00H
	DB	00H
	DB	00H
	DB	00H
	DB	00H
	DB	00H
	DB	00H
	DB	00H
	DB	00H
	DB	00H
	DB	00H
	DB	00H
	DB	00H
	DB	00H
	DB	00H
	DB	00H
	DB	020H
	DB	0bbH
	DB	01H
	DB	030H
	DB	0ffH
	DB	01H
	DB	030H
	DB	0ffH
	DB	01H
	DB	060H
	DB	0dfH
	DB	00H
	DB	0b0H
	DB	08fH
	DB	00H
	DB	0f3H
	DB	01eH
	DB	00H
	DB	070H
	DB	03H
	DB	00H
	DB	00H
	DB	00H
	DB	00H
	DB	040H
	DB	08H
	DB	00H
	DB	00H
	DB	030H
	DB	0fbH
	DB	0aH
	DB	00H
	DB	020H
	DB	0faH
	DB	0ffH
	DB	07H
	DB	010H
	DB	0f8H
	DB	0ffH
	DB	02aH
	DB	00H
	DB	0e6H
	DB	0ffH
	DB	02aH
	DB	00H
	DB	00H
	DB	0ffH
	DB	03bH
	DB	00H
	DB	00H
	DB	00H
	DB	0feH
	DB	08eH
	DB	01H
	DB	00H
	DB	00H
	DB	081H
	DB	0ffH
	DB	08eH
	DB	01H
	DB	00H
	DB	00H
	DB	0a2H
	DB	0ffH
	DB	08eH
	DB	01H
	DB	00H
	DB	00H
	DB	0b3H
	DB	0ffH
	DB	0aH
	DB	00H
	DB	00H
	DB	00H
	DB	0d5H
	DB	0aH
	DB	00H
	DB	00H
	DB	00H
	DB	00H
	DB	03H
	DB	010H
	DB	011H
	DB	011H
	DB	011H
	DB	011H
	DB	0f2H
	DB	0ffH
	DB	0ffH
	DB	0ffH
	DB	0cfH
	DB	0f2H
	DB	0ffH
	DB	0ffH
	DB	0ffH
	DB	0cfH
	DB	00H
	DB	00H
	DB	00H
	DB	00H
	DB	00H
	DB	00H
	DB	00H
	DB	00H
	DB	00H
	DB	00H
	DB	00H
	DB	00H
	DB	00H
	DB	00H
	DB	00H
	DB	0f2H
	DB	0ffH
	DB	0ffH
	DB	0ffH
	DB	0cfH
	DB	0f2H
	DB	0ffH
	DB	0ffH
	DB	0ffH
	DB	0cfH
	DB	084H
	DB	01H
	DB	00H
	DB	00H
	DB	00H
	DB	0f4H
	DB	08eH
	DB	01H
	DB	00H
	DB	00H
	DB	0c2H
	DB	0ffH
	DB	07eH
	DB	01H
	DB	00H
	DB	00H
	DB	0c4H
	DB	0ffH
	DB	06dH
	DB	00H
	DB	00H
	DB	00H
	DB	0b4H
	DB	0ffH
	DB	05dH
	DB	00H
	DB	00H
	DB	00H
	DB	0c3H
	DB	0dfH
	DB	00H
	DB	00H
	DB	040H
	DB	0fbH
	DB	0cfH
	DB	00H
	DB	040H
	DB	0fcH
	DB	0efH
	DB	06H
	DB	050H
	DB	0fcH
	DB	0efH
	DB	017H
	DB	00H
	DB	0f4H
	DB	0efH
	DB	018H
	DB	00H
	DB	00H
	DB	0f4H
	DB	019H
	DB	00H
	DB	00H
	DB	00H
	DB	022H
	DB	00H
	DB	00H
	DB	00H
	DB	00H
	DB	010H
	DB	0d8H
	DB	0dfH
	DB	018H
	DB	00H
	DB	0d1H
	DB	0ffH
	DB	0ffH
	DB	0cfH
	DB	00H
	DB	0f8H
	DB	05eH
	DB	062H
	DB	0ffH
	DB	06H
	DB	0fdH
	DB	07H
	DB	00H
	DB	0f9H
	DB	0bH
	DB	099H
	DB	03H
	DB	00H
	DB	0f6H
	DB	0dH
	DB	00H
	DB	00H
	DB	00H
	DB	0f7H
	DB	0cH
	DB	00H
	DB	00H
	DB	00H
	DB	0fbH
	DB	09H
	DB	00H
	DB	00H
	DB	040H
	DB	0ffH
	DB	03H
	DB	00H
	DB	00H
	DB	0e1H
	DB	09fH
	DB	00H
	DB	00H
	DB	00H
	DB	0fbH
	DB	01cH
	DB	00H
	DB	00H
	DB	060H
	DB	0efH
	DB	02H
	DB	00H
	DB	00H
	DB	0c0H
	DB	09fH
	DB	00H
	DB	00H
	DB	00H
	DB	0e0H
	DB	05fH
	DB	00H
	DB	00H
	DB	00H
	DB	0a0H
	DB	02aH
	DB	00H
	DB	00H
	DB	00H
	DB	00H
	DB	00H
	DB	00H
	DB	00H
	DB	00H
	DB	00H
	DB	00H
	DB	00H
	DB	00H
	DB	00H
	DB	060H
	DB	019H
	DB	00H
	DB	00H
	DB	00H
	DB	0f0H
	DB	07fH
	DB	00H
	DB	00H
	DB	00H
	DB	0b0H
	DB	03eH
	DB	00H
	DB	00H
	DB	00H
	DB	00H
	DB	00H
	DB	0b5H
	DB	0feH
	DB	0beH
	DB	06H
	DB	00H
	DB	00H
	DB	00H
	DB	00H
	DB	0c2H
	DB	0efH
	DB	0acH
	DB	0ecH
	DB	0dfH
	DB	03H
	DB	00H
	DB	00H
	DB	020H
	DB	0eeH
	DB	017H
	DB	00H
	DB	010H
	DB	0e6H
	DB	02eH
	DB	00H
	DB	00H
	DB	0d1H
	DB	03eH
	DB	00H
	DB	00H
	DB	00H
	DB	020H
	DB	0ceH
	DB	00H
	DB	00H
	DB	0f8H
	DB	05H
	DB	00H
	DB	00H
	DB	00H
	DB	00H
	DB	0f4H
	DB	06H
	DB	010H
	DB	0beH
	DB	00H
	DB	00H
	DB	00H
	DB	00H
	DB	00H
	DB	0c0H
	DB	0cH
	DB	070H
	DB	04fH
	DB	00H
	DB	010H
	DB	0eaH
	DB	09eH
	DB	01H
	DB	060H
	DB	02fH
	DB	0c0H
	DB	0eH
	DB	00H
	DB	0c1H
	DB	0bfH
	DB	0fbH
	DB	0bH
	DB	020H
	DB	05fH
	DB	0f1H
	DB	0bH
	DB	00H
	DB	0f8H
	DB	06H
	DB	0f0H
	DB	0bH
	DB	00H
	DB	08fH
	DB	0f4H
	DB	07H
	DB	010H
	DB	0cfH
	DB	00H
	DB	0f2H
	DB	0aH
	DB	00H
	DB	0adH
	DB	0f6H
	DB	06H
	DB	060H
	DB	07fH
	DB	00H
	DB	0f3H
	DB	09H
	DB	00H
	DB	0bdH
	DB	0f7H
	DB	04H
	DB	0a0H
	DB	03fH
	DB	00H
	DB	0f4H
	DB	08H
	DB	00H
	DB	0bcH
	DB	0f8H
	DB	03H
	DB	0c0H
	DB	01fH
	DB	00H
	DB	0f5H
	DB	07H
	DB	00H
	DB	0adH
	DB	0f8H
	DB	03H
	DB	0e0H
	DB	0fH
	DB	00H
	DB	0f6H
	DB	05H
	DB	00H
	DB	09eH
	DB	0f7H
	DB	04H
	DB	0e0H
	DB	0fH
	DB	00H
	DB	0f7H
	DB	04H
	DB	010H
	DB	06fH
	DB	0f6H
	DB	06H
	DB	0d0H
	DB	02fH
	DB	00H
	DB	0fcH
	DB	04H
	DB	060H
	DB	02fH
	DB	0f3H
	DB	08H
	DB	0a0H
	DB	08fH
	DB	060H
	DB	0ffH
	DB	07H
	DB	0d1H
	DB	0bH
	DB	0e0H
	DB	0cH
	DB	050H
	DB	0ffH
	DB	0fdH
	DB	0f7H
	DB	08eH
	DB	0ecH
	DB	03H
	DB	0a0H
	DB	03fH
	DB	00H
	DB	0e7H
	DB	06dH
	DB	050H
	DB	0edH
	DB	03bH
	DB	00H
	DB	040H
	DB	0afH
	DB	00H
	DB	00H
	DB	00H
	DB	00H
	DB	00H
	DB	00H
	DB	00H
	DB	00H
	DB	0faH
	DB	06H
	DB	00H
	DB	00H
	DB	00H
	DB	00H
	DB	00H
	DB	00H
	DB	00H
	DB	0d1H
	DB	08fH
	DB	01H
	DB	00H
	DB	010H
	DB	02H
	DB	00H
	DB	00H
	DB	00H
	DB	010H
	DB	0fbH
	DB	0bfH
	DB	0a9H
	DB	0fcH
	DB	09H
	DB	00H
	DB	00H
	DB	00H
	DB	00H
	DB	050H
	DB	0daH
	DB	0efH
	DB	08cH
	DB	01H
	DB	00H
	DB	00H
	DB	00H
	DB	00H
	DB	00H
	DB	0faH
	DB	0aH
	DB	00H
	DB	00H
	DB	00H
	DB	00H
	DB	00H
	DB	00H
	DB	0feH
	DB	0eH
	DB	00H
	DB	00H
	DB	00H
	DB	00H
	DB	00H
	DB	040H
	DB	0ffH
	DB	04fH
	DB	00H
	DB	00H
	DB	00H
	DB	00H
	DB	00H
	DB	090H
	DB	0dfH
	DB	09fH
	DB	00H
	DB	00H
	DB	00H
	DB	00H
	DB	00H
	DB	0e0H
	DB	05fH
	DB	0efH
	DB	00H
	DB	00H
	DB	00H
	DB	00H
	DB	00H
	DB	0f3H
	DB	0dH
	DB	0fdH
	DB	03H
	DB	00H
	DB	00H
	DB	00H
	DB	00H
	DB	0f8H
	DB	09H
	DB	0f9H
	DB	08H
	DB	00H
	DB	00H
	DB	00H
	DB	00H
	DB	0fdH
	DB	04H
	DB	0f5H
	DB	0dH
	DB	00H
	DB	00H
	DB	00H
	DB	020H
	DB	0efH
	DB	00H
	DB	0f1H
	DB	02fH
	DB	00H
	DB	00H
	DB	00H
	DB	070H
	DB	0bfH
	DB	00H
	DB	0b0H
	DB	07fH
	DB	00H
	DB	00H
	DB	00H
	DB	0c0H
	DB	06fH
	DB	00H
	DB	060H
	DB	0cfH
	DB	00H
	DB	00H
	DB	00H
	DB	0f2H
	DB	02fH
	DB	00H
	DB	020H
	DB	0ffH
	DB	02H
	DB	00H
	DB	00H
	DB	0f6H
	DB	0ffH
	DB	0ffH
	DB	0ffH
	DB	0ffH
	DB	06H
	DB	00H
	DB	00H
	DB	0fbH
	DB	0ffH
	DB	0ffH
	DB	0ffH
	DB	0ffH
	DB	0bH
	DB	00H
	DB	010H
	DB	0ffH
	DB	04H
	DB	00H
	DB	00H
	DB	0f4H
	DB	01fH
	DB	00H
	DB	050H
	DB	0efH
	DB	00H
	DB	00H
	DB	00H
	DB	0e0H
	DB	05fH
	DB	00H
	DB	0a0H
	DB	0afH
	DB	00H
	DB	00H
	DB	00H
	DB	0a0H
	DB	0afH
	DB	00H
	DB	0e0H
	DB	06fH
	DB	00H
	DB	00H
	DB	00H
	DB	050H
	DB	0efH
	DB	00H
	DB	0f4H
	DB	01fH
	DB	00H
	DB	00H
	DB	00H
	DB	010H
	DB	0ffH
	DB	04H
	DB	0ffH
	DB	0ffH
	DB	0ffH
	DB	0adH
	DB	03H
	DB	00H
	DB	0ffH
	DB	0ffH
	DB	0ffH
	DB	0ffH
	DB	04fH
	DB	00H
	DB	0ffH
	DB	05H
	DB	010H
	DB	0d4H
	DB	0dfH
	DB	00H
	DB	0ffH
	DB	05H
	DB	00H
	DB	040H
	DB	0ffH
	DB	03H
	DB	0ffH
	DB	05H
	DB	00H
	DB	010H
	DB	0ffH
	DB	05H
	DB	0ffH
	DB	05H
	DB	00H
	DB	010H
	DB	0ffH
	DB	04H
	DB	0ffH
	DB	05H
	DB	00H
	DB	050H
	DB	0ffH
	DB	01H
	DB	0ffH
	DB	05H
	DB	00H
	DB	0e4H
	DB	08fH
	DB	00H
	DB	0ffH
	DB	0efH
	DB	0feH
	DB	0ffH
	DB	08H
	DB	00H
	DB	0ffH
	DB	0ffH
	DB	0ffH
	DB	0ffH
	DB	02cH
	DB	00H
	DB	0ffH
	DB	05H
	DB	00H
	DB	0b3H
	DB	0dfH
	DB	00H
	DB	0ffH
	DB	05H
	DB	00H
	DB	010H
	DB	0feH
	DB	05H
	DB	0ffH
	DB	05H
	DB	00H
	DB	00H
	DB	0fbH
	DB	09H
	DB	0ffH
	DB	05H
	DB	00H
	DB	00H
	DB	0faH
	DB	0aH
	DB	0ffH
	DB	05H
	DB	00H
	DB	00H
	DB	0fcH
	DB	09H
	DB	0ffH
	DB	05H
	DB	00H
	DB	020H
	DB	0ffH
	DB	06H
	DB	0ffH
	DB	05H
	DB	00H
	DB	0c3H
	DB	0efH
	DB	01H
	DB	0ffH
	DB	0ffH
	DB	0ffH
	DB	0ffH
	DB	05fH
	DB	00H
	DB	0ffH
	DB	0ffH
	DB	0ffH
	DB	0aeH
	DB	03H
	DB	00H
	DB	00H
	DB	010H
	DB	0d8H
	DB	0eeH
	DB	07cH
	DB	00H
	DB	00H
	DB	00H
	DB	0e3H
	DB	0ffH
	DB	0ffH
	DB	0ffH
	DB	01cH
	DB	00H
	DB	010H
	DB	0feH
	DB	04cH
	DB	021H
	DB	0f7H
	DB	09fH
	DB	00H
	DB	090H
	DB	0dfH
	DB	01H
	DB	00H
	DB	060H
	DB	0ffH
	DB	01H
	DB	0e0H
	DB	07fH
	DB	00H
	DB	00H
	DB	010H
	DB	0ffH
	DB	05H
	DB	0f3H
	DB	02fH
	DB	00H
	DB	00H
	DB	00H
	DB	0fdH
	DB	08H
	DB	0f5H
	DB	0fH
	DB	00H
	DB	00H
	DB	00H
	DB	032H
	DB	02H
	DB	0f6H
	DB	0eH
	DB	00H
	DB	00H
	DB	00H
	DB	00H
	DB	00H
	DB	0f6H
	DB	0eH
	DB	00H
	DB	00H
	DB	00H
	DB	00H
	DB	00H
	DB	0f6H
	DB	0eH
	DB	00H
	DB	00H
	DB	00H
	DB	00H
	DB	00H
	DB	0f6H
	DB	0eH
	DB	00H
	DB	00H
	DB	00H
	DB	00H
	DB	00H
	DB	0f6H
	DB	0eH
	DB	00H
	DB	00H
	DB	00H
	DB	00H
	DB	00H
	DB	0f5H
	DB	0fH
	DB	00H
	DB	00H
	DB	00H
	DB	021H
	DB	01H
	DB	0f3H
	DB	02fH
	DB	00H
	DB	00H
	DB	00H
	DB	0fdH
	DB	08H
	DB	0e0H
	DB	06fH
	DB	00H
	DB	00H
	DB	010H
	DB	0ffH
	DB	05H
	DB	090H
	DB	0dfH
	DB	01H
	DB	00H
	DB	060H
	DB	0ffH
	DB	01H
	DB	010H
	DB	0feH
	DB	03bH
	DB	010H
	DB	0e5H
	DB	09fH
	DB	00H
	DB	00H
	DB	0e4H
	DB	0ffH
	DB	0ffH
	DB	0ffH
	DB	01bH
	DB	00H
	DB	00H
	DB	020H
	DB	0d9H
	DB	0efH
	DB	06bH
	DB	00H
	DB	00H
	DB	0ffH
	DB	0ffH
	DB	0efH
	DB	05bH
	DB	00H
	DB	00H
	DB	0ffH
	DB	0ffH
	DB	0ffH
	DB	0ffH
	DB	01bH
	DB	00H
	DB	0ffH
	DB	05H
	DB	020H
	DB	0e7H
	DB	0bfH
	DB	00H
	DB	0ffH
	DB	05H
	DB	00H
	DB	030H
	DB	0ffH
	DB	05H
	DB	0ffH
	DB	05H
	DB	00H
	DB	00H
	DB	0f9H
	DB	0bH
	DB	0ffH
	DB	05H
	DB	00H
	DB	00H
	DB	0f5H
	DB	0eH
	DB	0ffH
	DB	05H
	DB	00H
	DB	00H
	DB	0f2H
	DB	02fH
	DB	0ffH
	DB	05H
	DB	00H
	DB	00H
	DB	0f1H
	DB	03fH
	DB	0ffH
	DB	05H
	DB	00H
	DB	00H
	DB	0f1H
	DB	03fH
	DB	0ffH
	DB	05H
	DB	00H
	DB	00H
	DB	0f1H
	DB	03fH
	DB	0ffH
	DB	05H
	DB	00H
	DB	00H
	DB	0f1H
	DB	03fH
	DB	0ffH
	DB	05H
	DB	00H
	DB	00H
	DB	0f1H
	DB	03fH
	DB	0ffH
	DB	05H
	DB	00H
	DB	00H
	DB	0f3H
	DB	02fH
	DB	0ffH
	DB	05H
	DB	00H
	DB	00H
	DB	0f5H
	DB	0eH
	DB	0ffH
	DB	05H
	DB	00H
	DB	00H
	DB	0faH
	DB	0bH
	DB	0ffH
	DB	05H
	DB	00H
	DB	040H
	DB	0ffH
	DB	05H
	DB	0ffH
	DB	05H
	DB	020H
	DB	0e7H
	DB	0bfH
	DB	00H
	DB	0ffH
	DB	0ffH
	DB	0ffH
	DB	0ffH
	DB	01bH
	DB	00H
	DB	0ffH
	DB	0ffH
	DB	0dfH
	DB	05aH
	DB	00H
	DB	00H
	DB	0ffH
	DB	0ffH
	DB	0ffH
	DB	0ffH
	DB	0cfH
	DB	0ffH
	DB	0ffH
	DB	0ffH
	DB	0ffH
	DB	0cfH
	DB	0ffH
	DB	05H
	DB	00H
	DB	00H
	DB	00H
	DB	0ffH
	DB	05H
	DB	00H
	DB	00H
	DB	00H
	DB	0ffH
	DB	05H
	DB	00H
	DB	00H
	DB	00H
	DB	0ffH
	DB	05H
	DB	00H
	DB	00H
	DB	00H
	DB	0ffH
	DB	05H
	DB	00H
	DB	00H
	DB	00H
	DB	0ffH
	DB	05H
	DB	00H
	DB	00H
	DB	00H
	DB	0ffH
	DB	0ffH
	DB	0ffH
	DB	0ffH
	DB	0dH
	DB	0ffH
	DB	0ffH
	DB	0ffH
	DB	0ffH
	DB	0dH
	DB	0ffH
	DB	05H
	DB	00H
	DB	00H
	DB	00H
	DB	0ffH
	DB	05H
	DB	00H
	DB	00H
	DB	00H
	DB	0ffH
	DB	05H
	DB	00H
	DB	00H
	DB	00H
	DB	0ffH
	DB	05H
	DB	00H
	DB	00H
	DB	00H
	DB	0ffH
	DB	05H
	DB	00H
	DB	00H
	DB	00H
	DB	0ffH
	DB	05H
	DB	00H
	DB	00H
	DB	00H
	DB	0ffH
	DB	05H
	DB	00H
	DB	00H
	DB	00H
	DB	0ffH
	DB	0ffH
	DB	0ffH
	DB	0ffH
	DB	0efH
	DB	0ffH
	DB	0ffH
	DB	0ffH
	DB	0ffH
	DB	0efH
	DB	0ffH
	DB	0ffH
	DB	0ffH
	DB	0ffH
	DB	09fH
	DB	0ffH
	DB	0ffH
	DB	0ffH
	DB	0ffH
	DB	09fH
	DB	0ffH
	DB	05H
	DB	00H
	DB	00H
	DB	00H
	DB	0ffH
	DB	05H
	DB	00H
	DB	00H
	DB	00H
	DB	0ffH
	DB	05H
	DB	00H
	DB	00H
	DB	00H
	DB	0ffH
	DB	05H
	DB	00H
	DB	00H
	DB	00H
	DB	0ffH
	DB	05H
	DB	00H
	DB	00H
	DB	00H
	DB	0ffH
	DB	05H
	DB	00H
	DB	00H
	DB	00H
	DB	0ffH
	DB	05H
	DB	00H
	DB	00H
	DB	00H
	DB	0ffH
	DB	0ffH
	DB	0ffH
	DB	0ffH
	DB	08H
	DB	0ffH
	DB	0ffH
	DB	0ffH
	DB	0ffH
	DB	08H
	DB	0ffH
	DB	05H
	DB	00H
	DB	00H
	DB	00H
	DB	0ffH
	DB	05H
	DB	00H
	DB	00H
	DB	00H
	DB	0ffH
	DB	05H
	DB	00H
	DB	00H
	DB	00H
	DB	0ffH
	DB	05H
	DB	00H
	DB	00H
	DB	00H
	DB	0ffH
	DB	05H
	DB	00H
	DB	00H
	DB	00H
	DB	0ffH
	DB	05H
	DB	00H
	DB	00H
	DB	00H
	DB	0ffH
	DB	05H
	DB	00H
	DB	00H
	DB	00H
	DB	0ffH
	DB	05H
	DB	00H
	DB	00H
	DB	00H
	DB	00H
	DB	030H
	DB	0daH
	DB	0efH
	DB	06cH
	DB	00H
	DB	00H
	DB	00H
	DB	0f6H
	DB	0ffH
	DB	0ffH
	DB	0ffH
	DB	01cH
	DB	00H
	DB	030H
	DB	0ffH
	DB	03bH
	DB	011H
	DB	0f7H
	DB	09fH
	DB	00H
	DB	0b0H
	DB	0cfH
	DB	00H
	DB	00H
	DB	070H
	DB	0ffH
	DB	01H
	DB	0f1H
	DB	05fH
	DB	00H
	DB	00H
	DB	010H
	DB	0ffH
	DB	05H
	DB	0f4H
	DB	01fH
	DB	00H
	DB	00H
	DB	00H
	DB	0ecH
	DB	07H
	DB	0f5H
	DB	0eH
	DB	00H
	DB	00H
	DB	00H
	DB	00H
	DB	00H
	DB	0f6H
	DB	0eH
	DB	00H
	DB	00H
	DB	00H
	DB	00H
	DB	00H
	DB	0f6H
	DB	0eH
	DB	00H
	DB	00H
	DB	00H
	DB	00H
	DB	00H
	DB	0f6H
	DB	0eH
	DB	00H
	DB	00H
	DB	00H
	DB	00H
	DB	00H
	DB	0f6H
	DB	0eH
	DB	00H
	DB	0f2H
	DB	0ffH
	DB	0ffH
	DB	08H
	DB	0f6H
	DB	0eH
	DB	00H
	DB	0f2H
	DB	0ffH
	DB	0ffH
	DB	08H
	DB	0f5H
	DB	0fH
	DB	00H
	DB	00H
	DB	00H
	DB	0fcH
	DB	08H
	DB	0f3H
	DB	02fH
	DB	00H
	DB	00H
	DB	00H
	DB	0fcH
	DB	08H
	DB	0e0H
	DB	07fH
	DB	00H
	DB	00H
	DB	00H
	DB	0fcH
	DB	08H
	DB	090H
	DB	0efH
	DB	01H
	DB	00H
	DB	00H
	DB	0fcH
	DB	08H
	DB	020H
	DB	0feH
	DB	04dH
	DB	011H
	DB	093H
	DB	0ffH
	DB	07H
	DB	00H
	DB	0e3H
	DB	0ffH
	DB	0ffH
	DB	0ffH
	DB	09fH
	DB	00H
	DB	00H
	DB	010H
	DB	0c8H
	DB	0eeH
	DB	0adH
	DB	03H
	DB	00H
	DB	0ffH
	DB	05H
	DB	00H
	DB	00H
	DB	040H
	DB	0ffH
	DB	01H
	DB	0ffH
	DB	05H
	DB	00H
	DB	00H
	DB	040H
	DB	0ffH
	DB	01H
	DB	0ffH
	DB	05H
	DB	00H
	DB	00H
	DB	040H
	DB	0ffH
	DB	01H
	DB	0ffH
	DB	05H
	DB	00H
	DB	00H
	DB	040H
	DB	0ffH
	DB	01H
	DB	0ffH
	DB	05H
	DB	00H
	DB	00H
	DB	040H
	DB	0ffH
	DB	01H
	DB	0ffH
	DB	05H
	DB	00H
	DB	00H
	DB	040H
	DB	0ffH
	DB	01H
	DB	0ffH
	DB	05H
	DB	00H
	DB	00H
	DB	040H
	DB	0ffH
	DB	01H
	DB	0ffH
	DB	05H
	DB	00H
	DB	00H
	DB	040H
	DB	0ffH
	DB	01H
	DB	0ffH
	DB	0ffH
	DB	0ffH
	DB	0ffH
	DB	0ffH
	DB	0ffH
	DB	01H
	DB	0ffH
	DB	0ffH
	DB	0ffH
	DB	0ffH
	DB	0ffH
	DB	0ffH
	DB	01H
	DB	0ffH
	DB	05H
	DB	00H
	DB	00H
	DB	040H
	DB	0ffH
	DB	01H
	DB	0ffH
	DB	05H
	DB	00H
	DB	00H
	DB	040H
	DB	0ffH
	DB	01H
	DB	0ffH
	DB	05H
	DB	00H
	DB	00H
	DB	040H
	DB	0ffH
	DB	01H
	DB	0ffH
	DB	05H
	DB	00H
	DB	00H
	DB	040H
	DB	0ffH
	DB	01H
	DB	0ffH
	DB	05H
	DB	00H
	DB	00H
	DB	040H
	DB	0ffH
	DB	01H
	DB	0ffH
	DB	05H
	DB	00H
	DB	00H
	DB	040H
	DB	0ffH
	DB	01H
	DB	0ffH
	DB	05H
	DB	00H
	DB	00H
	DB	040H
	DB	0ffH
	DB	01H
	DB	0ffH
	DB	05H
	DB	00H
	DB	00H
	DB	040H
	DB	0ffH
	DB	01H
	DB	0ffH
	DB	05H
	DB	00H
	DB	00H
	DB	040H
	DB	0ffH
	DB	01H
	DB	0feH
	DB	06H
	DB	0feH
	DB	06H
	DB	0feH
	DB	06H
	DB	0feH
	DB	06H
	DB	0feH
	DB	06H
	DB	0feH
	DB	06H
	DB	0feH
	DB	06H
	DB	0feH
	DB	06H
	DB	0feH
	DB	06H
	DB	0feH
	DB	06H
	DB	0feH
	DB	06H
	DB	0feH
	DB	06H
	DB	0feH
	DB	06H
	DB	0feH
	DB	06H
	DB	0feH
	DB	06H
	DB	0feH
	DB	06H
	DB	0feH
	DB	06H
	DB	0feH
	DB	06H
	DB	0feH
	DB	06H
	DB	00H
	DB	00H
	DB	00H
	DB	00H
	DB	0faH
	DB	0bH
	DB	00H
	DB	00H
	DB	00H
	DB	00H
	DB	0faH
	DB	0bH
	DB	00H
	DB	00H
	DB	00H
	DB	00H
	DB	0faH
	DB	0bH
	DB	00H
	DB	00H
	DB	00H
	DB	00H
	DB	0faH
	DB	0bH
	DB	00H
	DB	00H
	DB	00H
	DB	00H
	DB	0faH
	DB	0bH
	DB	00H
	DB	00H
	DB	00H
	DB	00H
	DB	0faH
	DB	0bH
	DB	00H
	DB	00H
	DB	00H
	DB	00H
	DB	0faH
	DB	0bH
	DB	00H
	DB	00H
	DB	00H
	DB	00H
	DB	0faH
	DB	0bH
	DB	00H
	DB	00H
	DB	00H
	DB	00H
	DB	0faH
	DB	0bH
	DB	00H
	DB	00H
	DB	00H
	DB	00H
	DB	0faH
	DB	0bH
	DB	00H
	DB	00H
	DB	00H
	DB	00H
	DB	0faH
	DB	0bH
	DB	00H
	DB	00H
	DB	00H
	DB	00H
	DB	0faH
	DB	0bH
	DB	00H
	DB	00H
	DB	00H
	DB	00H
	DB	0faH
	DB	0bH
	DB	061H
	DB	016H
	DB	00H
	DB	00H
	DB	0faH
	DB	0aH
	DB	0f3H
	DB	03fH
	DB	00H
	DB	00H
	DB	0fcH
	DB	09H
	DB	0f0H
	DB	07fH
	DB	00H
	DB	020H
	DB	0ffH
	DB	06H
	DB	0a0H
	DB	0efH
	DB	015H
	DB	0c3H
	DB	0efH
	DB	01H
	DB	010H
	DB	0fdH
	DB	0ffH
	DB	0ffH
	DB	05fH
	DB	00H
	DB	00H
	DB	081H
	DB	0fdH
	DB	0aeH
	DB	03H
	DB	00H
	DB	0ffH
	DB	05H
	DB	00H
	DB	00H
	DB	0f8H
	DB	04fH
	DB	0ffH
	DB	05H
	DB	00H
	DB	040H
	DB	0ffH
	DB	08H
	DB	0ffH
	DB	05H
	DB	00H
	DB	0d1H
	DB	0cfH
	DB	00H
	DB	0ffH
	DB	05H
	DB	00H
	DB	0faH
	DB	02eH
	DB	00H
	DB	0ffH
	DB	05H
	DB	050H
	DB	0ffH
	DB	06H
	DB	00H
	DB	0ffH
	DB	05H
	DB	0e2H
	DB	0afH
	DB	00H
	DB	00H
	DB	0ffH
	DB	05H
	DB	0fbH
	DB	01dH
	DB	00H
	DB	00H
	DB	0ffH
	DB	075H
	DB	0ffH
	DB	04H
	DB	00H
	DB	00H
	DB	0ffH
	DB	0f8H
	DB	0cfH
	DB	00H
	DB	00H
	DB	00H
	DB	0ffH
	DB	0ffH
	DB	0ffH
	DB	04H
	DB	00H
	DB	00H
	DB	0ffH
	DB	0dfH
	DB	0fcH
	DB	01dH
	DB	00H
	DB	00H
	DB	0ffH
	DB	03eH
	DB	0f3H
	DB	08fH
	DB	00H
	DB	00H
	DB	0ffH
	DB	06H
	DB	090H
	DB	0ffH
	DB	02H
	DB	00H
	DB	0ffH
	DB	05H
	DB	010H
	DB	0feH
	DB	0bH
	DB	00H
	DB	0ffH
	DB	05H
	DB	00H
	DB	0f6H
	DB	05fH
	DB	00H
	DB	0ffH
	DB	05H
	DB	00H
	DB	0c0H
	DB	0dfH
	DB	01H
	DB	0ffH
	DB	05H
	DB	00H
	DB	030H
	DB	0ffH
	DB	08H
	DB	0ffH
	DB	05H
	DB	00H
	DB	00H
	DB	0f9H
	DB	03fH
	DB	0ffH
	DB	05H
	DB	00H
	DB	00H
	DB	0e1H
	DB	0cfH
	DB	0ffH
	DB	05H
	DB	00H
	DB	00H
	DB	00H
	DB	0ffH
	DB	05H
	DB	00H
	DB	00H
	DB	00H
	DB	0ffH
	DB	05H
	DB	00H
	DB	00H
	DB	00H
	DB	0ffH
	DB	05H
	DB	00H
	DB	00H
	DB	00H
	DB	0ffH
	DB	05H
	DB	00H
	DB	00H
	DB	00H
	DB	0ffH
	DB	05H
	DB	00H
	DB	00H
	DB	00H
	DB	0ffH
	DB	05H
	DB	00H
	DB	00H
	DB	00H
	DB	0ffH
	DB	05H
	DB	00H
	DB	00H
	DB	00H
	DB	0ffH
	DB	05H
	DB	00H
	DB	00H
	DB	00H
	DB	0ffH
	DB	05H
	DB	00H
	DB	00H
	DB	00H
	DB	0ffH
	DB	05H
	DB	00H
	DB	00H
	DB	00H
	DB	0ffH
	DB	05H
	DB	00H
	DB	00H
	DB	00H
	DB	0ffH
	DB	05H
	DB	00H
	DB	00H
	DB	00H
	DB	0ffH
	DB	05H
	DB	00H
	DB	00H
	DB	00H
	DB	0ffH
	DB	05H
	DB	00H
	DB	00H
	DB	00H
	DB	0ffH
	DB	05H
	DB	00H
	DB	00H
	DB	00H
	DB	0ffH
	DB	05H
	DB	00H
	DB	00H
	DB	00H
	DB	0ffH
	DB	0ffH
	DB	0ffH
	DB	0ffH
	DB	09fH
	DB	0ffH
	DB	0ffH
	DB	0ffH
	DB	0ffH
	DB	09fH
	DB	0ffH
	DB	02fH
	DB	00H
	DB	00H
	DB	00H
	DB	00H
	DB	0f8H
	DB	0afH
	DB	0ffH
	DB	07fH
	DB	00H
	DB	00H
	DB	00H
	DB	00H
	DB	0fcH
	DB	0afH
	DB	0ffH
	DB	0bfH
	DB	00H
	DB	00H
	DB	00H
	DB	020H
	DB	0ffH
	DB	0afH
	DB	0ffH
	DB	0ffH
	DB	01H
	DB	00H
	DB	00H
	DB	070H
	DB	0ffH
	DB	0afH
	DB	0ffH
	DB	0feH
	DB	06H
	DB	00H
	DB	00H
	DB	0b0H
	DB	0efH
	DB	0afH
	DB	0ffH
	DB	0f9H
	DB	0aH
	DB	00H
	DB	00H
	DB	0f1H
	DB	09fH
	DB	0afH
	DB	0ffH
	DB	0f5H
	DB	01eH
	DB	00H
	DB	00H
	DB	0f6H
	DB	08cH
	DB	0afH
	DB	0ffH
	DB	0d3H
	DB	05fH
	DB	00H
	DB	00H
	DB	0faH
	DB	097H
	DB	0afH
	DB	0ffH
	DB	083H
	DB	09fH
	DB	00H
	DB	010H
	DB	0feH
	DB	092H
	DB	0afH
	DB	0ffH
	DB	034H
	DB	0efH
	DB	00H
	DB	050H
	DB	0cfH
	DB	090H
	DB	0afH
	DB	0ffH
	DB	04H
	DB	0fdH
	DB	04H
	DB	0a0H
	DB	07fH
	DB	0a0H
	DB	0afH
	DB	0ffH
	DB	05H
	DB	0f8H
	DB	08H
	DB	0e0H
	DB	02fH
	DB	0a0H
	DB	0afH
	DB	0ffH
	DB	05H
	DB	0f3H
	DB	0dH
	DB	0f4H
	DB	0cH
	DB	0a0H
	DB	0afH
	DB	0ffH
	DB	05H
	DB	0d0H
	DB	03fH
	DB	0f9H
	DB	07H
	DB	0a0H
	DB	0afH
	DB	0ffH
	DB	05H
	DB	080H
	DB	08fH
	DB	0fdH
	DB	02H
	DB	0a0H
	DB	0afH
	DB	0ffH
	DB	05H
	DB	040H
	DB	0efH
	DB	0cfH
	DB	00H
	DB	0a0H
	DB	0afH
	DB	0ffH
	DB	05H
	DB	00H
	DB	0feH
	DB	08fH
	DB	00H
	DB	0a0H
	DB	0afH
	DB	0ffH
	DB	05H
	DB	00H
	DB	0f9H
	DB	03fH
	DB	00H
	DB	0a0H
	DB	0afH
	DB	0ffH
	DB	05H
	DB	00H
	DB	0f4H
	DB	0dH
	DB	00H
	DB	0a0H
	DB	0afH
	DB	0ffH
	DB	09H
	DB	00H
	DB	00H
	DB	040H
	DB	0ffH
	DB	01H
	DB	0ffH
	DB	02fH
	DB	00H
	DB	00H
	DB	040H
	DB	0ffH
	DB	01H
	DB	0ffH
	DB	09fH
	DB	00H
	DB	00H
	DB	040H
	DB	0ffH
	DB	01H
	DB	0ffH
	DB	0ffH
	DB	02H
	DB	00H
	DB	040H
	DB	0ffH
	DB	01H
	DB	0ffH
	DB	0fdH
	DB	09H
	DB	00H
	DB	040H
	DB	0ffH
	DB	01H
	DB	0ffH
	DB	0f7H
	DB	02fH
	DB	00H
	DB	040H
	DB	0ffH
	DB	01H
	DB	0ffH
	DB	095H
	DB	09fH
	DB	00H
	DB	040H
	DB	0ffH
	DB	01H
	DB	0ffH
	DB	025H
	DB	0ffH
	DB	02H
	DB	040H
	DB	0ffH
	DB	01H
	DB	0ffH
	DB	05H
	DB	0f9H
	DB	09H
	DB	040H
	DB	0ffH
	DB	01H
	DB	0ffH
	DB	05H
	DB	0f2H
	DB	02fH
	DB	040H
	DB	0ffH
	DB	01H
	DB	0ffH
	DB	05H
	DB	090H
	DB	09fH
	DB	040H
	DB	0ffH
	DB	01H
	DB	0ffH
	DB	05H
	DB	010H
	DB	0feH
	DB	042H
	DB	0ffH
	DB	01H
	DB	0ffH
	DB	05H
	DB	00H
	DB	0f8H
	DB	04aH
	DB	0ffH
	DB	01H
	DB	0ffH
	DB	05H
	DB	00H
	DB	0e1H
	DB	06fH
	DB	0ffH
	DB	01H
	DB	0ffH
	DB	05H
	DB	00H
	DB	080H
	DB	0dfH
	DB	0ffH
	DB	01H
	DB	0ffH
	DB	05H
	DB	00H
	DB	010H
	DB	0feH
	DB	0ffH
	DB	01H
	DB	0ffH
	DB	05H
	DB	00H
	DB	00H
	DB	0f8H
	DB	0ffH
	DB	01H
	DB	0ffH
	DB	05H
	DB	00H
	DB	00H
	DB	0e1H
	DB	0ffH
	DB	01H
	DB	0ffH
	DB	05H
	DB	00H
	DB	00H
	DB	080H
	DB	0ffH
	DB	01H
	DB	00H
	DB	020H
	DB	0d9H
	DB	0efH
	DB	06cH
	DB	00H
	DB	00H
	DB	00H
	DB	0e3H
	DB	0ffH
	DB	0ffH
	DB	0ffH
	DB	01bH
	DB	00H
	DB	010H
	DB	0feH
	DB	05dH
	DB	032H
	DB	0f8H
	DB	0afH
	DB	00H
	DB	090H
	DB	0dfH
	DB	01H
	DB	00H
	DB	050H
	DB	0ffH
	DB	03H
	DB	0e0H
	DB	06fH
	DB	00H
	DB	00H
	DB	00H
	DB	0fcH
	DB	09H
	DB	0f3H
	DB	02fH
	DB	00H
	DB	00H
	DB	00H
	DB	0f8H
	DB	0cH
	DB	0f5H
	DB	0fH
	DB	00H
	DB	00H
	DB	00H
	DB	0f6H
	DB	0eH
	DB	0f6H
	DB	0eH
	DB	00H
	DB	00H
	DB	00H
	DB	0f5H
	DB	0fH
	DB	0f6H
	DB	0dH
	DB	00H
	DB	00H
	DB	00H
	DB	0f5H
	DB	0fH
	DB	0f6H
	DB	0dH
	DB	00H
	DB	00H
	DB	00H
	DB	0f5H
	DB	0fH
	DB	0f6H
	DB	0dH
	DB	00H
	DB	00H
	DB	00H
	DB	0f5H
	DB	0fH
	DB	0f6H
	DB	0eH
	DB	00H
	DB	00H
	DB	00H
	DB	0f5H
	DB	0fH
	DB	0f5H
	DB	0eH
	DB	00H
	DB	00H
	DB	00H
	DB	0f6H
	DB	0eH
	DB	0f3H
	DB	02fH
	DB	00H
	DB	00H
	DB	00H
	DB	0f8H
	DB	0cH
	DB	0e0H
	DB	06fH
	DB	00H
	DB	00H
	DB	00H
	DB	0fcH
	DB	09H
	DB	090H
	DB	0dfH
	DB	01H
	DB	00H
	DB	040H
	DB	0ffH
	DB	03H
	DB	010H
	DB	0feH
	DB	04cH
	DB	021H
	DB	0e7H
	DB	0afH
	DB	00H
	DB	00H
	DB	0e4H
	DB	0ffH
	DB	0ffH
	DB	0ffH
	DB	01cH
	DB	00H
	DB	00H
	DB	020H
	DB	0d9H
	DB	0efH
	DB	06cH
	DB	00H
	DB	00H
	DB	0ffH
	DB	0ffH
	DB	0ffH
	DB	0ceH
	DB	06H
	DB	00H
	DB	0ffH
	DB	0ffH
	DB	0ffH
	DB	0ffH
	DB	0bfH
	DB	00H
	DB	0ffH
	DB	05H
	DB	00H
	DB	071H
	DB	0ffH
	DB	08H
	DB	0ffH
	DB	05H
	DB	00H
	DB	00H
	DB	0f9H
	DB	01eH
	DB	0ffH
	DB	05H
	DB	00H
	DB	00H
	DB	0f2H
	DB	04fH
	DB	0ffH
	DB	05H
	DB	00H
	DB	00H
	DB	0f0H
	DB	05fH
	DB	0ffH
	DB	05H
	DB	00H
	DB	00H
	DB	0f0H
	DB	06fH
	DB	0ffH
	DB	05H
	DB	00H
	DB	00H
	DB	0f2H
	DB	04fH
	DB	0ffH
	DB	05H
	DB	00H
	DB	00H
	DB	0f8H
	DB	01fH
	DB	0ffH
	DB	05H
	DB	00H
	DB	061H
	DB	0ffH
	DB	09H
	DB	0ffH
	DB	0ffH
	DB	0ffH
	DB	0ffH
	DB	0cfH
	DB	01H
	DB	0ffH
	DB	0ffH
	DB	0ffH
	DB	0ceH
	DB	017H
	DB	00H
	DB	0ffH
	DB	05H
	DB	00H
	DB	00H
	DB	00H
	DB	00H
	DB	0ffH
	DB	05H
	DB	00H
	DB	00H
	DB	00H
	DB	00H
	DB	0ffH
	DB	05H
	DB	00H
	DB	00H
	DB	00H
	DB	00H
	DB	0ffH
	DB	05H
	DB	00H
	DB	00H
	DB	00H
	DB	00H
	DB	0ffH
	DB	05H
	DB	00H
	DB	00H
	DB	00H
	DB	00H
	DB	0ffH
	DB	05H
	DB	00H
	DB	00H
	DB	00H
	DB	00H
	DB	0ffH
	DB	05H
	DB	00H
	DB	00H
	DB	00H
	DB	00H
	DB	00H
	DB	020H
	DB	0d9H
	DB	0efH
	DB	05bH
	DB	00H
	DB	00H
	DB	00H
	DB	0f5H
	DB	0ffH
	DB	0ffH
	DB	0ffH
	DB	0aH
	DB	00H
	DB	020H
	DB	0ffH
	DB	05cH
	DB	032H
	DB	0f8H
	DB	08fH
	DB	00H
	DB	0b0H
	DB	0dfH
	DB	01H
	DB	00H
	DB	070H
	DB	0ffH
	DB	02H
	DB	0f1H
	DB	05fH
	DB	00H
	DB	00H
	DB	00H
	DB	0feH
	DB	07H
	DB	0f5H
	DB	01fH
	DB	00H
	DB	00H
	DB	00H
	DB	0faH
	DB	0aH
	DB	0f7H
	DB	0dH
	DB	00H
	DB	00H
	DB	00H
	DB	0f7H
	DB	0cH
	DB	0f8H
	DB	0cH
	DB	00H
	DB	00H
	DB	00H
	DB	0f6H
	DB	0dH
	DB	0f8H
	DB	0cH
	DB	00H
	DB	00H
	DB	00H
	DB	0f6H
	DB	0eH
	DB	0f8H
	DB	0cH
	DB	00H
	DB	00H
	DB	00H
	DB	0f6H
	DB	0eH
	DB	0f8H
	DB	0cH
	DB	00H
	DB	00H
	DB	00H
	DB	0f6H
	DB	0eH
	DB	0f8H
	DB	0cH
	DB	00H
	DB	00H
	DB	00H
	DB	0f6H
	DB	0dH
	DB	0f7H
	DB	0dH
	DB	00H
	DB	00H
	DB	00H
	DB	0f7H
	DB	0cH
	DB	0f5H
	DB	01fH
	DB	00H
	DB	00H
	DB	00H
	DB	0f9H
	DB	0bH
	DB	0f1H
	DB	05fH
	DB	00H
	DB	00H
	DB	00H
	DB	0fdH
	DB	07H
	DB	0b0H
	DB	0cfH
	DB	00H
	DB	00H
	DB	060H
	DB	0ffH
	DB	02H
	DB	030H
	DB	0ffH
	DB	04cH
	DB	021H
	DB	0f7H
	DB	09fH
	DB	00H
	DB	00H
	DB	0f5H
	DB	0ffH
	DB	0ffH
	DB	0ffH
	DB	0bH
	DB	00H
	DB	00H
	DB	020H
	DB	0d9H
	DB	0efH
	DB	0feH
	DB	03eH
	DB	00H
	DB	00H
	DB	00H
	DB	00H
	DB	00H
	DB	0d2H
	DB	0efH
	DB	04H
	DB	00H
	DB	00H
	DB	00H
	DB	00H
	DB	020H
	DB	0fcH
	DB	0dH
	DB	00H
	DB	00H
	DB	00H
	DB	00H
	DB	00H
	DB	0a1H
	DB	02H
	DB	0ffH
	DB	0ffH
	DB	0ffH
	DB	09dH
	DB	02H
	DB	00H
	DB	0ffH
	DB	0ffH
	DB	0ffH
	DB	0ffH
	DB	03eH
	DB	00H
	DB	0ffH
	DB	05H
	DB	010H
	DB	0d4H
	DB	0dfH
	DB	00H
	DB	0ffH
	DB	05H
	DB	00H
	DB	030H
	DB	0ffH
	DB	05H
	DB	0ffH
	DB	05H
	DB	00H
	DB	00H
	DB	0fcH
	DB	08H
	DB	0ffH
	DB	05H
	DB	00H
	DB	00H
	DB	0faH
	DB	0aH
	DB	0ffH
	DB	05H
	DB	00H
	DB	00H
	DB	0fbH
	DB	0aH
	DB	0ffH
	DB	05H
	DB	00H
	DB	00H
	DB	0fdH
	DB	08H
	DB	0ffH
	DB	05H
	DB	00H
	DB	050H
	DB	0ffH
	DB	04H
	DB	0ffH
	DB	05H
	DB	010H
	DB	0e5H
	DB	0cfH
	DB	00H
	DB	0ffH
	DB	0ffH
	DB	0ffH
	DB	0ffH
	DB	02dH
	DB	00H
	DB	0ffH
	DB	0ffH
	DB	0ffH
	DB	0efH
	DB	01H
	DB	00H
	DB	0ffH
	DB	05H
	DB	030H
	DB	0ffH
	DB	04H
	DB	00H
	DB	0ffH
	DB	05H
	DB	00H
	DB	0fbH
	DB	0bH
	DB	00H
	DB	0ffH
	DB	05H
	DB	00H
	DB	0f4H
	DB	03fH
	DB	00H
	DB	0ffH
	DB	05H
	DB	00H
	DB	0c0H
	DB	0bfH
	DB	00H
	DB	0ffH
	DB	05H
	DB	00H
	DB	050H
	DB	0ffH
	DB	03H
	DB	0ffH
	DB	05H
	DB	00H
	DB	00H
	DB	0fcH
	DB	0aH
	DB	0ffH
	DB	05H
	DB	00H
	DB	00H
	DB	0f5H
	DB	02fH
	DB	00H
	DB	081H
	DB	0fdH
	DB	0beH
	DB	05H
	DB	00H
	DB	020H
	DB	0fdH
	DB	0ffH
	DB	0ffH
	DB	0afH
	DB	00H
	DB	0c0H
	DB	0dfH
	DB	015H
	DB	072H
	DB	0ffH
	DB	08H
	DB	0f3H
	DB	04fH
	DB	00H
	DB	00H
	DB	0f7H
	DB	01eH
	DB	0f6H
	DB	0fH
	DB	00H
	DB	00H
	DB	0f1H
	DB	04fH
	DB	0f6H
	DB	0fH
	DB	00H
	DB	00H
	DB	090H
	DB	039H
	DB	0f3H
	DB	06fH
	DB	00H
	DB	00H
	DB	00H
	DB	00H
	DB	0c0H
	DB	0ffH
	DB	018H
	DB	00H
	DB	00H
	DB	00H
	DB	020H
	DB	0fdH
	DB	0efH
	DB	039H
	DB	00H
	DB	00H
	DB	00H
	DB	091H
	DB	0ffH
	DB	0ffH
	DB	02aH
	DB	00H
	DB	00H
	DB	00H
	DB	071H
	DB	0fdH
	DB	0efH
	DB	03H
	DB	00H
	DB	00H
	DB	00H
	DB	060H
	DB	0feH
	DB	0cH
	DB	00H
	DB	00H
	DB	00H
	DB	00H
	DB	0f5H
	DB	03fH
	DB	098H
	DB	04H
	DB	00H
	DB	00H
	DB	0f1H
	DB	06fH
	DB	0fcH
	DB	09H
	DB	00H
	DB	00H
	DB	0f0H
	DB	06fH
	DB	0f7H
	DB	01eH
	DB	00H
	DB	00H
	DB	0f4H
	DB	03fH
	DB	0d1H
	DB	0dfH
	DB	014H
	DB	051H
	DB	0fdH
	DB	0cH
	DB	030H
	DB	0fdH
	DB	0ffH
	DB	0ffH
	DB	0efH
	DB	02H
	DB	00H
	DB	071H
	DB	0ecH
	DB	0dfH
	DB	018H
	DB	00H
	DB	0f4H
	DB	0ffH
	DB	0ffH
	DB	0ffH
	DB	0ffH
	DB	0ffH
	DB	0cH
	DB	0f4H
	DB	0ffH
	DB	0ffH
	DB	0ffH
	DB	0ffH
	DB	0ffH
	DB	0cH
	DB	00H
	DB	00H
	DB	060H
	DB	0efH
	DB	00H
	DB	00H
	DB	00H
	DB	00H
	DB	00H
	DB	060H
	DB	0efH
	DB	00H
	DB	00H
	DB	00H
	DB	00H
	DB	00H
	DB	060H
	DB	0efH
	DB	00H
	DB	00H
	DB	00H
	DB	00H
	DB	00H
	DB	060H
	DB	0efH
	DB	00H
	DB	00H
	DB	00H
	DB	00H
	DB	00H
	DB	060H
	DB	0efH
	DB	00H
	DB	00H
	DB	00H
	DB	00H
	DB	00H
	DB	060H
	DB	0efH
	DB	00H
	DB	00H
	DB	00H
	DB	00H
	DB	00H
	DB	060H
	DB	0efH
	DB	00H
	DB	00H
	DB	00H
	DB	00H
	DB	00H
	DB	060H
	DB	0efH
	DB	00H
	DB	00H
	DB	00H
	DB	00H
	DB	00H
	DB	060H
	DB	0efH
	DB	00H
	DB	00H
	DB	00H
	DB	00H
	DB	00H
	DB	060H
	DB	0efH
	DB	00H
	DB	00H
	DB	00H
	DB	00H
	DB	00H
	DB	060H
	DB	0efH
	DB	00H
	DB	00H
	DB	00H
	DB	00H
	DB	00H
	DB	060H
	DB	0efH
	DB	00H
	DB	00H
	DB	00H
	DB	00H
	DB	00H
	DB	060H
	DB	0efH
	DB	00H
	DB	00H
	DB	00H
	DB	00H
	DB	00H
	DB	060H
	DB	0efH
	DB	00H
	DB	00H
	DB	00H
	DB	00H
	DB	00H
	DB	060H
	DB	0efH
	DB	00H
	DB	00H
	DB	00H
	DB	00H
	DB	00H
	DB	060H
	DB	0efH
	DB	00H
	DB	00H
	DB	00H
	DB	00H
	DB	00H
	DB	060H
	DB	0efH
	DB	00H
	DB	00H
	DB	00H
	DB	0f5H
	DB	0fH
	DB	00H
	DB	00H
	DB	050H
	DB	0ffH
	DB	0f5H
	DB	0fH
	DB	00H
	DB	00H
	DB	050H
	DB	0ffH
	DB	0f5H
	DB	0fH
	DB	00H
	DB	00H
	DB	050H
	DB	0ffH
	DB	0f5H
	DB	0fH
	DB	00H
	DB	00H
	DB	050H
	DB	0ffH
	DB	0f5H
	DB	0fH
	DB	00H
	DB	00H
	DB	050H
	DB	0ffH
	DB	0f5H
	DB	0fH
	DB	00H
	DB	00H
	DB	050H
	DB	0ffH
	DB	0f5H
	DB	0fH
	DB	00H
	DB	00H
	DB	050H
	DB	0ffH
	DB	0f5H
	DB	0fH
	DB	00H
	DB	00H
	DB	050H
	DB	0ffH
	DB	0f5H
	DB	0fH
	DB	00H
	DB	00H
	DB	050H
	DB	0ffH
	DB	0f5H
	DB	0fH
	DB	00H
	DB	00H
	DB	050H
	DB	0ffH
	DB	0f5H
	DB	0fH
	DB	00H
	DB	00H
	DB	050H
	DB	0ffH
	DB	0f5H
	DB	0fH
	DB	00H
	DB	00H
	DB	050H
	DB	0ffH
	DB	0f5H
	DB	0fH
	DB	00H
	DB	00H
	DB	050H
	DB	0ffH
	DB	0f5H
	DB	0fH
	DB	00H
	DB	00H
	DB	050H
	DB	0ffH
	DB	0f4H
	DB	02fH
	DB	00H
	DB	00H
	DB	070H
	DB	0efH
	DB	0f1H
	DB	07fH
	DB	00H
	DB	00H
	DB	0c0H
	DB	0afH
	DB	090H
	DB	0efH
	DB	026H
	DB	030H
	DB	0faH
	DB	03fH
	DB	010H
	DB	0fcH
	DB	0ffH
	DB	0ffH
	DB	0ffH
	DB	07H
	DB	00H
	DB	070H
	DB	0ecH
	DB	0dfH
	DB	03aH
	DB	00H
	DB	0f5H
	DB	03fH
	DB	00H
	DB	00H
	DB	00H
	DB	0a0H
	DB	0dfH
	DB	0f1H
	DB	08fH
	DB	00H
	DB	00H
	DB	00H
	DB	0e0H
	DB	09fH
	DB	0b0H
	DB	0cfH
	DB	00H
	DB	00H
	DB	00H
	DB	0f3H
	DB	04fH
	DB	060H
	DB	0ffH
	DB	01H
	DB	00H
	DB	00H
	DB	0f7H
	DB	0eH
	DB	020H
	DB	0ffH
	DB	05H
	DB	00H
	DB	00H
	DB	0fcH
	DB	0aH
	DB	00H
	DB	0fcH
	DB	09H
	DB	00H
	DB	010H
	DB	0ffH
	DB	06H
	DB	00H
	DB	0f8H
	DB	0eH
	DB	00H
	DB	050H
	DB	0ffH
	DB	01H
	DB	00H
	DB	0f3H
	DB	03fH
	DB	00H
	DB	090H
	DB	0cfH
	DB	00H
	DB	00H
	DB	0e0H
	DB	07fH
	DB	00H
	DB	0e0H
	DB	07fH
	DB	00H
	DB	00H
	DB	090H
	DB	0bfH
	DB	00H
	DB	0f3H
	DB	03fH
	DB	00H
	DB	00H
	DB	050H
	DB	0ffH
	DB	01H
	DB	0f7H
	DB	0dH
	DB	00H
	DB	00H
	DB	010H
	DB	0feH
	DB	05H
	DB	0fbH
	DB	08H
	DB	00H
	DB	00H
	DB	00H
	DB	0faH
	DB	019H
	DB	0ffH
	DB	04H
	DB	00H
	DB	00H
	DB	00H
	DB	0f6H
	DB	05dH
	DB	0efH
	DB	00H
	DB	00H
	DB	00H
	DB	00H
	DB	0f1H
	DB	0bfH
	DB	0afH
	DB	00H
	DB	00H
	DB	00H
	DB	00H
	DB	0c0H
	DB	0ffH
	DB	05fH
	DB	00H
	DB	00H
	DB	00H
	DB	00H
	DB	070H
	DB	0ffH
	DB	01fH
	DB	00H
	DB	00H
	DB	00H
	DB	00H
	DB	030H
	DB	0ffH
	DB	0bH
	DB	00H
	DB	00H
	DB	00H
	DB	00H
	DB	00H
	DB	0fdH
	DB	07H
	DB	00H
	DB	00H
	DB	0ffH
	DB	05H
	DB	00H
	DB	010H
	DB	0ffH
	DB	02H
	DB	00H
	DB	040H
	DB	0ffH
	DB	01H
	DB	0fcH
	DB	07H
	DB	00H
	DB	040H
	DB	0ffH
	DB	05H
	DB	00H
	DB	070H
	DB	0dfH
	DB	00H
	DB	0f9H
	DB	0aH
	DB	00H
	DB	070H
	DB	0ffH
	DB	09H
	DB	00H
	DB	0a0H
	DB	0afH
	DB	00H
	DB	0f6H
	DB	0dH
	DB	00H
	DB	0a0H
	DB	0ffH
	DB	0cH
	DB	00H
	DB	0c0H
	DB	07fH
	DB	00H
	DB	0f3H
	DB	0fH
	DB	00H
	DB	0e0H
	DB	0dfH
	DB	0fH
	DB	00H
	DB	0f0H
	DB	04fH
	DB	00H
	DB	0f1H
	DB	03fH
	DB	00H
	DB	0f2H
	DB	0acH
	DB	03fH
	DB	00H
	DB	0f2H
	DB	01fH
	DB	00H
	DB	0d0H
	DB	05fH
	DB	00H
	DB	0f5H
	DB	078H
	DB	07fH
	DB	00H
	DB	0f5H
	DB	0dH
	DB	00H
	DB	0a0H
	DB	08fH
	DB	00H
	DB	0f9H
	DB	035H
	DB	0afH
	DB	00H
	DB	0f8H
	DB	0aH
	DB	00H
	DB	070H
	DB	0bfH
	DB	00H
	DB	0fcH
	DB	01H
	DB	0dfH
	DB	00H
	DB	0faH
	DB	07H
	DB	00H
	DB	040H
	DB	0dfH
	DB	010H
	DB	0dfH
	DB	00H
	DB	0fcH
	DB	01H
	DB	0fdH
	DB	04H
	DB	00H
	DB	010H
	DB	0ffH
	DB	041H
	DB	0afH
	DB	00H
	DB	0f8H
	DB	015H
	DB	0ffH
	DB	01H
	DB	00H
	DB	00H
	DB	0fdH
	DB	074H
	DB	06fH
	DB	00H
	DB	0f5H
	DB	038H
	DB	0dfH
	DB	00H
	DB	00H
	DB	00H
	DB	0faH
	DB	0b6H
	DB	03fH
	DB	00H
	DB	0f2H
	DB	06bH
	DB	0afH
	DB	00H
	DB	00H
	DB	00H
	DB	0f7H
	DB	0e9H
	DB	0eH
	DB	00H
	DB	0d0H
	DB	08eH
	DB	08fH
	DB	00H
	DB	00H
	DB	00H
	DB	0f4H
	DB	0fcH
	DB	0bH
	DB	00H
	DB	0a0H
	DB	0cfH
	DB	05fH
	DB	00H
	DB	00H
	DB	00H
	DB	0f1H
	DB	0ffH
	DB	07H
	DB	00H
	DB	070H
	DB	0ffH
	DB	02fH
	DB	00H
	DB	00H
	DB	00H
	DB	0e0H
	DB	0ffH
	DB	04H
	DB	00H
	DB	030H
	DB	0ffH
	DB	0eH
	DB	00H
	DB	00H
	DB	00H
	DB	0b0H
	DB	0ffH
	DB	01H
	DB	00H
	DB	00H
	DB	0ffH
	DB	0bH
	DB	00H
	DB	00H
	DB	00H
	DB	080H
	DB	0cfH
	DB	00H
	DB	00H
	DB	00H
	DB	0fcH
	DB	08H
	DB	00H
	DB	00H
	DB	0fcH
	DB	0eH
	DB	00H
	DB	00H
	DB	090H
	DB	0ffH
	DB	02H
	DB	0f4H
	DB	06fH
	DB	00H
	DB	00H
	DB	0f1H
	DB	09fH
	DB	00H
	DB	0b0H
	DB	0dfH
	DB	00H
	DB	00H
	DB	0f8H
	DB	02fH
	DB	00H
	DB	040H
	DB	0ffH
	DB	06H
	DB	010H
	DB	0feH
	DB	09H
	DB	00H
	DB	00H
	DB	0fbH
	DB	0dH
	DB	080H
	DB	0ffH
	DB	02H
	DB	00H
	DB	00H
	DB	0f3H
	DB	06fH
	DB	0e1H
	DB	09fH
	DB	00H
	DB	00H
	DB	00H
	DB	0b0H
	DB	0dfH
	DB	0f8H
	DB	02fH
	DB	00H
	DB	00H
	DB	00H
	DB	030H
	DB	0ffH
	DB	0ffH
	DB	08H
	DB	00H
	DB	00H
	DB	00H
	DB	00H
	DB	0faH
	DB	0efH
	DB	01H
	DB	00H
	DB	00H
	DB	00H
	DB	00H
	DB	0f5H
	DB	0bfH
	DB	00H
	DB	00H
	DB	00H
	DB	00H
	DB	00H
	DB	0fbH
	DB	0ffH
	DB	02H
	DB	00H
	DB	00H
	DB	00H
	DB	040H
	DB	0ffH
	DB	0feH
	DB	0aH
	DB	00H
	DB	00H
	DB	00H
	DB	0c0H
	DB	0bfH
	DB	0f6H
	DB	02fH
	DB	00H
	DB	00H
	DB	00H
	DB	0f5H
	DB	04fH
	DB	0d0H
	DB	0afH
	DB	00H
	DB	00H
	DB	00H
	DB	0fcH
	DB	0cH
	DB	060H
	DB	0ffH
	DB	03H
	DB	00H
	DB	050H
	DB	0ffH
	DB	05H
	DB	00H
	DB	0feH
	DB	0bH
	DB	00H
	DB	0d0H
	DB	0cfH
	DB	00H
	DB	00H
	DB	0f7H
	DB	03fH
	DB	00H
	DB	0f6H
	DB	05fH
	DB	00H
	DB	00H
	DB	0e1H
	DB	0bfH
	DB	00H
	DB	0fdH
	DB	0dH
	DB	00H
	DB	00H
	DB	080H
	DB	0ffH
	DB	04H
	DB	0f6H
	DB	03fH
	DB	00H
	DB	00H
	DB	00H
	DB	0f9H
	DB	01eH
	DB	0e1H
	DB	09fH
	DB	00H
	DB	00H
	DB	010H
	DB	0feH
	DB	08H
	DB	080H
	DB	0ffH
	DB	01H
	DB	00H
	DB	060H
	DB	0ffH
	DB	02H
	DB	020H
	DB	0ffH
	DB	07H
	DB	00H
	DB	0c0H
	DB	0afH
	DB	00H
	DB	00H
	DB	0faH
	DB	0dH
	DB	00H
	DB	0f4H
	DB	03fH
	DB	00H
	DB	00H
	DB	0f3H
	DB	04fH
	DB	00H
	DB	0faH
	DB	0cH
	DB	00H
	DB	00H
	DB	0b0H
	DB	0afH
	DB	010H
	DB	0ffH
	DB	05H
	DB	00H
	DB	00H
	DB	050H
	DB	0ffH
	DB	071H
	DB	0dfH
	DB	00H
	DB	00H
	DB	00H
	DB	00H
	DB	0fdH
	DB	0d7H
	DB	07fH
	DB	00H
	DB	00H
	DB	00H
	DB	00H
	DB	0f6H
	DB	0ffH
	DB	01eH
	DB	00H
	DB	00H
	DB	00H
	DB	00H
	DB	0e1H
	DB	0ffH
	DB	09H
	DB	00H
	DB	00H
	DB	00H
	DB	00H
	DB	080H
	DB	0ffH
	DB	02H
	DB	00H
	DB	00H
	DB	00H
	DB	00H
	DB	050H
	DB	0efH
	DB	00H
	DB	00H
	DB	00H
	DB	00H
	DB	00H
	DB	050H
	DB	0efH
	DB	00H
	DB	00H
	DB	00H
	DB	00H
	DB	00H
	DB	050H
	DB	0efH
	DB	00H
	DB	00H
	DB	00H
	DB	00H
	DB	00H
	DB	050H
	DB	0efH
	DB	00H
	DB	00H
	DB	00H
	DB	00H
	DB	00H
	DB	050H
	DB	0efH
	DB	00H
	DB	00H
	DB	00H
	DB	00H
	DB	00H
	DB	050H
	DB	0efH
	DB	00H
	DB	00H
	DB	00H
	DB	00H
	DB	00H
	DB	050H
	DB	0efH
	DB	00H
	DB	00H
	DB	00H
	DB	0fbH
	DB	0ffH
	DB	0ffH
	DB	0ffH
	DB	0ffH
	DB	02fH
	DB	0fbH
	DB	0ffH
	DB	0ffH
	DB	0ffH
	DB	0ffH
	DB	02fH
	DB	00H
	DB	00H
	DB	00H
	DB	00H
	DB	0fbH
	DB	0bH
	DB	00H
	DB	00H
	DB	00H
	DB	040H
	DB	0ffH
	DB	03H
	DB	00H
	DB	00H
	DB	00H
	DB	0c0H
	DB	0afH
	DB	00H
	DB	00H
	DB	00H
	DB	00H
	DB	0f6H
	DB	02fH
	DB	00H
	DB	00H
	DB	00H
	DB	010H
	DB	0fdH
	DB	08H
	DB	00H
	DB	00H
	DB	00H
	DB	070H
	DB	0efH
	DB	01H
	DB	00H
	DB	00H
	DB	00H
	DB	0e1H
	DB	07fH
	DB	00H
	DB	00H
	DB	00H
	DB	00H
	DB	0f9H
	DB	0dH
	DB	00H
	DB	00H
	DB	00H
	DB	020H
	DB	0ffH
	DB	05H
	DB	00H
	DB	00H
	DB	00H
	DB	0a0H
	DB	0cfH
	DB	00H
	DB	00H
	DB	00H
	DB	00H
	DB	0f4H
	DB	03fH
	DB	00H
	DB	00H
	DB	00H
	DB	00H
	DB	0fcH
	DB	0aH
	DB	00H
	DB	00H
	DB	00H
	DB	050H
	DB	0ffH
	DB	02H
	DB	00H
	DB	00H
	DB	00H
	DB	0d0H
	DB	08fH
	DB	00H
	DB	00H
	DB	00H
	DB	00H
	DB	0f7H
	DB	01eH
	DB	00H
	DB	00H
	DB	00H
	DB	00H
	DB	0fdH
	DB	0ffH
	DB	0ffH
	DB	0ffH
	DB	0ffH
	DB	08fH
	DB	0fdH
	DB	0ffH
	DB	0ffH
	DB	0ffH
	DB	0ffH
	DB	08fH
	DB	0f4H
	DB	0ffH
	DB	0eH
	DB	0f4H
	DB	0efH
	DB	0dH
	DB	0f4H
	DB	0fH
	DB	00H
	DB	0f4H
	DB	0fH
	DB	00H
	DB	0f4H
	DB	0fH
	DB	00H
	DB	0f4H
	DB	0fH
	DB	00H
	DB	0f4H
	DB	0fH
	DB	00H
	DB	0f4H
	DB	0fH
	DB	00H
	DB	0f4H
	DB	0fH
	DB	00H
	DB	0f4H
	DB	0fH
	DB	00H
	DB	0f4H
	DB	0fH
	DB	00H
	DB	0f4H
	DB	0fH
	DB	00H
	DB	0f4H
	DB	0fH
	DB	00H
	DB	0f4H
	DB	0fH
	DB	00H
	DB	0f4H
	DB	0fH
	DB	00H
	DB	0f4H
	DB	0fH
	DB	00H
	DB	0f4H
	DB	0fH
	DB	00H
	DB	0f4H
	DB	0fH
	DB	00H
	DB	0f4H
	DB	0fH
	DB	00H
	DB	0f4H
	DB	0fH
	DB	00H
	DB	0f4H
	DB	0fH
	DB	00H
	DB	0f4H
	DB	0fH
	DB	00H
	DB	0f4H
	DB	0fH
	DB	00H
	DB	0f4H
	DB	0efH
	DB	0dH
	DB	0f4H
	DB	0ffH
	DB	0eH
	DB	0f3H
	DB	0eH
	DB	00H
	DB	00H
	DB	00H
	DB	0d0H
	DB	04fH
	DB	00H
	DB	00H
	DB	00H
	DB	080H
	DB	09fH
	DB	00H
	DB	00H
	DB	00H
	DB	030H
	DB	0dfH
	DB	00H
	DB	00H
	DB	00H
	DB	00H
	DB	0fdH
	DB	03H
	DB	00H
	DB	00H
	DB	00H
	DB	0f9H
	DB	08H
	DB	00H
	DB	00H
	DB	00H
	DB	0f4H
	DB	0dH
	DB	00H
	DB	00H
	DB	00H
	DB	0e0H
	DB	03fH
	DB	00H
	DB	00H
	DB	00H
	DB	090H
	DB	08fH
	DB	00H
	DB	00H
	DB	00H
	DB	040H
	DB	0dfH
	DB	00H
	DB	00H
	DB	00H
	DB	00H
	DB	0feH
	DB	03H
	DB	00H
	DB	00H
	DB	00H
	DB	0f9H
	DB	07H
	DB	00H
	DB	00H
	DB	00H
	DB	0f4H
	DB	0cH
	DB	00H
	DB	00H
	DB	00H
	DB	0e0H
	DB	02fH
	DB	00H
	DB	00H
	DB	00H
	DB	0a0H
	DB	07fH
	DB	00H
	DB	00H
	DB	00H
	DB	050H
	DB	0cfH
	DB	00H
	DB	00H
	DB	00H
	DB	010H
	DB	0feH
	DB	02H
	DB	00H
	DB	00H
	DB	00H
	DB	0faH
	DB	07H
	DB	00H
	DB	00H
	DB	00H
	DB	0f5H
	DB	0bH
	DB	00H
	DB	00H
	DB	00H
	DB	0f1H
	DB	01fH
	DB	0f9H
	DB	0ffH
	DB	09H
	DB	0e9H
	DB	0ffH
	DB	09H
	DB	00H
	DB	0f9H
	DB	09H
	DB	00H
	DB	0f9H
	DB	09H
	DB	00H
	DB	0f9H
	DB	09H
	DB	00H
	DB	0f9H
	DB	09H
	DB	00H
	DB	0f9H
	DB	09H
	DB	00H
	DB	0f9H
	DB	09H
	DB	00H
	DB	0f9H
	DB	09H
	DB	00H
	DB	0f9H
	DB	09H
	DB	00H
	DB	0f9H
	DB	09H
	DB	00H
	DB	0f9H
	DB	09H
	DB	00H
	DB	0f9H
	DB	09H
	DB	00H
	DB	0f9H
	DB	09H
	DB	00H
	DB	0f9H
	DB	09H
	DB	00H
	DB	0f9H
	DB	09H
	DB	00H
	DB	0f9H
	DB	09H
	DB	00H
	DB	0f9H
	DB	09H
	DB	00H
	DB	0f9H
	DB	09H
	DB	00H
	DB	0f9H
	DB	09H
	DB	00H
	DB	0f9H
	DB	09H
	DB	00H
	DB	0f9H
	DB	09H
	DB	00H
	DB	0f9H
	DB	09H
	DB	0e9H
	DB	0ffH
	DB	09H
	DB	0f9H
	DB	0ffH
	DB	09H
	DB	00H
	DB	0f2H
	DB	0bH
	DB	00H
	DB	00H
	DB	0f7H
	DB	02fH
	DB	00H
	DB	00H
	DB	0fcH
	DB	07fH
	DB	00H
	DB	030H
	DB	0afH
	DB	0ceH
	DB	00H
	DB	080H
	DB	05fH
	DB	0faH
	DB	02H
	DB	0d0H
	DB	01fH
	DB	0f6H
	DB	08H
	DB	0f4H
	DB	0bH
	DB	0f1H
	DB	0dH
	DB	0f9H
	DB	06H
	DB	0b0H
	DB	03fH
	DB	0feH
	DB	02H
	DB	070H
	DB	09fH
	DB	0eaH
	DB	0eeH
	DB	0eeH
	DB	0eeH
	DB	0eeH
	DB	03H
	DB	0faH
	DB	0ffH
	DB	0ffH
	DB	0ffH
	DB	0ffH
	DB	03H
	DB	071H
	DB	068H
	DB	00H
	DB	050H
	DB	0ffH
	DB	04H
	DB	00H
	DB	0f6H
	DB	01dH
	DB	00H
	DB	070H
	DB	0afH
	DB	00H
	DB	0a3H
	DB	0feH
	DB	09dH
	DB	01H
	DB	050H
	DB	0ffH
	DB	0efH
	DB	0ffH
	DB	01dH
	DB	0e1H
	DB	09fH
	DB	01H
	DB	0e3H
	DB	06fH
	DB	0d3H
	DB	0dH
	DB	00H
	DB	0a0H
	DB	09fH
	DB	00H
	DB	00H
	DB	00H
	DB	090H
	DB	0afH
	DB	00H
	DB	050H
	DB	0a8H
	DB	0daH
	DB	0afH
	DB	020H
	DB	0fcH
	DB	0ffH
	DB	0ffH
	DB	0afH
	DB	0d0H
	DB	0cfH
	DB	014H
	DB	090H
	DB	0afH
	DB	0f5H
	DB	01eH
	DB	00H
	DB	090H
	DB	0afH
	DB	0f8H
	DB	0bH
	DB	00H
	DB	090H
	DB	0afH
	DB	0f8H
	DB	0cH
	DB	00H
	DB	0b0H
	DB	0afH
	DB	0f5H
	DB	06fH
	DB	031H
	DB	0faH
	DB	0bfH
	DB	0c0H
	DB	0ffH
	DB	0ffH
	DB	0bfH
	DB	0cfH
	DB	010H
	DB	0e9H
	DB	0cfH
	DB	044H
	DB	0bbH
	DB	0f5H
	DB	0eH
	DB	00H
	DB	00H
	DB	00H
	DB	00H
	DB	0f5H
	DB	0eH
	DB	00H
	DB	00H
	DB	00H
	DB	00H
	DB	0f5H
	DB	0eH
	DB	00H
	DB	00H
	DB	00H
	DB	00H
	DB	0f5H
	DB	0eH
	DB	00H
	DB	00H
	DB	00H
	DB	00H
	DB	0f5H
	DB	0eH
	DB	00H
	DB	00H
	DB	00H
	DB	00H
	DB	0f5H
	DB	01eH
	DB	0eaH
	DB	0ceH
	DB	05H
	DB	00H
	DB	0f5H
	DB	0ceH
	DB	0ffH
	DB	0ffH
	DB	06fH
	DB	00H
	DB	0f5H
	DB	0dfH
	DB	03H
	DB	0b2H
	DB	0efH
	DB	01H
	DB	0f5H
	DB	02fH
	DB	00H
	DB	010H
	DB	0ffH
	DB	04H
	DB	0f5H
	DB	0eH
	DB	00H
	DB	00H
	DB	0fcH
	DB	07H
	DB	0f5H
	DB	0eH
	DB	00H
	DB	00H
	DB	0faH
	DB	09H
	DB	0f5H
	DB	0eH
	DB	00H
	DB	00H
	DB	0f9H
	DB	09H
	DB	0f5H
	DB	0eH
	DB	00H
	DB	00H
	DB	0f9H
	DB	09H
	DB	0f5H
	DB	0eH
	DB	00H
	DB	00H
	DB	0faH
	DB	09H
	DB	0f5H
	DB	0eH
	DB	00H
	DB	00H
	DB	0fcH
	DB	07H
	DB	0f5H
	DB	02fH
	DB	00H
	DB	010H
	DB	0ffH
	DB	04H
	DB	0f5H
	DB	0cfH
	DB	03H
	DB	0b2H
	DB	0efH
	DB	00H
	DB	0f5H
	DB	0ddH
	DB	0ffH
	DB	0ffH
	DB	05fH
	DB	00H
	DB	0f5H
	DB	01bH
	DB	0eaH
	DB	0ceH
	DB	05H
	DB	00H
	DB	00H
	DB	0a3H
	DB	0feH
	DB	09dH
	DB	01H
	DB	00H
	DB	050H
	DB	0ffH
	DB	0ffH
	DB	0ffH
	DB	01dH
	DB	00H
	DB	0e1H
	DB	0afH
	DB	01H
	DB	0d3H
	DB	08fH
	DB	00H
	DB	0f6H
	DB	0dH
	DB	00H
	DB	050H
	DB	0dfH
	DB	00H
	DB	0faH
	DB	09H
	DB	00H
	DB	010H
	DB	0ddH
	DB	01H
	DB	0fbH
	DB	07H
	DB	00H
	DB	00H
	DB	00H
	DB	00H
	DB	0fcH
	DB	07H
	DB	00H
	DB	00H
	DB	00H
	DB	00H
	DB	0fcH
	DB	07H
	DB	00H
	DB	00H
	DB	00H
	DB	00H
	DB	0fbH
	DB	07H
	DB	00H
	DB	00H
	DB	00H
	DB	00H
	DB	0faH
	DB	09H
	DB	00H
	DB	010H
	DB	088H
	DB	00H
	DB	0f6H
	DB	0dH
	DB	00H
	DB	040H
	DB	0efH
	DB	00H
	DB	0e1H
	DB	0afH
	DB	01H
	DB	0d3H
	DB	08fH
	DB	00H
	DB	050H
	DB	0ffH
	DB	0ffH
	DB	0ffH
	DB	01cH
	DB	00H
	DB	00H
	DB	0a3H
	DB	0feH
	DB	08dH
	DB	01H
	DB	00H
	DB	00H
	DB	00H
	DB	00H
	DB	020H
	DB	0ffH
	DB	02H
	DB	00H
	DB	00H
	DB	00H
	DB	020H
	DB	0ffH
	DB	02H
	DB	00H
	DB	00H
	DB	00H
	DB	020H
	DB	0ffH
	DB	02H
	DB	00H
	DB	00H
	DB	00H
	DB	020H
	DB	0ffH
	DB	02H
	DB	00H
	DB	00H
	DB	00H
	DB	020H
	DB	0ffH
	DB	02H
	DB	00H
	DB	0c5H
	DB	0efH
	DB	039H
	DB	0ffH
	DB	02H
	DB	070H
	DB	0ffH
	DB	0ffH
	DB	0dfH
	DB	0ffH
	DB	02H
	DB	0f2H
	DB	0afH
	DB	02H
	DB	0d4H
	DB	0ffH
	DB	02H
	DB	0f7H
	DB	0eH
	DB	00H
	DB	040H
	DB	0ffH
	DB	02H
	DB	0faH
	DB	09H
	DB	00H
	DB	020H
	DB	0ffH
	DB	02H
	DB	0fbH
	DB	07H
	DB	00H
	DB	020H
	DB	0ffH
	DB	02H
	DB	0fcH
	DB	07H
	DB	00H
	DB	020H
	DB	0ffH
	DB	02H
	DB	0fcH
	DB	07H
	DB	00H
	DB	020H
	DB	0ffH
	DB	02H
	DB	0fbH
	DB	07H
	DB	00H
	DB	020H
	DB	0ffH
	DB	02H
	DB	0faH
	DB	09H
	DB	00H
	DB	020H
	DB	0ffH
	DB	02H
	DB	0f6H
	DB	0eH
	DB	00H
	DB	040H
	DB	0ffH
	DB	02H
	DB	0e1H
	DB	0afH
	DB	02H
	DB	0d4H
	DB	0ffH
	DB	02H
	DB	060H
	DB	0ffH
	DB	0ffH
	DB	0cfH
	DB	0ffH
	DB	02H
	DB	00H
	DB	0c5H
	DB	0efH
	DB	019H
	DB	0ffH
	DB	02H
	DB	00H
	DB	0a2H
	DB	0feH
	DB	08dH
	DB	01H
	DB	00H
	DB	030H
	DB	0feH
	DB	0ffH
	DB	0ffH
	DB	0cH
	DB	00H
	DB	0d0H
	DB	0bfH
	DB	01H
	DB	0e4H
	DB	07fH
	DB	00H
	DB	0f5H
	DB	01eH
	DB	00H
	DB	070H
	DB	0cfH
	DB	00H
	DB	0f8H
	DB	0aH
	DB	00H
	DB	030H
	DB	0ffH
	DB	00H
	DB	0faH
	DB	08H
	DB	00H
	DB	020H
	DB	0ffH
	DB	02H
	DB	0fbH
	DB	0ffH
	DB	0ffH
	DB	0ffH
	DB	0ffH
	DB	02H
	DB	0fbH
	DB	0efH
	DB	0eeH
	DB	0eeH
	DB	0eeH
	DB	02H
	DB	0fbH
	DB	07H
	DB	00H
	DB	00H
	DB	00H
	DB	00H
	DB	0f9H
	DB	09H
	DB	00H
	DB	00H
	DB	00H
	DB	00H
	DB	0f6H
	DB	0dH
	DB	00H
	DB	00H
	DB	01H
	DB	00H
	DB	0e1H
	DB	0bfH
	DB	02H
	DB	050H
	DB	09dH
	DB	00H
	DB	050H
	DB	0ffH
	DB	0efH
	DB	0ffH
	DB	08fH
	DB	00H
	DB	00H
	DB	0a3H
	DB	0feH
	DB	0beH
	DB	04H
	DB	00H
	DB	00H
	DB	00H
	DB	0d7H
	DB	0cfH
	DB	00H
	DB	070H
	DB	0ffH
	DB	0dfH
	DB	00H
	DB	0e1H
	DB	09fH
	DB	011H
	DB	00H
	DB	0f3H
	DB	01fH
	DB	00H
	DB	00H
	DB	0f5H
	DB	0eH
	DB	00H
	DB	00H
	DB	0f5H
	DB	0eH
	DB	00H
	DB	0f2H
	DB	0ffH
	DB	0ffH
	DB	04fH
	DB	0c2H
	DB	0fdH
	DB	0cfH
	DB	03cH
	DB	00H
	DB	0f5H
	DB	0eH
	DB	00H
	DB	00H
	DB	0f5H
	DB	0eH
	DB	00H
	DB	00H
	DB	0f5H
	DB	0eH
	DB	00H
	DB	00H
	DB	0f5H
	DB	0eH
	DB	00H
	DB	00H
	DB	0f5H
	DB	0eH
	DB	00H
	DB	00H
	DB	0f5H
	DB	0eH
	DB	00H
	DB	00H
	DB	0f5H
	DB	0eH
	DB	00H
	DB	00H
	DB	0f5H
	DB	0eH
	DB	00H
	DB	00H
	DB	0f5H
	DB	0eH
	DB	00H
	DB	00H
	DB	0f5H
	DB	0eH
	DB	00H
	DB	00H
	DB	0f5H
	DB	0eH
	DB	00H
	DB	00H
	DB	0f5H
	DB	0eH
	DB	00H
	DB	00H
	DB	0c6H
	DB	0efH
	DB	019H
	DB	0feH
	DB	02H
	DB	070H
	DB	0ffH
	DB	0ffH
	DB	0cfH
	DB	0ffH
	DB	02H
	DB	0f2H
	DB	0afH
	DB	02H
	DB	0d4H
	DB	0ffH
	DB	02H
	DB	0f6H
	DB	01eH
	DB	00H
	DB	030H
	DB	0ffH
	DB	02H
	DB	0f9H
	DB	0aH
	DB	00H
	DB	010H
	DB	0ffH
	DB	02H
	DB	0fbH
	DB	08H
	DB	00H
	DB	010H
	DB	0ffH
	DB	02H
	DB	0fbH
	DB	07H
	DB	00H
	DB	010H
	DB	0ffH
	DB	02H
	DB	0fbH
	DB	07H
	DB	00H
	DB	010H
	DB	0ffH
	DB	02H
	DB	0fbH
	DB	08H
	DB	00H
	DB	010H
	DB	0ffH
	DB	02H
	DB	0f9H
	DB	0aH
	DB	00H
	DB	010H
	DB	0ffH
	DB	02H
	DB	0f6H
	DB	0eH
	DB	00H
	DB	040H
	DB	0ffH
	DB	02H
	DB	0e1H
	DB	0afH
	DB	02H
	DB	0d4H
	DB	0ffH
	DB	02H
	DB	060H
	DB	0ffH
	DB	0ffH
	DB	0dfH
	DB	0ffH
	DB	02H
	DB	00H
	DB	0c5H
	DB	0efH
	DB	029H
	DB	0ffH
	DB	02H
	DB	00H
	DB	00H
	DB	00H
	DB	020H
	DB	0ffH
	DB	01H
	DB	00H
	DB	00H
	DB	00H
	DB	060H
	DB	0efH
	DB	00H
	DB	080H
	DB	03bH
	DB	00H
	DB	0e4H
	DB	09fH
	DB	00H
	DB	0a0H
	DB	0ffH
	DB	0ffH
	DB	0ffH
	DB	01dH
	DB	00H
	DB	00H
	DB	0a4H
	DB	0feH
	DB	08dH
	DB	01H
	DB	00H
	DB	0f5H
	DB	0eH
	DB	00H
	DB	00H
	DB	00H
	DB	0f5H
	DB	0eH
	DB	00H
	DB	00H
	DB	00H
	DB	0f5H
	DB	0eH
	DB	00H
	DB	00H
	DB	00H
	DB	0f5H
	DB	0eH
	DB	00H
	DB	00H
	DB	00H
	DB	0f5H
	DB	0eH
	DB	00H
	DB	00H
	DB	00H
	DB	0f5H
	DB	01eH
	DB	0e9H
	DB	0cfH
	DB	04H
	DB	0f5H
	DB	0deH
	DB	0ffH
	DB	0ffH
	DB	02eH
	DB	0f5H
	DB	0dfH
	DB	04H
	DB	0e4H
	DB	08fH
	DB	0f5H
	DB	03fH
	DB	00H
	DB	080H
	DB	0cfH
	DB	0f5H
	DB	0eH
	DB	00H
	DB	060H
	DB	0dfH
	DB	0f5H
	DB	0eH
	DB	00H
	DB	050H
	DB	0dfH
	DB	0f5H
	DB	0eH
	DB	00H
	DB	050H
	DB	0dfH
	DB	0f5H
	DB	0eH
	DB	00H
	DB	050H
	DB	0dfH
	DB	0f5H
	DB	0eH
	DB	00H
	DB	050H
	DB	0dfH
	DB	0f5H
	DB	0eH
	DB	00H
	DB	050H
	DB	0dfH
	DB	0f5H
	DB	0eH
	DB	00H
	DB	050H
	DB	0dfH
	DB	0f5H
	DB	0eH
	DB	00H
	DB	050H
	DB	0dfH
	DB	0f5H
	DB	0eH
	DB	00H
	DB	050H
	DB	0dfH
	DB	0f5H
	DB	0eH
	DB	00H
	DB	050H
	DB	0dfH
	DB	0d1H
	DB	01dH
	DB	0f3H
	DB	04fH
	DB	080H
	DB	08H
	DB	00H
	DB	00H
	DB	00H
	DB	00H
	DB	0f2H
	DB	01fH
	DB	0f2H
	DB	01fH
	DB	0f2H
	DB	01fH
	DB	0f2H
	DB	01fH
	DB	0f2H
	DB	01fH
	DB	0f2H
	DB	01fH
	DB	0f2H
	DB	01fH
	DB	0f2H
	DB	01fH
	DB	0f2H
	DB	01fH
	DB	0f2H
	DB	01fH
	DB	0f2H
	DB	01fH
	DB	0f2H
	DB	01fH
	DB	0f2H
	DB	01fH
	DB	0f2H
	DB	01fH
	DB	00H
	DB	0e3H
	DB	0bH
	DB	00H
	DB	0f6H
	DB	01fH
	DB	00H
	DB	091H
	DB	07H
	DB	00H
	DB	00H
	DB	00H
	DB	00H
	DB	00H
	DB	00H
	DB	00H
	DB	0f4H
	DB	0fH
	DB	00H
	DB	0f4H
	DB	0fH
	DB	00H
	DB	0f4H
	DB	0fH
	DB	00H
	DB	0f4H
	DB	0fH
	DB	00H
	DB	0f4H
	DB	0fH
	DB	00H
	DB	0f4H
	DB	0fH
	DB	00H
	DB	0f4H
	DB	0fH
	DB	00H
	DB	0f4H
	DB	0fH
	DB	00H
	DB	0f4H
	DB	0fH
	DB	00H
	DB	0f4H
	DB	0fH
	DB	00H
	DB	0f4H
	DB	0fH
	DB	00H
	DB	0f4H
	DB	0fH
	DB	00H
	DB	0f4H
	DB	0fH
	DB	00H
	DB	0f4H
	DB	0fH
	DB	00H
	DB	0f4H
	DB	0fH
	DB	00H
	DB	0f4H
	DB	0eH
	DB	00H
	DB	0f9H
	DB	0cH
	DB	0f4H
	DB	0ffH
	DB	07H
	DB	0e3H
	DB	09eH
	DB	00H
	DB	0f5H
	DB	0eH
	DB	00H
	DB	00H
	DB	00H
	DB	00H
	DB	0f5H
	DB	0eH
	DB	00H
	DB	00H
	DB	00H
	DB	00H
	DB	0f5H
	DB	0eH
	DB	00H
	DB	00H
	DB	00H
	DB	00H
	DB	0f5H
	DB	0eH
	DB	00H
	DB	00H
	DB	00H
	DB	00H
	DB	0f5H
	DB	0eH
	DB	00H
	DB	00H
	DB	00H
	DB	00H
	DB	0f5H
	DB	0eH
	DB	00H
	DB	0f3H
	DB	08fH
	DB	00H
	DB	0f5H
	DB	0eH
	DB	00H
	DB	0fcH
	DB	0cH
	DB	00H
	DB	0f5H
	DB	0eH
	DB	080H
	DB	0efH
	DB	02H
	DB	00H
	DB	0f5H
	DB	0eH
	DB	0f4H
	DB	04fH
	DB	00H
	DB	00H
	DB	0f5H
	DB	01eH
	DB	0feH
	DB	08H
	DB	00H
	DB	00H
	DB	0f5H
	DB	0aeH
	DB	0cfH
	DB	00H
	DB	00H
	DB	00H
	DB	0f5H
	DB	0ffH
	DB	0dfH
	DB	01H
	DB	00H
	DB	00H
	DB	0f5H
	DB	0ffH
	DB	0feH
	DB	08H
	DB	00H
	DB	00H
	DB	0f5H
	DB	06fH
	DB	0f5H
	DB	02fH
	DB	00H
	DB	00H
	DB	0f5H
	DB	0eH
	DB	0c0H
	DB	0bfH
	DB	00H
	DB	00H
	DB	0f5H
	DB	0eH
	DB	030H
	DB	0ffH
	DB	05H
	DB	00H
	DB	0f5H
	DB	0eH
	DB	00H
	DB	0f9H
	DB	01eH
	DB	00H
	DB	0f5H
	DB	0eH
	DB	00H
	DB	0e1H
	DB	09fH
	DB	00H
	DB	0f5H
	DB	0eH
	DB	00H
	DB	070H
	DB	0ffH
	DB	03H
	DB	0f2H
	DB	01fH
	DB	0f2H
	DB	01fH
	DB	0f2H
	DB	01fH
	DB	0f2H
	DB	01fH
	DB	0f2H
	DB	01fH
	DB	0f2H
	DB	01fH
	DB	0f2H
	DB	01fH
	DB	0f2H
	DB	01fH
	DB	0f2H
	DB	01fH
	DB	0f2H
	DB	01fH
	DB	0f2H
	DB	01fH
	DB	0f2H
	DB	01fH
	DB	0f2H
	DB	01fH
	DB	0f2H
	DB	01fH
	DB	0f2H
	DB	01fH
	DB	0f2H
	DB	01fH
	DB	0f2H
	DB	01fH
	DB	0f2H
	DB	01fH
	DB	0f2H
	DB	01fH
	DB	0f5H
	DB	03cH
	DB	0eaH
	DB	0beH
	DB	03H
	DB	0b3H
	DB	0eeH
	DB	03bH
	DB	00H
	DB	0f5H
	DB	0eeH
	DB	0ffH
	DB	0ffH
	DB	05eH
	DB	0ffH
	DB	0ffH
	DB	0efH
	DB	02H
	DB	0f5H
	DB	0bfH
	DB	02H
	DB	0e5H
	DB	0ffH
	DB	03dH
	DB	051H
	DB	0feH
	DB	08H
	DB	0f5H
	DB	01fH
	DB	00H
	DB	090H
	DB	0ffH
	DB	04H
	DB	00H
	DB	0f9H
	DB	0bH
	DB	0f5H
	DB	0eH
	DB	00H
	DB	060H
	DB	0efH
	DB	00H
	DB	00H
	DB	0f6H
	DB	0dH
	DB	0f5H
	DB	0eH
	DB	00H
	DB	050H
	DB	0efH
	DB	00H
	DB	00H
	DB	0f6H
	DB	0dH
	DB	0f5H
	DB	0eH
	DB	00H
	DB	050H
	DB	0efH
	DB	00H
	DB	00H
	DB	0f6H
	DB	0dH
	DB	0f5H
	DB	0eH
	DB	00H
	DB	050H
	DB	0efH
	DB	00H
	DB	00H
	DB	0f6H
	DB	0dH
	DB	0f5H
	DB	0eH
	DB	00H
	DB	050H
	DB	0efH
	DB	00H
	DB	00H
	DB	0f6H
	DB	0dH
	DB	0f5H
	DB	0eH
	DB	00H
	DB	050H
	DB	0efH
	DB	00H
	DB	00H
	DB	0f6H
	DB	0dH
	DB	0f5H
	DB	0eH
	DB	00H
	DB	050H
	DB	0efH
	DB	00H
	DB	00H
	DB	0f6H
	DB	0dH
	DB	0f5H
	DB	0eH
	DB	00H
	DB	050H
	DB	0efH
	DB	00H
	DB	00H
	DB	0f6H
	DB	0dH
	DB	0f5H
	DB	0eH
	DB	00H
	DB	050H
	DB	0efH
	DB	00H
	DB	00H
	DB	0f6H
	DB	0dH
	DB	0f5H
	DB	0eH
	DB	00H
	DB	050H
	DB	0efH
	DB	00H
	DB	00H
	DB	0f6H
	DB	0dH
	DB	0f5H
	DB	01cH
	DB	0e9H
	DB	0cfH
	DB	04H
	DB	0f5H
	DB	0deH
	DB	0ffH
	DB	0ffH
	DB	02eH
	DB	0f5H
	DB	0dfH
	DB	04H
	DB	0e4H
	DB	08fH
	DB	0f5H
	DB	03fH
	DB	00H
	DB	080H
	DB	0cfH
	DB	0f5H
	DB	0eH
	DB	00H
	DB	060H
	DB	0dfH
	DB	0f5H
	DB	0eH
	DB	00H
	DB	050H
	DB	0dfH
	DB	0f5H
	DB	0eH
	DB	00H
	DB	050H
	DB	0dfH
	DB	0f5H
	DB	0eH
	DB	00H
	DB	050H
	DB	0dfH
	DB	0f5H
	DB	0eH
	DB	00H
	DB	050H
	DB	0dfH
	DB	0f5H
	DB	0eH
	DB	00H
	DB	050H
	DB	0dfH
	DB	0f5H
	DB	0eH
	DB	00H
	DB	050H
	DB	0dfH
	DB	0f5H
	DB	0eH
	DB	00H
	DB	050H
	DB	0dfH
	DB	0f5H
	DB	0eH
	DB	00H
	DB	050H
	DB	0dfH
	DB	0f5H
	DB	0eH
	DB	00H
	DB	050H
	DB	0dfH
	DB	00H
	DB	092H
	DB	0fdH
	DB	09dH
	DB	02H
	DB	00H
	DB	030H
	DB	0feH
	DB	0efH
	DB	0ffH
	DB	03eH
	DB	00H
	DB	0d0H
	DB	0cfH
	DB	02H
	DB	0c2H
	DB	0dfH
	DB	00H
	DB	0f5H
	DB	02fH
	DB	00H
	DB	020H
	DB	0ffH
	DB	05H
	DB	0f9H
	DB	0bH
	DB	00H
	DB	00H
	DB	0faH
	DB	0aH
	DB	0fbH
	DB	08H
	DB	00H
	DB	00H
	DB	0f8H
	DB	0cH
	DB	0fcH
	DB	07H
	DB	00H
	DB	00H
	DB	0f6H
	DB	0cH
	DB	0fcH
	DB	07H
	DB	00H
	DB	00H
	DB	0f6H
	DB	0cH
	DB	0fbH
	DB	08H
	DB	00H
	DB	00H
	DB	0f7H
	DB	0cH
	DB	0f9H
	DB	0bH
	DB	00H
	DB	00H
	DB	0f9H
	DB	09H
	DB	0f5H
	DB	02fH
	DB	00H
	DB	010H
	DB	0feH
	DB	05H
	DB	0d0H
	DB	0cfH
	DB	02H
	DB	0a1H
	DB	0dfH
	DB	00H
	DB	030H
	DB	0feH
	DB	0efH
	DB	0ffH
	DB	03eH
	DB	00H
	DB	00H
	DB	092H
	DB	0fdH
	DB	09eH
	DB	02H
	DB	00H
	DB	0f5H
	DB	02bH
	DB	0eaH
	DB	0ceH
	DB	05H
	DB	00H
	DB	0f5H
	DB	0ddH
	DB	0ffH
	DB	0ffH
	DB	05fH
	DB	00H
	DB	0f5H
	DB	0bfH
	DB	02H
	DB	0c3H
	DB	0efH
	DB	00H
	DB	0f5H
	DB	01eH
	DB	00H
	DB	020H
	DB	0ffH
	DB	04H
	DB	0f5H
	DB	0eH
	DB	00H
	DB	00H
	DB	0fcH
	DB	07H
	DB	0f5H
	DB	0eH
	DB	00H
	DB	00H
	DB	0faH
	DB	08H
	DB	0f5H
	DB	0eH
	DB	00H
	DB	00H
	DB	0f9H
	DB	09H
	DB	0f5H
	DB	0eH
	DB	00H
	DB	00H
	DB	0f9H
	DB	09H
	DB	0f5H
	DB	0eH
	DB	00H
	DB	00H
	DB	0faH
	DB	08H
	DB	0f5H
	DB	0eH
	DB	00H
	DB	00H
	DB	0fcH
	DB	07H
	DB	0f5H
	DB	01eH
	DB	00H
	DB	020H
	DB	0ffH
	DB	04H
	DB	0f5H
	DB	0afH
	DB	01H
	DB	0c2H
	DB	0efH
	DB	00H
	DB	0f5H
	DB	0eeH
	DB	0efH
	DB	0ffH
	DB	05fH
	DB	00H
	DB	0f5H
	DB	02eH
	DB	0eaH
	DB	0ceH
	DB	04H
	DB	00H
	DB	0f5H
	DB	0eH
	DB	00H
	DB	00H
	DB	00H
	DB	00H
	DB	0f5H
	DB	0eH
	DB	00H
	DB	00H
	DB	00H
	DB	00H
	DB	0f5H
	DB	0eH
	DB	00H
	DB	00H
	DB	00H
	DB	00H
	DB	0f5H
	DB	0eH
	DB	00H
	DB	00H
	DB	00H
	DB	00H
	DB	0f5H
	DB	0eH
	DB	00H
	DB	00H
	DB	00H
	DB	00H
	DB	00H
	DB	0c6H
	DB	0eeH
	DB	01aH
	DB	0ffH
	DB	02H
	DB	070H
	DB	0ffH
	DB	0efH
	DB	0dfH
	DB	0ffH
	DB	02H
	DB	0f2H
	DB	0afH
	DB	01H
	DB	0d3H
	DB	0ffH
	DB	02H
	DB	0f7H
	DB	0eH
	DB	00H
	DB	030H
	DB	0ffH
	DB	02H
	DB	0faH
	DB	09H
	DB	00H
	DB	020H
	DB	0ffH
	DB	02H
	DB	0fbH
	DB	07H
	DB	00H
	DB	020H
	DB	0ffH
	DB	02H
	DB	0fcH
	DB	07H
	DB	00H
	DB	020H
	DB	0ffH
	DB	02H
	DB	0fcH
	DB	07H
	DB	00H
	DB	020H
	DB	0ffH
	DB	02H
	DB	0fbH
	DB	07H
	DB	00H
	DB	020H
	DB	0ffH
	DB	02H
	DB	0faH
	DB	09H
	DB	00H
	DB	020H
	DB	0ffH
	DB	02H
	DB	0f7H
	DB	0eH
	DB	00H
	DB	030H
	DB	0ffH
	DB	02H
	DB	0f2H
	DB	0afH
	DB	01H
	DB	0c2H
	DB	0ffH
	DB	02H
	DB	070H
	DB	0ffH
	DB	0efH
	DB	0dfH
	DB	0ffH
	DB	02H
	DB	00H
	DB	0c5H
	DB	0efH
	DB	039H
	DB	0ffH
	DB	02H
	DB	00H
	DB	00H
	DB	00H
	DB	020H
	DB	0ffH
	DB	02H
	DB	00H
	DB	00H
	DB	00H
	DB	020H
	DB	0ffH
	DB	02H
	DB	00H
	DB	00H
	DB	00H
	DB	020H
	DB	0ffH
	DB	02H
	DB	00H
	DB	00H
	DB	00H
	DB	020H
	DB	0ffH
	DB	02H
	DB	00H
	DB	00H
	DB	00H
	DB	020H
	DB	0ffH
	DB	02H
	DB	0f5H
	DB	03dH
	DB	0fcH
	DB	05H
	DB	0f5H
	DB	0eeH
	DB	0ffH
	DB	05H
	DB	0f5H
	DB	0efH
	DB	047H
	DB	02H
	DB	0f5H
	DB	04fH
	DB	00H
	DB	00H
	DB	0f5H
	DB	0eH
	DB	00H
	DB	00H
	DB	0f5H
	DB	0eH
	DB	00H
	DB	00H
	DB	0f5H
	DB	0eH
	DB	00H
	DB	00H
	DB	0f5H
	DB	0eH
	DB	00H
	DB	00H
	DB	0f5H
	DB	0eH
	DB	00H
	DB	00H
	DB	0f5H
	DB	0eH
	DB	00H
	DB	00H
	DB	0f5H
	DB	0eH
	DB	00H
	DB	00H
	DB	0f5H
	DB	0eH
	DB	00H
	DB	00H
	DB	0f5H
	DB	0eH
	DB	00H
	DB	00H
	DB	0f5H
	DB	0eH
	DB	00H
	DB	00H
	DB	00H
	DB	0c5H
	DB	0eeH
	DB	05cH
	DB	00H
	DB	070H
	DB	0ffH
	DB	0ffH
	DB	0ffH
	DB	08H
	DB	0f2H
	DB	07fH
	DB	00H
	DB	0f8H
	DB	02fH
	DB	0f5H
	DB	0eH
	DB	00H
	DB	0d0H
	DB	06fH
	DB	0f4H
	DB	02fH
	DB	00H
	DB	010H
	DB	012H
	DB	0d0H
	DB	0efH
	DB	016H
	DB	00H
	DB	00H
	DB	020H
	DB	0fcH
	DB	0efH
	DB	018H
	DB	00H
	DB	00H
	DB	050H
	DB	0fcH
	DB	0efH
	DB	05H
	DB	00H
	DB	00H
	DB	040H
	DB	0fcH
	DB	02fH
	DB	043H
	DB	02H
	DB	00H
	DB	0d0H
	DB	07fH
	DB	0faH
	DB	0aH
	DB	00H
	DB	0b0H
	DB	08fH
	DB	0f5H
	DB	06fH
	DB	00H
	DB	0f4H
	DB	05fH
	DB	0a0H
	DB	0ffH
	DB	0ffH
	DB	0ffH
	DB	0bH
	DB	00H
	DB	0c6H
	DB	0feH
	DB	07dH
	DB	00H
	DB	00H
	DB	085H
	DB	05H
	DB	00H
	DB	00H
	DB	0f9H
	DB	09H
	DB	00H
	DB	00H
	DB	0f9H
	DB	09H
	DB	00H
	DB	00H
	DB	0f9H
	DB	09H
	DB	00H
	DB	0fbH
	DB	0ffH
	DB	0ffH
	DB	0aH
	DB	0c9H
	DB	0feH
	DB	0ceH
	DB	08H
	DB	00H
	DB	0f9H
	DB	09H
	DB	00H
	DB	00H
	DB	0f9H
	DB	09H
	DB	00H
	DB	00H
	DB	0f9H
	DB	09H
	DB	00H
	DB	00H
	DB	0f9H
	DB	09H
	DB	00H
	DB	00H
	DB	0f9H
	DB	09H
	DB	00H
	DB	00H
	DB	0f9H
	DB	09H
	DB	00H
	DB	00H
	DB	0f9H
	DB	09H
	DB	00H
	DB	00H
	DB	0f9H
	DB	09H
	DB	00H
	DB	00H
	DB	0f9H
	DB	0aH
	DB	00H
	DB	00H
	DB	0f7H
	DB	01dH
	DB	01H
	DB	00H
	DB	0f3H
	DB	0ffH
	DB	0aH
	DB	00H
	DB	060H
	DB	0edH
	DB	08H
	DB	0f5H
	DB	0dH
	DB	00H
	DB	060H
	DB	0dfH
	DB	0f5H
	DB	0dH
	DB	00H
	DB	060H
	DB	0dfH
	DB	0f5H
	DB	0dH
	DB	00H
	DB	060H
	DB	0dfH
	DB	0f5H
	DB	0dH
	DB	00H
	DB	060H
	DB	0dfH
	DB	0f5H
	DB	0dH
	DB	00H
	DB	060H
	DB	0dfH
	DB	0f5H
	DB	0dH
	DB	00H
	DB	060H
	DB	0dfH
	DB	0f5H
	DB	0dH
	DB	00H
	DB	060H
	DB	0dfH
	DB	0f5H
	DB	0dH
	DB	00H
	DB	060H
	DB	0dfH
	DB	0f5H
	DB	0dH
	DB	00H
	DB	060H
	DB	0dfH
	DB	0f5H
	DB	0eH
	DB	00H
	DB	060H
	DB	0dfH
	DB	0f3H
	DB	02fH
	DB	00H
	DB	090H
	DB	0dfH
	DB	0e0H
	DB	0afH
	DB	011H
	DB	0f7H
	DB	0dfH
	DB	080H
	DB	0ffH
	DB	0ffH
	DB	0efH
	DB	0dfH
	DB	00H
	DB	0d7H
	DB	0dfH
	DB	058H
	DB	0dfH
	DB	0f4H
	DB	01fH
	DB	00H
	DB	00H
	DB	0feH
	DB	05H
	DB	0e0H
	DB	04fH
	DB	00H
	DB	030H
	DB	0ffH
	DB	01H
	DB	0a0H
	DB	08fH
	DB	00H
	DB	070H
	DB	0bfH
	DB	00H
	DB	060H
	DB	0cfH
	DB	00H
	DB	0b0H
	DB	07fH
	DB	00H
	DB	020H
	DB	0ffH
	DB	01H
	DB	0e0H
	DB	02fH
	DB	00H
	DB	00H
	DB	0fcH
	DB	05H
	DB	0f3H
	DB	0dH
	DB	00H
	DB	00H
	DB	0f8H
	DB	09H
	DB	0f7H
	DB	09H
	DB	00H
	DB	00H
	DB	0f3H
	DB	0dH
	DB	0fbH
	DB	04H
	DB	00H
	DB	00H
	DB	0e0H
	DB	02fH
	DB	0eeH
	DB	00H
	DB	00H
	DB	00H
	DB	090H
	DB	09fH
	DB	0bfH
	DB	00H
	DB	00H
	DB	00H
	DB	050H
	DB	0ffH
	DB	06fH
	DB	00H
	DB	00H
	DB	00H
	DB	010H
	DB	0ffH
	DB	02fH
	DB	00H
	DB	00H
	DB	00H
	DB	00H
	DB	0fbH
	DB	0cH
	DB	00H
	DB	00H
	DB	00H
	DB	00H
	DB	0f7H
	DB	08H
	DB	00H
	DB	00H
	DB	0f4H
	DB	0eH
	DB	00H
	DB	090H
	DB	07fH
	DB	00H
	DB	020H
	DB	0ffH
	DB	01H
	DB	0f0H
	DB	03fH
	DB	00H
	DB	0d0H
	DB	0bfH
	DB	00H
	DB	050H
	DB	0dfH
	DB	00H
	DB	0c0H
	DB	06fH
	DB	00H
	DB	0f2H
	DB	0efH
	DB	00H
	DB	080H
	DB	09fH
	DB	00H
	DB	080H
	DB	09fH
	DB	00H
	DB	0f6H
	DB	0ffH
	DB	04H
	DB	0b0H
	DB	06fH
	DB	00H
	DB	040H
	DB	0dfH
	DB	00H
	DB	0faH
	DB	0fbH
	DB	08H
	DB	0e0H
	DB	02fH
	DB	00H
	DB	010H
	DB	0ffH
	DB	01H
	DB	0eeH
	DB	0f4H
	DB	0cH
	DB	0f3H
	DB	0dH
	DB	00H
	DB	00H
	DB	0fcH
	DB	034H
	DB	0bfH
	DB	0e0H
	DB	01fH
	DB	0f6H
	DB	0aH
	DB	00H
	DB	00H
	DB	0f9H
	DB	067H
	DB	07fH
	DB	0a0H
	DB	05fH
	DB	0f9H
	DB	06H
	DB	00H
	DB	00H
	DB	0f5H
	DB	0abH
	DB	03fH
	DB	060H
	DB	09fH
	DB	0fcH
	DB	03H
	DB	00H
	DB	00H
	DB	0f2H
	DB	0eeH
	DB	0eH
	DB	020H
	DB	0dfH
	DB	0efH
	DB	00H
	DB	00H
	DB	00H
	DB	0d0H
	DB	0ffH
	DB	0aH
	DB	00H
	DB	0fdH
	DB	0afH
	DB	00H
	DB	00H
	DB	00H
	DB	090H
	DB	0ffH
	DB	06H
	DB	00H
	DB	0f9H
	DB	07fH
	DB	00H
	DB	00H
	DB	00H
	DB	060H
	DB	0ffH
	DB	03H
	DB	00H
	DB	0f5H
	DB	03fH
	DB	00H
	DB	00H
	DB	00H
	DB	020H
	DB	0efH
	DB	00H
	DB	00H
	DB	0f1H
	DB	0eH
	DB	00H
	DB	00H
	DB	0e1H
	DB	09fH
	DB	00H
	DB	040H
	DB	0ffH
	DB	05H
	DB	060H
	DB	0efH
	DB	01H
	DB	0b0H
	DB	0cfH
	DB	00H
	DB	00H
	DB	0fdH
	DB	07H
	DB	0f3H
	DB	04fH
	DB	00H
	DB	00H
	DB	0f5H
	DB	01eH
	DB	0faH
	DB	0bH
	DB	00H
	DB	00H
	DB	0c0H
	DB	08fH
	DB	0ffH
	DB	03H
	DB	00H
	DB	00H
	DB	040H
	DB	0ffH
	DB	0afH
	DB	00H
	DB	00H
	DB	00H
	DB	00H
	DB	0fbH
	DB	02fH
	DB	00H
	DB	00H
	DB	00H
	DB	00H
	DB	0fcH
	DB	03fH
	DB	00H
	DB	00H
	DB	00H
	DB	060H
	DB	0ffH
	DB	0bfH
	DB	00H
	DB	00H
	DB	00H
	DB	0d0H
	DB	06fH
	DB	0feH
	DB	04H
	DB	00H
	DB	00H
	DB	0f7H
	DB	0dH
	DB	0f8H
	DB	0cH
	DB	00H
	DB	010H
	DB	0feH
	DB	06H
	DB	0e1H
	DB	05fH
	DB	00H
	DB	080H
	DB	0efH
	DB	00H
	DB	090H
	DB	0dfH
	DB	00H
	DB	0e2H
	DB	07fH
	DB	00H
	DB	020H
	DB	0ffH
	DB	06H
	DB	0f6H
	DB	01fH
	DB	00H
	DB	030H
	DB	0ffH
	DB	03H
	DB	0f2H
	DB	04fH
	DB	00H
	DB	070H
	DB	0dfH
	DB	00H
	DB	0c0H
	DB	08fH
	DB	00H
	DB	0a0H
	DB	09fH
	DB	00H
	DB	080H
	DB	0cfH
	DB	00H
	DB	0e0H
	DB	05fH
	DB	00H
	DB	030H
	DB	0ffH
	DB	01H
	DB	0f3H
	DB	01fH
	DB	00H
	DB	00H
	DB	0feH
	DB	04H
	DB	0f7H
	DB	0bH
	DB	00H
	DB	00H
	DB	0f9H
	DB	08H
	DB	0faH
	DB	07H
	DB	00H
	DB	00H
	DB	0f5H
	DB	0cH
	DB	0feH
	DB	02H
	DB	00H
	DB	00H
	DB	0e1H
	DB	04fH
	DB	0dfH
	DB	00H
	DB	00H
	DB	00H
	DB	0a0H
	DB	0bfH
	DB	08fH
	DB	00H
	DB	00H
	DB	00H
	DB	060H
	DB	0ffH
	DB	04fH
	DB	00H
	DB	00H
	DB	00H
	DB	010H
	DB	0ffH
	DB	0eH
	DB	00H
	DB	00H
	DB	00H
	DB	00H
	DB	0fcH
	DB	0aH
	DB	00H
	DB	00H
	DB	00H
	DB	00H
	DB	0f9H
	DB	06H
	DB	00H
	DB	00H
	DB	00H
	DB	00H
	DB	0fdH
	DB	02H
	DB	00H
	DB	00H
	DB	00H
	DB	030H
	DB	0cfH
	DB	00H
	DB	00H
	DB	00H
	DB	010H
	DB	0c3H
	DB	06fH
	DB	00H
	DB	00H
	DB	00H
	DB	0d0H
	DB	0ffH
	DB	0cH
	DB	00H
	DB	00H
	DB	00H
	DB	0c0H
	DB	0aeH
	DB	01H
	DB	00H
	DB	00H
	DB	00H
	DB	0fbH
	DB	0ffH
	DB	0ffH
	DB	0ffH
	DB	02fH
	DB	0ebH
	DB	0eeH
	DB	0eeH
	DB	0ffH
	DB	01fH
	DB	00H
	DB	00H
	DB	00H
	DB	0fdH
	DB	09H
	DB	00H
	DB	00H
	DB	070H
	DB	0efH
	DB	01H
	DB	00H
	DB	00H
	DB	0e2H
	DB	06fH
	DB	00H
	DB	00H
	DB	00H
	DB	0faH
	DB	0cH
	DB	00H
	DB	00H
	DB	040H
	DB	0ffH
	DB	03H
	DB	00H
	DB	00H
	DB	0d1H
	DB	08fH
	DB	00H
	DB	00H
	DB	00H
	DB	0f8H
	DB	01dH
	DB	00H
	DB	00H
	DB	020H
	DB	0ffH
	DB	05H
	DB	00H
	DB	00H
	DB	0b0H
	DB	0bfH
	DB	00H
	DB	00H
	DB	00H
	DB	0f5H
	DB	02fH
	DB	00H
	DB	00H
	DB	00H
	DB	0fcH
	DB	0efH
	DB	0eeH
	DB	0eeH
	DB	05eH
	DB	0fcH
	DB	0ffH
	DB	0ffH
	DB	0ffH
	DB	06fH
	DB	00H
	DB	00H
	DB	00H
	DB	02H
	DB	00H
	DB	00H
	DB	0a1H
	DB	04fH
	DB	00H
	DB	00H
	DB	0fbH
	DB	01bH
	DB	00H
	DB	040H
	DB	0efH
	DB	01H
	DB	00H
	DB	0a0H
	DB	09fH
	DB	00H
	DB	00H
	DB	0c0H
	DB	06fH
	DB	00H
	DB	00H
	DB	0d0H
	DB	05fH
	DB	00H
	DB	00H
	DB	0e0H
	DB	05fH
	DB	00H
	DB	00H
	DB	0e0H
	DB	05fH
	DB	00H
	DB	00H
	DB	0e0H
	DB	05fH
	DB	00H
	DB	00H
	DB	0f2H
	DB	03fH
	DB	00H
	DB	00H
	DB	0f9H
	DB	0dH
	DB	00H
	DB	0e1H
	DB	0efH
	DB	03H
	DB	00H
	DB	0f1H
	DB	0dfH
	DB	02H
	DB	00H
	DB	020H
	DB	0fbH
	DB	0bH
	DB	00H
	DB	00H
	DB	0f2H
	DB	02fH
	DB	00H
	DB	00H
	DB	0e0H
	DB	04fH
	DB	00H
	DB	00H
	DB	0e0H
	DB	05fH
	DB	00H
	DB	00H
	DB	0e0H
	DB	05fH
	DB	00H
	DB	00H
	DB	0e0H
	DB	05fH
	DB	00H
	DB	00H
	DB	0c0H
	DB	06fH
	DB	00H
	DB	00H
	DB	0a0H
	DB	08fH
	DB	00H
	DB	00H
	DB	050H
	DB	0dfH
	DB	00H
	DB	00H
	DB	00H
	DB	0fcH
	DB	09H
	DB	00H
	DB	00H
	DB	0c1H
	DB	04fH
	DB	00H
	DB	00H
	DB	00H
	DB	05H
	DB	0fcH
	DB	02H
	DB	0fcH
	DB	02H
	DB	0fcH
	DB	02H
	DB	0fcH
	DB	02H
	DB	0fcH
	DB	02H
	DB	0fcH
	DB	02H
	DB	0fcH
	DB	02H
	DB	0fcH
	DB	02H
	DB	0fcH
	DB	02H
	DB	0fcH
	DB	02H
	DB	0fcH
	DB	02H
	DB	0fcH
	DB	02H
	DB	0fcH
	DB	02H
	DB	0fcH
	DB	02H
	DB	0fcH
	DB	02H
	DB	0fcH
	DB	02H
	DB	0fcH
	DB	02H
	DB	0fcH
	DB	02H
	DB	0fcH
	DB	02H
	DB	0fcH
	DB	02H
	DB	0fcH
	DB	02H
	DB	0fcH
	DB	02H
	DB	021H
	DB	00H
	DB	00H
	DB	00H
	DB	0f5H
	DB	09H
	DB	00H
	DB	00H
	DB	0c2H
	DB	0afH
	DB	00H
	DB	00H
	DB	010H
	DB	0feH
	DB	03H
	DB	00H
	DB	00H
	DB	0faH
	DB	09H
	DB	00H
	DB	00H
	DB	0f7H
	DB	0bH
	DB	00H
	DB	00H
	DB	0f6H
	DB	0cH
	DB	00H
	DB	00H
	DB	0f6H
	DB	0cH
	DB	00H
	DB	00H
	DB	0f6H
	DB	0cH
	DB	00H
	DB	00H
	DB	0f5H
	DB	0dH
	DB	00H
	DB	00H
	DB	0f3H
	DB	01fH
	DB	00H
	DB	00H
	DB	0d0H
	DB	08fH
	DB	00H
	DB	00H
	DB	030H
	DB	0feH
	DB	0eH
	DB	00H
	DB	020H
	DB	0fcH
	DB	0fH
	DB	00H
	DB	0c0H
	DB	0afH
	DB	02H
	DB	00H
	DB	0f3H
	DB	01fH
	DB	00H
	DB	00H
	DB	0f5H
	DB	0dH
	DB	00H
	DB	00H
	DB	0f6H
	DB	0cH
	DB	00H
	DB	00H
	DB	0f6H
	DB	0cH
	DB	00H
	DB	00H
	DB	0f6H
	DB	0cH
	DB	00H
	DB	00H
	DB	0f7H
	DB	0bH
	DB	00H
	DB	00H
	DB	0f9H
	DB	09H
	DB	00H
	DB	00H
	DB	0feH
	DB	04H
	DB	00H
	DB	0a1H
	DB	0bfH
	DB	00H
	DB	00H
	DB	0f6H
	DB	01bH
	DB	00H
	DB	00H
	DB	041H
	DB	00H
	DB	00H
	DB	00H
	DB	00H
	DB	0e8H
	DB	0bfH
	DB	02H
	DB	00H
	DB	0b1H
	DB	08H
	DB	080H
	DB	0ffH
	DB	0ffH
	DB	03eH
	DB	00H
	DB	0f4H
	DB	09H
	DB	0f1H
	DB	04eH
	DB	0b1H
	DB	0efH
	DB	034H
	DB	0fcH
	DB	05H
	DB	0f5H
	DB	0aH
	DB	00H
	DB	0faH
	DB	0ffH
	DB	0bfH
	DB	00H
	DB	083H
	DB	05H
	DB	00H
	DB	070H
	DB	0edH
	DB	01aH
	DB	00H
	DB	010H
	DB	096H
	DB	028H
	DB	00H
	DB	00H
	DB	00H
	DB	00H
	DB	00H
	DB	0c1H
	DB	0ffH
	DB	0ffH
	DB	03H
	DB	00H
	DB	00H
	DB	00H
	DB	00H
	DB	0f5H
	DB	01aH
	DB	0f6H
	DB	0aH
	DB	00H
	DB	050H
	DB	04H
	DB	00H
	DB	031H
	DB	01H
	DB	0f2H
	DB	0cH
	DB	00H
	DB	0e1H
	DB	0bH
	DB	00H
	DB	00H
	DB	021H
	DB	0f9H
	DB	07H
	DB	00H
	DB	0f7H
	DB	03H
	DB	00H
	DB	00H
	DB	0f6H
	DB	0cfH
	DB	00H
	DB	010H
	DB	0aeH
	DB	00H
	DB	00H
	DB	00H
	DB	052H
	DB	0f9H
	DB	09H
	DB	070H
	DB	03fH
	DB	00H
	DB	00H
	DB	032H
	DB	01H
	DB	0f0H
	DB	0eH
	DB	0e1H
	DB	0aH
	DB	00H
	DB	00H
	DB	0f7H
	DB	019H
	DB	0f4H
	DB	0cH
	DB	0f8H
	DB	02H
	DB	00H
	DB	00H
	DB	0e1H
	DB	0ffH
	DB	0ffH
	DB	015H
	DB	09eH
	DB	00H
	DB	0fcH
	DB	06H
	DB	010H
	DB	0a8H
	DB	038H
	DB	090H
	DB	02fH
	DB	060H
	DB	0ffH
	DB	06H
	DB	00H
	DB	00H
	DB	00H
	DB	0f2H
	DB	09H
	DB	0e1H
	DB	0ffH
	DB	06H
	DB	00H
	DB	00H
	DB	00H
	DB	0e9H
	DB	01H
	DB	0e9H
	DB	0f9H
	DB	06H
	DB	00H
	DB	00H
	DB	020H
	DB	08fH
	DB	030H
	DB	07fH
	DB	0f8H
	DB	06H
	DB	00H
	DB	00H
	DB	0a0H
	DB	01eH
	DB	0c0H
	DB	0dH
	DB	0f8H
	DB	06H
	DB	00H
	DB	00H
	DB	0f3H
	DB	07H
	DB	0f5H
	DB	0acH
	DB	0fcH
	DB	04cH
	DB	00H
	DB	00H
	DB	0eaH
	DB	01H
	DB	0f7H
	DB	0ffH
	DB	0ffH
	DB	07fH
	DB	00H
	DB	00H
	DB	052H
	DB	00H
	DB	00H
	DB	00H
	DB	0f8H
	DB	06H
	DB	00H
	DB	00H
	DB	00H
	DB	00H
	DB	00H
	DB	00H
	DB	0f8H
	DB	06H
CONST	ENDS
PUBLIC	__JustMyCode_Default
; Function compile flags: /Odt
;	COMDAT __JustMyCode_Default
_TEXT	SEGMENT
__JustMyCode_Default PROC				; COMDAT
	push	ebp
	mov	ebp, esp
	pop	ebp
	ret	0
__JustMyCode_Default ENDP
_TEXT	ENDS
END
