; Listing generated by Microsoft (R) Optimizing Compiler Version 19.37.32822.0 

	TITLE	C:\TouchGFXProjects\KraftHeinz_DS3600\TouchGFX\build\Debug\obj\Font_RobotoCondensed_Bold_20_4bpp_0.obj
	.686P
	.XMM
	include listing.inc
	.model	flat

INCLUDELIB MSVCRTD
INCLUDELIB OLDNAMES

PUBLIC	?unicodes_RobotoCondensed_Bold_20_4bpp_0@@3QBEB	; unicodes_RobotoCondensed_Bold_20_4bpp_0
msvcjmc	SEGMENT
__E2605D79_concurrencysal@h DB 01H
__D6EC426F_sal@h DB 01H
__5DEEAB32_vadefs@h DB 01H
__7FAFA22A_vcruntime@h DB 01H
__1B0272D9_corecrt@h DB 01H
__19139D6C_assert@h DB 01H
__25E3C554_stdint@h DB 01H
__38966392_Config@hpp DB 01H
__B7E12544_Types@hpp DB 01H
__A95A9135_Font_RobotoCondensed_Bold_20_4bpp_0@cpp DB 01H
msvcjmc	ENDS
CONST	SEGMENT
?unicodes_RobotoCondensed_Bold_20_4bpp_0@@3QBEB DB 010H	; unicodes_RobotoCondensed_Bold_20_4bpp_0
	DB	00H
	DB	0f6H
	DB	02eH
	DB	0fbH
	DB	06fH
	DB	0e5H
	DB	01cH
	DB	00H
	DB	0a2H
	DB	0eeH
	DB	02bH
	DB	00H
	DB	010H
	DB	0fdH
	DB	0ffH
	DB	0efH
	DB	01H
	DB	070H
	DB	0ffH
	DB	09aH
	DB	0ffH
	DB	08H
	DB	0c0H
	DB	0efH
	DB	00H
	DB	0fdH
	DB	0dH
	DB	0e0H
	DB	0bfH
	DB	00H
	DB	0faH
	DB	01fH
	DB	0f1H
	DB	0afH
	DB	00H
	DB	0f9H
	DB	02fH
	DB	0f1H
	DB	0afH
	DB	00H
	DB	0f9H
	DB	03fH
	DB	0f1H
	DB	0afH
	DB	00H
	DB	0f9H
	DB	03fH
	DB	0f1H
	DB	0afH
	DB	00H
	DB	0f9H
	DB	03fH
	DB	0f1H
	DB	0bfH
	DB	00H
	DB	0f9H
	DB	02fH
	DB	0e0H
	DB	0cfH
	DB	00H
	DB	0faH
	DB	01fH
	DB	0c0H
	DB	0efH
	DB	00H
	DB	0fdH
	DB	0dH
	DB	070H
	DB	0ffH
	DB	08aH
	DB	0ffH
	DB	08H
	DB	010H
	DB	0fdH
	DB	0ffH
	DB	0efH
	DB	01H
	DB	00H
	DB	0a1H
	DB	0eeH
	DB	02bH
	DB	00H
	DB	00H
	DB	010H
	DB	0d7H
	DB	030H
	DB	0f9H
	DB	0ffH
	DB	0f6H
	DB	0ffH
	DB	0ffH
	DB	0f7H
	DB	0edH
	DB	0ffH
	DB	044H
	DB	0c0H
	DB	0ffH
	DB	00H
	DB	0c0H
	DB	0ffH
	DB	00H
	DB	0c0H
	DB	0ffH
	DB	00H
	DB	0c0H
	DB	0ffH
	DB	00H
	DB	0c0H
	DB	0ffH
	DB	00H
	DB	0c0H
	DB	0ffH
	DB	00H
	DB	0c0H
	DB	0ffH
	DB	00H
	DB	0c0H
	DB	0ffH
	DB	00H
	DB	0c0H
	DB	0ffH
	DB	00H
	DB	0c0H
	DB	0ffH
	DB	00H
	DB	0c0H
	DB	0ffH
	DB	010H
	DB	0e9H
	DB	0dfH
	DB	07H
	DB	00H
	DB	0b0H
	DB	0ffH
	DB	0ffH
	DB	07fH
	DB	00H
	DB	0f3H
	DB	0dfH
	DB	0e7H
	DB	0efH
	DB	00H
	DB	0f6H
	DB	05fH
	DB	0a0H
	DB	0ffH
	DB	02H
	DB	021H
	DB	02H
	DB	0a0H
	DB	0ffH
	DB	02H
	DB	00H
	DB	00H
	DB	0e1H
	DB	0dfH
	DB	00H
	DB	00H
	DB	00H
	DB	0fbH
	DB	05fH
	DB	00H
	DB	00H
	DB	070H
	DB	0ffH
	DB	08H
	DB	00H
	DB	00H
	DB	0d0H
	DB	0dfH
	DB	00H
	DB	00H
	DB	00H
	DB	0f0H
	DB	07fH
	DB	00H
	DB	00H
	DB	00H
	DB	060H
	DB	026H
	DB	00H
	DB	00H
	DB	00H
	DB	00H
	DB	00H
	DB	00H
	DB	00H
	DB	00H
	DB	0d1H
	DB	05fH
	DB	00H
	DB	00H
	DB	00H
	DB	0f4H
	DB	0afH
	DB	00H
	DB	00H
	DB	00H
	DB	0c1H
	DB	05eH
	DB	00H
	DB	00H
	DB	0fdH
	DB	0ffH
	DB	0efH
	DB	03aH
	DB	00H
	DB	0fdH
	DB	0ffH
	DB	0ffH
	DB	0ffH
	DB	03H
	DB	0fdH
	DB	07fH
	DB	0b7H
	DB	0ffH
	DB	0bH
	DB	0fdH
	DB	0fH
	DB	010H
	DB	0feH
	DB	0fH
	DB	0fdH
	DB	0fH
	DB	00H
	DB	0fcH
	DB	01fH
	DB	0fdH
	DB	0fH
	DB	00H
	DB	0feH
	DB	0eH
	DB	0fdH
	DB	03fH
	DB	083H
	DB	0ffH
	DB	08H
	DB	0fdH
	DB	0ffH
	DB	0ffH
	DB	0bfH
	DB	01H
	DB	0fdH
	DB	0ffH
	DB	0ffH
	DB	0ffH
	DB	06H
	DB	0fdH
	DB	0fH
	DB	020H
	DB	0fdH
	DB	01eH
	DB	0fdH
	DB	0fH
	DB	00H
	DB	0f9H
	DB	03fH
	DB	0fdH
	DB	0fH
	DB	00H
	DB	0fbH
	DB	03fH
	DB	0fdH
	DB	07fH
	DB	097H
	DB	0ffH
	DB	01fH
	DB	0fdH
	DB	0ffH
	DB	0ffH
	DB	0ffH
	DB	08H
	DB	0fdH
	DB	0ffH
	DB	0efH
	DB	06cH
	DB	00H
	DB	00H
	DB	060H
	DB	0ecH
	DB	0ceH
	DB	05H
	DB	00H
	DB	00H
	DB	0f9H
	DB	0ffH
	DB	0ffH
	DB	08fH
	DB	00H
	DB	050H
	DB	0ffH
	DB	08eH
	DB	0e8H
	DB	0ffH
	DB	02H
	DB	0b0H
	DB	0ffH
	DB	03H
	DB	050H
	DB	0ffH
	DB	08H
	DB	0e0H
	DB	0dfH
	DB	00H
	DB	020H
	DB	0ffH
	DB	0bH
	DB	0f1H
	DB	0cfH
	DB	00H
	DB	00H
	DB	022H
	DB	02H
	DB	0f2H
	DB	0cfH
	DB	00H
	DB	00H
	DB	00H
	DB	00H
	DB	0f2H
	DB	0cfH
	DB	00H
	DB	00H
	DB	00H
	DB	00H
	DB	0f2H
	DB	0cfH
	DB	00H
	DB	00H
	DB	00H
	DB	00H
	DB	0f1H
	DB	0cfH
	DB	00H
	DB	00H
	DB	011H
	DB	01H
	DB	0e0H
	DB	0dfH
	DB	00H
	DB	020H
	DB	0ffH
	DB	0bH
	DB	0b0H
	DB	0ffH
	DB	02H
	DB	060H
	DB	0ffH
	DB	08H
	DB	050H
	DB	0ffH
	DB	08dH
	DB	0e8H
	DB	0ffH
	DB	03H
	DB	00H
	DB	0faH
	DB	0ffH
	DB	0ffH
	DB	08fH
	DB	00H
	DB	00H
	DB	070H
	DB	0fcH
	DB	0ceH
	DB	06H
	DB	00H
	DB	0fdH
	DB	0ffH
	DB	0ceH
	DB	06H
	DB	00H
	DB	0fdH
	DB	0ffH
	DB	0ffH
	DB	0afH
	DB	00H
	DB	0fdH
	DB	07fH
	DB	0d8H
	DB	0ffH
	DB	07H
	DB	0fdH
	DB	0fH
	DB	010H
	DB	0feH
	DB	0eH
	DB	0fdH
	DB	0fH
	DB	00H
	DB	0faH
	DB	03fH
	DB	0fdH
	DB	0fH
	DB	00H
	DB	0f8H
	DB	05fH
	DB	0fdH
	DB	0fH
	DB	00H
	DB	0f7H
	DB	06fH
	DB	0fdH
	DB	0fH
	DB	00H
	DB	0f7H
	DB	06fH
	DB	0fdH
	DB	0fH
	DB	00H
	DB	0f7H
	DB	06fH
	DB	0fdH
	DB	0fH
	DB	00H
	DB	0f8H
	DB	05fH
	DB	0fdH
	DB	0fH
	DB	00H
	DB	0faH
	DB	03fH
	DB	0fdH
	DB	0fH
	DB	010H
	DB	0feH
	DB	0eH
	DB	0fdH
	DB	07fH
	DB	0d8H
	DB	0ffH
	DB	07H
	DB	0fdH
	DB	0ffH
	DB	0ffH
	DB	0afH
	DB	00H
	DB	0fdH
	DB	0ffH
	DB	0beH
	DB	06H
	DB	00H
	DB	0fdH
	DB	0ffH
	DB	0ffH
	DB	0ffH
	DB	04H
	DB	0fdH
	DB	0ffH
	DB	0ffH
	DB	0ffH
	DB	04H
	DB	0fdH
	DB	07fH
	DB	077H
	DB	077H
	DB	02H
	DB	0fdH
	DB	0fH
	DB	00H
	DB	00H
	DB	00H
	DB	0fdH
	DB	0fH
	DB	00H
	DB	00H
	DB	00H
	DB	0fdH
	DB	0fH
	DB	00H
	DB	00H
	DB	00H
	DB	0fdH
	DB	06fH
	DB	066H
	DB	036H
	DB	00H
	DB	0fdH
	DB	0ffH
	DB	0ffH
	DB	07fH
	DB	00H
	DB	0fdH
	DB	0ffH
	DB	0ffH
	DB	07fH
	DB	00H
	DB	0fdH
	DB	0fH
	DB	00H
	DB	00H
	DB	00H
	DB	0fdH
	DB	0fH
	DB	00H
	DB	00H
	DB	00H
	DB	0fdH
	DB	0fH
	DB	00H
	DB	00H
	DB	00H
	DB	0fdH
	DB	07fH
	DB	077H
	DB	077H
	DB	02H
	DB	0fdH
	DB	0ffH
	DB	0ffH
	DB	0ffH
	DB	05H
	DB	0fdH
	DB	0ffH
	DB	0ffH
	DB	0ffH
	DB	05H
	DB	0fbH
	DB	02fH
	DB	0fbH
	DB	02fH
	DB	0fbH
	DB	02fH
	DB	0fbH
	DB	02fH
	DB	0fbH
	DB	02fH
	DB	0fbH
	DB	02fH
	DB	0fbH
	DB	02fH
	DB	0fbH
	DB	02fH
	DB	0fbH
	DB	02fH
	DB	0fbH
	DB	02fH
	DB	0fbH
	DB	02fH
	DB	0fbH
	DB	02fH
	DB	0fbH
	DB	02fH
	DB	0fbH
	DB	02fH
	DB	0fbH
	DB	02fH
	DB	0fdH
	DB	0fH
	DB	00H
	DB	0fbH
	DB	0bfH
	DB	0fdH
	DB	0fH
	DB	040H
	DB	0ffH
	DB	03fH
	DB	0fdH
	DB	0fH
	DB	0c0H
	DB	0ffH
	DB	08H
	DB	0fdH
	DB	0fH
	DB	0f5H
	DB	0dfH
	DB	01H
	DB	0fdH
	DB	0fH
	DB	0fdH
	DB	05fH
	DB	00H
	DB	0fdH
	DB	06fH
	DB	0ffH
	DB	0aH
	DB	00H
	DB	0fdH
	DB	0efH
	DB	0ffH
	DB	02H
	DB	00H
	DB	0fdH
	DB	0ffH
	DB	0ffH
	DB	07H
	DB	00H
	DB	0fdH
	DB	0ffH
	DB	0ffH
	DB	01eH
	DB	00H
	DB	0fdH
	DB	0dfH
	DB	0fcH
	DB	07fH
	DB	00H
	DB	0fdH
	DB	03fH
	DB	0f4H
	DB	0efH
	DB	00H
	DB	0fdH
	DB	0fH
	DB	0d0H
	DB	0ffH
	DB	06H
	DB	0fdH
	DB	0fH
	DB	060H
	DB	0ffH
	DB	0dH
	DB	0fdH
	DB	0fH
	DB	00H
	DB	0feH
	DB	06fH
	DB	0fdH
	DB	0fH
	DB	00H
	DB	0f7H
	DB	0dfH
	DB	0fdH
	DB	0fH
	DB	00H
	DB	00H
	DB	00H
	DB	0fdH
	DB	0fH
	DB	00H
	DB	00H
	DB	00H
	DB	0fdH
	DB	0fH
	DB	00H
	DB	00H
	DB	00H
	DB	0fdH
	DB	0fH
	DB	00H
	DB	00H
	DB	00H
	DB	0fdH
	DB	0fH
	DB	00H
	DB	00H
	DB	00H
	DB	0fdH
	DB	0fH
	DB	00H
	DB	00H
	DB	00H
	DB	0fdH
	DB	0fH
	DB	00H
	DB	00H
	DB	00H
	DB	0fdH
	DB	0fH
	DB	00H
	DB	00H
	DB	00H
	DB	0fdH
	DB	0fH
	DB	00H
	DB	00H
	DB	00H
	DB	0fdH
	DB	0fH
	DB	00H
	DB	00H
	DB	00H
	DB	0fdH
	DB	0fH
	DB	00H
	DB	00H
	DB	00H
	DB	0fdH
	DB	0fH
	DB	00H
	DB	00H
	DB	00H
	DB	0fdH
	DB	07fH
	DB	077H
	DB	077H
	DB	00H
	DB	0fdH
	DB	0ffH
	DB	0ffH
	DB	0ffH
	DB	01H
	DB	0fdH
	DB	0ffH
	DB	0ffH
	DB	0ffH
	DB	01H
	DB	0fdH
	DB	0ffH
	DB	01H
	DB	00H
	DB	0d0H
	DB	0ffH
	DB	0fH
	DB	0fdH
	DB	0ffH
	DB	04H
	DB	00H
	DB	0f2H
	DB	0ffH
	DB	0fH
	DB	0fdH
	DB	0ffH
	DB	08H
	DB	00H
	DB	0f6H
	DB	0ffH
	DB	0fH
	DB	0fdH
	DB	0ffH
	DB	0bH
	DB	00H
	DB	0f9H
	DB	0ffH
	DB	0fH
	DB	0fdH
	DB	0ffH
	DB	0fH
	DB	00H
	DB	0fdH
	DB	0ffH
	DB	0fH
	DB	0fdH
	DB	0fdH
	DB	04fH
	DB	020H
	DB	0ffH
	DB	0fcH
	DB	0fH
	DB	0fdH
	DB	0bcH
	DB	08fH
	DB	050H
	DB	0dfH
	DB	0faH
	DB	0fH
	DB	0fdH
	DB	07dH
	DB	0bfH
	DB	090H
	DB	09fH
	DB	0fbH
	DB	0fH
	DB	0fdH
	DB	03eH
	DB	0ffH
	DB	0d0H
	DB	05fH
	DB	0fcH
	DB	0fH
	DB	0fdH
	DB	0eH
	DB	0feH
	DB	0f5H
	DB	01fH
	DB	0fcH
	DB	0fH
	DB	0fdH
	DB	0fH
	DB	0faH
	DB	0fcH
	DB	0cH
	DB	0fdH
	DB	0fH
	DB	0fdH
	DB	0fH
	DB	0f6H
	DB	0ffH
	DB	08H
	DB	0fdH
	DB	0fH
	DB	0fdH
	DB	0fH
	DB	0f1H
	DB	0ffH
	DB	04H
	DB	0fdH
	DB	0fH
	DB	0fdH
	DB	0fH
	DB	0c0H
	DB	0efH
	DB	00H
	DB	0fdH
	DB	0fH
	DB	0fdH
	DB	0fH
	DB	080H
	DB	0afH
	DB	00H
	DB	0fdH
	DB	0fH
	DB	0fdH
	DB	03fH
	DB	00H
	DB	0c0H
	DB	0ffH
	DB	01H
	DB	0fdH
	DB	0afH
	DB	00H
	DB	0c0H
	DB	0ffH
	DB	01H
	DB	0fdH
	DB	0ffH
	DB	01H
	DB	0c0H
	DB	0ffH
	DB	01H
	DB	0fdH
	DB	0ffH
	DB	08H
	DB	0c0H
	DB	0ffH
	DB	01H
	DB	0fdH
	DB	0ffH
	DB	0eH
	DB	0c0H
	DB	0ffH
	DB	01H
	DB	0fdH
	DB	0dfH
	DB	05fH
	DB	0c0H
	DB	0ffH
	DB	01H
	DB	0fdH
	DB	06fH
	DB	0cfH
	DB	0c0H
	DB	0ffH
	DB	01H
	DB	0fdH
	DB	01fH
	DB	0feH
	DB	0c3H
	DB	0ffH
	DB	01H
	DB	0fdH
	DB	0fH
	DB	0f8H
	DB	0caH
	DB	0ffH
	DB	01H
	DB	0fdH
	DB	0fH
	DB	0f2H
	DB	0dfH
	DB	0ffH
	DB	01H
	DB	0fdH
	DB	0fH
	DB	0b0H
	DB	0ffH
	DB	0ffH
	DB	01H
	DB	0fdH
	DB	0fH
	DB	040H
	DB	0ffH
	DB	0ffH
	DB	01H
	DB	0fdH
	DB	0fH
	DB	00H
	DB	0fdH
	DB	0ffH
	DB	01H
	DB	0fdH
	DB	0fH
	DB	00H
	DB	0f6H
	DB	0ffH
	DB	01H
	DB	0fdH
	DB	0fH
	DB	00H
	DB	0e1H
	DB	0ffH
	DB	01H
	DB	0fdH
	DB	0ffH
	DB	0efH
	DB	04bH
	DB	00H
	DB	0fdH
	DB	0ffH
	DB	0ffH
	DB	0ffH
	DB	06H
	DB	0fdH
	DB	07fH
	DB	097H
	DB	0ffH
	DB	01eH
	DB	0fdH
	DB	0fH
	DB	00H
	DB	0faH
	DB	06fH
	DB	0fdH
	DB	0fH
	DB	00H
	DB	0f5H
	DB	08fH
	DB	0fdH
	DB	0fH
	DB	00H
	DB	0f5H
	DB	09fH
	DB	0fdH
	DB	0fH
	DB	00H
	DB	0f8H
	DB	07fH
	DB	0fdH
	DB	07fH
	DB	097H
	DB	0ffH
	DB	02fH
	DB	0fdH
	DB	0ffH
	DB	0ffH
	DB	0ffH
	DB	07H
	DB	0fdH
	DB	0ffH
	DB	0efH
	DB	05cH
	DB	00H
	DB	0fdH
	DB	0fH
	DB	00H
	DB	00H
	DB	00H
	DB	0fdH
	DB	0fH
	DB	00H
	DB	00H
	DB	00H
	DB	0fdH
	DB	0fH
	DB	00H
	DB	00H
	DB	00H
	DB	0fdH
	DB	0fH
	DB	00H
	DB	00H
	DB	00H
	DB	0fdH
	DB	0fH
	DB	00H
	DB	00H
	DB	00H
	DB	00H
	DB	050H
	DB	0ecH
	DB	0ceH
	DB	05H
	DB	00H
	DB	00H
	DB	0f8H
	DB	0ffH
	DB	0ffH
	DB	08fH
	DB	00H
	DB	040H
	DB	0ffH
	DB	09eH
	DB	0e9H
	DB	0ffH
	DB	04H
	DB	0a0H
	DB	0ffH
	DB	05H
	DB	050H
	DB	0ffH
	DB	0bH
	DB	0e0H
	DB	0efH
	DB	00H
	DB	00H
	DB	0feH
	DB	0eH
	DB	0f1H
	DB	0cfH
	DB	00H
	DB	00H
	DB	0fcH
	DB	01fH
	DB	0f2H
	DB	0bfH
	DB	00H
	DB	00H
	DB	0fbH
	DB	02fH
	DB	0f2H
	DB	0bfH
	DB	00H
	DB	00H
	DB	0fbH
	DB	02fH
	DB	0f2H
	DB	0bfH
	DB	00H
	DB	00H
	DB	0fbH
	DB	02fH
	DB	0f1H
	DB	0cfH
	DB	00H
	DB	00H
	DB	0fcH
	DB	01fH
	DB	0e0H
	DB	0efH
	DB	00H
	DB	00H
	DB	0feH
	DB	0eH
	DB	0a0H
	DB	0ffH
	DB	04H
	DB	040H
	DB	0ffH
	DB	0bH
	DB	040H
	DB	0ffH
	DB	08eH
	DB	0e8H
	DB	0ffH
	DB	05H
	DB	00H
	DB	0f8H
	DB	0ffH
	DB	0ffH
	DB	09fH
	DB	00H
	DB	00H
	DB	050H
	DB	0ecH
	DB	0ffH
	DB	0cfH
	DB	01H
	DB	00H
	DB	00H
	DB	00H
	DB	0a0H
	DB	0ffH
	DB	01dH
	DB	00H
	DB	00H
	DB	00H
	DB	00H
	DB	0f9H
	DB	06H
	DB	00H
	DB	00H
	DB	00H
	DB	00H
	DB	030H
	DB	00H
	DB	00H
	DB	091H
	DB	0fdH
	DB	09dH
	DB	01H
	DB	010H
	DB	0fdH
	DB	0ffH
	DB	0ffH
	DB	01dH
	DB	090H
	DB	0ffH
	DB	07cH
	DB	0fbH
	DB	09fH
	DB	0d0H
	DB	0ffH
	DB	01H
	DB	0e1H
	DB	0efH
	DB	0d0H
	DB	0ffH
	DB	01H
	DB	070H
	DB	088H
	DB	0a0H
	DB	0ffH
	DB	02bH
	DB	00H
	DB	00H
	DB	020H
	DB	0feH
	DB	0ffH
	DB	03aH
	DB	00H
	DB	00H
	DB	0d3H
	DB	0ffH
	DB	0ffH
	DB	07H
	DB	00H
	DB	00H
	DB	0d6H
	DB	0ffH
	DB	05fH
	DB	00H
	DB	00H
	DB	00H
	DB	0f8H
	DB	0cfH
	DB	0c3H
	DB	08cH
	DB	00H
	DB	0e0H
	DB	0ffH
	DB	0f2H
	DB	0dfH
	DB	00H
	DB	0e0H
	DB	0ffH
	DB	0b0H
	DB	0ffH
	DB	06aH
	DB	0faH
	DB	0cfH
	DB	020H
	DB	0feH
	DB	0ffH
	DB	0ffH
	DB	04fH
	DB	00H
	DB	081H
	DB	0fdH
	DB	0aeH
	DB	03H
	DB	0f8H
	DB	0ffH
	DB	0ffH
	DB	0ffH
	DB	0ffH
	DB	05H
	DB	0f8H
	DB	0ffH
	DB	0ffH
	DB	0ffH
	DB	0ffH
	DB	05H
	DB	073H
	DB	077H
	DB	0ffH
	DB	07eH
	DB	077H
	DB	02H
	DB	00H
	DB	010H
	DB	0ffH
	DB	0dH
	DB	00H
	DB	00H
	DB	00H
	DB	010H
	DB	0ffH
	DB	0dH
	DB	00H
	DB	00H
	DB	00H
	DB	010H
	DB	0ffH
	DB	0dH
	DB	00H
	DB	00H
	DB	00H
	DB	010H
	DB	0ffH
	DB	0dH
	DB	00H
	DB	00H
	DB	00H
	DB	010H
	DB	0ffH
	DB	0dH
	DB	00H
	DB	00H
	DB	00H
	DB	010H
	DB	0ffH
	DB	0dH
	DB	00H
	DB	00H
	DB	00H
	DB	010H
	DB	0ffH
	DB	0dH
	DB	00H
	DB	00H
	DB	00H
	DB	010H
	DB	0ffH
	DB	0dH
	DB	00H
	DB	00H
	DB	00H
	DB	010H
	DB	0ffH
	DB	0dH
	DB	00H
	DB	00H
	DB	00H
	DB	010H
	DB	0ffH
	DB	0dH
	DB	00H
	DB	00H
	DB	00H
	DB	010H
	DB	0ffH
	DB	0dH
	DB	00H
	DB	00H
	DB	00H
	DB	010H
	DB	0ffH
	DB	0dH
	DB	00H
	DB	00H
	DB	0faH
	DB	08fH
	DB	00H
	DB	00H
	DB	0feH
	DB	04fH
	DB	0f6H
	DB	0bfH
	DB	00H
	DB	030H
	DB	0ffH
	DB	0eH
	DB	0f2H
	DB	0efH
	DB	00H
	DB	060H
	DB	0ffH
	DB	0aH
	DB	0d0H
	DB	0ffH
	DB	03H
	DB	090H
	DB	0ffH
	DB	06H
	DB	090H
	DB	0ffH
	DB	06H
	DB	0d0H
	DB	0ffH
	DB	02H
	DB	050H
	DB	0ffH
	DB	09H
	DB	0f1H
	DB	0dfH
	DB	00H
	DB	010H
	DB	0ffH
	DB	0dH
	DB	0f5H
	DB	09fH
	DB	00H
	DB	00H
	DB	0fbH
	DB	01fH
	DB	0f8H
	DB	05fH
	DB	00H
	DB	00H
	DB	0f7H
	DB	05fH
	DB	0fcH
	DB	01fH
	DB	00H
	DB	00H
	DB	0f3H
	DB	08fH
	DB	0ffH
	DB	0cH
	DB	00H
	DB	00H
	DB	0e0H
	DB	0efH
	DB	0ffH
	DB	07H
	DB	00H
	DB	00H
	DB	0a0H
	DB	0ffH
	DB	0ffH
	DB	03H
	DB	00H
	DB	00H
	DB	060H
	DB	0ffH
	DB	0efH
	DB	00H
	DB	00H
	DB	00H
	DB	020H
	DB	0ffH
	DB	0afH
	DB	00H
	DB	00H
	DB	00H
	DB	00H
	DB	0fdH
	DB	06fH
	DB	00H
	DB	00H
	DB	0faH
	DB	07fH
	DB	00H
	DB	090H
	DB	0ffH
	DB	07H
	DB	0f4H
	DB	0cfH
	DB	00H
	DB	0e0H
	DB	0ffH
	DB	02H
	DB	0d0H
	DB	0ffH
	DB	02H
	DB	0f4H
	DB	0afH
	DB	00H
	DB	070H
	DB	0ffH
	DB	07H
	DB	0f9H
	DB	04fH
	DB	00H
	DB	010H
	DB	0ffH
	DB	0cH
	DB	0fdH
	DB	0dH
	DB	00H
	DB	00H
	DB	0faH
	DB	05fH
	DB	0ffH
	DB	08H
	DB	00H
	DB	00H
	DB	0f4H
	DB	0efH
	DB	0ffH
	DB	02H
	DB	00H
	DB	00H
	DB	0d0H
	DB	0ffH
	DB	0bfH
	DB	00H
	DB	00H
	DB	00H
	DB	070H
	DB	0ffH
	DB	05fH
	DB	00H
	DB	00H
	DB	00H
	DB	010H
	DB	0ffH
	DB	0eH
	DB	00H
	DB	00H
	DB	00H
	DB	00H
	DB	0ffH
	DB	0dH
	DB	00H
	DB	00H
	DB	00H
	DB	00H
	DB	0ffH
	DB	0dH
	DB	00H
	DB	00H
	DB	00H
	DB	00H
	DB	0ffH
	DB	0dH
	DB	00H
	DB	00H
	DB	00H
	DB	00H
	DB	0ffH
	DB	0dH
	DB	00H
	DB	00H
	DB	00H
	DB	00H
	DB	0ffH
	DB	0dH
	DB	00H
	DB	00H
	DB	00H
	DB	0c5H
	DB	0deH
	DB	019H
	DB	00H
	DB	070H
	DB	0ffH
	DB	0ffH
	DB	0cfH
	DB	00H
	DB	0e0H
	DB	0dfH
	DB	0a4H
	DB	0ffH
	DB	04H
	DB	060H
	DB	046H
	DB	050H
	DB	0ffH
	DB	06H
	DB	00H
	DB	072H
	DB	0c9H
	DB	0ffH
	DB	06H
	DB	070H
	DB	0ffH
	DB	0ffH
	DB	0ffH
	DB	06H
	DB	0f1H
	DB	0dfH
	DB	052H
	DB	0ffH
	DB	06H
	DB	0f4H
	DB	08fH
	DB	050H
	DB	0ffH
	DB	06H
	DB	0f3H
	DB	0cfH
	DB	0b4H
	DB	0ffH
	DB	06H
	DB	0c0H
	DB	0ffH
	DB	0ffH
	DB	0ffH
	DB	07H
	DB	020H
	DB	0eaH
	DB	07dH
	DB	0ffH
	DB	0aH
	DB	0ffH
	DB	0cH
	DB	00H
	DB	00H
	DB	00H
	DB	0ffH
	DB	0cH
	DB	00H
	DB	00H
	DB	00H
	DB	0ffH
	DB	0cH
	DB	00H
	DB	00H
	DB	00H
	DB	0ffH
	DB	0cH
	DB	00H
	DB	00H
	DB	00H
	DB	0ffH
	DB	09cH
	DB	0eeH
	DB	08H
	DB	00H
	DB	0ffH
	DB	0ffH
	DB	0ffH
	DB	08fH
	DB	00H
	DB	0ffH
	DB	08fH
	DB	0f7H
	DB	0efH
	DB	00H
	DB	0ffH
	DB	0cH
	DB	0a0H
	DB	0ffH
	DB	02H
	DB	0ffH
	DB	0cH
	DB	080H
	DB	0ffH
	DB	03H
	DB	0ffH
	DB	0cH
	DB	080H
	DB	0ffH
	DB	04H
	DB	0ffH
	DB	0cH
	DB	080H
	DB	0ffH
	DB	03H
	DB	0ffH
	DB	0cH
	DB	0a0H
	DB	0ffH
	DB	02H
	DB	0ffH
	DB	08fH
	DB	0e7H
	DB	0efH
	DB	00H
	DB	0ffH
	DB	0ffH
	DB	0ffH
	DB	08fH
	DB	00H
	DB	0ffH
	DB	099H
	DB	0eeH
	DB	09H
	DB	00H
	DB	00H
	DB	0c5H
	DB	0efH
	DB	02aH
	DB	00H
	DB	060H
	DB	0ffH
	DB	0ffH
	DB	0cfH
	DB	00H
	DB	0d0H
	DB	0efH
	DB	0a6H
	DB	0ffH
	DB	05H
	DB	0f3H
	DB	09fH
	DB	010H
	DB	0ffH
	DB	08H
	DB	0f4H
	DB	07fH
	DB	00H
	DB	032H
	DB	02H
	DB	0f5H
	DB	07fH
	DB	00H
	DB	00H
	DB	00H
	DB	0f4H
	DB	07fH
	DB	00H
	DB	00H
	DB	00H
	DB	0f3H
	DB	09fH
	DB	00H
	DB	0ddH
	DB	08H
	DB	0d0H
	DB	0efH
	DB	097H
	DB	0ffH
	DB	06H
	DB	060H
	DB	0ffH
	DB	0ffH
	DB	0dfH
	DB	01H
	DB	00H
	DB	0c5H
	DB	0efH
	DB	02aH
	DB	00H
	DB	00H
	DB	00H
	DB	00H
	DB	0fdH
	DB	0dH
	DB	00H
	DB	00H
	DB	00H
	DB	0fdH
	DB	0dH
	DB	00H
	DB	00H
	DB	00H
	DB	0fdH
	DB	0dH
	DB	00H
	DB	00H
	DB	00H
	DB	0fdH
	DB	0dH
	DB	00H
	DB	0e9H
	DB	07eH
	DB	0fdH
	DB	0dH
	DB	090H
	DB	0ffH
	DB	0ffH
	DB	0ffH
	DB	0dH
	DB	0f1H
	DB	0ffH
	DB	097H
	DB	0ffH
	DB	0dH
	DB	0f3H
	DB	09fH
	DB	00H
	DB	0feH
	DB	0dH
	DB	0f5H
	DB	07fH
	DB	00H
	DB	0fdH
	DB	0dH
	DB	0f5H
	DB	06fH
	DB	00H
	DB	0fdH
	DB	0dH
	DB	0f5H
	DB	07fH
	DB	00H
	DB	0fdH
	DB	0dH
	DB	0f4H
	DB	08fH
	DB	00H
	DB	0fdH
	DB	0dH
	DB	0f1H
	DB	0dfH
	DB	064H
	DB	0ffH
	DB	0dH
	DB	090H
	DB	0ffH
	DB	0ffH
	DB	0ffH
	DB	0dH
	DB	00H
	DB	0e9H
	DB	08eH
	DB	0faH
	DB	0dH
	DB	00H
	DB	0b3H
	DB	0eeH
	DB	04bH
	DB	00H
	DB	030H
	DB	0ffH
	DB	0ffH
	DB	0ffH
	DB	03H
	DB	0b0H
	DB	0efH
	DB	077H
	DB	0ffH
	DB	0aH
	DB	0f1H
	DB	09fH
	DB	00H
	DB	0fbH
	DB	0eH
	DB	0f3H
	DB	0ffH
	DB	0ffH
	DB	0ffH
	DB	0fH
	DB	0f3H
	DB	0ffH
	DB	0ffH
	DB	0ffH
	DB	0fH
	DB	0f3H
	DB	09fH
	DB	00H
	DB	00H
	DB	00H
	DB	0f1H
	DB	0cfH
	DB	00H
	DB	020H
	DB	00H
	DB	0c0H
	DB	0ffH
	DB	06aH
	DB	0f8H
	DB	05H
	DB	030H
	DB	0ffH
	DB	0ffH
	DB	0ffH
	DB	09H
	DB	00H
	DB	0b3H
	DB	0feH
	DB	07dH
	DB	00H
	DB	00H
	DB	0a2H
	DB	0eeH
	DB	04H
	DB	00H
	DB	0fdH
	DB	0ffH
	DB	05H
	DB	040H
	DB	0ffH
	DB	06cH
	DB	02H
	DB	050H
	DB	0ffH
	DB	07H
	DB	00H
	DB	0faH
	DB	0ffH
	DB	0ffH
	DB	01H
	DB	0faH
	DB	0ffH
	DB	0ffH
	DB	01H
	DB	071H
	DB	0ffH
	DB	027H
	DB	00H
	DB	050H
	DB	0ffH
	DB	06H
	DB	00H
	DB	050H
	DB	0ffH
	DB	06H
	DB	00H
	DB	050H
	DB	0ffH
	DB	06H
	DB	00H
	DB	050H
	DB	0ffH
	DB	06H
	DB	00H
	DB	050H
	DB	0ffH
	DB	06H
	DB	00H
	DB	050H
	DB	0ffH
	DB	06H
	DB	00H
	DB	050H
	DB	0ffH
	DB	06H
	DB	00H
	DB	050H
	DB	0ffH
	DB	06H
	DB	00H
	DB	00H
	DB	0e8H
	DB	0aeH
	DB	0f8H
	DB	01fH
	DB	070H
	DB	0ffH
	DB	0ffH
	DB	0ffH
	DB	01fH
	DB	0e0H
	DB	0ffH
	DB	088H
	DB	0ffH
	DB	01fH
	DB	0f3H
	DB	0afH
	DB	00H
	DB	0fbH
	DB	01fH
	DB	0f4H
	DB	07fH
	DB	00H
	DB	0fbH
	DB	01fH
	DB	0f5H
	DB	07fH
	DB	00H
	DB	0fbH
	DB	01fH
	DB	0f5H
	DB	07fH
	DB	00H
	DB	0fbH
	DB	01fH
	DB	0f3H
	DB	0afH
	DB	00H
	DB	0fbH
	DB	01fH
	DB	0e0H
	DB	0ffH
	DB	078H
	DB	0feH
	DB	01fH
	DB	070H
	DB	0ffH
	DB	0ffH
	DB	0ffH
	DB	01fH
	DB	00H
	DB	0e7H
	DB	09eH
	DB	0fbH
	DB	01fH
	DB	00H
	DB	00H
	DB	00H
	DB	0fcH
	DB	0fH
	DB	010H
	DB	08dH
	DB	085H
	DB	0ffH
	DB	0bH
	DB	060H
	DB	0ffH
	DB	0ffH
	DB	0ffH
	DB	04H
	DB	00H
	DB	0d7H
	DB	0efH
	DB	03bH
	DB	00H
	DB	0e8H
	DB	08H
	DB	0feH
	DB	0fH
	DB	0f9H
	DB	09H
	DB	00H
	DB	00H
	DB	0fdH
	DB	0eH
	DB	0fdH
	DB	0eH
	DB	0fdH
	DB	0eH
	DB	0fdH
	DB	0eH
	DB	0fdH
	DB	0eH
	DB	0fdH
	DB	0eH
	DB	0fdH
	DB	0eH
	DB	0fdH
	DB	0eH
	DB	0fdH
	DB	0eH
	DB	0fdH
	DB	0eH
	DB	0fdH
	DB	0eH
	DB	0fdH
	DB	0eH
	DB	0fdH
	DB	0eH
	DB	0fdH
	DB	0eH
	DB	0fdH
	DB	0eH
	DB	0fdH
	DB	0eH
	DB	0fdH
	DB	0eH
	DB	0fdH
	DB	0eH
	DB	0fdH
	DB	0eH
	DB	0fdH
	DB	0eH
	DB	0fdH
	DB	0eH
	DB	0fdH
	DB	0eH
	DB	0fdH
	DB	0eH
	DB	0fdH
	DB	0eH
	DB	0fdH
	DB	0eH
	DB	0fdH
	DB	0eH
	DB	0ffH
	DB	08aH
	DB	0eeH
	DB	018H
	DB	0e9H
	DB	07dH
	DB	00H
	DB	0ffH
	DB	0ffH
	DB	0ffH
	DB	0dfH
	DB	0ffH
	DB	0ffH
	DB	04H
	DB	0ffH
	DB	08fH
	DB	0f9H
	DB	0ffH
	DB	098H
	DB	0ffH
	DB	09H
	DB	0ffH
	DB	0cH
	DB	0f1H
	DB	0cfH
	DB	00H
	DB	0ffH
	DB	0bH
	DB	0ffH
	DB	0cH
	DB	0f0H
	DB	0cfH
	DB	00H
	DB	0ffH
	DB	0cH
	DB	0ffH
	DB	0cH
	DB	0f0H
	DB	0cfH
	DB	00H
	DB	0ffH
	DB	0cH
	DB	0ffH
	DB	0cH
	DB	0f0H
	DB	0cfH
	DB	00H
	DB	0ffH
	DB	0cH
	DB	0ffH
	DB	0cH
	DB	0f0H
	DB	0cfH
	DB	00H
	DB	0ffH
	DB	0cH
	DB	0ffH
	DB	0cH
	DB	0f0H
	DB	0cfH
	DB	00H
	DB	0ffH
	DB	0cH
	DB	0ffH
	DB	0cH
	DB	0f0H
	DB	0cfH
	DB	00H
	DB	0ffH
	DB	0cH
	DB	0ffH
	DB	0cH
	DB	0f0H
	DB	0cfH
	DB	00H
	DB	0ffH
	DB	0cH
	DB	0f1H
	DB	09fH
	DB	0e8H
	DB	08eH
	DB	00H
	DB	0f1H
	DB	0ffH
	DB	0ffH
	DB	0ffH
	DB	05H
	DB	0f1H
	DB	0ffH
	DB	098H
	DB	0ffH
	DB	0aH
	DB	0f1H
	DB	0bfH
	DB	00H
	DB	0feH
	DB	0cH
	DB	0f1H
	DB	0bfH
	DB	00H
	DB	0feH
	DB	0dH
	DB	0f1H
	DB	0bfH
	DB	00H
	DB	0feH
	DB	0dH
	DB	0f1H
	DB	0bfH
	DB	00H
	DB	0feH
	DB	0dH
	DB	0f1H
	DB	0bfH
	DB	00H
	DB	0feH
	DB	0dH
	DB	0f1H
	DB	0bfH
	DB	00H
	DB	0feH
	DB	0dH
	DB	0f1H
	DB	0bfH
	DB	00H
	DB	0feH
	DB	0dH
	DB	0f1H
	DB	0bfH
	DB	00H
	DB	0feH
	DB	0dH
	DB	00H
	DB	0b4H
	DB	0eeH
	DB	03bH
	DB	00H
	DB	040H
	DB	0ffH
	DB	0ffH
	DB	0efH
	DB	03H
	DB	0c0H
	DB	0ffH
	DB	088H
	DB	0ffH
	DB	0bH
	DB	0f2H
	DB	0afH
	DB	00H
	DB	0fbH
	DB	01fH
	DB	0f4H
	DB	08fH
	DB	00H
	DB	0f9H
	DB	03fH
	DB	0f5H
	DB	07fH
	DB	00H
	DB	0f8H
	DB	03fH
	DB	0f4H
	DB	08fH
	DB	00H
	DB	0f8H
	DB	03fH
	DB	0f2H
	DB	0afH
	DB	00H
	DB	0fbH
	DB	01fH
	DB	0c0H
	DB	0ffH
	DB	088H
	DB	0ffH
	DB	0bH
	DB	040H
	DB	0ffH
	DB	0ffH
	DB	0ffH
	DB	03H
	DB	00H
	DB	0b4H
	DB	0eeH
	DB	03bH
	DB	00H
	DB	0ffH
	DB	09aH
	DB	0eeH
	DB	08H
	DB	00H
	DB	0ffH
	DB	0ffH
	DB	0ffH
	DB	07fH
	DB	00H
	DB	0ffH
	DB	05eH
	DB	0e5H
	DB	0efH
	DB	00H
	DB	0ffH
	DB	0cH
	DB	0a0H
	DB	0ffH
	DB	02H
	DB	0ffH
	DB	0cH
	DB	080H
	DB	0ffH
	DB	03H
	DB	0ffH
	DB	0cH
	DB	080H
	DB	0ffH
	DB	03H
	DB	0ffH
	DB	0cH
	DB	090H
	DB	0ffH
	DB	03H
	DB	0ffH
	DB	0cH
	DB	0b0H
	DB	0ffH
	DB	02H
	DB	0ffH
	DB	07fH
	DB	0f8H
	DB	0dfH
	DB	00H
	DB	0ffH
	DB	0ffH
	DB	0ffH
	DB	07fH
	DB	00H
	DB	0ffH
	DB	09cH
	DB	0eeH
	DB	08H
	DB	00H
	DB	0ffH
	DB	0cH
	DB	00H
	DB	00H
	DB	00H
	DB	0ffH
	DB	0cH
	DB	00H
	DB	00H
	DB	00H
	DB	0ffH
	DB	0cH
	DB	00H
	DB	00H
	DB	00H
	DB	0ffH
	DB	0cH
	DB	00H
	DB	00H
	DB	00H
	DB	0ffH
	DB	0aaH
	DB	04fH
	DB	0ffH
	DB	0ffH
	DB	03fH
	DB	0ffH
	DB	0dfH
	DB	02aH
	DB	0ffH
	DB	0dH
	DB	00H
	DB	0ffH
	DB	0cH
	DB	00H
	DB	0ffH
	DB	0cH
	DB	00H
	DB	0ffH
	DB	0cH
	DB	00H
	DB	0ffH
	DB	0cH
	DB	00H
	DB	0ffH
	DB	0cH
	DB	00H
	DB	0ffH
	DB	0cH
	DB	00H
	DB	0ffH
	DB	0cH
	DB	00H
	DB	00H
	DB	0d7H
	DB	0deH
	DB	018H
	DB	00H
	DB	090H
	DB	0ffH
	DB	0ffH
	DB	0bfH
	DB	00H
	DB	0f0H
	DB	0bfH
	DB	0a2H
	DB	0ffH
	DB	03H
	DB	0f1H
	DB	0bfH
	DB	020H
	DB	055H
	DB	02H
	DB	0c0H
	DB	0ffH
	DB	06dH
	DB	00H
	DB	00H
	DB	020H
	DB	0fcH
	DB	0ffH
	DB	04eH
	DB	00H
	DB	00H
	DB	050H
	DB	0fcH
	DB	0efH
	DB	01H
	DB	083H
	DB	028H
	DB	080H
	DB	0ffH
	DB	05H
	DB	0f4H
	DB	09fH
	DB	081H
	DB	0ffH
	DB	04H
	DB	0b0H
	DB	0ffH
	DB	0ffH
	DB	0cfH
	DB	00H
	DB	010H
	DB	0d8H
	DB	0dfH
	DB	018H
	DB	00H
	DB	040H
	DB	088H
	DB	02H
	DB	080H
	DB	0ffH
	DB	03H
	DB	080H
	DB	0ffH
	DB	03H
	DB	0fcH
	DB	0ffH
	DB	0afH
	DB	0fcH
	DB	0ffH
	DB	0afH
	DB	091H
	DB	0ffH
	DB	015H
	DB	080H
	DB	0ffH
	DB	03H
	DB	080H
	DB	0ffH
	DB	03H
	DB	080H
	DB	0ffH
	DB	03H
	DB	080H
	DB	0ffH
	DB	03H
	DB	080H
	DB	0ffH
	DB	03H
	DB	070H
	DB	0ffH
	DB	04aH
	DB	030H
	DB	0ffH
	DB	0afH
	DB	00H
	DB	0d7H
	DB	09fH
	DB	0f1H
	DB	0bfH
	DB	00H
	DB	0feH
	DB	0dH
	DB	0f1H
	DB	0bfH
	DB	00H
	DB	0feH
	DB	0dH
	DB	0f1H
	DB	0bfH
	DB	00H
	DB	0feH
	DB	0dH
	DB	0f1H
	DB	0bfH
	DB	00H
	DB	0feH
	DB	0dH
	DB	0f1H
	DB	0bfH
	DB	00H
	DB	0feH
	DB	0dH
	DB	0f1H
	DB	0bfH
	DB	00H
	DB	0feH
	DB	0dH
	DB	0f1H
	DB	0bfH
	DB	00H
	DB	0feH
	DB	0dH
	DB	0f0H
	DB	0bfH
	DB	00H
	DB	0feH
	DB	0dH
	DB	0d0H
	DB	0ffH
	DB	0a7H
	DB	0ffH
	DB	0dH
	DB	080H
	DB	0ffH
	DB	0ffH
	DB	0ffH
	DB	0dH
	DB	010H
	DB	0eaH
	DB	08dH
	DB	0fcH
	DB	0dH
	DB	0f9H
	DB	04fH
	DB	040H
	DB	0ffH
	DB	08H
	DB	0f5H
	DB	06fH
	DB	070H
	DB	0ffH
	DB	04H
	DB	0f1H
	DB	09fH
	DB	0a0H
	DB	0ffH
	DB	01H
	DB	0c0H
	DB	0cfH
	DB	0d0H
	DB	0cfH
	DB	00H
	DB	080H
	DB	0ffH
	DB	0f2H
	DB	08fH
	DB	00H
	DB	040H
	DB	0ffH
	DB	0f7H
	DB	04fH
	DB	00H
	DB	010H
	DB	0ffH
	DB	0fdH
	DB	0eH
	DB	00H
	DB	00H
	DB	0fcH
	DB	0ffH
	DB	0bH
	DB	00H
	DB	00H
	DB	0f8H
	DB	0ffH
	DB	07H
	DB	00H
	DB	00H
	DB	0f4H
	DB	0ffH
	DB	03H
	DB	00H
	DB	00H
	DB	0e0H
	DB	0efH
	DB	00H
	DB	00H
	DB	0fbH
	DB	03fH
	DB	050H
	DB	0ffH
	DB	09H
	DB	0f6H
	DB	07fH
	DB	080H
	DB	0ffH
	DB	05H
	DB	0f2H
	DB	0afH
	DB	0c0H
	DB	0ffH
	DB	01H
	DB	0d0H
	DB	0dfH
	DB	0f1H
	DB	0bfH
	DB	00H
	DB	090H
	DB	0ffH
	DB	0f5H
	DB	07fH
	DB	00H
	DB	040H
	DB	0ffH
	DB	0fbH
	DB	03fH
	DB	00H
	DB	010H
	DB	0ffH
	DB	0ffH
	DB	0eH
	DB	00H
	DB	00H
	DB	0fbH
	DB	0ffH
	DB	09H
	DB	00H
	DB	00H
	DB	0f7H
	DB	0ffH
	DB	05H
	DB	00H
	DB	00H
	DB	0f2H
	DB	0ffH
	DB	01H
	DB	00H
	DB	00H
	DB	0d0H
	DB	0cfH
	DB	00H
	DB	00H
	DB	00H
	DB	0f1H
	DB	08fH
	DB	00H
	DB	00H
	DB	050H
	DB	0fbH
	DB	03fH
	DB	00H
	DB	00H
	DB	0c0H
	DB	0ffH
	DB	0bH
	DB	00H
	DB	00H
	DB	0b0H
	DB	0beH
	DB	01H
	DB	00H
	DB	00H
CONST	ENDS
PUBLIC	__JustMyCode_Default
; Function compile flags: /Odt
;	COMDAT __JustMyCode_Default
_TEXT	SEGMENT
__JustMyCode_Default PROC				; COMDAT
	push	ebp
	mov	ebp, esp
	pop	ebp
	ret	0
__JustMyCode_Default ENDP
_TEXT	ENDS
END
