; Listing generated by Microsoft (R) Optimizing Compiler Version 19.37.32822.0 

	TITLE	C:\TouchGFXProjects\KraftHeinz_DS3600\TouchGFX\build\Debug\obj\image_Exclamation_Active.obj
	.686P
	.XMM
	include listing.inc
	.model	flat

INCLUDELIB MSVCRTD
INCLUDELIB OLDNAMES

PUBLIC	?image_exclamation_active@@3QBEB		; image_exclamation_active
msvcjmc	SEGMENT
__38966392_Config@hpp DB 01H
__B191A295_image_Exclamation_Active@cpp DB 01H
msvcjmc	ENDS
CONST	SEGMENT
?image_exclamation_active@@3QBEB DB 00H			; image_exclamation_active
	DB	00H
	DB	00H
	DB	00H
	DB	00H
	DB	00H
	DB	00H
	DB	00H
	DB	00H
	DB	00H
	DB	00H
	DB	00H
	DB	00H
	DB	00H
	DB	00H
	DB	00H
	DB	00H
	DB	00H
	DB	00H
	DB	00H
	DB	00H
	DB	00H
	DB	00H
	DB	00H
	DB	00H
	DB	00H
	DB	00H
	DB	00H
	DB	00H
	DB	00H
	DB	00H
	DB	00H
	DB	00H
	DB	00H
	DB	00H
	DB	00H
	DB	00H
	DB	00H
	DB	00H
	DB	00H
	DB	00H
	DB	00H
	DB	00H
	DB	00H
	DB	00H
	DB	00H
	DB	00H
	DB	00H
	DB	00H
	DB	00H
	DB	00H
	DB	00H
	DB	00H
	DB	00H
	DB	00H
	DB	00H
	DB	00H
	DB	00H
	DB	00H
	DB	00H
	DB	00H
	DB	00H
	DB	00H
	DB	00H
	DB	00H
	DB	00H
	DB	00H
	DB	00H
	DB	00H
	DB	00H
	DB	00H
	DB	00H
	DB	00H
	DB	00H
	DB	00H
	DB	00H
	DB	00H
	DB	00H
	DB	00H
	DB	00H
	DB	00H
	DB	00H
	DB	00H
	DB	00H
	DB	00H
	DB	00H
	DB	00H
	DB	00H
	DB	00H
	DB	00H
	DB	00H
	DB	00H
	DB	00H
	DB	00H
	DB	00H
	DB	00H
	DB	00H
	DB	00H
	DB	00H
	DB	00H
	DB	00H
	DB	00H
	DB	00H
	DB	00H
	DB	00H
	DB	00H
	DB	00H
	DB	00H
	DB	00H
	DB	00H
	DB	00H
	DB	00H
	DB	00H
	DB	00H
	DB	00H
	DB	00H
	DB	00H
	DB	00H
	DB	00H
	DB	00H
	DB	00H
	DB	00H
	DB	00H
	DB	00H
	DB	00H
	DB	00H
	DB	00H
	DB	00H
	DB	00H
	DB	00H
	DB	00H
	DB	00H
	DB	00H
	DB	00H
	DB	00H
	DB	00H
	DB	00H
	DB	00H
	DB	00H
	DB	00H
	DB	00H
	DB	00H
	DB	00H
	DB	00H
	DB	00H
	DB	00H
	DB	00H
	DB	00H
	DB	00H
	DB	00H
	DB	00H
	DB	00H
	DB	00H
	DB	00H
	DB	00H
	DB	00H
	DB	00H
	DB	00H
	DB	00H
	DB	00H
	DB	00H
	DB	00H
	DB	00H
	DB	00H
	DB	00H
	DB	00H
	DB	00H
	DB	00H
	DB	00H
	DB	00H
	DB	00H
	DB	00H
	DB	00H
	DB	00H
	DB	00H
	DB	00H
	DB	00H
	DB	00H
	DB	00H
	DB	00H
	DB	00H
	DB	00H
	DB	00H
	DB	00H
	DB	00H
	DB	00H
	DB	00H
	DB	00H
	DB	00H
	DB	00H
	DB	00H
	DB	00H
	DB	00H
	DB	00H
	DB	00H
	DB	00H
	DB	00H
	DB	00H
	DB	00H
	DB	00H
	DB	00H
	DB	00H
	DB	00H
	DB	00H
	DB	00H
	DB	00H
	DB	00H
	DB	00H
	DB	00H
	DB	00H
	DB	00H
	DB	00H
	DB	00H
	DB	00H
	DB	00H
	DB	00H
	DB	00H
	DB	00H
	DB	00H
	DB	00H
	DB	00H
	DB	00H
	DB	00H
	DB	00H
	DB	00H
	DB	00H
	DB	00H
	DB	00H
	DB	00H
	DB	00H
	DB	00H
	DB	00H
	DB	00H
	DB	00H
	DB	00H
	DB	00H
	DB	00H
	DB	00H
	DB	00H
	DB	00H
	DB	00H
	DB	00H
	DB	00H
	DB	00H
	DB	00H
	DB	00H
	DB	00H
	DB	00H
	DB	00H
	DB	00H
	DB	00H
	DB	00H
	DB	00H
	DB	00H
	DB	00H
	DB	00H
	DB	00H
	DB	00H
	DB	00H
	DB	00H
	DB	00H
	DB	00H
	DB	00H
	DB	00H
	DB	00H
	DB	00H
	DB	00H
	DB	00H
	DB	00H
	DB	00H
	DB	00H
	DB	00H
	DB	00H
	DB	00H
	DB	00H
	DB	00H
	DB	00H
	DB	00H
	DB	00H
	DB	00H
	DB	00H
	DB	00H
	DB	00H
	DB	00H
	DB	00H
	DB	00H
	DB	00H
	DB	00H
	DB	00H
	DB	00H
	DB	00H
	DB	00H
	DB	00H
	DB	00H
	DB	00H
	DB	00H
	DB	00H
	DB	00H
	DB	00H
	DB	00H
	DB	00H
	DB	00H
	DB	00H
	DB	00H
	DB	00H
	DB	00H
	DB	00H
	DB	00H
	DB	00H
	DB	00H
	DB	00H
	DB	00H
	DB	00H
	DB	00H
	DB	00H
	DB	00H
	DB	00H
	DB	00H
	DB	00H
	DB	00H
	DB	00H
	DB	00H
	DB	00H
	DB	00H
	DB	00H
	DB	00H
	DB	00H
	DB	00H
	DB	00H
	DB	00H
	DB	00H
	DB	00H
	DB	00H
	DB	00H
	DB	00H
	DB	00H
	DB	00H
	DB	00H
	DB	00H
	DB	00H
	DB	00H
	DB	00H
	DB	00H
	DB	00H
	DB	00H
	DB	00H
	DB	00H
	DB	00H
	DB	00H
	DB	00H
	DB	00H
	DB	00H
	DB	00H
	DB	00H
	DB	00H
	DB	00H
	DB	00H
	DB	00H
	DB	00H
	DB	00H
	DB	00H
	DB	00H
	DB	00H
	DB	00H
	DB	00H
	DB	00H
	DB	00H
	DB	00H
	DB	00H
	DB	00H
	DB	00H
	DB	00H
	DB	00H
	DB	00H
	DB	00H
	DB	00H
	DB	00H
	DB	00H
	DB	00H
	DB	00H
	DB	00H
	DB	00H
	DB	00H
	DB	00H
	DB	00H
	DB	00H
	DB	00H
	DB	00H
	DB	00H
	DB	00H
	DB	00H
	DB	00H
	DB	00H
	DB	00H
	DB	00H
	DB	00H
	DB	00H
	DB	00H
	DB	00H
	DB	00H
	DB	00H
	DB	00H
	DB	00H
	DB	00H
	DB	00H
	DB	00H
	DB	00H
	DB	00H
	DB	00H
	DB	00H
	DB	00H
	DB	00H
	DB	00H
	DB	00H
	DB	00H
	DB	00H
	DB	00H
	DB	00H
	DB	00H
	DB	00H
	DB	00H
	DB	00H
	DB	00H
	DB	00H
	DB	00H
	DB	00H
	DB	00H
	DB	00H
	DB	00H
	DB	00H
	DB	00H
	DB	00H
	DB	00H
	DB	00H
	DB	00H
	DB	00H
	DB	00H
	DB	00H
	DB	00H
	DB	00H
	DB	00H
	DB	00H
	DB	00H
	DB	00H
	DB	00H
	DB	00H
	DB	00H
	DB	00H
	DB	00H
	DB	00H
	DB	00H
	DB	00H
	DB	00H
	DB	00H
	DB	00H
	DB	00H
	DB	00H
	DB	00H
	DB	00H
	DB	00H
	DB	00H
	DB	00H
	DB	00H
	DB	00H
	DB	00H
	DB	00H
	DB	00H
	DB	00H
	DB	00H
	DB	00H
	DB	00H
	DB	00H
	DB	00H
	DB	00H
	DB	00H
	DB	00H
	DB	00H
	DB	00H
	DB	00H
	DB	00H
	DB	00H
	DB	00H
	DB	00H
	DB	00H
	DB	00H
	DB	00H
	DB	00H
	DB	00H
	DB	00H
	DB	00H
	DB	00H
	DB	00H
	DB	00H
	DB	00H
	DB	00H
	DB	00H
	DB	00H
	DB	00H
	DB	00H
	DB	00H
	DB	00H
	DB	00H
	DB	00H
	DB	00H
	DB	00H
	DB	00H
	DB	00H
	DB	00H
	DB	00H
	DB	00H
	DB	00H
	DB	00H
	DB	00H
	DB	00H
	DB	00H
	DB	00H
	DB	00H
	DB	00H
	DB	00H
	DB	00H
	DB	00H
	DB	00H
	DB	00H
	DB	00H
	DB	00H
	DB	00H
	DB	00H
	DB	00H
	DB	00H
	DB	00H
	DB	00H
	DB	00H
	DB	00H
	DB	00H
	DB	00H
	DB	00H
	DB	00H
	DB	00H
	DB	00H
	DB	00H
	DB	00H
	DB	00H
	DB	00H
	DB	00H
	DB	00H
	DB	00H
	DB	00H
	DB	00H
	DB	00H
	DB	00H
	DB	00H
	DB	00H
	DB	00H
	DB	00H
	DB	00H
	DB	00H
	DB	00H
	DB	00H
	DB	00H
	DB	00H
	DB	00H
	DB	00H
	DB	00H
	DB	00H
	DB	00H
	DB	00H
	DB	00H
	DB	00H
	DB	00H
	DB	00H
	DB	00H
	DB	00H
	DB	00H
	DB	00H
	DB	00H
	DB	00H
	DB	00H
	DB	00H
	DB	00H
	DB	00H
	DB	00H
	DB	00H
	DB	00H
	DB	00H
	DB	00H
	DB	00H
	DB	00H
	DB	00H
	DB	00H
	DB	00H
	DB	00H
	DB	00H
	DB	00H
	DB	00H
	DB	00H
	DB	00H
	DB	00H
	DB	00H
	DB	00H
	DB	00H
	DB	00H
	DB	00H
	DB	00H
	DB	00H
	DB	00H
	DB	00H
	DB	00H
	DB	00H
	DB	00H
	DB	00H
	DB	00H
	DB	00H
	DB	00H
	DB	00H
	DB	00H
	DB	00H
	DB	00H
	DB	00H
	DB	00H
	DB	00H
	DB	00H
	DB	00H
	DB	00H
	DB	00H
	DB	00H
	DB	00H
	DB	00H
	DB	00H
	DB	00H
	DB	00H
	DB	00H
	DB	00H
	DB	00H
	DB	00H
	DB	00H
	DB	00H
	DB	00H
	DB	00H
	DB	00H
	DB	00H
	DB	00H
	DB	00H
	DB	00H
	DB	00H
	DB	00H
	DB	00H
	DB	00H
	DB	00H
	DB	00H
	DB	00H
	DB	00H
	DB	00H
	DB	00H
	DB	00H
	DB	00H
	DB	00H
	DB	00H
	DB	00H
	DB	00H
	DB	00H
	DB	00H
	DB	00H
	DB	00H
	DB	00H
	DB	00H
	DB	00H
	DB	00H
	DB	00H
	DB	00H
	DB	00H
	DB	00H
	DB	00H
	DB	00H
	DB	00H
	DB	00H
	DB	00H
	DB	00H
	DB	00H
	DB	00H
	DB	00H
	DB	00H
	DB	00H
	DB	00H
	DB	00H
	DB	00H
	DB	00H
	DB	00H
	DB	00H
	DB	00H
	DB	00H
	DB	00H
	DB	00H
	DB	00H
	DB	00H
	DB	00H
	DB	00H
	DB	00H
	DB	00H
	DB	00H
	DB	00H
	DB	00H
	DB	00H
	DB	00H
	DB	00H
	DB	00H
	DB	00H
	DB	00H
	DB	00H
	DB	00H
	DB	00H
	DB	00H
	DB	00H
	DB	00H
	DB	00H
	DB	00H
	DB	00H
	DB	00H
	DB	00H
	DB	00H
	DB	00H
	DB	00H
	DB	00H
	DB	00H
	DB	00H
	DB	00H
	DB	00H
	DB	00H
	DB	00H
	DB	00H
	DB	00H
	DB	00H
	DB	00H
	DB	00H
	DB	00H
	DB	00H
	DB	00H
	DB	00H
	DB	00H
	DB	00H
	DB	00H
	DB	00H
	DB	00H
	DB	00H
	DB	00H
	DB	00H
	DB	00H
	DB	00H
	DB	00H
	DB	00H
	DB	00H
	DB	00H
	DB	00H
	DB	00H
	DB	00H
	DB	00H
	DB	00H
	DB	00H
	DB	00H
	DB	00H
	DB	00H
	DB	00H
	DB	00H
	DB	00H
	DB	00H
	DB	00H
	DB	00H
	DB	00H
	DB	00H
	DB	00H
	DB	00H
	DB	00H
	DB	00H
	DB	00H
	DB	00H
	DB	00H
	DB	00H
	DB	00H
	DB	00H
	DB	00H
	DB	00H
	DB	00H
	DB	00H
	DB	00H
	DB	00H
	DB	00H
	DB	00H
	DB	00H
	DB	00H
	DB	00H
	DB	00H
	DB	00H
	DB	00H
	DB	00H
	DB	00H
	DB	00H
	DB	00H
	DB	00H
	DB	00H
	DB	00H
	DB	00H
	DB	00H
	DB	00H
	DB	00H
	DB	00H
	DB	00H
	DB	00H
	DB	00H
	DB	00H
	DB	00H
	DB	00H
	DB	00H
	DB	00H
	DB	00H
	DB	00H
	DB	00H
	DB	00H
	DB	00H
	DB	00H
	DB	00H
	DB	00H
	DB	00H
	DB	00H
	DB	00H
	DB	00H
	DB	00H
	DB	00H
	DB	00H
	DB	00H
	DB	00H
	DB	00H
	DB	00H
	DB	00H
	DB	00H
	DB	00H
	DB	00H
	DB	00H
	DB	00H
	DB	00H
	DB	00H
	DB	00H
	DB	00H
	DB	00H
	DB	00H
	DB	00H
	DB	00H
	DB	00H
	DB	00H
	DB	00H
	DB	00H
	DB	00H
	DB	00H
	DB	00H
	DB	00H
	DB	00H
	DB	00H
	DB	00H
	DB	00H
	DB	00H
	DB	00H
	DB	00H
	DB	00H
	DB	00H
	DB	00H
	DB	00H
	DB	00H
	DB	00H
	DB	00H
	DB	00H
	DB	00H
	DB	00H
	DB	00H
	DB	00H
	DB	00H
	DB	00H
	DB	00H
	DB	00H
	DB	00H
	DB	00H
	DB	00H
	DB	00H
	DB	00H
	DB	00H
	DB	00H
	DB	00H
	DB	00H
	DB	00H
	DB	00H
	DB	00H
	DB	00H
	DB	00H
	DB	00H
	DB	00H
	DB	00H
	DB	00H
	DB	00H
	DB	00H
	DB	00H
	DB	00H
	DB	00H
	DB	00H
	DB	00H
	DB	00H
	DB	00H
	DB	00H
	DB	00H
	DB	00H
	DB	00H
	DB	00H
	DB	00H
	DB	00H
	DB	00H
	DB	00H
	DB	00H
	DB	00H
	DB	00H
	DB	00H
	DB	00H
	DB	00H
	DB	00H
	DB	00H
	DB	00H
	DB	00H
	DB	00H
	DB	00H
	DB	00H
	DB	00H
	DB	00H
	DB	00H
	DB	00H
	DB	00H
	DB	00H
	DB	00H
	DB	00H
	DB	00H
	DB	00H
	DB	00H
	DB	00H
	DB	00H
	DB	00H
	DB	00H
	DB	00H
	DB	00H
	DB	00H
	DB	00H
	DB	00H
	DB	00H
	DB	00H
	DB	00H
	DB	00H
	DB	00H
	DB	00H
	DB	00H
	DB	00H
	DB	00H
	DB	00H
	DB	00H
	DB	00H
	DB	00H
	DB	00H
	DB	00H
	DB	00H
	DB	00H
	DB	00H
	DB	00H
	DB	00H
	DB	00H
	DB	00H
	DB	00H
	DB	00H
	DB	00H
	DB	00H
	DB	00H
	DB	00H
	DB	00H
	DB	00H
	DB	00H
	DB	00H
	DB	00H
	DB	00H
	DB	00H
	DB	00H
	DB	00H
	DB	00H
	DB	00H
	DB	00H
	DB	00H
	DB	00H
	DB	00H
	DB	00H
	DB	00H
	DB	00H
	DB	00H
	DB	00H
	DB	00H
	DB	00H
	DB	00H
	DB	00H
	DB	00H
	DB	00H
	DB	00H
	DB	00H
	DB	00H
	DB	00H
	DB	00H
	DB	00H
	DB	00H
	DB	00H
	DB	00H
	DB	00H
	DB	00H
	DB	00H
	DB	00H
	DB	00H
	DB	00H
	DB	00H
	DB	00H
	DB	00H
	DB	00H
	DB	00H
	DB	00H
	DB	0f8H
	DB	0fcH
	DB	0f8H
	DB	010H
	DB	0f8H
	DB	0fcH
	DB	0f8H
	DB	041H
	DB	0f8H
	DB	0fcH
	DB	0f8H
	DB	08eH
	DB	0f8H
	DB	0fcH
	DB	0f8H
	DB	09eH
	DB	0f8H
	DB	0fcH
	DB	0f8H
	DB	0beH
	DB	0f8H
	DB	0fcH
	DB	0f8H
	DB	0beH
	DB	0f8H
	DB	0fcH
	DB	0f8H
	DB	0aeH
	DB	0f8H
	DB	0fcH
	DB	0f8H
	DB	07dH
	DB	0f8H
	DB	0fcH
	DB	0f8H
	DB	051H
	DB	00H
	DB	00H
	DB	00H
	DB	00H
	DB	00H
	DB	00H
	DB	00H
	DB	00H
	DB	00H
	DB	00H
	DB	00H
	DB	00H
	DB	00H
	DB	00H
	DB	00H
	DB	00H
	DB	00H
	DB	00H
	DB	00H
	DB	00H
	DB	00H
	DB	00H
	DB	00H
	DB	00H
	DB	00H
	DB	00H
	DB	00H
	DB	00H
	DB	00H
	DB	00H
	DB	00H
	DB	00H
	DB	00H
	DB	00H
	DB	00H
	DB	00H
	DB	00H
	DB	00H
	DB	00H
	DB	00H
	DB	00H
	DB	00H
	DB	00H
	DB	00H
	DB	00H
	DB	00H
	DB	00H
	DB	00H
	DB	00H
	DB	00H
	DB	00H
	DB	00H
	DB	00H
	DB	00H
	DB	00H
	DB	00H
	DB	00H
	DB	00H
	DB	00H
	DB	00H
	DB	00H
	DB	00H
	DB	00H
	DB	00H
	DB	00H
	DB	00H
	DB	00H
	DB	00H
	DB	00H
	DB	00H
	DB	00H
	DB	00H
	DB	00H
	DB	00H
	DB	00H
	DB	00H
	DB	00H
	DB	00H
	DB	00H
	DB	00H
	DB	00H
	DB	00H
	DB	00H
	DB	00H
	DB	00H
	DB	00H
	DB	00H
	DB	00H
	DB	00H
	DB	00H
	DB	00H
	DB	00H
	DB	00H
	DB	00H
	DB	00H
	DB	00H
	DB	00H
	DB	00H
	DB	00H
	DB	00H
	DB	00H
	DB	00H
	DB	00H
	DB	00H
	DB	00H
	DB	00H
	DB	00H
	DB	00H
	DB	00H
	DB	00H
	DB	00H
	DB	00H
	DB	00H
	DB	00H
	DB	00H
	DB	00H
	DB	0f8H
	DB	0fcH
	DB	0f8H
	DB	020H
	DB	0f8H
	DB	0fcH
	DB	0f8H
	DB	08eH
	DB	0f8H
	DB	0fcH
	DB	0f8H
	DB	0efH
	DB	0f8H
	DB	0fcH
	DB	0f8H
	DB	0ffH
	DB	0f8H
	DB	0fcH
	DB	0f8H
	DB	0ffH
	DB	0f8H
	DB	0fcH
	DB	0f8H
	DB	0ffH
	DB	0f8H
	DB	0fcH
	DB	0f8H
	DB	0ffH
	DB	0f8H
	DB	0fcH
	DB	0f8H
	DB	0ffH
	DB	0f8H
	DB	0fcH
	DB	0f8H
	DB	0ffH
	DB	0f8H
	DB	0fcH
	DB	0f8H
	DB	0ffH
	DB	0f8H
	DB	0fcH
	DB	0f8H
	DB	0ffH
	DB	0f8H
	DB	0fcH
	DB	0f8H
	DB	0efH
	DB	0f8H
	DB	0fcH
	DB	0f8H
	DB	09eH
	DB	0f8H
	DB	0fcH
	DB	0f8H
	DB	020H
	DB	00H
	DB	00H
	DB	00H
	DB	00H
	DB	00H
	DB	00H
	DB	00H
	DB	00H
	DB	00H
	DB	00H
	DB	00H
	DB	00H
	DB	00H
	DB	00H
	DB	00H
	DB	00H
	DB	00H
	DB	00H
	DB	00H
	DB	00H
	DB	00H
	DB	00H
	DB	00H
	DB	00H
	DB	00H
	DB	00H
	DB	00H
	DB	00H
	DB	00H
	DB	00H
	DB	00H
	DB	00H
	DB	00H
	DB	00H
	DB	00H
	DB	00H
	DB	00H
	DB	00H
	DB	00H
	DB	00H
	DB	00H
	DB	00H
	DB	00H
	DB	00H
	DB	00H
	DB	00H
	DB	00H
	DB	00H
	DB	00H
	DB	00H
	DB	00H
	DB	00H
	DB	00H
	DB	00H
	DB	00H
	DB	00H
	DB	00H
	DB	00H
	DB	00H
	DB	00H
	DB	00H
	DB	00H
	DB	00H
	DB	00H
	DB	00H
	DB	00H
	DB	00H
	DB	00H
	DB	00H
	DB	00H
	DB	00H
	DB	00H
	DB	00H
	DB	00H
	DB	00H
	DB	00H
	DB	00H
	DB	00H
	DB	00H
	DB	00H
	DB	00H
	DB	00H
	DB	00H
	DB	00H
	DB	00H
	DB	00H
	DB	00H
	DB	00H
	DB	00H
	DB	00H
	DB	00H
	DB	00H
	DB	00H
	DB	00H
	DB	00H
	DB	00H
	DB	00H
	DB	00H
	DB	00H
	DB	00H
	DB	0f8H
	DB	0fcH
	DB	0f8H
	DB	082H
	DB	0f8H
	DB	0fcH
	DB	0f8H
	DB	0ffH
	DB	0f8H
	DB	0fcH
	DB	0f8H
	DB	0ffH
	DB	0f8H
	DB	0fcH
	DB	0f8H
	DB	0ffH
	DB	0f8H
	DB	0fcH
	DB	0f8H
	DB	0ffH
	DB	0f8H
	DB	0fcH
	DB	0f8H
	DB	0ffH
	DB	0f8H
	DB	0fcH
	DB	0f8H
	DB	0ffH
	DB	0f8H
	DB	0fcH
	DB	0f8H
	DB	0ffH
	DB	0f8H
	DB	0fcH
	DB	0f8H
	DB	0ffH
	DB	0f8H
	DB	0fcH
	DB	0f8H
	DB	0ffH
	DB	0f8H
	DB	0fcH
	DB	0f8H
	DB	0ffH
	DB	0f8H
	DB	0fcH
	DB	0f8H
	DB	0ffH
	DB	0f8H
	DB	0fcH
	DB	0f8H
	DB	0ffH
	DB	0f8H
	DB	0fcH
	DB	0f8H
	DB	0ffH
	DB	0f8H
	DB	0fcH
	DB	0f8H
	DB	0ffH
	DB	0f8H
	DB	0fcH
	DB	0f8H
	DB	082H
	DB	00H
	DB	00H
	DB	00H
	DB	00H
	DB	00H
	DB	00H
	DB	00H
	DB	00H
	DB	00H
	DB	00H
	DB	00H
	DB	00H
	DB	00H
	DB	00H
	DB	00H
	DB	00H
	DB	00H
	DB	00H
	DB	00H
	DB	00H
	DB	00H
	DB	00H
	DB	00H
	DB	00H
	DB	00H
	DB	00H
	DB	00H
	DB	00H
	DB	00H
	DB	00H
	DB	00H
	DB	00H
	DB	00H
	DB	00H
	DB	00H
	DB	00H
	DB	00H
	DB	00H
	DB	00H
	DB	00H
	DB	00H
	DB	00H
	DB	00H
	DB	00H
	DB	00H
	DB	00H
	DB	00H
	DB	00H
	DB	00H
	DB	00H
	DB	00H
	DB	00H
	DB	00H
	DB	00H
	DB	00H
	DB	00H
	DB	00H
	DB	00H
	DB	00H
	DB	00H
	DB	00H
	DB	00H
	DB	00H
	DB	00H
	DB	00H
	DB	00H
	DB	00H
	DB	00H
	DB	00H
	DB	00H
	DB	00H
	DB	00H
	DB	00H
	DB	00H
	DB	00H
	DB	00H
	DB	00H
	DB	00H
	DB	00H
	DB	00H
	DB	00H
	DB	00H
	DB	00H
	DB	00H
	DB	00H
	DB	00H
	DB	00H
	DB	00H
	DB	0f8H
	DB	0fcH
	DB	0f8H
	DB	020H
	DB	0f8H
	DB	0fcH
	DB	0f8H
	DB	0cfH
	DB	0f8H
	DB	0fcH
	DB	0f8H
	DB	0ffH
	DB	0f8H
	DB	0fcH
	DB	0f8H
	DB	0ffH
	DB	0f8H
	DB	0fcH
	DB	0f8H
	DB	0ffH
	DB	0f8H
	DB	0fcH
	DB	0f8H
	DB	0ffH
	DB	0f8H
	DB	0fcH
	DB	0f8H
	DB	0ffH
	DB	0f8H
	DB	0fcH
	DB	0f8H
	DB	0ffH
	DB	0f8H
	DB	0fcH
	DB	0f8H
	DB	0ffH
	DB	0f8H
	DB	0fcH
	DB	0f8H
	DB	0ffH
	DB	0f8H
	DB	0fcH
	DB	0f8H
	DB	0ffH
	DB	0f8H
	DB	0fcH
	DB	0f8H
	DB	0ffH
	DB	0f8H
	DB	0fcH
	DB	0f8H
	DB	0ffH
	DB	0f8H
	DB	0fcH
	DB	0f8H
	DB	0ffH
	DB	0f8H
	DB	0fcH
	DB	0f8H
	DB	0ffH
	DB	0f8H
	DB	0fcH
	DB	0f8H
	DB	0ffH
	DB	0f8H
	DB	0fcH
	DB	0f8H
	DB	0ffH
	DB	0f8H
	DB	0fcH
	DB	0f8H
	DB	0ffH
	DB	0f8H
	DB	0fcH
	DB	0f8H
	DB	0cfH
	DB	0f8H
	DB	0fcH
	DB	0f8H
	DB	020H
	DB	00H
	DB	00H
	DB	00H
	DB	00H
	DB	00H
	DB	00H
	DB	00H
	DB	00H
	DB	00H
	DB	00H
	DB	00H
	DB	00H
	DB	00H
	DB	00H
	DB	00H
	DB	00H
	DB	00H
	DB	00H
	DB	00H
	DB	00H
	DB	00H
	DB	00H
	DB	00H
	DB	00H
	DB	00H
	DB	00H
	DB	00H
	DB	00H
	DB	00H
	DB	00H
	DB	00H
	DB	00H
	DB	00H
	DB	00H
	DB	00H
	DB	00H
	DB	00H
	DB	00H
	DB	00H
	DB	00H
	DB	00H
	DB	00H
	DB	00H
	DB	00H
	DB	00H
	DB	00H
	DB	00H
	DB	00H
	DB	00H
	DB	00H
	DB	00H
	DB	00H
	DB	00H
	DB	00H
	DB	00H
	DB	00H
	DB	00H
	DB	00H
	DB	00H
	DB	00H
	DB	00H
	DB	00H
	DB	00H
	DB	00H
	DB	00H
	DB	00H
	DB	00H
	DB	00H
	DB	00H
	DB	00H
	DB	00H
	DB	00H
	DB	00H
	DB	00H
	DB	00H
	DB	00H
	DB	0f8H
	DB	0fcH
	DB	0f8H
	DB	020H
	DB	0f8H
	DB	0fcH
	DB	0f8H
	DB	0dfH
	DB	0f8H
	DB	0fcH
	DB	0f8H
	DB	0ffH
	DB	0f8H
	DB	0fcH
	DB	0f8H
	DB	0ffH
	DB	0f8H
	DB	0fcH
	DB	0f8H
	DB	0ffH
	DB	0f8H
	DB	0fcH
	DB	0f8H
	DB	0ffH
	DB	0f8H
	DB	0fcH
	DB	0f8H
	DB	0ffH
	DB	0f8H
	DB	0fcH
	DB	0f8H
	DB	0ffH
	DB	0f8H
	DB	0fcH
	DB	0f8H
	DB	0ffH
	DB	0f8H
	DB	0fcH
	DB	0f8H
	DB	0ffH
	DB	0f8H
	DB	0fcH
	DB	0f8H
	DB	0ffH
	DB	0f8H
	DB	0fcH
	DB	0f8H
	DB	0ffH
	DB	0f8H
	DB	0fcH
	DB	0f8H
	DB	0ffH
	DB	0f8H
	DB	0fcH
	DB	0f8H
	DB	0ffH
	DB	0f8H
	DB	0fcH
	DB	0f8H
	DB	0ffH
	DB	0f8H
	DB	0fcH
	DB	0f8H
	DB	0ffH
	DB	0f8H
	DB	0fcH
	DB	0f8H
	DB	0ffH
	DB	0f8H
	DB	0fcH
	DB	0f8H
	DB	0ffH
	DB	0f8H
	DB	0fcH
	DB	0f8H
	DB	0ffH
	DB	0f8H
	DB	0fcH
	DB	0f8H
	DB	0ffH
	DB	0f8H
	DB	0fcH
	DB	0f8H
	DB	0dfH
	DB	0f8H
	DB	0fcH
	DB	0f8H
	DB	020H
	DB	00H
	DB	00H
	DB	00H
	DB	00H
	DB	00H
	DB	00H
	DB	00H
	DB	00H
	DB	00H
	DB	00H
	DB	00H
	DB	00H
	DB	00H
	DB	00H
	DB	00H
	DB	00H
	DB	00H
	DB	00H
	DB	00H
	DB	00H
	DB	00H
	DB	00H
	DB	00H
	DB	00H
	DB	00H
	DB	00H
	DB	00H
	DB	00H
	DB	00H
	DB	00H
	DB	00H
	DB	00H
	DB	00H
	DB	00H
	DB	00H
	DB	00H
	DB	00H
	DB	00H
	DB	00H
	DB	00H
	DB	00H
	DB	00H
	DB	00H
	DB	00H
	DB	00H
	DB	00H
	DB	00H
	DB	00H
	DB	00H
	DB	00H
	DB	00H
	DB	00H
	DB	00H
	DB	00H
	DB	00H
	DB	00H
	DB	00H
	DB	00H
	DB	00H
	DB	00H
	DB	00H
	DB	00H
	DB	00H
	DB	00H
	DB	00H
	DB	00H
	DB	00H
	DB	00H
	DB	00H
	DB	00H
	DB	00H
	DB	00H
	DB	0f8H
	DB	0fcH
	DB	0f8H
	DB	0cfH
	DB	0f8H
	DB	0fcH
	DB	0f8H
	DB	0ffH
	DB	0f8H
	DB	0fcH
	DB	0f8H
	DB	0ffH
	DB	0f8H
	DB	0fcH
	DB	0f8H
	DB	0ffH
	DB	0f8H
	DB	0fcH
	DB	0f8H
	DB	0ffH
	DB	0f8H
	DB	0fcH
	DB	0f8H
	DB	0ffH
	DB	0f8H
	DB	0fcH
	DB	0f8H
	DB	0ffH
	DB	0f8H
	DB	0fcH
	DB	0f8H
	DB	0ffH
	DB	0f8H
	DB	0fcH
	DB	0f8H
	DB	0ffH
	DB	0f8H
	DB	0fcH
	DB	0f8H
	DB	0ffH
	DB	0f8H
	DB	0fcH
	DB	0f8H
	DB	0ffH
	DB	0f8H
	DB	0fcH
	DB	0f8H
	DB	0ffH
	DB	0f8H
	DB	0fcH
	DB	0f8H
	DB	0ffH
	DB	0f8H
	DB	0fcH
	DB	0f8H
	DB	0ffH
	DB	0f8H
	DB	0fcH
	DB	0f8H
	DB	0ffH
	DB	0f8H
	DB	0fcH
	DB	0f8H
	DB	0ffH
	DB	0f8H
	DB	0fcH
	DB	0f8H
	DB	0ffH
	DB	0f8H
	DB	0fcH
	DB	0f8H
	DB	0ffH
	DB	0f8H
	DB	0fcH
	DB	0f8H
	DB	0ffH
	DB	0f8H
	DB	0fcH
	DB	0f8H
	DB	0ffH
	DB	0f8H
	DB	0fcH
	DB	0f8H
	DB	0ffH
	DB	0f8H
	DB	0fcH
	DB	0f8H
	DB	0cfH
	DB	00H
	DB	00H
	DB	00H
	DB	00H
	DB	00H
	DB	00H
	DB	00H
	DB	00H
	DB	00H
	DB	00H
	DB	00H
	DB	00H
	DB	00H
	DB	00H
	DB	00H
	DB	00H
	DB	00H
	DB	00H
	DB	00H
	DB	00H
	DB	00H
	DB	00H
	DB	00H
	DB	00H
	DB	00H
	DB	00H
	DB	00H
	DB	00H
	DB	00H
	DB	00H
	DB	00H
	DB	00H
	DB	00H
	DB	00H
	DB	00H
	DB	00H
	DB	00H
	DB	00H
	DB	00H
	DB	00H
	DB	00H
	DB	00H
	DB	00H
	DB	00H
	DB	00H
	DB	00H
	DB	00H
	DB	00H
	DB	00H
	DB	00H
	DB	00H
	DB	00H
	DB	00H
	DB	00H
	DB	00H
	DB	00H
	DB	00H
	DB	00H
	DB	00H
	DB	00H
	DB	00H
	DB	00H
	DB	00H
	DB	00H
	DB	00H
	DB	00H
	DB	00H
	DB	00H
	DB	0f8H
	DB	0fcH
	DB	0f8H
	DB	082H
	DB	0f8H
	DB	0fcH
	DB	0f8H
	DB	0ffH
	DB	0f8H
	DB	0fcH
	DB	0f8H
	DB	0ffH
	DB	0f8H
	DB	0fcH
	DB	0f8H
	DB	0ffH
	DB	0f8H
	DB	0fcH
	DB	0f8H
	DB	0ffH
	DB	0f8H
	DB	0fcH
	DB	0f8H
	DB	0ffH
	DB	0f8H
	DB	0fcH
	DB	0f8H
	DB	0ffH
	DB	0f8H
	DB	0fcH
	DB	0f8H
	DB	0ffH
	DB	0f8H
	DB	0fcH
	DB	0f8H
	DB	0ffH
	DB	0f8H
	DB	0fcH
	DB	0f8H
	DB	0ffH
	DB	0f8H
	DB	0fcH
	DB	0f8H
	DB	0ffH
	DB	0f8H
	DB	0fcH
	DB	0f8H
	DB	0ffH
	DB	0f8H
	DB	0fcH
	DB	0f8H
	DB	0ffH
	DB	0f8H
	DB	0fcH
	DB	0f8H
	DB	0ffH
	DB	0f8H
	DB	0fcH
	DB	0f8H
	DB	0ffH
	DB	0f8H
	DB	0fcH
	DB	0f8H
	DB	0ffH
	DB	0f8H
	DB	0fcH
	DB	0f8H
	DB	0ffH
	DB	0f8H
	DB	0fcH
	DB	0f8H
	DB	0ffH
	DB	0f8H
	DB	0fcH
	DB	0f8H
	DB	0ffH
	DB	0f8H
	DB	0fcH
	DB	0f8H
	DB	0ffH
	DB	0f8H
	DB	0fcH
	DB	0f8H
	DB	0ffH
	DB	0f8H
	DB	0fcH
	DB	0f8H
	DB	0ffH
	DB	0f8H
	DB	0fcH
	DB	0f8H
	DB	0ffH
	DB	0f8H
	DB	0fcH
	DB	0f8H
	DB	07dH
	DB	00H
	DB	00H
	DB	00H
	DB	00H
	DB	00H
	DB	00H
	DB	00H
	DB	00H
	DB	00H
	DB	00H
	DB	00H
	DB	00H
	DB	00H
	DB	00H
	DB	00H
	DB	00H
	DB	00H
	DB	00H
	DB	00H
	DB	00H
	DB	00H
	DB	00H
	DB	00H
	DB	00H
	DB	00H
	DB	00H
	DB	00H
	DB	00H
	DB	00H
	DB	00H
	DB	00H
	DB	00H
	DB	00H
	DB	00H
	DB	00H
	DB	00H
	DB	00H
	DB	00H
	DB	00H
	DB	00H
	DB	00H
	DB	00H
	DB	00H
	DB	00H
	DB	00H
	DB	00H
	DB	00H
	DB	00H
	DB	00H
	DB	00H
	DB	00H
	DB	00H
	DB	00H
	DB	00H
	DB	00H
	DB	00H
	DB	00H
	DB	00H
	DB	00H
	DB	00H
	DB	0f8H
	DB	0fcH
	DB	0f8H
	DB	020H
	DB	0f8H
	DB	0fcH
	DB	0f8H
	DB	0ffH
	DB	0f8H
	DB	0fcH
	DB	0f8H
	DB	0ffH
	DB	0f8H
	DB	0fcH
	DB	0f8H
	DB	0ffH
	DB	0f8H
	DB	0fcH
	DB	0f8H
	DB	0ffH
	DB	0f8H
	DB	0fcH
	DB	0f8H
	DB	0ffH
	DB	0f8H
	DB	0fcH
	DB	0f8H
	DB	0ffH
	DB	0f8H
	DB	0fcH
	DB	0f8H
	DB	0ffH
	DB	0f8H
	DB	0fcH
	DB	0f8H
	DB	0ffH
	DB	0f8H
	DB	0fcH
	DB	0f8H
	DB	0ffH
	DB	0f8H
	DB	0fcH
	DB	0f8H
	DB	0ffH
	DB	0f8H
	DB	0fcH
	DB	0f8H
	DB	0aeH
	DB	0f8H
	DB	0fcH
	DB	0f8H
	DB	020H
	DB	0f8H
	DB	0fcH
	DB	0f8H
	DB	020H
	DB	0f8H
	DB	0fcH
	DB	0f8H
	DB	0aeH
	DB	0f8H
	DB	0fcH
	DB	0f8H
	DB	0ffH
	DB	0f8H
	DB	0fcH
	DB	0f8H
	DB	0ffH
	DB	0f8H
	DB	0fcH
	DB	0f8H
	DB	0ffH
	DB	0f8H
	DB	0fcH
	DB	0f8H
	DB	0ffH
	DB	0f8H
	DB	0fcH
	DB	0f8H
	DB	0ffH
	DB	0f8H
	DB	0fcH
	DB	0f8H
	DB	0ffH
	DB	0f8H
	DB	0fcH
	DB	0f8H
	DB	0ffH
	DB	0f8H
	DB	0fcH
	DB	0f8H
	DB	0ffH
	DB	0f8H
	DB	0fcH
	DB	0f8H
	DB	0ffH
	DB	0f8H
	DB	0fcH
	DB	0f8H
	DB	0ffH
	DB	0f8H
	DB	0fcH
	DB	0f8H
	DB	020H
	DB	00H
	DB	00H
	DB	00H
	DB	00H
	DB	00H
	DB	00H
	DB	00H
	DB	00H
	DB	00H
	DB	00H
	DB	00H
	DB	00H
	DB	00H
	DB	00H
	DB	00H
	DB	00H
	DB	00H
	DB	00H
	DB	00H
	DB	00H
	DB	00H
	DB	00H
	DB	00H
	DB	00H
	DB	00H
	DB	00H
	DB	00H
	DB	00H
	DB	00H
	DB	00H
	DB	00H
	DB	00H
	DB	00H
	DB	00H
	DB	00H
	DB	00H
	DB	00H
	DB	00H
	DB	00H
	DB	00H
	DB	00H
	DB	00H
	DB	00H
	DB	00H
	DB	00H
	DB	00H
	DB	00H
	DB	00H
	DB	00H
	DB	00H
	DB	00H
	DB	00H
	DB	00H
	DB	00H
	DB	00H
	DB	00H
	DB	0f8H
	DB	0fcH
	DB	0f8H
	DB	09eH
	DB	0f8H
	DB	0fcH
	DB	0f8H
	DB	0ffH
	DB	0f8H
	DB	0fcH
	DB	0f8H
	DB	0ffH
	DB	0f8H
	DB	0fcH
	DB	0f8H
	DB	0ffH
	DB	0f8H
	DB	0fcH
	DB	0f8H
	DB	0ffH
	DB	0f8H
	DB	0fcH
	DB	0f8H
	DB	0ffH
	DB	0f8H
	DB	0fcH
	DB	0f8H
	DB	0ffH
	DB	0f8H
	DB	0fcH
	DB	0f8H
	DB	0ffH
	DB	0f8H
	DB	0fcH
	DB	0f8H
	DB	0ffH
	DB	0f8H
	DB	0fcH
	DB	0f8H
	DB	0ffH
	DB	0f8H
	DB	0fcH
	DB	0f8H
	DB	0ffH
	DB	0f8H
	DB	0fcH
	DB	0f8H
	DB	09eH
	DB	00H
	DB	00H
	DB	00H
	DB	00H
	DB	00H
	DB	00H
	DB	00H
	DB	00H
	DB	0f8H
	DB	0fcH
	DB	0f8H
	DB	09eH
	DB	0f8H
	DB	0fcH
	DB	0f8H
	DB	0ffH
	DB	0f8H
	DB	0fcH
	DB	0f8H
	DB	0ffH
	DB	0f8H
	DB	0fcH
	DB	0f8H
	DB	0ffH
	DB	0f8H
	DB	0fcH
	DB	0f8H
	DB	0ffH
	DB	0f8H
	DB	0fcH
	DB	0f8H
	DB	0ffH
	DB	0f8H
	DB	0fcH
	DB	0f8H
	DB	0ffH
	DB	0f8H
	DB	0fcH
	DB	0f8H
	DB	0ffH
	DB	0f8H
	DB	0fcH
	DB	0f8H
	DB	0ffH
	DB	0f8H
	DB	0fcH
	DB	0f8H
	DB	0ffH
	DB	0f8H
	DB	0fcH
	DB	0f8H
	DB	0ffH
	DB	0f8H
	DB	0fcH
	DB	0f8H
	DB	08eH
	DB	00H
	DB	00H
	DB	00H
	DB	00H
	DB	00H
	DB	00H
	DB	00H
	DB	00H
	DB	00H
	DB	00H
	DB	00H
	DB	00H
	DB	00H
	DB	00H
	DB	00H
	DB	00H
	DB	00H
	DB	00H
	DB	00H
	DB	00H
	DB	00H
	DB	00H
	DB	00H
	DB	00H
	DB	00H
	DB	00H
	DB	00H
	DB	00H
	DB	00H
	DB	00H
	DB	00H
	DB	00H
	DB	00H
	DB	00H
	DB	00H
	DB	00H
	DB	00H
	DB	00H
	DB	00H
	DB	00H
	DB	00H
	DB	00H
	DB	00H
	DB	00H
	DB	00H
	DB	00H
	DB	00H
	DB	00H
	DB	00H
	DB	00H
	DB	00H
	DB	00H
	DB	00H
	DB	00H
	DB	00H
	DB	00H
	DB	0f8H
	DB	0fcH
	DB	0f8H
	DB	0efH
	DB	0f8H
	DB	0fcH
	DB	0f8H
	DB	0ffH
	DB	0f8H
	DB	0fcH
	DB	0f8H
	DB	0ffH
	DB	0f8H
	DB	0fcH
	DB	0f8H
	DB	0ffH
	DB	0f8H
	DB	0fcH
	DB	0f8H
	DB	0ffH
	DB	0f8H
	DB	0fcH
	DB	0f8H
	DB	0ffH
	DB	0f8H
	DB	0fcH
	DB	0f8H
	DB	0ffH
	DB	0f8H
	DB	0fcH
	DB	0f8H
	DB	0ffH
	DB	0f8H
	DB	0fcH
	DB	0f8H
	DB	0ffH
	DB	0f8H
	DB	0fcH
	DB	0f8H
	DB	0ffH
	DB	0f8H
	DB	0fcH
	DB	0f8H
	DB	0ffH
	DB	0f8H
	DB	0fcH
	DB	0f8H
	DB	09eH
	DB	00H
	DB	00H
	DB	00H
	DB	00H
	DB	00H
	DB	00H
	DB	00H
	DB	00H
	DB	0f8H
	DB	0fcH
	DB	0f8H
	DB	09eH
	DB	0f8H
	DB	0fcH
	DB	0f8H
	DB	0ffH
	DB	0f8H
	DB	0fcH
	DB	0f8H
	DB	0ffH
	DB	0f8H
	DB	0fcH
	DB	0f8H
	DB	0ffH
	DB	0f8H
	DB	0fcH
	DB	0f8H
	DB	0ffH
	DB	0f8H
	DB	0fcH
	DB	0f8H
	DB	0ffH
	DB	0f8H
	DB	0fcH
	DB	0f8H
	DB	0ffH
	DB	0f8H
	DB	0fcH
	DB	0f8H
	DB	0ffH
	DB	0f8H
	DB	0fcH
	DB	0f8H
	DB	0ffH
	DB	0f8H
	DB	0fcH
	DB	0f8H
	DB	0ffH
	DB	0f8H
	DB	0fcH
	DB	0f8H
	DB	0ffH
	DB	0f8H
	DB	0fcH
	DB	0f8H
	DB	0efH
	DB	0f8H
	DB	0fcH
	DB	0f8H
	DB	010H
	DB	00H
	DB	00H
	DB	00H
	DB	00H
	DB	00H
	DB	00H
	DB	00H
	DB	00H
	DB	00H
	DB	00H
	DB	00H
	DB	00H
	DB	00H
	DB	00H
	DB	00H
	DB	00H
	DB	00H
	DB	00H
	DB	00H
	DB	00H
	DB	00H
	DB	00H
	DB	00H
	DB	00H
	DB	00H
	DB	00H
	DB	00H
	DB	00H
	DB	00H
	DB	00H
	DB	00H
	DB	00H
	DB	00H
	DB	00H
	DB	00H
	DB	00H
	DB	00H
	DB	00H
	DB	00H
	DB	00H
	DB	00H
	DB	00H
	DB	00H
	DB	00H
	DB	00H
	DB	00H
	DB	00H
	DB	00H
	DB	0f8H
	DB	0fcH
	DB	0f8H
	DB	051H
	DB	0f8H
	DB	0fcH
	DB	0f8H
	DB	0ffH
	DB	0f8H
	DB	0fcH
	DB	0f8H
	DB	0ffH
	DB	0f8H
	DB	0fcH
	DB	0f8H
	DB	0ffH
	DB	0f8H
	DB	0fcH
	DB	0f8H
	DB	0ffH
	DB	0f8H
	DB	0fcH
	DB	0f8H
	DB	0ffH
	DB	0f8H
	DB	0fcH
	DB	0f8H
	DB	0ffH
	DB	0f8H
	DB	0fcH
	DB	0f8H
	DB	0ffH
	DB	0f8H
	DB	0fcH
	DB	0f8H
	DB	0ffH
	DB	0f8H
	DB	0fcH
	DB	0f8H
	DB	0ffH
	DB	0f8H
	DB	0fcH
	DB	0f8H
	DB	0ffH
	DB	0f8H
	DB	0fcH
	DB	0f8H
	DB	0ffH
	DB	0f8H
	DB	0fcH
	DB	0f8H
	DB	09eH
	DB	00H
	DB	00H
	DB	00H
	DB	00H
	DB	00H
	DB	00H
	DB	00H
	DB	00H
	DB	0f8H
	DB	0fcH
	DB	0f8H
	DB	09eH
	DB	0f8H
	DB	0fcH
	DB	0f8H
	DB	0ffH
	DB	0f8H
	DB	0fcH
	DB	0f8H
	DB	0ffH
	DB	0f8H
	DB	0fcH
	DB	0f8H
	DB	0ffH
	DB	0f8H
	DB	0fcH
	DB	0f8H
	DB	0ffH
	DB	0f8H
	DB	0fcH
	DB	0f8H
	DB	0ffH
	DB	0f8H
	DB	0fcH
	DB	0f8H
	DB	0ffH
	DB	0f8H
	DB	0fcH
	DB	0f8H
	DB	0ffH
	DB	0f8H
	DB	0fcH
	DB	0f8H
	DB	0ffH
	DB	0f8H
	DB	0fcH
	DB	0f8H
	DB	0ffH
	DB	0f8H
	DB	0fcH
	DB	0f8H
	DB	0ffH
	DB	0f8H
	DB	0fcH
	DB	0f8H
	DB	0ffH
	DB	0f8H
	DB	0fcH
	DB	0f8H
	DB	041H
	DB	00H
	DB	00H
	DB	00H
	DB	00H
	DB	00H
	DB	00H
	DB	00H
	DB	00H
	DB	00H
	DB	00H
	DB	00H
	DB	00H
	DB	00H
	DB	00H
	DB	00H
	DB	00H
	DB	00H
	DB	00H
	DB	00H
	DB	00H
	DB	00H
	DB	00H
	DB	00H
	DB	00H
	DB	00H
	DB	00H
	DB	00H
	DB	00H
	DB	00H
	DB	00H
	DB	00H
	DB	00H
	DB	00H
	DB	00H
	DB	00H
	DB	00H
	DB	00H
	DB	00H
	DB	00H
	DB	00H
	DB	00H
	DB	00H
	DB	00H
	DB	00H
	DB	00H
	DB	00H
	DB	00H
	DB	00H
	DB	0f8H
	DB	0fcH
	DB	0f8H
	DB	07dH
	DB	0f8H
	DB	0fcH
	DB	0f8H
	DB	0ffH
	DB	0f8H
	DB	0fcH
	DB	0f8H
	DB	0ffH
	DB	0f8H
	DB	0fcH
	DB	0f8H
	DB	0ffH
	DB	0f8H
	DB	0fcH
	DB	0f8H
	DB	0ffH
	DB	0f8H
	DB	0fcH
	DB	0f8H
	DB	0ffH
	DB	0f8H
	DB	0fcH
	DB	0f8H
	DB	0ffH
	DB	0f8H
	DB	0fcH
	DB	0f8H
	DB	0ffH
	DB	0f8H
	DB	0fcH
	DB	0f8H
	DB	0ffH
	DB	0f8H
	DB	0fcH
	DB	0f8H
	DB	0ffH
	DB	0f8H
	DB	0fcH
	DB	0f8H
	DB	0ffH
	DB	0f8H
	DB	0fcH
	DB	0f8H
	DB	0ffH
	DB	0f8H
	DB	0fcH
	DB	0f8H
	DB	09eH
	DB	00H
	DB	00H
	DB	00H
	DB	00H
	DB	00H
	DB	00H
	DB	00H
	DB	00H
	DB	0f8H
	DB	0fcH
	DB	0f8H
	DB	09eH
	DB	0f8H
	DB	0fcH
	DB	0f8H
	DB	0ffH
	DB	0f8H
	DB	0fcH
	DB	0f8H
	DB	0ffH
	DB	0f8H
	DB	0fcH
	DB	0f8H
	DB	0ffH
	DB	0f8H
	DB	0fcH
	DB	0f8H
	DB	0ffH
	DB	0f8H
	DB	0fcH
	DB	0f8H
	DB	0ffH
	DB	0f8H
	DB	0fcH
	DB	0f8H
	DB	0ffH
	DB	0f8H
	DB	0fcH
	DB	0f8H
	DB	0ffH
	DB	0f8H
	DB	0fcH
	DB	0f8H
	DB	0ffH
	DB	0f8H
	DB	0fcH
	DB	0f8H
	DB	0ffH
	DB	0f8H
	DB	0fcH
	DB	0f8H
	DB	0ffH
	DB	0f8H
	DB	0fcH
	DB	0f8H
	DB	0ffH
	DB	0f8H
	DB	0fcH
	DB	0f8H
	DB	08eH
	DB	00H
	DB	00H
	DB	00H
	DB	00H
	DB	00H
	DB	00H
	DB	00H
	DB	00H
	DB	00H
	DB	00H
	DB	00H
	DB	00H
	DB	00H
	DB	00H
	DB	00H
	DB	00H
	DB	00H
	DB	00H
	DB	00H
	DB	00H
	DB	00H
	DB	00H
	DB	00H
	DB	00H
	DB	00H
	DB	00H
	DB	00H
	DB	00H
	DB	00H
	DB	00H
	DB	00H
	DB	00H
	DB	00H
	DB	00H
	DB	00H
	DB	00H
	DB	00H
	DB	00H
	DB	00H
	DB	00H
	DB	00H
	DB	00H
	DB	00H
	DB	00H
	DB	00H
	DB	00H
	DB	00H
	DB	00H
	DB	0f8H
	DB	0fcH
	DB	0f8H
	DB	0aeH
	DB	0f8H
	DB	0fcH
	DB	0f8H
	DB	0ffH
	DB	0f8H
	DB	0fcH
	DB	0f8H
	DB	0ffH
	DB	0f8H
	DB	0fcH
	DB	0f8H
	DB	0ffH
	DB	0f8H
	DB	0fcH
	DB	0f8H
	DB	0ffH
	DB	0f8H
	DB	0fcH
	DB	0f8H
	DB	0ffH
	DB	0f8H
	DB	0fcH
	DB	0f8H
	DB	0ffH
	DB	0f8H
	DB	0fcH
	DB	0f8H
	DB	0ffH
	DB	0f8H
	DB	0fcH
	DB	0f8H
	DB	0ffH
	DB	0f8H
	DB	0fcH
	DB	0f8H
	DB	0ffH
	DB	0f8H
	DB	0fcH
	DB	0f8H
	DB	0ffH
	DB	0f8H
	DB	0fcH
	DB	0f8H
	DB	0ffH
	DB	0f8H
	DB	0fcH
	DB	0f8H
	DB	09eH
	DB	00H
	DB	00H
	DB	00H
	DB	00H
	DB	00H
	DB	00H
	DB	00H
	DB	00H
	DB	0f8H
	DB	0fcH
	DB	0f8H
	DB	09eH
	DB	0f8H
	DB	0fcH
	DB	0f8H
	DB	0ffH
	DB	0f8H
	DB	0fcH
	DB	0f8H
	DB	0ffH
	DB	0f8H
	DB	0fcH
	DB	0f8H
	DB	0ffH
	DB	0f8H
	DB	0fcH
	DB	0f8H
	DB	0ffH
	DB	0f8H
	DB	0fcH
	DB	0f8H
	DB	0ffH
	DB	0f8H
	DB	0fcH
	DB	0f8H
	DB	0ffH
	DB	0f8H
	DB	0fcH
	DB	0f8H
	DB	0ffH
	DB	0f8H
	DB	0fcH
	DB	0f8H
	DB	0ffH
	DB	0f8H
	DB	0fcH
	DB	0f8H
	DB	0ffH
	DB	0f8H
	DB	0fcH
	DB	0f8H
	DB	0ffH
	DB	0f8H
	DB	0fcH
	DB	0f8H
	DB	0ffH
	DB	0f8H
	DB	0fcH
	DB	0f8H
	DB	09eH
	DB	00H
	DB	00H
	DB	00H
	DB	00H
	DB	00H
	DB	00H
	DB	00H
	DB	00H
	DB	00H
	DB	00H
	DB	00H
	DB	00H
	DB	00H
	DB	00H
	DB	00H
	DB	00H
	DB	00H
	DB	00H
	DB	00H
	DB	00H
	DB	00H
	DB	00H
	DB	00H
	DB	00H
	DB	00H
	DB	00H
	DB	00H
	DB	00H
	DB	00H
	DB	00H
	DB	00H
	DB	00H
	DB	00H
	DB	00H
	DB	00H
	DB	00H
	DB	00H
	DB	00H
	DB	00H
	DB	00H
	DB	00H
	DB	00H
	DB	00H
	DB	00H
	DB	00H
	DB	00H
	DB	00H
	DB	00H
	DB	0f8H
	DB	0fcH
	DB	0f8H
	DB	0beH
	DB	0f8H
	DB	0fcH
	DB	0f8H
	DB	0ffH
	DB	0f8H
	DB	0fcH
	DB	0f8H
	DB	0ffH
	DB	0f8H
	DB	0fcH
	DB	0f8H
	DB	0ffH
	DB	0f8H
	DB	0fcH
	DB	0f8H
	DB	0ffH
	DB	0f8H
	DB	0fcH
	DB	0f8H
	DB	0ffH
	DB	0f8H
	DB	0fcH
	DB	0f8H
	DB	0ffH
	DB	0f8H
	DB	0fcH
	DB	0f8H
	DB	0ffH
	DB	0f8H
	DB	0fcH
	DB	0f8H
	DB	0ffH
	DB	0f8H
	DB	0fcH
	DB	0f8H
	DB	0ffH
	DB	0f8H
	DB	0fcH
	DB	0f8H
	DB	0ffH
	DB	0f8H
	DB	0fcH
	DB	0f8H
	DB	0ffH
	DB	0f8H
	DB	0fcH
	DB	0f8H
	DB	09eH
	DB	00H
	DB	00H
	DB	00H
	DB	00H
	DB	00H
	DB	00H
	DB	00H
	DB	00H
	DB	0f8H
	DB	0fcH
	DB	0f8H
	DB	0a2H
	DB	0f8H
	DB	0fcH
	DB	0f8H
	DB	0ffH
	DB	0f8H
	DB	0fcH
	DB	0f8H
	DB	0ffH
	DB	0f8H
	DB	0fcH
	DB	0f8H
	DB	0ffH
	DB	0f8H
	DB	0fcH
	DB	0f8H
	DB	0ffH
	DB	0f8H
	DB	0fcH
	DB	0f8H
	DB	0ffH
	DB	0f8H
	DB	0fcH
	DB	0f8H
	DB	0ffH
	DB	0f8H
	DB	0fcH
	DB	0f8H
	DB	0ffH
	DB	0f8H
	DB	0fcH
	DB	0f8H
	DB	0ffH
	DB	0f8H
	DB	0fcH
	DB	0f8H
	DB	0ffH
	DB	0f8H
	DB	0fcH
	DB	0f8H
	DB	0ffH
	DB	0f8H
	DB	0fcH
	DB	0f8H
	DB	0ffH
	DB	0f8H
	DB	0fcH
	DB	0f8H
	DB	0beH
	DB	00H
	DB	00H
	DB	00H
	DB	00H
	DB	00H
	DB	00H
	DB	00H
	DB	00H
	DB	00H
	DB	00H
	DB	00H
	DB	00H
	DB	00H
	DB	00H
	DB	00H
	DB	00H
	DB	00H
	DB	00H
	DB	00H
	DB	00H
	DB	00H
	DB	00H
	DB	00H
	DB	00H
	DB	00H
	DB	00H
	DB	00H
	DB	00H
	DB	00H
	DB	00H
	DB	00H
	DB	00H
	DB	00H
	DB	00H
	DB	00H
	DB	00H
	DB	00H
	DB	00H
	DB	00H
	DB	00H
	DB	00H
	DB	00H
	DB	00H
	DB	00H
	DB	00H
	DB	00H
	DB	00H
	DB	00H
	DB	0f8H
	DB	0fcH
	DB	0f8H
	DB	0beH
	DB	0f8H
	DB	0fcH
	DB	0f8H
	DB	0ffH
	DB	0f8H
	DB	0fcH
	DB	0f8H
	DB	0ffH
	DB	0f8H
	DB	0fcH
	DB	0f8H
	DB	0ffH
	DB	0f8H
	DB	0fcH
	DB	0f8H
	DB	0ffH
	DB	0f8H
	DB	0fcH
	DB	0f8H
	DB	0ffH
	DB	0f8H
	DB	0fcH
	DB	0f8H
	DB	0ffH
	DB	0f8H
	DB	0fcH
	DB	0f8H
	DB	0ffH
	DB	0f8H
	DB	0fcH
	DB	0f8H
	DB	0ffH
	DB	0f8H
	DB	0fcH
	DB	0f8H
	DB	0ffH
	DB	0f8H
	DB	0fcH
	DB	0f8H
	DB	0ffH
	DB	0f8H
	DB	0fcH
	DB	0f8H
	DB	0ffH
	DB	0f8H
	DB	0fcH
	DB	0f8H
	DB	09eH
	DB	00H
	DB	00H
	DB	00H
	DB	00H
	DB	00H
	DB	00H
	DB	00H
	DB	00H
	DB	0f8H
	DB	0fcH
	DB	0f8H
	DB	09eH
	DB	0f8H
	DB	0fcH
	DB	0f8H
	DB	0ffH
	DB	0f8H
	DB	0fcH
	DB	0f8H
	DB	0ffH
	DB	0f8H
	DB	0fcH
	DB	0f8H
	DB	0ffH
	DB	0f8H
	DB	0fcH
	DB	0f8H
	DB	0ffH
	DB	0f8H
	DB	0fcH
	DB	0f8H
	DB	0ffH
	DB	0f8H
	DB	0fcH
	DB	0f8H
	DB	0ffH
	DB	0f8H
	DB	0fcH
	DB	0f8H
	DB	0ffH
	DB	0f8H
	DB	0fcH
	DB	0f8H
	DB	0ffH
	DB	0f8H
	DB	0fcH
	DB	0f8H
	DB	0ffH
	DB	0f8H
	DB	0fcH
	DB	0f8H
	DB	0ffH
	DB	0f8H
	DB	0fcH
	DB	0f8H
	DB	0ffH
	DB	0f8H
	DB	0fcH
	DB	0f8H
	DB	0beH
	DB	00H
	DB	00H
	DB	00H
	DB	00H
	DB	00H
	DB	00H
	DB	00H
	DB	00H
	DB	00H
	DB	00H
	DB	00H
	DB	00H
	DB	00H
	DB	00H
	DB	00H
	DB	00H
	DB	00H
	DB	00H
	DB	00H
	DB	00H
	DB	00H
	DB	00H
	DB	00H
	DB	00H
	DB	00H
	DB	00H
	DB	00H
	DB	00H
	DB	00H
	DB	00H
	DB	00H
	DB	00H
	DB	00H
	DB	00H
	DB	00H
	DB	00H
	DB	00H
	DB	00H
	DB	00H
	DB	00H
	DB	00H
	DB	00H
	DB	00H
	DB	00H
	DB	00H
	DB	00H
	DB	00H
	DB	00H
	DB	0f8H
	DB	0fcH
	DB	0f8H
	DB	09eH
	DB	0f8H
	DB	0fcH
	DB	0f8H
	DB	0ffH
	DB	0f8H
	DB	0fcH
	DB	0f8H
	DB	0ffH
	DB	0f8H
	DB	0fcH
	DB	0f8H
	DB	0ffH
	DB	0f8H
	DB	0fcH
	DB	0f8H
	DB	0ffH
	DB	0f8H
	DB	0fcH
	DB	0f8H
	DB	0ffH
	DB	0f8H
	DB	0fcH
	DB	0f8H
	DB	0ffH
	DB	0f8H
	DB	0fcH
	DB	0f8H
	DB	0ffH
	DB	0f8H
	DB	0fcH
	DB	0f8H
	DB	0ffH
	DB	0f8H
	DB	0fcH
	DB	0f8H
	DB	0ffH
	DB	0f8H
	DB	0fcH
	DB	0f8H
	DB	0ffH
	DB	0f8H
	DB	0fcH
	DB	0f8H
	DB	0ffH
	DB	0f8H
	DB	0fcH
	DB	0f8H
	DB	0dfH
	DB	0f8H
	DB	0fcH
	DB	0f8H
	DB	09eH
	DB	0f8H
	DB	0fcH
	DB	0f8H
	DB	09eH
	DB	0f8H
	DB	0fcH
	DB	0f8H
	DB	0dfH
	DB	0f8H
	DB	0fcH
	DB	0f8H
	DB	0ffH
	DB	0f8H
	DB	0fcH
	DB	0f8H
	DB	0ffH
	DB	0f8H
	DB	0fcH
	DB	0f8H
	DB	0ffH
	DB	0f8H
	DB	0fcH
	DB	0f8H
	DB	0ffH
	DB	0f8H
	DB	0fcH
	DB	0f8H
	DB	0ffH
	DB	0f8H
	DB	0fcH
	DB	0f8H
	DB	0ffH
	DB	0f8H
	DB	0fcH
	DB	0f8H
	DB	0ffH
	DB	0f8H
	DB	0fcH
	DB	0f8H
	DB	0ffH
	DB	0f8H
	DB	0fcH
	DB	0f8H
	DB	0ffH
	DB	0f8H
	DB	0fcH
	DB	0f8H
	DB	0ffH
	DB	0f8H
	DB	0fcH
	DB	0f8H
	DB	0ffH
	DB	0f8H
	DB	0fcH
	DB	0f8H
	DB	0aeH
	DB	00H
	DB	00H
	DB	00H
	DB	00H
	DB	00H
	DB	00H
	DB	00H
	DB	00H
	DB	00H
	DB	00H
	DB	00H
	DB	00H
	DB	00H
	DB	00H
	DB	00H
	DB	00H
	DB	00H
	DB	00H
	DB	00H
	DB	00H
	DB	00H
	DB	00H
	DB	00H
	DB	00H
	DB	00H
	DB	00H
	DB	00H
	DB	00H
	DB	00H
	DB	00H
	DB	00H
	DB	00H
	DB	00H
	DB	00H
	DB	00H
	DB	00H
	DB	00H
	DB	00H
	DB	00H
	DB	00H
	DB	00H
	DB	00H
	DB	00H
	DB	00H
	DB	00H
	DB	00H
	DB	00H
	DB	00H
	DB	0f8H
	DB	0fcH
	DB	0f8H
	DB	08eH
	DB	0f8H
	DB	0fcH
	DB	0f8H
	DB	0ffH
	DB	0f8H
	DB	0fcH
	DB	0f8H
	DB	0ffH
	DB	0f8H
	DB	0fcH
	DB	0f8H
	DB	0ffH
	DB	0f8H
	DB	0fcH
	DB	0f8H
	DB	0ffH
	DB	0f8H
	DB	0fcH
	DB	0f8H
	DB	0ffH
	DB	0f8H
	DB	0fcH
	DB	0f8H
	DB	0ffH
	DB	0f8H
	DB	0fcH
	DB	0f8H
	DB	0ffH
	DB	0f8H
	DB	0fcH
	DB	0f8H
	DB	0ffH
	DB	0f8H
	DB	0fcH
	DB	0f8H
	DB	0ffH
	DB	0f8H
	DB	0fcH
	DB	0f8H
	DB	0ffH
	DB	0f8H
	DB	0fcH
	DB	0f8H
	DB	0ffH
	DB	0f8H
	DB	0fcH
	DB	0f8H
	DB	0ffH
	DB	0f8H
	DB	0fcH
	DB	0f8H
	DB	0ffH
	DB	0f8H
	DB	0fcH
	DB	0f8H
	DB	0ffH
	DB	0f8H
	DB	0fcH
	DB	0f8H
	DB	0ffH
	DB	0f8H
	DB	0fcH
	DB	0f8H
	DB	0ffH
	DB	0f8H
	DB	0fcH
	DB	0f8H
	DB	0ffH
	DB	0f8H
	DB	0fcH
	DB	0f8H
	DB	0ffH
	DB	0f8H
	DB	0fcH
	DB	0f8H
	DB	0ffH
	DB	0f8H
	DB	0fcH
	DB	0f8H
	DB	0ffH
	DB	0f8H
	DB	0fcH
	DB	0f8H
	DB	0ffH
	DB	0f8H
	DB	0fcH
	DB	0f8H
	DB	0ffH
	DB	0f8H
	DB	0fcH
	DB	0f8H
	DB	0ffH
	DB	0f8H
	DB	0fcH
	DB	0f8H
	DB	0ffH
	DB	0f8H
	DB	0fcH
	DB	0f8H
	DB	0ffH
	DB	0f8H
	DB	0fcH
	DB	0f8H
	DB	0ffH
	DB	0f8H
	DB	0fcH
	DB	0f8H
	DB	082H
	DB	00H
	DB	00H
	DB	00H
	DB	00H
	DB	00H
	DB	00H
	DB	00H
	DB	00H
	DB	00H
	DB	00H
	DB	00H
	DB	00H
	DB	00H
	DB	00H
	DB	00H
	DB	00H
	DB	00H
	DB	00H
	DB	00H
	DB	00H
	DB	00H
	DB	00H
	DB	00H
	DB	00H
	DB	00H
	DB	00H
	DB	00H
	DB	00H
	DB	00H
	DB	00H
	DB	00H
	DB	00H
	DB	00H
	DB	00H
	DB	00H
	DB	00H
	DB	00H
	DB	00H
	DB	00H
	DB	00H
	DB	00H
	DB	00H
	DB	00H
	DB	00H
	DB	00H
	DB	00H
	DB	00H
	DB	00H
	DB	0f8H
	DB	0fcH
	DB	0f8H
	DB	041H
	DB	0f8H
	DB	0fcH
	DB	0f8H
	DB	0ffH
	DB	0f8H
	DB	0fcH
	DB	0f8H
	DB	0ffH
	DB	0f8H
	DB	0fcH
	DB	0f8H
	DB	0ffH
	DB	0f8H
	DB	0fcH
	DB	0f8H
	DB	0ffH
	DB	0f8H
	DB	0fcH
	DB	0f8H
	DB	0ffH
	DB	0f8H
	DB	0fcH
	DB	0f8H
	DB	0ffH
	DB	0f8H
	DB	0fcH
	DB	0f8H
	DB	0ffH
	DB	0f8H
	DB	0fcH
	DB	0f8H
	DB	0ffH
	DB	0f8H
	DB	0fcH
	DB	0f8H
	DB	0ffH
	DB	0f8H
	DB	0fcH
	DB	0f8H
	DB	0ffH
	DB	0f8H
	DB	0fcH
	DB	0f8H
	DB	0ffH
	DB	0f8H
	DB	0fcH
	DB	0f8H
	DB	0ffH
	DB	0f8H
	DB	0fcH
	DB	0f8H
	DB	0ffH
	DB	0f8H
	DB	0fcH
	DB	0f8H
	DB	0ffH
	DB	0f8H
	DB	0fcH
	DB	0f8H
	DB	0ffH
	DB	0f8H
	DB	0fcH
	DB	0f8H
	DB	0ffH
	DB	0f8H
	DB	0fcH
	DB	0f8H
	DB	0ffH
	DB	0f8H
	DB	0fcH
	DB	0f8H
	DB	0ffH
	DB	0f8H
	DB	0fcH
	DB	0f8H
	DB	0ffH
	DB	0f8H
	DB	0fcH
	DB	0f8H
	DB	0ffH
	DB	0f8H
	DB	0fcH
	DB	0f8H
	DB	0ffH
	DB	0f8H
	DB	0fcH
	DB	0f8H
	DB	0ffH
	DB	0f8H
	DB	0fcH
	DB	0f8H
	DB	0ffH
	DB	0f8H
	DB	0fcH
	DB	0f8H
	DB	0ffH
	DB	0f8H
	DB	0fcH
	DB	0f8H
	DB	0ffH
	DB	0f8H
	DB	0fcH
	DB	0f8H
	DB	0ffH
	DB	0f8H
	DB	0fcH
	DB	0f8H
	DB	04dH
	DB	00H
	DB	00H
	DB	00H
	DB	00H
	DB	00H
	DB	00H
	DB	00H
	DB	00H
	DB	00H
	DB	00H
	DB	00H
	DB	00H
	DB	00H
	DB	00H
	DB	00H
	DB	00H
	DB	00H
	DB	00H
	DB	00H
	DB	00H
	DB	00H
	DB	00H
	DB	00H
	DB	00H
	DB	00H
	DB	00H
	DB	00H
	DB	00H
	DB	00H
	DB	00H
	DB	00H
	DB	00H
	DB	00H
	DB	00H
	DB	00H
	DB	00H
	DB	00H
	DB	00H
	DB	00H
	DB	00H
	DB	00H
	DB	00H
	DB	00H
	DB	00H
	DB	00H
	DB	00H
	DB	00H
	DB	00H
	DB	0f8H
	DB	0fcH
	DB	0f8H
	DB	010H
	DB	0f8H
	DB	0fcH
	DB	0f8H
	DB	0efH
	DB	0f8H
	DB	0fcH
	DB	0f8H
	DB	0ffH
	DB	0f8H
	DB	0fcH
	DB	0f8H
	DB	0ffH
	DB	0f8H
	DB	0fcH
	DB	0f8H
	DB	0ffH
	DB	0f8H
	DB	0fcH
	DB	0f8H
	DB	0ffH
	DB	0f8H
	DB	0fcH
	DB	0f8H
	DB	0ffH
	DB	0f8H
	DB	0fcH
	DB	0f8H
	DB	0ffH
	DB	0f8H
	DB	0fcH
	DB	0f8H
	DB	0ffH
	DB	0f8H
	DB	0fcH
	DB	0f8H
	DB	0ffH
	DB	0f8H
	DB	0fcH
	DB	0f8H
	DB	0ffH
	DB	0f8H
	DB	0fcH
	DB	0f8H
	DB	0ffH
	DB	0f8H
	DB	0fcH
	DB	0f8H
	DB	0aeH
	DB	0f8H
	DB	0fcH
	DB	0f8H
	DB	020H
	DB	0f8H
	DB	0fcH
	DB	0f8H
	DB	020H
	DB	0f8H
	DB	0fcH
	DB	0f8H
	DB	0aeH
	DB	0f8H
	DB	0fcH
	DB	0f8H
	DB	0ffH
	DB	0f8H
	DB	0fcH
	DB	0f8H
	DB	0ffH
	DB	0f8H
	DB	0fcH
	DB	0f8H
	DB	0ffH
	DB	0f8H
	DB	0fcH
	DB	0f8H
	DB	0ffH
	DB	0f8H
	DB	0fcH
	DB	0f8H
	DB	0ffH
	DB	0f8H
	DB	0fcH
	DB	0f8H
	DB	0ffH
	DB	0f8H
	DB	0fcH
	DB	0f8H
	DB	0ffH
	DB	0f8H
	DB	0fcH
	DB	0f8H
	DB	0ffH
	DB	0f8H
	DB	0fcH
	DB	0f8H
	DB	0ffH
	DB	0f8H
	DB	0fcH
	DB	0f8H
	DB	0ffH
	DB	0f8H
	DB	0fcH
	DB	0f8H
	DB	0efH
	DB	00H
	DB	00H
	DB	00H
	DB	00H
	DB	00H
	DB	00H
	DB	00H
	DB	00H
	DB	00H
	DB	00H
	DB	00H
	DB	00H
	DB	00H
	DB	00H
	DB	00H
	DB	00H
	DB	00H
	DB	00H
	DB	00H
	DB	00H
	DB	00H
	DB	00H
	DB	00H
	DB	00H
	DB	00H
	DB	00H
	DB	00H
	DB	00H
	DB	00H
	DB	00H
	DB	00H
	DB	00H
	DB	00H
	DB	00H
	DB	00H
	DB	00H
	DB	00H
	DB	00H
	DB	00H
	DB	00H
	DB	00H
	DB	00H
	DB	00H
	DB	00H
	DB	00H
	DB	00H
	DB	00H
	DB	00H
	DB	00H
	DB	00H
	DB	00H
	DB	00H
	DB	00H
	DB	00H
	DB	00H
	DB	00H
	DB	0f8H
	DB	0fcH
	DB	0f8H
	DB	08eH
	DB	0f8H
	DB	0fcH
	DB	0f8H
	DB	0ffH
	DB	0f8H
	DB	0fcH
	DB	0f8H
	DB	0ffH
	DB	0f8H
	DB	0fcH
	DB	0f8H
	DB	0ffH
	DB	0f8H
	DB	0fcH
	DB	0f8H
	DB	0ffH
	DB	0f8H
	DB	0fcH
	DB	0f8H
	DB	0ffH
	DB	0f8H
	DB	0fcH
	DB	0f8H
	DB	0ffH
	DB	0f8H
	DB	0fcH
	DB	0f8H
	DB	0ffH
	DB	0f8H
	DB	0fcH
	DB	0f8H
	DB	0ffH
	DB	0f8H
	DB	0fcH
	DB	0f8H
	DB	0ffH
	DB	0f8H
	DB	0fcH
	DB	0f8H
	DB	0ffH
	DB	0f8H
	DB	0fcH
	DB	0f8H
	DB	09eH
	DB	00H
	DB	00H
	DB	00H
	DB	00H
	DB	00H
	DB	00H
	DB	00H
	DB	00H
	DB	0f8H
	DB	0fcH
	DB	0f8H
	DB	09eH
	DB	0f8H
	DB	0fcH
	DB	0f8H
	DB	0ffH
	DB	0f8H
	DB	0fcH
	DB	0f8H
	DB	0ffH
	DB	0f8H
	DB	0fcH
	DB	0f8H
	DB	0ffH
	DB	0f8H
	DB	0fcH
	DB	0f8H
	DB	0ffH
	DB	0f8H
	DB	0fcH
	DB	0f8H
	DB	0ffH
	DB	0f8H
	DB	0fcH
	DB	0f8H
	DB	0ffH
	DB	0f8H
	DB	0fcH
	DB	0f8H
	DB	0ffH
	DB	0f8H
	DB	0fcH
	DB	0f8H
	DB	0ffH
	DB	0f8H
	DB	0fcH
	DB	0f8H
	DB	0ffH
	DB	0f8H
	DB	0fcH
	DB	0f8H
	DB	0ffH
	DB	0f8H
	DB	0fcH
	DB	0f8H
	DB	09eH
	DB	00H
	DB	00H
	DB	00H
	DB	00H
	DB	00H
	DB	00H
	DB	00H
	DB	00H
	DB	00H
	DB	00H
	DB	00H
	DB	00H
	DB	00H
	DB	00H
	DB	00H
	DB	00H
	DB	00H
	DB	00H
	DB	00H
	DB	00H
	DB	00H
	DB	00H
	DB	00H
	DB	00H
	DB	00H
	DB	00H
	DB	00H
	DB	00H
	DB	00H
	DB	00H
	DB	00H
	DB	00H
	DB	00H
	DB	00H
	DB	00H
	DB	00H
	DB	00H
	DB	00H
	DB	00H
	DB	00H
	DB	00H
	DB	00H
	DB	00H
	DB	00H
	DB	00H
	DB	00H
	DB	00H
	DB	00H
	DB	00H
	DB	00H
	DB	00H
	DB	00H
	DB	00H
	DB	00H
	DB	00H
	DB	00H
	DB	0f8H
	DB	0fcH
	DB	0f8H
	DB	020H
	DB	0f8H
	DB	0fcH
	DB	0f8H
	DB	0ffH
	DB	0f8H
	DB	0fcH
	DB	0f8H
	DB	0ffH
	DB	0f8H
	DB	0fcH
	DB	0f8H
	DB	0ffH
	DB	0f8H
	DB	0fcH
	DB	0f8H
	DB	0ffH
	DB	0f8H
	DB	0fcH
	DB	0f8H
	DB	0ffH
	DB	0f8H
	DB	0fcH
	DB	0f8H
	DB	0ffH
	DB	0f8H
	DB	0fcH
	DB	0f8H
	DB	0ffH
	DB	0f8H
	DB	0fcH
	DB	0f8H
	DB	0ffH
	DB	0f8H
	DB	0fcH
	DB	0f8H
	DB	0ffH
	DB	0f8H
	DB	0fcH
	DB	0f8H
	DB	0ffH
	DB	0f8H
	DB	0fcH
	DB	0f8H
	DB	0aeH
	DB	0f8H
	DB	0fcH
	DB	0f8H
	DB	020H
	DB	0f8H
	DB	0fcH
	DB	0f8H
	DB	020H
	DB	0f8H
	DB	0fcH
	DB	0f8H
	DB	0aeH
	DB	0f8H
	DB	0fcH
	DB	0f8H
	DB	0ffH
	DB	0f8H
	DB	0fcH
	DB	0f8H
	DB	0ffH
	DB	0f8H
	DB	0fcH
	DB	0f8H
	DB	0ffH
	DB	0f8H
	DB	0fcH
	DB	0f8H
	DB	0ffH
	DB	0f8H
	DB	0fcH
	DB	0f8H
	DB	0ffH
	DB	0f8H
	DB	0fcH
	DB	0f8H
	DB	0ffH
	DB	0f8H
	DB	0fcH
	DB	0f8H
	DB	0ffH
	DB	0f8H
	DB	0fcH
	DB	0f8H
	DB	0ffH
	DB	0f8H
	DB	0fcH
	DB	0f8H
	DB	0ffH
	DB	0f8H
	DB	0fcH
	DB	0f8H
	DB	0ffH
	DB	0f8H
	DB	0fcH
	DB	0f8H
	DB	020H
	DB	00H
	DB	00H
	DB	00H
	DB	00H
	DB	00H
	DB	00H
	DB	00H
	DB	00H
	DB	00H
	DB	00H
	DB	00H
	DB	00H
	DB	00H
	DB	00H
	DB	00H
	DB	00H
	DB	00H
	DB	00H
	DB	00H
	DB	00H
	DB	00H
	DB	00H
	DB	00H
	DB	00H
	DB	00H
	DB	00H
	DB	00H
	DB	00H
	DB	00H
	DB	00H
	DB	00H
	DB	00H
	DB	00H
	DB	00H
	DB	00H
	DB	00H
	DB	00H
	DB	00H
	DB	00H
	DB	00H
	DB	00H
	DB	00H
	DB	00H
	DB	00H
	DB	00H
	DB	00H
	DB	00H
	DB	00H
	DB	00H
	DB	00H
	DB	00H
	DB	00H
	DB	00H
	DB	00H
	DB	00H
	DB	00H
	DB	00H
	DB	00H
	DB	00H
	DB	00H
	DB	0f8H
	DB	0fcH
	DB	0f8H
	DB	082H
	DB	0f8H
	DB	0fcH
	DB	0f8H
	DB	0ffH
	DB	0f8H
	DB	0fcH
	DB	0f8H
	DB	0ffH
	DB	0f8H
	DB	0fcH
	DB	0f8H
	DB	0ffH
	DB	0f8H
	DB	0fcH
	DB	0f8H
	DB	0ffH
	DB	0f8H
	DB	0fcH
	DB	0f8H
	DB	0ffH
	DB	0f8H
	DB	0fcH
	DB	0f8H
	DB	0ffH
	DB	0f8H
	DB	0fcH
	DB	0f8H
	DB	0ffH
	DB	0f8H
	DB	0fcH
	DB	0f8H
	DB	0ffH
	DB	0f8H
	DB	0fcH
	DB	0f8H
	DB	0ffH
	DB	0f8H
	DB	0fcH
	DB	0f8H
	DB	0ffH
	DB	0f8H
	DB	0fcH
	DB	0f8H
	DB	0ffH
	DB	0f8H
	DB	0fcH
	DB	0f8H
	DB	0ffH
	DB	0f8H
	DB	0fcH
	DB	0f8H
	DB	0ffH
	DB	0f8H
	DB	0fcH
	DB	0f8H
	DB	0ffH
	DB	0f8H
	DB	0fcH
	DB	0f8H
	DB	0ffH
	DB	0f8H
	DB	0fcH
	DB	0f8H
	DB	0ffH
	DB	0f8H
	DB	0fcH
	DB	0f8H
	DB	0ffH
	DB	0f8H
	DB	0fcH
	DB	0f8H
	DB	0ffH
	DB	0f8H
	DB	0fcH
	DB	0f8H
	DB	0ffH
	DB	0f8H
	DB	0fcH
	DB	0f8H
	DB	0ffH
	DB	0f8H
	DB	0fcH
	DB	0f8H
	DB	0ffH
	DB	0f8H
	DB	0fcH
	DB	0f8H
	DB	0ffH
	DB	0f8H
	DB	0fcH
	DB	0f8H
	DB	082H
	DB	00H
	DB	00H
	DB	00H
	DB	00H
	DB	00H
	DB	00H
	DB	00H
	DB	00H
	DB	00H
	DB	00H
	DB	00H
	DB	00H
	DB	00H
	DB	00H
	DB	00H
	DB	00H
	DB	00H
	DB	00H
	DB	00H
	DB	00H
	DB	00H
	DB	00H
	DB	00H
	DB	00H
	DB	00H
	DB	00H
	DB	00H
	DB	00H
	DB	00H
	DB	00H
	DB	00H
	DB	00H
	DB	00H
	DB	00H
	DB	00H
	DB	00H
	DB	00H
	DB	00H
	DB	00H
	DB	00H
	DB	00H
	DB	00H
	DB	00H
	DB	00H
	DB	00H
	DB	00H
	DB	00H
	DB	00H
	DB	00H
	DB	00H
	DB	00H
	DB	00H
	DB	00H
	DB	00H
	DB	00H
	DB	00H
	DB	00H
	DB	00H
	DB	00H
	DB	00H
	DB	00H
	DB	00H
	DB	00H
	DB	00H
	DB	00H
	DB	00H
	DB	00H
	DB	00H
	DB	0f8H
	DB	0fcH
	DB	0f8H
	DB	0cfH
	DB	0f8H
	DB	0fcH
	DB	0f8H
	DB	0ffH
	DB	0f8H
	DB	0fcH
	DB	0f8H
	DB	0ffH
	DB	0f8H
	DB	0fcH
	DB	0f8H
	DB	0ffH
	DB	0f8H
	DB	0fcH
	DB	0f8H
	DB	0ffH
	DB	0f8H
	DB	0fcH
	DB	0f8H
	DB	0ffH
	DB	0f8H
	DB	0fcH
	DB	0f8H
	DB	0ffH
	DB	0f8H
	DB	0fcH
	DB	0f8H
	DB	0ffH
	DB	0f8H
	DB	0fcH
	DB	0f8H
	DB	0ffH
	DB	0f8H
	DB	0fcH
	DB	0f8H
	DB	0ffH
	DB	0f8H
	DB	0fcH
	DB	0f8H
	DB	0ffH
	DB	0f8H
	DB	0fcH
	DB	0f8H
	DB	0ffH
	DB	0f8H
	DB	0fcH
	DB	0f8H
	DB	0ffH
	DB	0f8H
	DB	0fcH
	DB	0f8H
	DB	0ffH
	DB	0f8H
	DB	0fcH
	DB	0f8H
	DB	0ffH
	DB	0f8H
	DB	0fcH
	DB	0f8H
	DB	0ffH
	DB	0f8H
	DB	0fcH
	DB	0f8H
	DB	0ffH
	DB	0f8H
	DB	0fcH
	DB	0f8H
	DB	0ffH
	DB	0f8H
	DB	0fcH
	DB	0f8H
	DB	0ffH
	DB	0f8H
	DB	0fcH
	DB	0f8H
	DB	0ffH
	DB	0f8H
	DB	0fcH
	DB	0f8H
	DB	0ffH
	DB	0f8H
	DB	0fcH
	DB	0f8H
	DB	0cfH
	DB	00H
	DB	00H
	DB	00H
	DB	00H
	DB	00H
	DB	00H
	DB	00H
	DB	00H
	DB	00H
	DB	00H
	DB	00H
	DB	00H
	DB	00H
	DB	00H
	DB	00H
	DB	00H
	DB	00H
	DB	00H
	DB	00H
	DB	00H
	DB	00H
	DB	00H
	DB	00H
	DB	00H
	DB	00H
	DB	00H
	DB	00H
	DB	00H
	DB	00H
	DB	00H
	DB	00H
	DB	00H
	DB	00H
	DB	00H
	DB	00H
	DB	00H
	DB	00H
	DB	00H
	DB	00H
	DB	00H
	DB	00H
	DB	00H
	DB	00H
	DB	00H
	DB	00H
	DB	00H
	DB	00H
	DB	00H
	DB	00H
	DB	00H
	DB	00H
	DB	00H
	DB	00H
	DB	00H
	DB	00H
	DB	00H
	DB	00H
	DB	00H
	DB	00H
	DB	00H
	DB	00H
	DB	00H
	DB	00H
	DB	00H
	DB	00H
	DB	00H
	DB	00H
	DB	00H
	DB	00H
	DB	00H
	DB	00H
	DB	00H
	DB	0f8H
	DB	0fcH
	DB	0f8H
	DB	020H
	DB	0f8H
	DB	0fcH
	DB	0f8H
	DB	0dfH
	DB	0f8H
	DB	0fcH
	DB	0f8H
	DB	0ffH
	DB	0f8H
	DB	0fcH
	DB	0f8H
	DB	0ffH
	DB	0f8H
	DB	0fcH
	DB	0f8H
	DB	0ffH
	DB	0f8H
	DB	0fcH
	DB	0f8H
	DB	0ffH
	DB	0f8H
	DB	0fcH
	DB	0f8H
	DB	0ffH
	DB	0f8H
	DB	0fcH
	DB	0f8H
	DB	0ffH
	DB	0f8H
	DB	0fcH
	DB	0f8H
	DB	0ffH
	DB	0f8H
	DB	0fcH
	DB	0f8H
	DB	0ffH
	DB	0f8H
	DB	0fcH
	DB	0f8H
	DB	0ffH
	DB	0f8H
	DB	0fcH
	DB	0f8H
	DB	0ffH
	DB	0f8H
	DB	0fcH
	DB	0f8H
	DB	0ffH
	DB	0f8H
	DB	0fcH
	DB	0f8H
	DB	0ffH
	DB	0f8H
	DB	0fcH
	DB	0f8H
	DB	0ffH
	DB	0f8H
	DB	0fcH
	DB	0f8H
	DB	0ffH
	DB	0f8H
	DB	0fcH
	DB	0f8H
	DB	0ffH
	DB	0f8H
	DB	0fcH
	DB	0f8H
	DB	0ffH
	DB	0f8H
	DB	0fcH
	DB	0f8H
	DB	0ffH
	DB	0f8H
	DB	0fcH
	DB	0f8H
	DB	0ffH
	DB	0f8H
	DB	0fcH
	DB	0f8H
	DB	0dfH
	DB	0f8H
	DB	0fcH
	DB	0f8H
	DB	020H
	DB	00H
	DB	00H
	DB	00H
	DB	00H
	DB	00H
	DB	00H
	DB	00H
	DB	00H
	DB	00H
	DB	00H
	DB	00H
	DB	00H
	DB	00H
	DB	00H
	DB	00H
	DB	00H
	DB	00H
	DB	00H
	DB	00H
	DB	00H
	DB	00H
	DB	00H
	DB	00H
	DB	00H
	DB	00H
	DB	00H
	DB	00H
	DB	00H
	DB	00H
	DB	00H
	DB	00H
	DB	00H
	DB	00H
	DB	00H
	DB	00H
	DB	00H
	DB	00H
	DB	00H
	DB	00H
	DB	00H
	DB	00H
	DB	00H
	DB	00H
	DB	00H
	DB	00H
	DB	00H
	DB	00H
	DB	00H
	DB	00H
	DB	00H
	DB	00H
	DB	00H
	DB	00H
	DB	00H
	DB	00H
	DB	00H
	DB	00H
	DB	00H
	DB	00H
	DB	00H
	DB	00H
	DB	00H
	DB	00H
	DB	00H
	DB	00H
	DB	00H
	DB	00H
	DB	00H
	DB	00H
	DB	00H
	DB	00H
	DB	00H
	DB	00H
	DB	00H
	DB	00H
	DB	00H
	DB	0f8H
	DB	0fcH
	DB	0f8H
	DB	020H
	DB	0f8H
	DB	0fcH
	DB	0f8H
	DB	0cfH
	DB	0f8H
	DB	0fcH
	DB	0f8H
	DB	0ffH
	DB	0f8H
	DB	0fcH
	DB	0f8H
	DB	0ffH
	DB	0f8H
	DB	0fcH
	DB	0f8H
	DB	0ffH
	DB	0f8H
	DB	0fcH
	DB	0f8H
	DB	0ffH
	DB	0f8H
	DB	0fcH
	DB	0f8H
	DB	0ffH
	DB	0f8H
	DB	0fcH
	DB	0f8H
	DB	0ffH
	DB	0f8H
	DB	0fcH
	DB	0f8H
	DB	0ffH
	DB	0f8H
	DB	0fcH
	DB	0f8H
	DB	0ffH
	DB	0f8H
	DB	0fcH
	DB	0f8H
	DB	0ffH
	DB	0f8H
	DB	0fcH
	DB	0f8H
	DB	0ffH
	DB	0f8H
	DB	0fcH
	DB	0f8H
	DB	0ffH
	DB	0f8H
	DB	0fcH
	DB	0f8H
	DB	0ffH
	DB	0f8H
	DB	0fcH
	DB	0f8H
	DB	0ffH
	DB	0f8H
	DB	0fcH
	DB	0f8H
	DB	0ffH
	DB	0f8H
	DB	0fcH
	DB	0f8H
	DB	0ffH
	DB	0f8H
	DB	0fcH
	DB	0f8H
	DB	0ffH
	DB	0f8H
	DB	0fcH
	DB	0f8H
	DB	0cfH
	DB	0f8H
	DB	0fcH
	DB	0f8H
	DB	020H
	DB	00H
	DB	00H
	DB	00H
	DB	00H
	DB	00H
	DB	00H
	DB	00H
	DB	00H
	DB	00H
	DB	00H
	DB	00H
	DB	00H
	DB	00H
	DB	00H
	DB	00H
	DB	00H
	DB	00H
	DB	00H
	DB	00H
	DB	00H
	DB	00H
	DB	00H
	DB	00H
	DB	00H
	DB	00H
	DB	00H
	DB	00H
	DB	00H
	DB	00H
	DB	00H
	DB	00H
	DB	00H
	DB	00H
	DB	00H
	DB	00H
	DB	00H
	DB	00H
	DB	00H
	DB	00H
	DB	00H
	DB	00H
	DB	00H
	DB	00H
	DB	00H
	DB	00H
	DB	00H
	DB	00H
	DB	00H
	DB	00H
	DB	00H
	DB	00H
	DB	00H
	DB	00H
	DB	00H
	DB	00H
	DB	00H
	DB	00H
	DB	00H
	DB	00H
	DB	00H
	DB	00H
	DB	00H
	DB	00H
	DB	00H
	DB	00H
	DB	00H
	DB	00H
	DB	00H
	DB	00H
	DB	00H
	DB	00H
	DB	00H
	DB	00H
	DB	00H
	DB	00H
	DB	00H
	DB	00H
	DB	00H
	DB	00H
	DB	00H
	DB	00H
	DB	00H
	DB	00H
	DB	00H
	DB	00H
	DB	00H
	DB	00H
	DB	00H
	DB	0f8H
	DB	0fcH
	DB	0f8H
	DB	07dH
	DB	0f8H
	DB	0fcH
	DB	0f8H
	DB	0ffH
	DB	0f8H
	DB	0fcH
	DB	0f8H
	DB	0ffH
	DB	0f8H
	DB	0fcH
	DB	0f8H
	DB	0ffH
	DB	0f8H
	DB	0fcH
	DB	0f8H
	DB	0ffH
	DB	0f8H
	DB	0fcH
	DB	0f8H
	DB	0ffH
	DB	0f8H
	DB	0fcH
	DB	0f8H
	DB	0ffH
	DB	0f8H
	DB	0fcH
	DB	0f8H
	DB	0ffH
	DB	0f8H
	DB	0fcH
	DB	0f8H
	DB	0ffH
	DB	0f8H
	DB	0fcH
	DB	0f8H
	DB	0ffH
	DB	0f8H
	DB	0fcH
	DB	0f8H
	DB	0ffH
	DB	0f8H
	DB	0fcH
	DB	0f8H
	DB	0ffH
	DB	0f8H
	DB	0fcH
	DB	0f8H
	DB	0ffH
	DB	0f8H
	DB	0fcH
	DB	0f8H
	DB	0ffH
	DB	0f8H
	DB	0fcH
	DB	0f8H
	DB	0ffH
	DB	0f8H
	DB	0fcH
	DB	0f8H
	DB	082H
	DB	00H
	DB	00H
	DB	00H
	DB	00H
	DB	00H
	DB	00H
	DB	00H
	DB	00H
	DB	00H
	DB	00H
	DB	00H
	DB	00H
	DB	00H
	DB	00H
	DB	00H
	DB	00H
	DB	00H
	DB	00H
	DB	00H
	DB	00H
	DB	00H
	DB	00H
	DB	00H
	DB	00H
	DB	00H
	DB	00H
	DB	00H
	DB	00H
	DB	00H
	DB	00H
	DB	00H
	DB	00H
	DB	00H
	DB	00H
	DB	00H
	DB	00H
	DB	00H
	DB	00H
	DB	00H
	DB	00H
	DB	00H
	DB	00H
	DB	00H
	DB	00H
	DB	00H
	DB	00H
	DB	00H
	DB	00H
	DB	00H
	DB	00H
	DB	00H
	DB	00H
	DB	00H
	DB	00H
	DB	00H
	DB	00H
	DB	00H
	DB	00H
	DB	00H
	DB	00H
	DB	00H
	DB	00H
	DB	00H
	DB	00H
	DB	00H
	DB	00H
	DB	00H
	DB	00H
	DB	00H
	DB	00H
	DB	00H
	DB	00H
	DB	00H
	DB	00H
	DB	00H
	DB	00H
	DB	00H
	DB	00H
	DB	00H
	DB	00H
	DB	00H
	DB	00H
	DB	00H
	DB	00H
	DB	00H
	DB	00H
	DB	00H
	DB	00H
	DB	00H
	DB	00H
	DB	00H
	DB	00H
	DB	00H
	DB	00H
	DB	00H
	DB	00H
	DB	00H
	DB	00H
	DB	00H
	DB	00H
	DB	0f8H
	DB	0fcH
	DB	0f8H
	DB	020H
	DB	0f8H
	DB	0fcH
	DB	0f8H
	DB	09eH
	DB	0f8H
	DB	0fcH
	DB	0f8H
	DB	0efH
	DB	0f8H
	DB	0fcH
	DB	0f8H
	DB	0ffH
	DB	0f8H
	DB	0fcH
	DB	0f8H
	DB	0ffH
	DB	0f8H
	DB	0fcH
	DB	0f8H
	DB	0ffH
	DB	0f8H
	DB	0fcH
	DB	0f8H
	DB	0ffH
	DB	0f8H
	DB	0fcH
	DB	0f8H
	DB	0ffH
	DB	0f8H
	DB	0fcH
	DB	0f8H
	DB	0ffH
	DB	0f8H
	DB	0fcH
	DB	0f8H
	DB	0ffH
	DB	0f8H
	DB	0fcH
	DB	0f8H
	DB	0ffH
	DB	0f8H
	DB	0fcH
	DB	0f8H
	DB	0efH
	DB	0f8H
	DB	0fcH
	DB	0f8H
	DB	08eH
	DB	0f8H
	DB	0fcH
	DB	0f8H
	DB	020H
	DB	00H
	DB	00H
	DB	00H
	DB	00H
	DB	00H
	DB	00H
	DB	00H
	DB	00H
	DB	00H
	DB	00H
	DB	00H
	DB	00H
	DB	00H
	DB	00H
	DB	00H
	DB	00H
	DB	00H
	DB	00H
	DB	00H
	DB	00H
	DB	00H
	DB	00H
	DB	00H
	DB	00H
	DB	00H
	DB	00H
	DB	00H
	DB	00H
	DB	00H
	DB	00H
	DB	00H
	DB	00H
	DB	00H
	DB	00H
	DB	00H
	DB	00H
	DB	00H
	DB	00H
	DB	00H
	DB	00H
	DB	00H
	DB	00H
	DB	00H
	DB	00H
	DB	00H
	DB	00H
	DB	00H
	DB	00H
	DB	00H
	DB	00H
	DB	00H
	DB	00H
	DB	00H
	DB	00H
	DB	00H
	DB	00H
	DB	00H
	DB	00H
	DB	00H
	DB	00H
	DB	00H
	DB	00H
	DB	00H
	DB	00H
	DB	00H
	DB	00H
	DB	00H
	DB	00H
	DB	00H
	DB	00H
	DB	00H
	DB	00H
	DB	00H
	DB	00H
	DB	00H
	DB	00H
	DB	00H
	DB	00H
	DB	00H
	DB	00H
	DB	00H
	DB	00H
	DB	00H
	DB	00H
	DB	00H
	DB	00H
	DB	00H
	DB	00H
	DB	00H
	DB	00H
	DB	00H
	DB	00H
	DB	00H
	DB	00H
	DB	00H
	DB	00H
	DB	00H
	DB	00H
	DB	00H
	DB	00H
	DB	00H
	DB	00H
	DB	00H
	DB	00H
	DB	00H
	DB	00H
	DB	00H
	DB	00H
	DB	00H
	DB	00H
	DB	00H
	DB	00H
	DB	00H
	DB	00H
	DB	00H
	DB	00H
	DB	0f8H
	DB	0fcH
	DB	0f8H
	DB	051H
	DB	0f8H
	DB	0fcH
	DB	0f8H
	DB	07dH
	DB	0f8H
	DB	0fcH
	DB	0f8H
	DB	0aeH
	DB	0f8H
	DB	0fcH
	DB	0f8H
	DB	0beH
	DB	0f8H
	DB	0fcH
	DB	0f8H
	DB	0beH
	DB	0f8H
	DB	0fcH
	DB	0f8H
	DB	09eH
	DB	0f8H
	DB	0fcH
	DB	0f8H
	DB	092H
	DB	0f8H
	DB	0fcH
	DB	0f8H
	DB	041H
	DB	0f8H
	DB	0fcH
	DB	0f8H
	DB	010H
	DB	00H
	DB	00H
	DB	00H
	DB	00H
	DB	00H
	DB	00H
	DB	00H
	DB	00H
	DB	00H
	DB	00H
	DB	00H
	DB	00H
	DB	00H
	DB	00H
	DB	00H
	DB	00H
	DB	00H
	DB	00H
	DB	00H
	DB	00H
	DB	00H
	DB	00H
	DB	00H
	DB	00H
	DB	00H
	DB	00H
	DB	00H
	DB	00H
	DB	00H
	DB	00H
	DB	00H
	DB	00H
	DB	00H
	DB	00H
	DB	00H
	DB	00H
	DB	00H
	DB	00H
	DB	00H
	DB	00H
	DB	00H
	DB	00H
	DB	00H
	DB	00H
	DB	00H
	DB	00H
	DB	00H
	DB	00H
	DB	00H
	DB	00H
	DB	00H
	DB	00H
	DB	00H
	DB	00H
	DB	00H
	DB	00H
	DB	00H
	DB	00H
	DB	00H
	DB	00H
	DB	00H
	DB	00H
	DB	00H
	DB	00H
	DB	00H
	DB	00H
	DB	00H
	DB	00H
	DB	00H
	DB	00H
	DB	00H
	DB	00H
	DB	00H
	DB	00H
	DB	00H
	DB	00H
	DB	00H
	DB	00H
	DB	00H
	DB	00H
	DB	00H
	DB	00H
	DB	00H
	DB	00H
	DB	00H
	DB	00H
	DB	00H
	DB	00H
	DB	00H
	DB	00H
	DB	00H
	DB	00H
	DB	00H
	DB	00H
	DB	00H
	DB	00H
	DB	00H
	DB	00H
	DB	00H
	DB	00H
	DB	00H
	DB	00H
	DB	00H
	DB	00H
	DB	00H
	DB	00H
	DB	00H
	DB	00H
	DB	00H
	DB	00H
	DB	00H
	DB	00H
	DB	00H
	DB	00H
	DB	00H
	DB	00H
	DB	00H
	DB	00H
	DB	00H
	DB	00H
	DB	00H
	DB	00H
	DB	00H
	DB	00H
	DB	00H
	DB	00H
	DB	00H
	DB	00H
	DB	00H
	DB	00H
	DB	00H
	DB	00H
	DB	00H
	DB	00H
	DB	00H
	DB	00H
	DB	00H
	DB	00H
	DB	00H
	DB	00H
	DB	00H
	DB	00H
	DB	00H
	DB	00H
	DB	00H
	DB	00H
	DB	00H
	DB	00H
	DB	00H
	DB	00H
	DB	00H
	DB	00H
	DB	00H
	DB	00H
	DB	00H
	DB	00H
	DB	00H
	DB	00H
	DB	00H
	DB	00H
	DB	00H
	DB	00H
	DB	00H
	DB	00H
	DB	00H
	DB	00H
	DB	00H
	DB	00H
	DB	00H
	DB	00H
	DB	00H
	DB	00H
	DB	00H
	DB	00H
	DB	00H
	DB	00H
	DB	00H
	DB	00H
	DB	00H
	DB	00H
	DB	00H
	DB	00H
	DB	00H
	DB	00H
	DB	00H
	DB	00H
	DB	00H
	DB	00H
	DB	00H
	DB	00H
	DB	00H
	DB	00H
	DB	00H
	DB	00H
	DB	00H
	DB	00H
	DB	00H
	DB	00H
	DB	00H
	DB	00H
	DB	00H
	DB	00H
	DB	00H
	DB	00H
	DB	00H
	DB	00H
	DB	00H
	DB	00H
	DB	00H
	DB	00H
	DB	00H
	DB	00H
	DB	00H
	DB	00H
	DB	00H
	DB	00H
	DB	00H
	DB	00H
	DB	00H
	DB	00H
	DB	00H
	DB	00H
	DB	00H
	DB	00H
	DB	00H
	DB	00H
	DB	00H
	DB	00H
	DB	00H
	DB	00H
	DB	00H
	DB	00H
	DB	00H
	DB	00H
	DB	00H
	DB	00H
	DB	00H
	DB	00H
	DB	00H
	DB	00H
	DB	00H
	DB	00H
	DB	00H
	DB	00H
	DB	00H
	DB	00H
	DB	00H
	DB	00H
	DB	00H
	DB	00H
	DB	00H
	DB	00H
	DB	00H
	DB	00H
	DB	00H
	DB	00H
	DB	00H
	DB	00H
	DB	00H
	DB	00H
	DB	00H
	DB	00H
	DB	00H
	DB	00H
	DB	00H
	DB	00H
	DB	00H
	DB	00H
	DB	00H
	DB	00H
	DB	00H
	DB	00H
	DB	00H
	DB	00H
	DB	00H
	DB	00H
	DB	00H
	DB	00H
	DB	00H
	DB	00H
	DB	00H
	DB	00H
	DB	00H
	DB	00H
	DB	00H
	DB	00H
	DB	00H
	DB	00H
	DB	00H
	DB	00H
	DB	00H
	DB	00H
	DB	00H
	DB	00H
	DB	00H
	DB	00H
	DB	00H
	DB	00H
	DB	00H
	DB	00H
	DB	00H
	DB	00H
	DB	00H
	DB	00H
	DB	00H
	DB	00H
	DB	00H
	DB	00H
	DB	00H
	DB	00H
	DB	00H
	DB	00H
	DB	00H
	DB	00H
	DB	00H
	DB	00H
	DB	00H
	DB	00H
	DB	00H
	DB	00H
	DB	00H
	DB	00H
	DB	00H
	DB	00H
	DB	00H
	DB	00H
	DB	00H
	DB	00H
	DB	00H
	DB	00H
	DB	00H
	DB	00H
	DB	00H
	DB	00H
	DB	00H
	DB	00H
	DB	00H
	DB	00H
	DB	00H
	DB	00H
	DB	00H
	DB	00H
	DB	00H
	DB	00H
	DB	00H
	DB	00H
	DB	00H
	DB	00H
	DB	00H
	DB	00H
	DB	00H
	DB	00H
	DB	00H
	DB	00H
	DB	00H
	DB	00H
	DB	00H
	DB	00H
	DB	00H
	DB	00H
	DB	00H
	DB	00H
	DB	00H
	DB	00H
	DB	00H
	DB	00H
	DB	00H
	DB	00H
	DB	00H
	DB	00H
	DB	00H
	DB	00H
	DB	00H
	DB	00H
	DB	00H
	DB	00H
	DB	00H
	DB	00H
	DB	00H
	DB	00H
	DB	00H
	DB	00H
	DB	00H
	DB	00H
	DB	00H
	DB	00H
	DB	00H
	DB	00H
	DB	00H
	DB	00H
	DB	00H
	DB	00H
	DB	00H
	DB	00H
	DB	00H
	DB	00H
	DB	00H
	DB	00H
	DB	00H
	DB	00H
	DB	00H
	DB	00H
	DB	00H
	DB	00H
	DB	00H
	DB	00H
	DB	00H
	DB	00H
	DB	00H
	DB	00H
	DB	00H
	DB	00H
	DB	00H
	DB	00H
	DB	00H
	DB	00H
	DB	00H
	DB	00H
	DB	00H
	DB	00H
	DB	00H
	DB	00H
	DB	00H
	DB	00H
	DB	00H
	DB	00H
	DB	00H
	DB	00H
	DB	00H
	DB	00H
	DB	00H
	DB	00H
	DB	00H
	DB	00H
	DB	00H
	DB	00H
	DB	00H
	DB	00H
	DB	00H
	DB	00H
	DB	00H
	DB	00H
	DB	00H
	DB	00H
	DB	00H
	DB	00H
	DB	00H
	DB	00H
	DB	00H
	DB	00H
	DB	00H
	DB	00H
	DB	00H
	DB	00H
	DB	00H
	DB	00H
	DB	00H
	DB	00H
	DB	00H
	DB	00H
	DB	00H
	DB	00H
	DB	00H
	DB	00H
	DB	00H
	DB	00H
	DB	00H
	DB	00H
	DB	00H
	DB	00H
	DB	00H
	DB	00H
	DB	00H
	DB	00H
	DB	00H
	DB	00H
	DB	00H
	DB	00H
	DB	00H
	DB	00H
	DB	00H
	DB	00H
	DB	00H
	DB	00H
	DB	00H
	DB	00H
	DB	00H
	DB	00H
	DB	00H
	DB	00H
	DB	00H
	DB	00H
	DB	00H
	DB	00H
	DB	00H
	DB	00H
	DB	00H
	DB	00H
	DB	00H
	DB	00H
	DB	00H
	DB	00H
	DB	00H
	DB	00H
	DB	00H
	DB	00H
	DB	00H
	DB	00H
	DB	00H
	DB	00H
	DB	00H
	DB	00H
	DB	00H
	DB	00H
	DB	00H
	DB	00H
	DB	00H
	DB	00H
	DB	00H
	DB	00H
	DB	00H
	DB	00H
	DB	00H
	DB	00H
	DB	00H
	DB	00H
	DB	00H
	DB	00H
	DB	00H
	DB	00H
	DB	00H
	DB	00H
	DB	00H
	DB	00H
	DB	00H
	DB	00H
	DB	00H
	DB	00H
	DB	00H
	DB	00H
	DB	00H
	DB	00H
	DB	00H
	DB	00H
	DB	00H
	DB	00H
	DB	00H
	DB	00H
	DB	00H
	DB	00H
	DB	00H
	DB	00H
	DB	00H
	DB	00H
	DB	00H
	DB	00H
	DB	00H
	DB	00H
	DB	00H
	DB	00H
	DB	00H
	DB	00H
	DB	00H
	DB	00H
	DB	00H
	DB	00H
	DB	00H
	DB	00H
	DB	00H
	DB	00H
	DB	00H
	DB	00H
	DB	00H
	DB	00H
	DB	00H
	DB	00H
	DB	00H
	DB	00H
	DB	00H
	DB	00H
	DB	00H
	DB	00H
	DB	00H
	DB	00H
	DB	00H
	DB	00H
	DB	00H
	DB	00H
	DB	00H
	DB	00H
	DB	00H
	DB	00H
	DB	00H
	DB	00H
	DB	00H
	DB	00H
	DB	00H
	DB	00H
	DB	00H
	DB	00H
	DB	00H
	DB	00H
	DB	00H
	DB	00H
	DB	00H
	DB	00H
	DB	00H
	DB	00H
	DB	00H
	DB	00H
	DB	00H
	DB	00H
	DB	00H
	DB	00H
	DB	00H
	DB	00H
	DB	00H
	DB	00H
	DB	00H
	DB	00H
	DB	00H
	DB	00H
	DB	00H
	DB	00H
	DB	00H
	DB	00H
	DB	00H
	DB	00H
	DB	00H
	DB	00H
	DB	00H
	DB	00H
	DB	00H
	DB	00H
	DB	00H
	DB	00H
	DB	00H
	DB	00H
	DB	00H
	DB	00H
	DB	00H
	DB	00H
	DB	00H
	DB	00H
	DB	00H
	DB	00H
	DB	00H
	DB	00H
	DB	00H
	DB	00H
	DB	00H
	DB	00H
	DB	00H
	DB	00H
	DB	00H
	DB	00H
	DB	00H
	DB	00H
	DB	00H
	DB	00H
	DB	00H
	DB	00H
	DB	00H
	DB	00H
	DB	00H
	DB	00H
	DB	00H
	DB	00H
	DB	00H
	DB	00H
	DB	00H
	DB	00H
	DB	00H
	DB	00H
	DB	00H
	DB	00H
	DB	00H
	DB	00H
	DB	00H
	DB	00H
	DB	00H
	DB	00H
	DB	00H
	DB	00H
	DB	00H
	DB	00H
	DB	00H
	DB	00H
	DB	00H
	DB	00H
	DB	00H
	DB	00H
	DB	00H
	DB	00H
	DB	00H
	DB	00H
	DB	00H
	DB	00H
	DB	00H
	DB	00H
	DB	00H
	DB	00H
	DB	00H
	DB	00H
	DB	00H
	DB	00H
	DB	00H
	DB	00H
	DB	00H
	DB	00H
	DB	00H
	DB	00H
	DB	00H
	DB	00H
	DB	00H
	DB	00H
	DB	00H
	DB	00H
	DB	00H
	DB	00H
	DB	00H
	DB	00H
	DB	00H
	DB	00H
	DB	00H
	DB	00H
	DB	00H
	DB	00H
	DB	00H
	DB	00H
	DB	00H
	DB	00H
	DB	00H
	DB	00H
	DB	00H
	DB	00H
	DB	00H
	DB	00H
	DB	00H
	DB	00H
	DB	00H
	DB	00H
	DB	00H
	DB	00H
	DB	00H
	DB	00H
	DB	00H
	DB	00H
	DB	00H
	DB	00H
	DB	00H
	DB	00H
	DB	00H
	DB	00H
	DB	00H
	DB	00H
	DB	00H
	DB	00H
	DB	00H
	DB	00H
	DB	00H
	DB	00H
	DB	00H
	DB	00H
	DB	00H
	DB	00H
	DB	00H
	DB	00H
	DB	00H
	DB	00H
	DB	00H
	DB	00H
	DB	00H
	DB	00H
	DB	00H
	DB	00H
	DB	00H
	DB	00H
	DB	00H
	DB	00H
	DB	00H
	DB	00H
	DB	00H
	DB	00H
	DB	00H
	DB	00H
	DB	00H
	DB	00H
	DB	00H
	DB	00H
	DB	00H
	DB	00H
	DB	00H
	DB	00H
	DB	00H
	DB	00H
	DB	00H
	DB	00H
	DB	00H
	DB	00H
	DB	00H
	DB	00H
	DB	00H
	DB	00H
	DB	00H
	DB	00H
	DB	00H
	DB	00H
	DB	00H
	DB	00H
	DB	00H
	DB	00H
	DB	00H
	DB	00H
	DB	00H
	DB	00H
	DB	00H
	DB	00H
	DB	00H
	DB	00H
	DB	00H
	DB	00H
	DB	00H
	DB	00H
	DB	00H
	DB	00H
	DB	00H
	DB	00H
	DB	00H
	DB	00H
	DB	00H
	DB	00H
	DB	00H
	DB	00H
	DB	00H
	DB	00H
	DB	00H
	DB	00H
	DB	00H
	DB	00H
	DB	00H
	DB	00H
	DB	00H
	DB	00H
	DB	00H
	DB	00H
	DB	00H
	DB	00H
	DB	00H
	DB	00H
	DB	00H
	DB	00H
	DB	00H
	DB	00H
	DB	00H
	DB	00H
	DB	00H
	DB	00H
	DB	00H
	DB	00H
	DB	00H
	DB	00H
	DB	00H
	DB	00H
	DB	00H
	DB	00H
	DB	00H
	DB	00H
	DB	00H
	DB	00H
	DB	00H
	DB	00H
	DB	00H
	DB	00H
	DB	00H
	DB	00H
	DB	00H
	DB	00H
	DB	00H
	DB	00H
	DB	00H
	DB	00H
	DB	00H
	DB	00H
	DB	00H
	DB	00H
	DB	00H
	DB	00H
	DB	00H
	DB	00H
	DB	00H
	DB	00H
	DB	00H
	DB	00H
	DB	00H
	DB	00H
	DB	00H
	DB	00H
	DB	00H
	DB	00H
	DB	00H
	DB	00H
	DB	00H
	DB	00H
	DB	00H
	DB	00H
	DB	00H
	DB	00H
	DB	00H
	DB	00H
	DB	00H
	DB	00H
	DB	00H
	DB	00H
	DB	00H
	DB	00H
	DB	00H
	DB	00H
	DB	00H
	DB	00H
	DB	00H
	DB	00H
	DB	00H
	DB	00H
	DB	00H
	DB	00H
	DB	00H
	DB	00H
	DB	00H
	DB	00H
	DB	00H
	DB	00H
	DB	00H
	DB	00H
	DB	00H
	DB	00H
	DB	00H
	DB	00H
	DB	00H
	DB	00H
	DB	00H
	DB	00H
	DB	00H
	DB	00H
	DB	00H
	DB	00H
	DB	00H
	DB	00H
	DB	00H
	DB	00H
	DB	00H
	DB	00H
	DB	00H
	DB	00H
	DB	00H
	DB	00H
	DB	00H
	DB	00H
	DB	00H
	DB	00H
	DB	00H
	DB	00H
	DB	00H
	DB	00H
	DB	00H
	DB	00H
	DB	00H
	DB	00H
	DB	00H
	DB	00H
	DB	00H
	DB	00H
	DB	00H
	DB	00H
	DB	00H
	DB	00H
	DB	00H
	DB	00H
	DB	00H
	DB	00H
	DB	00H
	DB	00H
	DB	00H
	DB	00H
	DB	00H
	DB	00H
	DB	00H
	DB	00H
	DB	00H
	DB	00H
	DB	00H
	DB	00H
	DB	00H
	DB	00H
	DB	00H
	DB	00H
	DB	00H
	DB	00H
	DB	00H
	DB	00H
	DB	00H
	DB	00H
	DB	00H
	DB	00H
	DB	00H
	DB	00H
	DB	00H
	DB	00H
	DB	00H
	DB	00H
	DB	00H
	DB	00H
	DB	00H
	DB	00H
	DB	00H
	DB	00H
	DB	00H
	DB	00H
	DB	00H
	DB	00H
CONST	ENDS
END
