; Listing generated by Microsoft (R) Optimizing Compiler Version 19.37.32822.0 

	TITLE	C:\TouchGFXProjects\KraftHeinz_DS3600\TouchGFX\build\Debug\obj\image_Barcode.obj
	.686P
	.XMM
	include listing.inc
	.model	flat

INCLUDELIB MSVCRTD
INCLUDELIB OLDNAMES

PUBLIC	?image_barcode@@3QBEB				; image_barcode
msvcjmc	SEGMENT
__38966392_Config@hpp DB 01H
__6A33B589_image_Barcode@cpp DB 01H
msvcjmc	ENDS
CONST	SEGMENT
?image_barcode@@3QBEB DB 00H				; image_barcode
	DB	00H
	DB	00H
	DB	00H
	DB	00H
	DB	00H
	DB	00H
	DB	00H
	DB	00H
	DB	00H
	DB	00H
	DB	00H
	DB	00H
	DB	00H
	DB	00H
	DB	00H
	DB	00H
	DB	00H
	DB	00H
	DB	00H
	DB	00H
	DB	00H
	DB	00H
	DB	00H
	DB	00H
	DB	00H
	DB	00H
	DB	00H
	DB	00H
	DB	00H
	DB	00H
	DB	00H
	DB	00H
	DB	00H
	DB	00H
	DB	00H
	DB	00H
	DB	00H
	DB	00H
	DB	00H
	DB	00H
	DB	00H
	DB	00H
	DB	00H
	DB	00H
	DB	00H
	DB	00H
	DB	00H
	DB	00H
	DB	00H
	DB	00H
	DB	00H
	DB	00H
	DB	00H
	DB	00H
	DB	00H
	DB	00H
	DB	00H
	DB	00H
	DB	00H
	DB	00H
	DB	00H
	DB	00H
	DB	00H
	DB	00H
	DB	00H
	DB	00H
	DB	00H
	DB	00H
	DB	00H
	DB	00H
	DB	00H
	DB	00H
	DB	00H
	DB	00H
	DB	00H
	DB	00H
	DB	00H
	DB	00H
	DB	00H
	DB	00H
	DB	00H
	DB	00H
	DB	00H
	DB	00H
	DB	00H
	DB	00H
	DB	00H
	DB	00H
	DB	00H
	DB	00H
	DB	00H
	DB	00H
	DB	00H
	DB	00H
	DB	00H
	DB	00H
	DB	00H
	DB	00H
	DB	00H
	DB	00H
	DB	00H
	DB	00H
	DB	00H
	DB	00H
	DB	00H
	DB	00H
	DB	00H
	DB	00H
	DB	00H
	DB	00H
	DB	00H
	DB	00H
	DB	00H
	DB	00H
	DB	00H
	DB	00H
	DB	00H
	DB	00H
	DB	00H
	DB	00H
	DB	00H
	DB	00H
	DB	00H
	DB	00H
	DB	00H
	DB	00H
	DB	00H
	DB	00H
	DB	00H
	DB	00H
	DB	00H
	DB	00H
	DB	00H
	DB	00H
	DB	00H
	DB	00H
	DB	00H
	DB	00H
	DB	00H
	DB	00H
	DB	00H
	DB	00H
	DB	00H
	DB	00H
	DB	00H
	DB	00H
	DB	00H
	DB	00H
	DB	00H
	DB	00H
	DB	00H
	DB	00H
	DB	00H
	DB	00H
	DB	00H
	DB	00H
	DB	00H
	DB	00H
	DB	00H
	DB	00H
	DB	00H
	DB	00H
	DB	00H
	DB	00H
	DB	00H
	DB	00H
	DB	00H
	DB	00H
	DB	00H
	DB	00H
	DB	00H
	DB	00H
	DB	00H
	DB	00H
	DB	00H
	DB	00H
	DB	00H
	DB	00H
	DB	00H
	DB	00H
	DB	00H
	DB	00H
	DB	00H
	DB	00H
	DB	00H
	DB	00H
	DB	00H
	DB	00H
	DB	00H
	DB	00H
	DB	00H
	DB	00H
	DB	00H
	DB	00H
	DB	00H
	DB	00H
	DB	00H
	DB	00H
	DB	00H
	DB	00H
	DB	00H
	DB	00H
	DB	00H
	DB	00H
	DB	00H
	DB	00H
	DB	00H
	DB	00H
	DB	00H
	DB	00H
	DB	00H
	DB	00H
	DB	00H
	DB	00H
	DB	00H
	DB	00H
	DB	00H
	DB	00H
	DB	00H
	DB	00H
	DB	00H
	DB	00H
	DB	00H
	DB	00H
	DB	00H
	DB	00H
	DB	00H
	DB	00H
	DB	00H
	DB	00H
	DB	00H
	DB	00H
	DB	00H
	DB	00H
	DB	00H
	DB	00H
	DB	00H
	DB	00H
	DB	00H
	DB	00H
	DB	00H
	DB	00H
	DB	00H
	DB	00H
	DB	00H
	DB	00H
	DB	00H
	DB	00H
	DB	00H
	DB	00H
	DB	00H
	DB	00H
	DB	00H
	DB	00H
	DB	00H
	DB	00H
	DB	00H
	DB	00H
	DB	00H
	DB	00H
	DB	00H
	DB	00H
	DB	00H
	DB	00H
	DB	00H
	DB	00H
	DB	00H
	DB	00H
	DB	00H
	DB	00H
	DB	00H
	DB	00H
	DB	00H
	DB	00H
	DB	00H
	DB	00H
	DB	00H
	DB	00H
	DB	00H
	DB	00H
	DB	00H
	DB	00H
	DB	00H
	DB	00H
	DB	00H
	DB	00H
	DB	00H
	DB	00H
	DB	00H
	DB	00H
	DB	00H
	DB	00H
	DB	00H
	DB	00H
	DB	00H
	DB	00H
	DB	00H
	DB	00H
	DB	00H
	DB	00H
	DB	00H
	DB	00H
	DB	00H
	DB	00H
	DB	00H
	DB	00H
	DB	00H
	DB	00H
	DB	00H
	DB	00H
	DB	00H
	DB	00H
	DB	00H
	DB	00H
	DB	00H
	DB	00H
	DB	00H
	DB	00H
	DB	00H
	DB	00H
	DB	00H
	DB	00H
	DB	00H
	DB	00H
	DB	00H
	DB	00H
	DB	00H
	DB	00H
	DB	00H
	DB	00H
	DB	00H
	DB	00H
	DB	00H
	DB	00H
	DB	00H
	DB	00H
	DB	00H
	DB	00H
	DB	00H
	DB	00H
	DB	00H
	DB	00H
	DB	00H
	DB	00H
	DB	00H
	DB	00H
	DB	00H
	DB	00H
	DB	00H
	DB	00H
	DB	00H
	DB	00H
	DB	00H
	DB	00H
	DB	00H
	DB	00H
	DB	00H
	DB	00H
	DB	00H
	DB	00H
	DB	00H
	DB	00H
	DB	00H
	DB	00H
	DB	00H
	DB	00H
	DB	00H
	DB	00H
	DB	00H
	DB	00H
	DB	00H
	DB	00H
	DB	00H
	DB	00H
	DB	00H
	DB	00H
	DB	00H
	DB	00H
	DB	00H
	DB	00H
	DB	00H
	DB	00H
	DB	00H
	DB	00H
	DB	00H
	DB	00H
	DB	00H
	DB	00H
	DB	00H
	DB	00H
	DB	00H
	DB	00H
	DB	00H
	DB	00H
	DB	00H
	DB	00H
	DB	00H
	DB	00H
	DB	00H
	DB	00H
	DB	00H
	DB	00H
	DB	00H
	DB	00H
	DB	00H
	DB	00H
	DB	00H
	DB	00H
	DB	00H
	DB	00H
	DB	00H
	DB	00H
	DB	00H
	DB	00H
	DB	00H
	DB	00H
	DB	00H
	DB	00H
	DB	00H
	DB	00H
	DB	00H
	DB	00H
	DB	00H
	DB	00H
	DB	00H
	DB	00H
	DB	00H
	DB	00H
	DB	00H
	DB	00H
	DB	00H
	DB	00H
	DB	00H
	DB	00H
	DB	00H
	DB	00H
	DB	00H
	DB	00H
	DB	00H
	DB	00H
	DB	00H
	DB	00H
	DB	00H
	DB	00H
	DB	00H
	DB	00H
	DB	00H
	DB	00H
	DB	00H
	DB	00H
	DB	00H
	DB	00H
	DB	00H
	DB	00H
	DB	00H
	DB	00H
	DB	00H
	DB	00H
	DB	00H
	DB	00H
	DB	00H
	DB	00H
	DB	00H
	DB	00H
	DB	00H
	DB	00H
	DB	00H
	DB	00H
	DB	00H
	DB	00H
	DB	00H
	DB	00H
	DB	00H
	DB	00H
	DB	00H
	DB	00H
	DB	00H
	DB	00H
	DB	00H
	DB	00H
	DB	00H
	DB	00H
	DB	00H
	DB	00H
	DB	00H
	DB	00H
	DB	00H
	DB	00H
	DB	00H
	DB	00H
	DB	00H
	DB	00H
	DB	00H
	DB	00H
	DB	00H
	DB	00H
	DB	00H
	DB	00H
	DB	00H
	DB	00H
	DB	00H
	DB	00H
	DB	00H
	DB	00H
	DB	00H
	DB	00H
	DB	00H
	DB	00H
	DB	00H
	DB	00H
	DB	00H
	DB	00H
	DB	00H
	DB	00H
	DB	00H
	DB	00H
	DB	00H
	DB	00H
	DB	00H
	DB	00H
	DB	00H
	DB	00H
	DB	00H
	DB	00H
	DB	00H
	DB	00H
	DB	00H
	DB	00H
	DB	00H
	DB	00H
	DB	00H
	DB	00H
	DB	00H
	DB	00H
	DB	00H
	DB	00H
	DB	00H
	DB	00H
	DB	00H
	DB	00H
	DB	00H
	DB	00H
	DB	00H
	DB	00H
	DB	00H
	DB	00H
	DB	00H
	DB	00H
	DB	00H
	DB	00H
	DB	00H
	DB	00H
	DB	00H
	DB	00H
	DB	00H
	DB	00H
	DB	00H
	DB	00H
	DB	00H
	DB	00H
	DB	00H
	DB	00H
	DB	00H
	DB	00H
	DB	00H
	DB	00H
	DB	00H
	DB	00H
	DB	00H
	DB	00H
	DB	00H
	DB	00H
	DB	00H
	DB	00H
	DB	00H
	DB	00H
	DB	00H
	DB	00H
	DB	00H
	DB	00H
	DB	00H
	DB	00H
	DB	00H
	DB	00H
	DB	00H
	DB	00H
	DB	00H
	DB	00H
	DB	00H
	DB	00H
	DB	00H
	DB	00H
	DB	00H
	DB	00H
	DB	00H
	DB	00H
	DB	00H
	DB	00H
	DB	00H
	DB	00H
	DB	00H
	DB	00H
	DB	00H
	DB	00H
	DB	00H
	DB	00H
	DB	00H
	DB	00H
	DB	00H
	DB	00H
	DB	00H
	DB	00H
	DB	00H
	DB	00H
	DB	00H
	DB	00H
	DB	00H
	DB	00H
	DB	00H
	DB	00H
	DB	00H
	DB	00H
	DB	00H
	DB	00H
	DB	00H
	DB	00H
	DB	00H
	DB	00H
	DB	00H
	DB	00H
	DB	00H
	DB	00H
	DB	00H
	DB	00H
	DB	00H
	DB	00H
	DB	00H
	DB	00H
	DB	00H
	DB	00H
	DB	00H
	DB	00H
	DB	00H
	DB	00H
	DB	00H
	DB	00H
	DB	00H
	DB	00H
	DB	00H
	DB	00H
	DB	00H
	DB	00H
	DB	00H
	DB	00H
	DB	00H
	DB	00H
	DB	00H
	DB	00H
	DB	00H
	DB	00H
	DB	00H
	DB	00H
	DB	00H
	DB	00H
	DB	00H
	DB	00H
	DB	00H
	DB	00H
	DB	00H
	DB	00H
	DB	00H
	DB	00H
	DB	00H
	DB	00H
	DB	00H
	DB	00H
	DB	00H
	DB	00H
	DB	00H
	DB	00H
	DB	00H
	DB	00H
	DB	00H
	DB	00H
	DB	00H
	DB	00H
	DB	00H
	DB	00H
	DB	00H
	DB	00H
	DB	00H
	DB	00H
	DB	00H
	DB	00H
	DB	00H
	DB	00H
	DB	00H
	DB	00H
	DB	00H
	DB	00H
	DB	00H
	DB	00H
	DB	00H
	DB	00H
	DB	00H
	DB	00H
	DB	00H
	DB	00H
	DB	00H
	DB	00H
	DB	00H
	DB	00H
	DB	00H
	DB	00H
	DB	00H
	DB	00H
	DB	00H
	DB	00H
	DB	00H
	DB	00H
	DB	00H
	DB	00H
	DB	00H
	DB	00H
	DB	00H
	DB	00H
	DB	00H
	DB	00H
	DB	00H
	DB	00H
	DB	00H
	DB	00H
	DB	00H
	DB	00H
	DB	00H
	DB	00H
	DB	00H
	DB	00H
	DB	00H
	DB	00H
	DB	00H
	DB	00H
	DB	00H
	DB	00H
	DB	00H
	DB	00H
	DB	00H
	DB	00H
	DB	00H
	DB	00H
	DB	00H
	DB	00H
	DB	00H
	DB	00H
	DB	00H
	DB	00H
	DB	00H
	DB	00H
	DB	00H
	DB	00H
	DB	00H
	DB	00H
	DB	00H
	DB	00H
	DB	00H
	DB	00H
	DB	00H
	DB	00H
	DB	00H
	DB	00H
	DB	00H
	DB	00H
	DB	00H
	DB	00H
	DB	00H
	DB	00H
	DB	00H
	DB	00H
	DB	00H
	DB	00H
	DB	00H
	DB	00H
	DB	00H
	DB	00H
	DB	00H
	DB	00H
	DB	00H
	DB	00H
	DB	00H
	DB	00H
	DB	00H
	DB	00H
	DB	00H
	DB	00H
	DB	00H
	DB	00H
	DB	00H
	DB	00H
	DB	00H
	DB	00H
	DB	00H
	DB	00H
	DB	00H
	DB	00H
	DB	00H
	DB	00H
	DB	00H
	DB	00H
	DB	00H
	DB	00H
	DB	00H
	DB	00H
	DB	00H
	DB	00H
	DB	00H
	DB	00H
	DB	00H
	DB	00H
	DB	00H
	DB	00H
	DB	00H
	DB	00H
	DB	00H
	DB	00H
	DB	00H
	DB	00H
	DB	00H
	DB	00H
	DB	00H
	DB	00H
	DB	00H
	DB	00H
	DB	00H
	DB	00H
	DB	00H
	DB	00H
	DB	00H
	DB	00H
	DB	00H
	DB	00H
	DB	00H
	DB	00H
	DB	00H
	DB	00H
	DB	00H
	DB	00H
	DB	00H
	DB	00H
	DB	00H
	DB	00H
	DB	00H
	DB	00H
	DB	00H
	DB	00H
	DB	00H
	DB	00H
	DB	00H
	DB	00H
	DB	00H
	DB	00H
	DB	00H
	DB	00H
	DB	00H
	DB	00H
	DB	00H
	DB	00H
	DB	00H
	DB	00H
	DB	00H
	DB	00H
	DB	00H
	DB	00H
	DB	00H
	DB	00H
	DB	00H
	DB	00H
	DB	00H
	DB	00H
	DB	00H
	DB	00H
	DB	00H
	DB	00H
	DB	00H
	DB	00H
	DB	00H
	DB	00H
	DB	00H
	DB	00H
	DB	00H
	DB	00H
	DB	00H
	DB	00H
	DB	00H
	DB	00H
	DB	00H
	DB	00H
	DB	00H
	DB	00H
	DB	00H
	DB	00H
	DB	00H
	DB	00H
	DB	00H
	DB	00H
	DB	00H
	DB	00H
	DB	00H
	DB	00H
	DB	00H
	DB	00H
	DB	00H
	DB	00H
	DB	00H
	DB	00H
	DB	00H
	DB	00H
	DB	00H
	DB	00H
	DB	00H
	DB	00H
	DB	00H
	DB	00H
	DB	00H
	DB	00H
	DB	00H
	DB	00H
	DB	00H
	DB	00H
	DB	00H
	DB	00H
	DB	00H
	DB	00H
	DB	00H
	DB	00H
	DB	00H
	DB	00H
	DB	00H
	DB	00H
	DB	00H
	DB	00H
	DB	00H
	DB	00H
	DB	00H
	DB	00H
	DB	00H
	DB	00H
	DB	00H
	DB	00H
	DB	00H
	DB	00H
	DB	00H
	DB	00H
	DB	00H
	DB	00H
	DB	00H
	DB	00H
	DB	00H
	DB	00H
	DB	00H
	DB	00H
	DB	00H
	DB	00H
	DB	00H
	DB	00H
	DB	00H
	DB	00H
	DB	00H
	DB	00H
	DB	00H
	DB	00H
	DB	00H
	DB	00H
	DB	00H
	DB	00H
	DB	00H
	DB	00H
	DB	00H
	DB	00H
	DB	00H
	DB	00H
	DB	00H
	DB	00H
	DB	00H
	DB	00H
	DB	00H
	DB	00H
	DB	00H
	DB	00H
	DB	00H
	DB	00H
	DB	00H
	DB	00H
	DB	00H
	DB	00H
	DB	00H
	DB	00H
	DB	00H
	DB	00H
	DB	00H
	DB	00H
	DB	00H
	DB	00H
	DB	00H
	DB	00H
	DB	00H
	DB	00H
	DB	00H
	DB	00H
	DB	00H
	DB	00H
	DB	00H
	DB	00H
	DB	00H
	DB	00H
	DB	00H
	DB	00H
	DB	00H
	DB	00H
	DB	00H
	DB	00H
	DB	00H
	DB	00H
	DB	00H
	DB	00H
	DB	00H
	DB	00H
	DB	00H
	DB	00H
	DB	00H
	DB	00H
	DB	00H
	DB	00H
	DB	00H
	DB	00H
	DB	00H
	DB	00H
	DB	00H
	DB	00H
	DB	00H
	DB	00H
	DB	00H
	DB	00H
	DB	00H
	DB	00H
	DB	00H
	DB	00H
	DB	00H
	DB	00H
	DB	00H
	DB	00H
	DB	00H
	DB	00H
	DB	00H
	DB	00H
	DB	00H
	DB	00H
	DB	00H
	DB	00H
	DB	00H
	DB	00H
	DB	00H
	DB	00H
	DB	00H
	DB	00H
	DB	00H
	DB	00H
	DB	00H
	DB	00H
	DB	00H
	DB	00H
	DB	00H
	DB	00H
	DB	00H
	DB	00H
	DB	00H
	DB	00H
	DB	00H
	DB	00H
	DB	00H
	DB	00H
	DB	00H
	DB	00H
	DB	00H
	DB	00H
	DB	00H
	DB	00H
	DB	00H
	DB	00H
	DB	00H
	DB	00H
	DB	00H
	DB	00H
	DB	00H
	DB	00H
	DB	00H
	DB	00H
	DB	00H
	DB	00H
	DB	00H
	DB	00H
	DB	00H
	DB	00H
	DB	00H
	DB	00H
	DB	00H
	DB	00H
	DB	00H
	DB	00H
	DB	00H
	DB	00H
	DB	00H
	DB	00H
	DB	00H
	DB	00H
	DB	00H
	DB	00H
	DB	00H
	DB	00H
	DB	00H
	DB	00H
	DB	00H
	DB	00H
	DB	00H
	DB	00H
	DB	00H
	DB	00H
	DB	00H
	DB	00H
	DB	00H
	DB	00H
	DB	00H
	DB	00H
	DB	00H
	DB	00H
	DB	00H
	DB	00H
	DB	00H
	DB	00H
	DB	00H
	DB	00H
	DB	00H
	DB	00H
	DB	00H
	DB	00H
	DB	00H
	DB	00H
	DB	00H
	DB	00H
	DB	00H
	DB	00H
	DB	00H
	DB	00H
	DB	00H
	DB	00H
	DB	00H
	DB	00H
	DB	00H
	DB	00H
	DB	00H
	DB	00H
	DB	00H
	DB	00H
	DB	00H
	DB	00H
	DB	00H
	DB	00H
	DB	00H
	DB	00H
	DB	00H
	DB	00H
	DB	00H
	DB	00H
	DB	00H
	DB	00H
	DB	00H
	DB	00H
	DB	00H
	DB	00H
	DB	00H
	DB	00H
	DB	00H
	DB	00H
	DB	00H
	DB	00H
	DB	00H
	DB	00H
	DB	00H
	DB	00H
	DB	00H
	DB	00H
	DB	00H
	DB	00H
	DB	00H
	DB	00H
	DB	00H
	DB	00H
	DB	00H
	DB	00H
	DB	00H
	DB	00H
	DB	00H
	DB	00H
	DB	00H
	DB	00H
	DB	00H
	DB	00H
	DB	00H
	DB	00H
	DB	00H
	DB	00H
	DB	00H
	DB	00H
	DB	00H
	DB	00H
	DB	00H
	DB	00H
	DB	00H
	DB	00H
	DB	00H
	DB	00H
	DB	00H
	DB	00H
	DB	00H
	DB	00H
	DB	00H
	DB	00H
	DB	00H
	DB	00H
	DB	00H
	DB	00H
	DB	00H
	DB	00H
	DB	00H
	DB	00H
	DB	00H
	DB	00H
	DB	00H
	DB	00H
	DB	00H
	DB	00H
	DB	00H
	DB	00H
	DB	00H
	DB	00H
	DB	00H
	DB	00H
	DB	00H
	DB	00H
	DB	00H
	DB	00H
	DB	00H
	DB	00H
	DB	00H
	DB	00H
	DB	00H
	DB	00H
	DB	00H
	DB	00H
	DB	00H
	DB	00H
	DB	00H
	DB	00H
	DB	00H
	DB	00H
	DB	00H
	DB	00H
	DB	00H
	DB	00H
	DB	00H
	DB	00H
	DB	00H
	DB	00H
	DB	00H
	DB	00H
	DB	00H
	DB	00H
	DB	00H
	DB	00H
	DB	00H
	DB	00H
	DB	00H
	DB	00H
	DB	00H
	DB	00H
	DB	00H
	DB	00H
	DB	00H
	DB	00H
	DB	00H
	DB	00H
	DB	00H
	DB	00H
	DB	00H
	DB	00H
	DB	00H
	DB	00H
	DB	00H
	DB	00H
	DB	00H
	DB	00H
	DB	00H
	DB	00H
	DB	00H
	DB	00H
	DB	00H
	DB	00H
	DB	00H
	DB	00H
	DB	00H
	DB	00H
	DB	00H
	DB	00H
	DB	00H
	DB	00H
	DB	00H
	DB	00H
	DB	00H
	DB	00H
	DB	00H
	DB	00H
	DB	00H
	DB	00H
	DB	00H
	DB	00H
	DB	00H
	DB	00H
	DB	00H
	DB	00H
	DB	00H
	DB	00H
	DB	00H
	DB	00H
	DB	00H
	DB	00H
	DB	00H
	DB	00H
	DB	00H
	DB	00H
	DB	00H
	DB	00H
	DB	00H
	DB	00H
	DB	00H
	DB	00H
	DB	00H
	DB	00H
	DB	00H
	DB	00H
	DB	00H
	DB	00H
	DB	00H
	DB	00H
	DB	00H
	DB	00H
	DB	00H
	DB	00H
	DB	00H
	DB	00H
	DB	00H
	DB	00H
	DB	00H
	DB	00H
	DB	00H
	DB	00H
	DB	00H
	DB	00H
	DB	00H
	DB	00H
	DB	00H
	DB	00H
	DB	00H
	DB	00H
	DB	00H
	DB	00H
	DB	00H
	DB	00H
	DB	00H
	DB	00H
	DB	00H
	DB	00H
	DB	00H
	DB	00H
	DB	00H
	DB	00H
	DB	00H
	DB	00H
	DB	00H
	DB	00H
	DB	00H
	DB	00H
	DB	00H
	DB	00H
	DB	00H
	DB	00H
	DB	00H
	DB	00H
	DB	00H
	DB	00H
	DB	00H
	DB	00H
	DB	00H
	DB	00H
	DB	00H
	DB	00H
	DB	00H
	DB	00H
	DB	00H
	DB	00H
	DB	00H
	DB	00H
	DB	00H
	DB	00H
	DB	00H
	DB	00H
	DB	00H
	DB	00H
	DB	00H
	DB	00H
	DB	00H
	DB	00H
	DB	00H
	DB	00H
	DB	00H
	DB	00H
	DB	00H
	DB	00H
	DB	00H
	DB	00H
	DB	00H
	DB	00H
	DB	00H
	DB	00H
	DB	00H
	DB	00H
	DB	00H
	DB	00H
	DB	00H
	DB	00H
	DB	00H
	DB	00H
	DB	00H
	DB	00H
	DB	00H
	DB	00H
	DB	00H
	DB	00H
	DB	00H
	DB	00H
	DB	00H
	DB	00H
	DB	00H
	DB	00H
	DB	00H
	DB	00H
	DB	00H
	DB	00H
	DB	00H
	DB	00H
	DB	00H
	DB	00H
	DB	00H
	DB	00H
	DB	00H
	DB	00H
	DB	00H
	DB	00H
	DB	00H
	DB	00H
	DB	00H
	DB	00H
	DB	00H
	DB	00H
	DB	00H
	DB	00H
	DB	00H
	DB	00H
	DB	00H
	DB	00H
	DB	00H
	DB	00H
	DB	00H
	DB	00H
	DB	00H
	DB	00H
	DB	00H
	DB	00H
	DB	00H
	DB	00H
	DB	00H
	DB	00H
	DB	00H
	DB	00H
	DB	00H
	DB	00H
	DB	00H
	DB	00H
	DB	00H
	DB	00H
	DB	00H
	DB	00H
	DB	00H
	DB	00H
	DB	00H
	DB	00H
	DB	00H
	DB	00H
	DB	00H
	DB	00H
	DB	00H
	DB	00H
	DB	00H
	DB	00H
	DB	00H
	DB	00H
	DB	00H
	DB	00H
	DB	00H
	DB	00H
	DB	00H
	DB	00H
	DB	00H
	DB	00H
	DB	00H
	DB	00H
	DB	00H
	DB	00H
	DB	00H
	DB	00H
	DB	00H
	DB	00H
	DB	00H
	DB	00H
	DB	00H
	DB	00H
	DB	00H
	DB	00H
	DB	00H
	DB	00H
	DB	00H
	DB	00H
	DB	00H
	DB	00H
	DB	00H
	DB	00H
	DB	00H
	DB	00H
	DB	00H
	DB	00H
	DB	00H
	DB	00H
	DB	00H
	DB	00H
	DB	00H
	DB	00H
	DB	00H
	DB	00H
	DB	00H
	DB	00H
	DB	00H
	DB	00H
	DB	00H
	DB	00H
	DB	00H
	DB	00H
	DB	00H
	DB	00H
	DB	00H
	DB	00H
	DB	00H
	DB	00H
	DB	00H
	DB	00H
	DB	00H
	DB	00H
	DB	00H
	DB	00H
	DB	00H
	DB	00H
	DB	00H
	DB	00H
	DB	00H
	DB	00H
	DB	00H
	DB	00H
	DB	00H
	DB	00H
	DB	00H
	DB	00H
	DB	00H
	DB	00H
	DB	00H
	DB	00H
	DB	00H
	DB	00H
	DB	00H
	DB	00H
	DB	00H
	DB	00H
	DB	00H
	DB	00H
	DB	00H
	DB	00H
	DB	00H
	DB	00H
	DB	00H
	DB	00H
	DB	00H
	DB	00H
	DB	00H
	DB	00H
	DB	00H
	DB	030H
	DB	030H
	DB	030H
	DB	09eH
	DB	030H
	DB	02cH
	DB	030H
	DB	0ffH
	DB	030H
	DB	02cH
	DB	030H
	DB	0ffH
	DB	030H
	DB	030H
	DB	030H
	DB	09eH
	DB	00H
	DB	00H
	DB	00H
	DB	00H
	DB	030H
	DB	030H
	DB	030H
	DB	09eH
	DB	030H
	DB	02cH
	DB	030H
	DB	0ffH
	DB	00H
	DB	00H
	DB	00H
	DB	00H
	DB	030H
	DB	02cH
	DB	030H
	DB	061H
	DB	030H
	DB	02cH
	DB	030H
	DB	0ffH
	DB	030H
	DB	02cH
	DB	030H
	DB	0ffH
	DB	030H
	DB	030H
	DB	030H
	DB	0ffH
	DB	030H
	DB	02cH
	DB	030H
	DB	0ffH
	DB	030H
	DB	030H
	DB	030H
	DB	09eH
	DB	00H
	DB	00H
	DB	00H
	DB	00H
	DB	030H
	DB	030H
	DB	030H
	DB	09eH
	DB	030H
	DB	02cH
	DB	030H
	DB	0ffH
	DB	00H
	DB	00H
	DB	00H
	DB	00H
	DB	00H
	DB	00H
	DB	00H
	DB	00H
	DB	00H
	DB	00H
	DB	00H
	DB	00H
	DB	030H
	DB	030H
	DB	030H
	DB	09eH
	DB	030H
	DB	02cH
	DB	030H
	DB	0ffH
	DB	030H
	DB	02cH
	DB	030H
	DB	0ffH
	DB	030H
	DB	030H
	DB	030H
	DB	09eH
	DB	00H
	DB	00H
	DB	00H
	DB	00H
	DB	030H
	DB	030H
	DB	030H
	DB	09eH
	DB	030H
	DB	02cH
	DB	030H
	DB	0ffH
	DB	030H
	DB	02cH
	DB	030H
	DB	0ffH
	DB	030H
	DB	030H
	DB	030H
	DB	0ffH
	DB	030H
	DB	02cH
	DB	030H
	DB	0ffH
	DB	030H
	DB	02cH
	DB	030H
	DB	05dH
	DB	00H
	DB	00H
	DB	00H
	DB	00H
	DB	030H
	DB	02cH
	DB	030H
	DB	0ffH
	DB	030H
	DB	030H
	DB	030H
	DB	09eH
	DB	00H
	DB	00H
	DB	00H
	DB	00H
	DB	00H
	DB	00H
	DB	00H
	DB	00H
	DB	00H
	DB	00H
	DB	00H
	DB	00H
	DB	00H
	DB	00H
	DB	00H
	DB	00H
	DB	00H
	DB	00H
	DB	00H
	DB	00H
	DB	00H
	DB	00H
	DB	00H
	DB	00H
	DB	030H
	DB	030H
	DB	030H
	DB	09eH
	DB	030H
	DB	02cH
	DB	030H
	DB	0ffH
	DB	030H
	DB	030H
	DB	030H
	DB	0ffH
	DB	030H
	DB	030H
	DB	030H
	DB	09eH
	DB	00H
	DB	00H
	DB	00H
	DB	00H
	DB	030H
	DB	030H
	DB	030H
	DB	09eH
	DB	030H
	DB	02cH
	DB	030H
	DB	0ffH
	DB	00H
	DB	00H
	DB	00H
	DB	00H
	DB	028H
	DB	02cH
	DB	028H
	DB	061H
	DB	030H
	DB	030H
	DB	030H
	DB	0ffH
	DB	030H
	DB	030H
	DB	030H
	DB	0ffH
	DB	028H
	DB	02cH
	DB	028H
	DB	0ffH
	DB	030H
	DB	02cH
	DB	030H
	DB	0ffH
	DB	030H
	DB	030H
	DB	030H
	DB	09eH
	DB	00H
	DB	00H
	DB	00H
	DB	00H
	DB	030H
	DB	030H
	DB	030H
	DB	09eH
	DB	030H
	DB	02cH
	DB	030H
	DB	0ffH
	DB	00H
	DB	00H
	DB	00H
	DB	00H
	DB	00H
	DB	00H
	DB	00H
	DB	00H
	DB	00H
	DB	00H
	DB	00H
	DB	00H
	DB	030H
	DB	030H
	DB	030H
	DB	09eH
	DB	030H
	DB	02cH
	DB	030H
	DB	0ffH
	DB	030H
	DB	030H
	DB	030H
	DB	0ffH
	DB	030H
	DB	030H
	DB	030H
	DB	09eH
	DB	00H
	DB	00H
	DB	00H
	DB	00H
	DB	030H
	DB	030H
	DB	030H
	DB	09eH
	DB	030H
	DB	02cH
	DB	030H
	DB	0ffH
	DB	028H
	DB	030H
	DB	028H
	DB	0ffH
	DB	030H
	DB	02cH
	DB	030H
	DB	0ffH
	DB	030H
	DB	030H
	DB	030H
	DB	0ffH
	DB	028H
	DB	030H
	DB	028H
	DB	05dH
	DB	00H
	DB	00H
	DB	00H
	DB	00H
	DB	030H
	DB	02cH
	DB	030H
	DB	0ffH
	DB	030H
	DB	030H
	DB	030H
	DB	09eH
	DB	00H
	DB	00H
	DB	00H
	DB	00H
	DB	00H
	DB	00H
	DB	00H
	DB	00H
	DB	00H
	DB	00H
	DB	00H
	DB	00H
	DB	00H
	DB	00H
	DB	00H
	DB	00H
	DB	00H
	DB	00H
	DB	00H
	DB	00H
	DB	00H
	DB	00H
	DB	00H
	DB	00H
	DB	030H
	DB	030H
	DB	030H
	DB	09eH
	DB	028H
	DB	02cH
	DB	028H
	DB	0ffH
	DB	030H
	DB	02cH
	DB	030H
	DB	0ffH
	DB	030H
	DB	030H
	DB	030H
	DB	09eH
	DB	00H
	DB	00H
	DB	00H
	DB	00H
	DB	030H
	DB	030H
	DB	030H
	DB	09eH
	DB	028H
	DB	02cH
	DB	028H
	DB	0ffH
	DB	00H
	DB	00H
	DB	00H
	DB	00H
	DB	028H
	DB	02cH
	DB	028H
	DB	061H
	DB	030H
	DB	030H
	DB	030H
	DB	0ffH
	DB	030H
	DB	030H
	DB	030H
	DB	0ffH
	DB	028H
	DB	02cH
	DB	028H
	DB	0ffH
	DB	030H
	DB	030H
	DB	030H
	DB	0ffH
	DB	030H
	DB	030H
	DB	030H
	DB	09eH
	DB	00H
	DB	00H
	DB	00H
	DB	00H
	DB	030H
	DB	030H
	DB	030H
	DB	09eH
	DB	028H
	DB	02cH
	DB	028H
	DB	0ffH
	DB	00H
	DB	00H
	DB	00H
	DB	00H
	DB	00H
	DB	00H
	DB	00H
	DB	00H
	DB	00H
	DB	00H
	DB	00H
	DB	00H
	DB	030H
	DB	030H
	DB	030H
	DB	09eH
	DB	028H
	DB	02cH
	DB	028H
	DB	0ffH
	DB	030H
	DB	02cH
	DB	030H
	DB	0ffH
	DB	030H
	DB	030H
	DB	030H
	DB	09eH
	DB	00H
	DB	00H
	DB	00H
	DB	00H
	DB	030H
	DB	030H
	DB	030H
	DB	09eH
	DB	028H
	DB	02cH
	DB	028H
	DB	0ffH
	DB	030H
	DB	030H
	DB	030H
	DB	0ffH
	DB	030H
	DB	02cH
	DB	030H
	DB	0ffH
	DB	030H
	DB	02cH
	DB	030H
	DB	0ffH
	DB	028H
	DB	030H
	DB	028H
	DB	061H
	DB	00H
	DB	00H
	DB	00H
	DB	00H
	DB	030H
	DB	030H
	DB	030H
	DB	0ffH
	DB	030H
	DB	030H
	DB	030H
	DB	09eH
	DB	00H
	DB	00H
	DB	00H
	DB	00H
	DB	00H
	DB	00H
	DB	00H
	DB	00H
	DB	00H
	DB	00H
	DB	00H
	DB	00H
	DB	00H
	DB	00H
	DB	00H
	DB	00H
	DB	00H
	DB	00H
	DB	00H
	DB	00H
	DB	00H
	DB	00H
	DB	00H
	DB	00H
	DB	030H
	DB	030H
	DB	030H
	DB	09eH
	DB	030H
	DB	02cH
	DB	030H
	DB	0ffH
	DB	028H
	DB	030H
	DB	028H
	DB	0ffH
	DB	030H
	DB	030H
	DB	030H
	DB	09eH
	DB	00H
	DB	00H
	DB	00H
	DB	00H
	DB	030H
	DB	030H
	DB	030H
	DB	09eH
	DB	030H
	DB	030H
	DB	030H
	DB	0ffH
	DB	00H
	DB	00H
	DB	00H
	DB	00H
	DB	030H
	DB	02cH
	DB	030H
	DB	061H
	DB	030H
	DB	02cH
	DB	030H
	DB	0ffH
	DB	030H
	DB	02cH
	DB	030H
	DB	0ffH
	DB	030H
	DB	030H
	DB	030H
	DB	0ffH
	DB	030H
	DB	02cH
	DB	030H
	DB	0ffH
	DB	030H
	DB	030H
	DB	030H
	DB	09eH
	DB	00H
	DB	00H
	DB	00H
	DB	00H
	DB	030H
	DB	030H
	DB	030H
	DB	09eH
	DB	030H
	DB	02cH
	DB	030H
	DB	0ffH
	DB	00H
	DB	00H
	DB	00H
	DB	00H
	DB	00H
	DB	00H
	DB	00H
	DB	00H
	DB	00H
	DB	00H
	DB	00H
	DB	00H
	DB	030H
	DB	030H
	DB	030H
	DB	09eH
	DB	030H
	DB	030H
	DB	030H
	DB	0ffH
	DB	028H
	DB	02cH
	DB	028H
	DB	0ffH
	DB	030H
	DB	030H
	DB	030H
	DB	09eH
	DB	00H
	DB	00H
	DB	00H
	DB	00H
	DB	030H
	DB	030H
	DB	030H
	DB	09eH
	DB	030H
	DB	02cH
	DB	030H
	DB	0ffH
	DB	030H
	DB	030H
	DB	030H
	DB	0ffH
	DB	028H
	DB	030H
	DB	028H
	DB	0ffH
	DB	030H
	DB	02cH
	DB	030H
	DB	0ffH
	DB	030H
	DB	02cH
	DB	030H
	DB	061H
	DB	00H
	DB	00H
	DB	00H
	DB	00H
	DB	030H
	DB	02cH
	DB	030H
	DB	0ffH
	DB	030H
	DB	030H
	DB	030H
	DB	09eH
	DB	00H
	DB	00H
	DB	00H
	DB	00H
	DB	00H
	DB	00H
	DB	00H
	DB	00H
	DB	00H
	DB	00H
	DB	00H
	DB	00H
	DB	00H
	DB	00H
	DB	00H
	DB	00H
	DB	00H
	DB	00H
	DB	00H
	DB	00H
	DB	00H
	DB	00H
	DB	00H
	DB	00H
	DB	030H
	DB	030H
	DB	030H
	DB	09eH
	DB	030H
	DB	02cH
	DB	030H
	DB	0ffH
	DB	030H
	DB	02cH
	DB	030H
	DB	0ffH
	DB	030H
	DB	030H
	DB	030H
	DB	09eH
	DB	00H
	DB	00H
	DB	00H
	DB	00H
	DB	030H
	DB	030H
	DB	030H
	DB	0a2H
	DB	030H
	DB	02cH
	DB	030H
	DB	0ffH
	DB	00H
	DB	00H
	DB	00H
	DB	00H
	DB	028H
	DB	02cH
	DB	028H
	DB	061H
	DB	030H
	DB	030H
	DB	030H
	DB	0ffH
	DB	028H
	DB	030H
	DB	028H
	DB	0ffH
	DB	030H
	DB	02cH
	DB	030H
	DB	0ffH
	DB	028H
	DB	02cH
	DB	028H
	DB	0ffH
	DB	030H
	DB	030H
	DB	030H
	DB	09eH
	DB	00H
	DB	00H
	DB	00H
	DB	00H
	DB	030H
	DB	030H
	DB	030H
	DB	09eH
	DB	030H
	DB	02cH
	DB	030H
	DB	0ffH
	DB	00H
	DB	00H
	DB	00H
	DB	00H
	DB	00H
	DB	00H
	DB	00H
	DB	00H
	DB	00H
	DB	00H
	DB	00H
	DB	00H
	DB	030H
	DB	030H
	DB	030H
	DB	09eH
	DB	030H
	DB	02cH
	DB	030H
	DB	0ffH
	DB	030H
	DB	030H
	DB	030H
	DB	0ffH
	DB	030H
	DB	030H
	DB	030H
	DB	09eH
	DB	00H
	DB	00H
	DB	00H
	DB	00H
	DB	030H
	DB	030H
	DB	030H
	DB	0a2H
	DB	028H
	DB	02cH
	DB	028H
	DB	0ffH
	DB	030H
	DB	02cH
	DB	030H
	DB	0ffH
	DB	030H
	DB	030H
	DB	030H
	DB	0ffH
	DB	030H
	DB	030H
	DB	030H
	DB	0ffH
	DB	030H
	DB	02cH
	DB	030H
	DB	05dH
	DB	00H
	DB	00H
	DB	00H
	DB	00H
	DB	028H
	DB	030H
	DB	028H
	DB	0ffH
	DB	030H
	DB	030H
	DB	030H
	DB	09eH
	DB	00H
	DB	00H
	DB	00H
	DB	00H
	DB	00H
	DB	00H
	DB	00H
	DB	00H
	DB	00H
	DB	00H
	DB	00H
	DB	00H
	DB	00H
	DB	00H
	DB	00H
	DB	00H
	DB	00H
	DB	00H
	DB	00H
	DB	00H
	DB	00H
	DB	00H
	DB	00H
	DB	00H
	DB	030H
	DB	030H
	DB	030H
	DB	09eH
	DB	028H
	DB	02cH
	DB	028H
	DB	0ffH
	DB	030H
	DB	030H
	DB	030H
	DB	0ffH
	DB	030H
	DB	030H
	DB	030H
	DB	09eH
	DB	00H
	DB	00H
	DB	00H
	DB	00H
	DB	030H
	DB	030H
	DB	030H
	DB	09eH
	DB	028H
	DB	02cH
	DB	028H
	DB	0ffH
	DB	00H
	DB	00H
	DB	00H
	DB	00H
	DB	030H
	DB	02cH
	DB	030H
	DB	061H
	DB	030H
	DB	030H
	DB	030H
	DB	0ffH
	DB	030H
	DB	030H
	DB	030H
	DB	0ffH
	DB	028H
	DB	02cH
	DB	028H
	DB	0ffH
	DB	030H
	DB	030H
	DB	030H
	DB	0ffH
	DB	030H
	DB	030H
	DB	030H
	DB	09eH
	DB	00H
	DB	00H
	DB	00H
	DB	00H
	DB	030H
	DB	030H
	DB	030H
	DB	0a2H
	DB	028H
	DB	030H
	DB	028H
	DB	0ffH
	DB	00H
	DB	00H
	DB	00H
	DB	00H
	DB	00H
	DB	00H
	DB	00H
	DB	00H
	DB	00H
	DB	00H
	DB	00H
	DB	00H
	DB	030H
	DB	030H
	DB	030H
	DB	09eH
	DB	028H
	DB	02cH
	DB	028H
	DB	0ffH
	DB	030H
	DB	02cH
	DB	030H
	DB	0ffH
	DB	030H
	DB	030H
	DB	030H
	DB	09eH
	DB	00H
	DB	00H
	DB	00H
	DB	00H
	DB	030H
	DB	030H
	DB	030H
	DB	09eH
	DB	030H
	DB	02cH
	DB	030H
	DB	0ffH
	DB	028H
	DB	02cH
	DB	028H
	DB	0ffH
	DB	030H
	DB	030H
	DB	030H
	DB	0ffH
	DB	030H
	DB	030H
	DB	030H
	DB	0ffH
	DB	028H
	DB	02cH
	DB	028H
	DB	061H
	DB	00H
	DB	00H
	DB	00H
	DB	00H
	DB	030H
	DB	02cH
	DB	030H
	DB	0ffH
	DB	030H
	DB	030H
	DB	030H
	DB	09eH
	DB	00H
	DB	00H
	DB	00H
	DB	00H
	DB	00H
	DB	00H
	DB	00H
	DB	00H
	DB	00H
	DB	00H
	DB	00H
	DB	00H
	DB	00H
	DB	00H
	DB	00H
	DB	00H
	DB	00H
	DB	00H
	DB	00H
	DB	00H
	DB	00H
	DB	00H
	DB	00H
	DB	00H
	DB	030H
	DB	030H
	DB	030H
	DB	09eH
	DB	030H
	DB	02cH
	DB	030H
	DB	0ffH
	DB	028H
	DB	030H
	DB	028H
	DB	0ffH
	DB	030H
	DB	030H
	DB	030H
	DB	0a2H
	DB	00H
	DB	00H
	DB	00H
	DB	00H
	DB	030H
	DB	030H
	DB	030H
	DB	09eH
	DB	030H
	DB	02cH
	DB	030H
	DB	0ffH
	DB	00H
	DB	00H
	DB	00H
	DB	00H
	DB	028H
	DB	02cH
	DB	028H
	DB	061H
	DB	030H
	DB	02cH
	DB	030H
	DB	0ffH
	DB	030H
	DB	030H
	DB	030H
	DB	0ffH
	DB	030H
	DB	02cH
	DB	030H
	DB	0ffH
	DB	030H
	DB	02cH
	DB	030H
	DB	0ffH
	DB	030H
	DB	030H
	DB	030H
	DB	09eH
	DB	00H
	DB	00H
	DB	00H
	DB	00H
	DB	030H
	DB	030H
	DB	030H
	DB	09eH
	DB	030H
	DB	02cH
	DB	030H
	DB	0ffH
	DB	00H
	DB	00H
	DB	00H
	DB	00H
	DB	00H
	DB	00H
	DB	00H
	DB	00H
	DB	00H
	DB	00H
	DB	00H
	DB	00H
	DB	030H
	DB	030H
	DB	030H
	DB	09eH
	DB	030H
	DB	02cH
	DB	030H
	DB	0ffH
	DB	028H
	DB	030H
	DB	028H
	DB	0ffH
	DB	030H
	DB	030H
	DB	030H
	DB	0a2H
	DB	00H
	DB	00H
	DB	00H
	DB	00H
	DB	030H
	DB	030H
	DB	030H
	DB	09eH
	DB	030H
	DB	030H
	DB	030H
	DB	0ffH
	DB	030H
	DB	02cH
	DB	030H
	DB	0ffH
	DB	028H
	DB	02cH
	DB	028H
	DB	0ffH
	DB	030H
	DB	030H
	DB	030H
	DB	0ffH
	DB	030H
	DB	030H
	DB	030H
	DB	05dH
	DB	00H
	DB	00H
	DB	00H
	DB	00H
	DB	030H
	DB	02cH
	DB	030H
	DB	0ffH
	DB	030H
	DB	030H
	DB	030H
	DB	09eH
	DB	00H
	DB	00H
	DB	00H
	DB	00H
	DB	00H
	DB	00H
	DB	00H
	DB	00H
	DB	00H
	DB	00H
	DB	00H
	DB	00H
	DB	00H
	DB	00H
	DB	00H
	DB	00H
	DB	00H
	DB	00H
	DB	00H
	DB	00H
	DB	00H
	DB	00H
	DB	00H
	DB	00H
	DB	030H
	DB	030H
	DB	030H
	DB	09eH
	DB	030H
	DB	02cH
	DB	030H
	DB	0ffH
	DB	030H
	DB	02cH
	DB	030H
	DB	0ffH
	DB	030H
	DB	030H
	DB	030H
	DB	09eH
	DB	00H
	DB	00H
	DB	00H
	DB	00H
	DB	030H
	DB	030H
	DB	030H
	DB	09eH
	DB	030H
	DB	02cH
	DB	030H
	DB	0ffH
	DB	00H
	DB	00H
	DB	00H
	DB	00H
	DB	028H
	DB	02cH
	DB	028H
	DB	061H
	DB	030H
	DB	030H
	DB	030H
	DB	0ffH
	DB	030H
	DB	030H
	DB	030H
	DB	0ffH
	DB	028H
	DB	02cH
	DB	028H
	DB	0ffH
	DB	030H
	DB	030H
	DB	030H
	DB	0ffH
	DB	030H
	DB	030H
	DB	030H
	DB	09eH
	DB	00H
	DB	00H
	DB	00H
	DB	00H
	DB	030H
	DB	030H
	DB	030H
	DB	09eH
	DB	028H
	DB	02cH
	DB	028H
	DB	0ffH
	DB	00H
	DB	00H
	DB	00H
	DB	00H
	DB	00H
	DB	00H
	DB	00H
	DB	00H
	DB	00H
	DB	00H
	DB	00H
	DB	00H
	DB	030H
	DB	030H
	DB	030H
	DB	0a2H
	DB	030H
	DB	02cH
	DB	030H
	DB	0ffH
	DB	030H
	DB	02cH
	DB	030H
	DB	0ffH
	DB	030H
	DB	030H
	DB	030H
	DB	09eH
	DB	00H
	DB	00H
	DB	00H
	DB	00H
	DB	030H
	DB	030H
	DB	030H
	DB	09eH
	DB	028H
	DB	02cH
	DB	028H
	DB	0ffH
	DB	030H
	DB	030H
	DB	030H
	DB	0ffH
	DB	030H
	DB	02cH
	DB	030H
	DB	0ffH
	DB	030H
	DB	02cH
	DB	030H
	DB	0ffH
	DB	030H
	DB	030H
	DB	030H
	DB	061H
	DB	00H
	DB	00H
	DB	00H
	DB	00H
	DB	028H
	DB	02cH
	DB	028H
	DB	0ffH
	DB	030H
	DB	030H
	DB	030H
	DB	09eH
	DB	00H
	DB	00H
	DB	00H
	DB	00H
	DB	00H
	DB	00H
	DB	00H
	DB	00H
	DB	00H
	DB	00H
	DB	00H
	DB	00H
	DB	00H
	DB	00H
	DB	00H
	DB	00H
	DB	00H
	DB	00H
	DB	00H
	DB	00H
	DB	00H
	DB	00H
	DB	00H
	DB	00H
	DB	030H
	DB	030H
	DB	030H
	DB	09eH
	DB	028H
	DB	02cH
	DB	028H
	DB	0ffH
	DB	030H
	DB	02cH
	DB	030H
	DB	0ffH
	DB	030H
	DB	030H
	DB	030H
	DB	09eH
	DB	00H
	DB	00H
	DB	00H
	DB	00H
	DB	028H
	DB	030H
	DB	028H
	DB	09eH
	DB	030H
	DB	02cH
	DB	030H
	DB	0ffH
	DB	00H
	DB	00H
	DB	00H
	DB	00H
	DB	028H
	DB	02cH
	DB	028H
	DB	061H
	DB	030H
	DB	030H
	DB	030H
	DB	0ffH
	DB	030H
	DB	02cH
	DB	030H
	DB	0ffH
	DB	028H
	DB	02cH
	DB	028H
	DB	0ffH
	DB	030H
	DB	030H
	DB	030H
	DB	0ffH
	DB	030H
	DB	030H
	DB	030H
	DB	09eH
	DB	00H
	DB	00H
	DB	00H
	DB	00H
	DB	030H
	DB	030H
	DB	030H
	DB	0a2H
	DB	030H
	DB	02cH
	DB	030H
	DB	0ffH
	DB	00H
	DB	00H
	DB	00H
	DB	00H
	DB	00H
	DB	00H
	DB	00H
	DB	00H
	DB	00H
	DB	00H
	DB	00H
	DB	00H
	DB	030H
	DB	030H
	DB	030H
	DB	09eH
	DB	028H
	DB	030H
	DB	028H
	DB	0ffH
	DB	030H
	DB	02cH
	DB	030H
	DB	0ffH
	DB	030H
	DB	030H
	DB	030H
	DB	09eH
	DB	00H
	DB	00H
	DB	00H
	DB	00H
	DB	030H
	DB	030H
	DB	030H
	DB	0a2H
	DB	028H
	DB	02cH
	DB	028H
	DB	0ffH
	DB	030H
	DB	030H
	DB	030H
	DB	0ffH
	DB	030H
	DB	030H
	DB	030H
	DB	0ffH
	DB	028H
	DB	02cH
	DB	028H
	DB	0ffH
	DB	030H
	DB	02cH
	DB	030H
	DB	061H
	DB	00H
	DB	00H
	DB	00H
	DB	00H
	DB	030H
	DB	030H
	DB	030H
	DB	0ffH
	DB	030H
	DB	030H
	DB	030H
	DB	09eH
	DB	00H
	DB	00H
	DB	00H
	DB	00H
	DB	00H
	DB	00H
	DB	00H
	DB	00H
	DB	00H
	DB	00H
	DB	00H
	DB	00H
	DB	00H
	DB	00H
	DB	00H
	DB	00H
	DB	00H
	DB	00H
	DB	00H
	DB	00H
	DB	00H
	DB	00H
	DB	00H
	DB	00H
	DB	030H
	DB	030H
	DB	030H
	DB	09eH
	DB	030H
	DB	030H
	DB	030H
	DB	0ffH
	DB	028H
	DB	02cH
	DB	028H
	DB	0ffH
	DB	030H
	DB	030H
	DB	030H
	DB	0a2H
	DB	00H
	DB	00H
	DB	00H
	DB	00H
	DB	030H
	DB	030H
	DB	030H
	DB	09eH
	DB	030H
	DB	030H
	DB	030H
	DB	0ffH
	DB	00H
	DB	00H
	DB	00H
	DB	00H
	DB	030H
	DB	02cH
	DB	030H
	DB	061H
	DB	030H
	DB	030H
	DB	030H
	DB	0ffH
	DB	030H
	DB	030H
	DB	030H
	DB	0ffH
	DB	030H
	DB	02cH
	DB	030H
	DB	0ffH
	DB	028H
	DB	02cH
	DB	028H
	DB	0ffH
	DB	030H
	DB	030H
	DB	030H
	DB	09eH
	DB	00H
	DB	00H
	DB	00H
	DB	00H
	DB	030H
	DB	030H
	DB	030H
	DB	09eH
	DB	028H
	DB	02cH
	DB	028H
	DB	0ffH
	DB	00H
	DB	00H
	DB	00H
	DB	00H
	DB	00H
	DB	00H
	DB	00H
	DB	00H
	DB	00H
	DB	00H
	DB	00H
	DB	00H
	DB	030H
	DB	030H
	DB	030H
	DB	09eH
	DB	030H
	DB	02cH
	DB	030H
	DB	0ffH
	DB	028H
	DB	030H
	DB	028H
	DB	0ffH
	DB	030H
	DB	030H
	DB	030H
	DB	09eH
	DB	00H
	DB	00H
	DB	00H
	DB	00H
	DB	030H
	DB	030H
	DB	030H
	DB	09eH
	DB	030H
	DB	02cH
	DB	030H
	DB	0ffH
	DB	030H
	DB	02cH
	DB	030H
	DB	0ffH
	DB	028H
	DB	030H
	DB	028H
	DB	0ffH
	DB	030H
	DB	030H
	DB	030H
	DB	0ffH
	DB	030H
	DB	02cH
	DB	030H
	DB	05dH
	DB	00H
	DB	00H
	DB	00H
	DB	00H
	DB	028H
	DB	030H
	DB	028H
	DB	0ffH
	DB	030H
	DB	030H
	DB	030H
	DB	09eH
	DB	00H
	DB	00H
	DB	00H
	DB	00H
	DB	00H
	DB	00H
	DB	00H
	DB	00H
	DB	00H
	DB	00H
	DB	00H
	DB	00H
	DB	00H
	DB	00H
	DB	00H
	DB	00H
	DB	00H
	DB	00H
	DB	00H
	DB	00H
	DB	00H
	DB	00H
	DB	00H
	DB	00H
	DB	030H
	DB	030H
	DB	030H
	DB	09eH
	DB	030H
	DB	02cH
	DB	030H
	DB	0ffH
	DB	030H
	DB	030H
	DB	030H
	DB	0ffH
	DB	030H
	DB	030H
	DB	030H
	DB	09eH
	DB	00H
	DB	00H
	DB	00H
	DB	00H
	DB	030H
	DB	030H
	DB	030H
	DB	09eH
	DB	028H
	DB	02cH
	DB	028H
	DB	0ffH
	DB	00H
	DB	00H
	DB	00H
	DB	00H
	DB	028H
	DB	02cH
	DB	028H
	DB	061H
	DB	030H
	DB	030H
	DB	030H
	DB	0ffH
	DB	030H
	DB	02cH
	DB	030H
	DB	0ffH
	DB	030H
	DB	030H
	DB	030H
	DB	0ffH
	DB	030H
	DB	02cH
	DB	030H
	DB	0ffH
	DB	030H
	DB	030H
	DB	030H
	DB	09eH
	DB	00H
	DB	00H
	DB	00H
	DB	00H
	DB	030H
	DB	030H
	DB	030H
	DB	09eH
	DB	030H
	DB	02cH
	DB	030H
	DB	0ffH
	DB	00H
	DB	00H
	DB	00H
	DB	00H
	DB	00H
	DB	00H
	DB	00H
	DB	00H
	DB	00H
	DB	00H
	DB	00H
	DB	00H
	DB	030H
	DB	030H
	DB	030H
	DB	09eH
	DB	030H
	DB	02cH
	DB	030H
	DB	0ffH
	DB	030H
	DB	02cH
	DB	030H
	DB	0ffH
	DB	030H
	DB	030H
	DB	030H
	DB	0a2H
	DB	00H
	DB	00H
	DB	00H
	DB	00H
	DB	030H
	DB	030H
	DB	030H
	DB	09eH
	DB	030H
	DB	02cH
	DB	030H
	DB	0ffH
	DB	028H
	DB	02cH
	DB	028H
	DB	0ffH
	DB	030H
	DB	030H
	DB	030H
	DB	0ffH
	DB	030H
	DB	030H
	DB	030H
	DB	0ffH
	DB	030H
	DB	02cH
	DB	030H
	DB	061H
	DB	00H
	DB	00H
	DB	00H
	DB	00H
	DB	030H
	DB	02cH
	DB	030H
	DB	0ffH
	DB	030H
	DB	030H
	DB	030H
	DB	09eH
	DB	00H
	DB	00H
	DB	00H
	DB	00H
	DB	00H
	DB	00H
	DB	00H
	DB	00H
	DB	00H
	DB	00H
	DB	00H
	DB	00H
	DB	00H
	DB	00H
	DB	00H
	DB	00H
	DB	00H
	DB	00H
	DB	00H
	DB	00H
	DB	00H
	DB	00H
	DB	00H
	DB	00H
	DB	030H
	DB	030H
	DB	030H
	DB	09eH
	DB	028H
	DB	02cH
	DB	028H
	DB	0ffH
	DB	030H
	DB	02cH
	DB	030H
	DB	0ffH
	DB	030H
	DB	030H
	DB	030H
	DB	09eH
	DB	00H
	DB	00H
	DB	00H
	DB	00H
	DB	030H
	DB	030H
	DB	030H
	DB	0a2H
	DB	030H
	DB	02cH
	DB	030H
	DB	0ffH
	DB	00H
	DB	00H
	DB	00H
	DB	00H
	DB	028H
	DB	02cH
	DB	028H
	DB	061H
	DB	030H
	DB	02cH
	DB	030H
	DB	0ffH
	DB	028H
	DB	030H
	DB	028H
	DB	0ffH
	DB	028H
	DB	02cH
	DB	028H
	DB	0ffH
	DB	030H
	DB	030H
	DB	030H
	DB	0ffH
	DB	030H
	DB	030H
	DB	030H
	DB	09eH
	DB	00H
	DB	00H
	DB	00H
	DB	00H
	DB	030H
	DB	030H
	DB	030H
	DB	0a2H
	DB	030H
	DB	02cH
	DB	030H
	DB	0ffH
	DB	00H
	DB	00H
	DB	00H
	DB	00H
	DB	00H
	DB	00H
	DB	00H
	DB	00H
	DB	00H
	DB	00H
	DB	00H
	DB	00H
	DB	030H
	DB	030H
	DB	030H
	DB	09eH
	DB	028H
	DB	030H
	DB	028H
	DB	0ffH
	DB	030H
	DB	02cH
	DB	030H
	DB	0ffH
	DB	030H
	DB	030H
	DB	030H
	DB	09eH
	DB	00H
	DB	00H
	DB	00H
	DB	00H
	DB	030H
	DB	030H
	DB	030H
	DB	09eH
	DB	028H
	DB	02cH
	DB	028H
	DB	0ffH
	DB	030H
	DB	030H
	DB	030H
	DB	0ffH
	DB	030H
	DB	02cH
	DB	030H
	DB	0ffH
	DB	028H
	DB	02cH
	DB	028H
	DB	0ffH
	DB	030H
	DB	030H
	DB	030H
	DB	061H
	DB	00H
	DB	00H
	DB	00H
	DB	00H
	DB	028H
	DB	02cH
	DB	028H
	DB	0ffH
	DB	030H
	DB	030H
	DB	030H
	DB	09eH
	DB	00H
	DB	00H
	DB	00H
	DB	00H
	DB	00H
	DB	00H
	DB	00H
	DB	00H
	DB	00H
	DB	00H
	DB	00H
	DB	00H
	DB	00H
	DB	00H
	DB	00H
	DB	00H
	DB	00H
	DB	00H
	DB	00H
	DB	00H
	DB	00H
	DB	00H
	DB	00H
	DB	00H
	DB	030H
	DB	030H
	DB	030H
	DB	09eH
	DB	030H
	DB	02cH
	DB	030H
	DB	0ffH
	DB	028H
	DB	02cH
	DB	028H
	DB	0ffH
	DB	030H
	DB	030H
	DB	030H
	DB	0a2H
	DB	00H
	DB	00H
	DB	00H
	DB	00H
	DB	030H
	DB	030H
	DB	030H
	DB	09eH
	DB	030H
	DB	02cH
	DB	030H
	DB	0ffH
	DB	00H
	DB	00H
	DB	00H
	DB	00H
	DB	030H
	DB	02cH
	DB	030H
	DB	061H
	DB	030H
	DB	030H
	DB	030H
	DB	0ffH
	DB	030H
	DB	030H
	DB	030H
	DB	0ffH
	DB	030H
	DB	02cH
	DB	030H
	DB	0ffH
	DB	030H
	DB	02cH
	DB	030H
	DB	0ffH
	DB	030H
	DB	030H
	DB	030H
	DB	09eH
	DB	00H
	DB	00H
	DB	00H
	DB	00H
	DB	028H
	DB	030H
	DB	028H
	DB	09eH
	DB	030H
	DB	02cH
	DB	030H
	DB	0ffH
	DB	00H
	DB	00H
	DB	00H
	DB	00H
	DB	00H
	DB	00H
	DB	00H
	DB	00H
	DB	00H
	DB	00H
	DB	00H
	DB	00H
	DB	030H
	DB	030H
	DB	030H
	DB	0a2H
	DB	028H
	DB	02cH
	DB	028H
	DB	0ffH
	DB	030H
	DB	030H
	DB	030H
	DB	0ffH
	DB	030H
	DB	030H
	DB	030H
	DB	09eH
	DB	00H
	DB	00H
	DB	00H
	DB	00H
	DB	030H
	DB	030H
	DB	030H
	DB	0a2H
	DB	030H
	DB	02cH
	DB	030H
	DB	0ffH
	DB	030H
	DB	030H
	DB	030H
	DB	0ffH
	DB	030H
	DB	030H
	DB	030H
	DB	0ffH
	DB	028H
	DB	02cH
	DB	028H
	DB	0ffH
	DB	030H
	DB	030H
	DB	030H
	DB	05dH
	DB	00H
	DB	00H
	DB	00H
	DB	00H
	DB	030H
	DB	02cH
	DB	030H
	DB	0ffH
	DB	030H
	DB	030H
	DB	030H
	DB	09eH
	DB	00H
	DB	00H
	DB	00H
	DB	00H
	DB	00H
	DB	00H
	DB	00H
	DB	00H
	DB	00H
	DB	00H
	DB	00H
	DB	00H
	DB	00H
	DB	00H
	DB	00H
	DB	00H
	DB	00H
	DB	00H
	DB	00H
	DB	00H
	DB	00H
	DB	00H
	DB	00H
	DB	00H
	DB	030H
	DB	030H
	DB	030H
	DB	09eH
	DB	030H
	DB	030H
	DB	030H
	DB	0ffH
	DB	030H
	DB	02cH
	DB	030H
	DB	0ffH
	DB	030H
	DB	030H
	DB	030H
	DB	09eH
	DB	00H
	DB	00H
	DB	00H
	DB	00H
	DB	030H
	DB	030H
	DB	030H
	DB	09eH
	DB	028H
	DB	030H
	DB	028H
	DB	0ffH
	DB	00H
	DB	00H
	DB	00H
	DB	00H
	DB	030H
	DB	02cH
	DB	030H
	DB	061H
	DB	030H
	DB	030H
	DB	030H
	DB	0ffH
	DB	030H
	DB	02cH
	DB	030H
	DB	0ffH
	DB	028H
	DB	030H
	DB	028H
	DB	0ffH
	DB	030H
	DB	02cH
	DB	030H
	DB	0ffH
	DB	030H
	DB	030H
	DB	030H
	DB	09eH
	DB	00H
	DB	00H
	DB	00H
	DB	00H
	DB	030H
	DB	030H
	DB	030H
	DB	09eH
	DB	028H
	DB	02cH
	DB	028H
	DB	0ffH
	DB	00H
	DB	00H
	DB	00H
	DB	00H
	DB	00H
	DB	00H
	DB	00H
	DB	00H
	DB	00H
	DB	00H
	DB	00H
	DB	00H
	DB	030H
	DB	030H
	DB	030H
	DB	09eH
	DB	030H
	DB	02cH
	DB	030H
	DB	0ffH
	DB	028H
	DB	02cH
	DB	028H
	DB	0ffH
	DB	030H
	DB	030H
	DB	030H
	DB	09eH
	DB	00H
	DB	00H
	DB	00H
	DB	00H
	DB	030H
	DB	030H
	DB	030H
	DB	09eH
	DB	028H
	DB	02cH
	DB	028H
	DB	0ffH
	DB	030H
	DB	02cH
	DB	030H
	DB	0ffH
	DB	030H
	DB	030H
	DB	030H
	DB	0ffH
	DB	030H
	DB	02cH
	DB	030H
	DB	0ffH
	DB	030H
	DB	030H
	DB	030H
	DB	061H
	DB	00H
	DB	00H
	DB	00H
	DB	00H
	DB	030H
	DB	02cH
	DB	030H
	DB	0ffH
	DB	030H
	DB	030H
	DB	030H
	DB	09eH
	DB	00H
	DB	00H
	DB	00H
	DB	00H
	DB	00H
	DB	00H
	DB	00H
	DB	00H
	DB	00H
	DB	00H
	DB	00H
	DB	00H
	DB	00H
	DB	00H
	DB	00H
	DB	00H
	DB	00H
	DB	00H
	DB	00H
	DB	00H
	DB	00H
	DB	00H
	DB	00H
	DB	00H
	DB	030H
	DB	030H
	DB	030H
	DB	09eH
	DB	028H
	DB	02cH
	DB	028H
	DB	0ffH
	DB	030H
	DB	030H
	DB	030H
	DB	0ffH
	DB	030H
	DB	030H
	DB	030H
	DB	09eH
	DB	00H
	DB	00H
	DB	00H
	DB	00H
	DB	030H
	DB	030H
	DB	030H
	DB	09eH
	DB	030H
	DB	02cH
	DB	030H
	DB	0ffH
	DB	00H
	DB	00H
	DB	00H
	DB	00H
	DB	028H
	DB	02cH
	DB	028H
	DB	061H
	DB	030H
	DB	030H
	DB	030H
	DB	0ffH
	DB	028H
	DB	02cH
	DB	028H
	DB	0ffH
	DB	030H
	DB	030H
	DB	030H
	DB	0ffH
	DB	030H
	DB	030H
	DB	030H
	DB	0ffH
	DB	030H
	DB	030H
	DB	030H
	DB	09eH
	DB	00H
	DB	00H
	DB	00H
	DB	00H
	DB	030H
	DB	030H
	DB	030H
	DB	0a2H
	DB	030H
	DB	030H
	DB	030H
	DB	0ffH
	DB	00H
	DB	00H
	DB	00H
	DB	00H
	DB	00H
	DB	00H
	DB	00H
	DB	00H
	DB	00H
	DB	00H
	DB	00H
	DB	00H
	DB	030H
	DB	030H
	DB	030H
	DB	09eH
	DB	030H
	DB	030H
	DB	030H
	DB	0ffH
	DB	030H
	DB	02cH
	DB	030H
	DB	0ffH
	DB	030H
	DB	030H
	DB	030H
	DB	0a2H
	DB	00H
	DB	00H
	DB	00H
	DB	00H
	DB	030H
	DB	030H
	DB	030H
	DB	09eH
	DB	028H
	DB	02cH
	DB	028H
	DB	0ffH
	DB	030H
	DB	030H
	DB	030H
	DB	0ffH
	DB	030H
	DB	02cH
	DB	030H
	DB	0ffH
	DB	028H
	DB	030H
	DB	028H
	DB	0ffH
	DB	030H
	DB	02cH
	DB	030H
	DB	061H
	DB	00H
	DB	00H
	DB	00H
	DB	00H
	DB	028H
	DB	030H
	DB	028H
	DB	0ffH
	DB	030H
	DB	030H
	DB	030H
	DB	09eH
	DB	00H
	DB	00H
	DB	00H
	DB	00H
	DB	00H
	DB	00H
	DB	00H
	DB	00H
	DB	00H
	DB	00H
	DB	00H
	DB	00H
	DB	00H
	DB	00H
	DB	00H
	DB	00H
	DB	00H
	DB	00H
	DB	00H
	DB	00H
	DB	00H
	DB	00H
	DB	00H
	DB	00H
	DB	030H
	DB	030H
	DB	030H
	DB	09eH
	DB	030H
	DB	02cH
	DB	030H
	DB	0ffH
	DB	028H
	DB	02cH
	DB	028H
	DB	0ffH
	DB	030H
	DB	030H
	DB	030H
	DB	0a2H
	DB	00H
	DB	00H
	DB	00H
	DB	00H
	DB	030H
	DB	030H
	DB	030H
	DB	09eH
	DB	030H
	DB	02cH
	DB	030H
	DB	0ffH
	DB	00H
	DB	00H
	DB	00H
	DB	00H
	DB	028H
	DB	02cH
	DB	028H
	DB	061H
	DB	030H
	DB	030H
	DB	030H
	DB	0ffH
	DB	030H
	DB	02cH
	DB	030H
	DB	0ffH
	DB	030H
	DB	02cH
	DB	030H
	DB	0ffH
	DB	028H
	DB	02cH
	DB	028H
	DB	0ffH
	DB	030H
	DB	030H
	DB	030H
	DB	09eH
	DB	00H
	DB	00H
	DB	00H
	DB	00H
	DB	030H
	DB	030H
	DB	030H
	DB	09eH
	DB	030H
	DB	02cH
	DB	030H
	DB	0ffH
	DB	00H
	DB	00H
	DB	00H
	DB	00H
	DB	00H
	DB	00H
	DB	00H
	DB	00H
	DB	00H
	DB	00H
	DB	00H
	DB	00H
	DB	030H
	DB	030H
	DB	030H
	DB	09eH
	DB	028H
	DB	02cH
	DB	028H
	DB	0ffH
	DB	030H
	DB	030H
	DB	030H
	DB	0ffH
	DB	030H
	DB	030H
	DB	030H
	DB	09eH
	DB	00H
	DB	00H
	DB	00H
	DB	00H
	DB	030H
	DB	030H
	DB	030H
	DB	09eH
	DB	030H
	DB	02cH
	DB	030H
	DB	0ffH
	DB	030H
	DB	030H
	DB	030H
	DB	0ffH
	DB	028H
	DB	030H
	DB	028H
	DB	0ffH
	DB	030H
	DB	02cH
	DB	030H
	DB	0ffH
	DB	030H
	DB	030H
	DB	030H
	DB	05dH
	DB	00H
	DB	00H
	DB	00H
	DB	00H
	DB	030H
	DB	02cH
	DB	030H
	DB	0ffH
	DB	030H
	DB	030H
	DB	030H
	DB	09eH
	DB	00H
	DB	00H
	DB	00H
	DB	00H
	DB	00H
	DB	00H
	DB	00H
	DB	00H
	DB	00H
	DB	00H
	DB	00H
	DB	00H
	DB	00H
	DB	00H
	DB	00H
	DB	00H
	DB	00H
	DB	00H
	DB	00H
	DB	00H
	DB	00H
	DB	00H
	DB	00H
	DB	00H
	DB	030H
	DB	030H
	DB	030H
	DB	09eH
	DB	030H
	DB	02cH
	DB	030H
	DB	0ffH
	DB	030H
	DB	02cH
	DB	030H
	DB	0ffH
	DB	030H
	DB	030H
	DB	030H
	DB	09eH
	DB	00H
	DB	00H
	DB	00H
	DB	00H
	DB	030H
	DB	030H
	DB	030H
	DB	09eH
	DB	028H
	DB	02cH
	DB	028H
	DB	0ffH
	DB	00H
	DB	00H
	DB	00H
	DB	00H
	DB	030H
	DB	02cH
	DB	030H
	DB	061H
	DB	030H
	DB	030H
	DB	030H
	DB	0ffH
	DB	030H
	DB	030H
	DB	030H
	DB	0ffH
	DB	028H
	DB	02cH
	DB	028H
	DB	0ffH
	DB	030H
	DB	02cH
	DB	030H
	DB	0ffH
	DB	030H
	DB	030H
	DB	030H
	DB	09eH
	DB	00H
	DB	00H
	DB	00H
	DB	00H
	DB	030H
	DB	030H
	DB	030H
	DB	09eH
	DB	028H
	DB	02cH
	DB	028H
	DB	0ffH
	DB	00H
	DB	00H
	DB	00H
	DB	00H
	DB	00H
	DB	00H
	DB	00H
	DB	00H
	DB	00H
	DB	00H
	DB	00H
	DB	00H
	DB	030H
	DB	030H
	DB	030H
	DB	09eH
	DB	030H
	DB	02cH
	DB	030H
	DB	0ffH
	DB	028H
	DB	02cH
	DB	028H
	DB	0ffH
	DB	030H
	DB	030H
	DB	030H
	DB	09eH
	DB	00H
	DB	00H
	DB	00H
	DB	00H
	DB	030H
	DB	030H
	DB	030H
	DB	0a2H
	DB	030H
	DB	02cH
	DB	030H
	DB	0ffH
	DB	028H
	DB	02cH
	DB	028H
	DB	0ffH
	DB	030H
	DB	030H
	DB	030H
	DB	0ffH
	DB	030H
	DB	02cH
	DB	030H
	DB	0ffH
	DB	028H
	DB	02cH
	DB	028H
	DB	061H
	DB	00H
	DB	00H
	DB	00H
	DB	00H
	DB	030H
	DB	02cH
	DB	030H
	DB	0ffH
	DB	030H
	DB	030H
	DB	030H
	DB	09eH
	DB	00H
	DB	00H
	DB	00H
	DB	00H
	DB	00H
	DB	00H
	DB	00H
	DB	00H
	DB	00H
	DB	00H
	DB	00H
	DB	00H
	DB	00H
	DB	00H
	DB	00H
	DB	00H
	DB	00H
	DB	00H
	DB	00H
	DB	00H
	DB	00H
	DB	00H
	DB	00H
	DB	00H
	DB	030H
	DB	030H
	DB	030H
	DB	09eH
	DB	028H
	DB	030H
	DB	028H
	DB	0ffH
	DB	030H
	DB	02cH
	DB	030H
	DB	0ffH
	DB	030H
	DB	030H
	DB	030H
	DB	0a2H
	DB	00H
	DB	00H
	DB	00H
	DB	00H
	DB	030H
	DB	030H
	DB	030H
	DB	09eH
	DB	030H
	DB	030H
	DB	030H
	DB	0ffH
	DB	00H
	DB	00H
	DB	00H
	DB	00H
	DB	028H
	DB	02cH
	DB	028H
	DB	061H
	DB	030H
	DB	02cH
	DB	030H
	DB	0ffH
	DB	030H
	DB	030H
	DB	030H
	DB	0ffH
	DB	030H
	DB	030H
	DB	030H
	DB	0ffH
	DB	030H
	DB	030H
	DB	030H
	DB	0ffH
	DB	030H
	DB	030H
	DB	030H
	DB	09eH
	DB	00H
	DB	00H
	DB	00H
	DB	00H
	DB	030H
	DB	030H
	DB	030H
	DB	0a2H
	DB	030H
	DB	02cH
	DB	030H
	DB	0ffH
	DB	00H
	DB	00H
	DB	00H
	DB	00H
	DB	00H
	DB	00H
	DB	00H
	DB	00H
	DB	00H
	DB	00H
	DB	00H
	DB	00H
	DB	030H
	DB	030H
	DB	030H
	DB	0a2H
	DB	030H
	DB	02cH
	DB	030H
	DB	0ffH
	DB	030H
	DB	030H
	DB	030H
	DB	0ffH
	DB	030H
	DB	030H
	DB	030H
	DB	09eH
	DB	00H
	DB	00H
	DB	00H
	DB	00H
	DB	030H
	DB	030H
	DB	030H
	DB	09eH
	DB	028H
	DB	02cH
	DB	028H
	DB	0ffH
	DB	030H
	DB	030H
	DB	030H
	DB	0ffH
	DB	030H
	DB	02cH
	DB	030H
	DB	0ffH
	DB	030H
	DB	030H
	DB	030H
	DB	0ffH
	DB	030H
	DB	030H
	DB	030H
	DB	061H
	DB	00H
	DB	00H
	DB	00H
	DB	00H
	DB	028H
	DB	030H
	DB	028H
	DB	0ffH
	DB	030H
	DB	030H
	DB	030H
	DB	09eH
	DB	00H
	DB	00H
	DB	00H
	DB	00H
	DB	00H
	DB	00H
	DB	00H
	DB	00H
	DB	00H
	DB	00H
	DB	00H
	DB	00H
	DB	00H
	DB	00H
	DB	00H
	DB	00H
	DB	00H
	DB	00H
	DB	00H
	DB	00H
	DB	00H
	DB	00H
	DB	00H
	DB	00H
	DB	030H
	DB	030H
	DB	030H
	DB	09eH
	DB	030H
	DB	02cH
	DB	030H
	DB	0ffH
	DB	028H
	DB	030H
	DB	028H
	DB	0ffH
	DB	030H
	DB	030H
	DB	030H
	DB	09eH
	DB	00H
	DB	00H
	DB	00H
	DB	00H
	DB	030H
	DB	030H
	DB	030H
	DB	09eH
	DB	030H
	DB	02cH
	DB	030H
	DB	0ffH
	DB	00H
	DB	00H
	DB	00H
	DB	00H
	DB	028H
	DB	02cH
	DB	028H
	DB	061H
	DB	030H
	DB	030H
	DB	030H
	DB	0ffH
	DB	030H
	DB	02cH
	DB	030H
	DB	0ffH
	DB	028H
	DB	02cH
	DB	028H
	DB	0ffH
	DB	028H
	DB	02cH
	DB	028H
	DB	0ffH
	DB	030H
	DB	030H
	DB	030H
	DB	09eH
	DB	00H
	DB	00H
	DB	00H
	DB	00H
	DB	030H
	DB	030H
	DB	030H
	DB	09eH
	DB	028H
	DB	02cH
	DB	028H
	DB	0ffH
	DB	00H
	DB	00H
	DB	00H
	DB	00H
	DB	00H
	DB	00H
	DB	00H
	DB	00H
	DB	00H
	DB	00H
	DB	00H
	DB	00H
	DB	030H
	DB	030H
	DB	030H
	DB	09eH
	DB	028H
	DB	02cH
	DB	028H
	DB	0ffH
	DB	030H
	DB	02cH
	DB	030H
	DB	0ffH
	DB	030H
	DB	030H
	DB	030H
	DB	0a2H
	DB	00H
	DB	00H
	DB	00H
	DB	00H
	DB	030H
	DB	030H
	DB	030H
	DB	09eH
	DB	030H
	DB	02cH
	DB	030H
	DB	0ffH
	DB	030H
	DB	030H
	DB	030H
	DB	0ffH
	DB	028H
	DB	02cH
	DB	028H
	DB	0ffH
	DB	030H
	DB	02cH
	DB	030H
	DB	0ffH
	DB	030H
	DB	030H
	DB	030H
	DB	05dH
	DB	00H
	DB	00H
	DB	00H
	DB	00H
	DB	030H
	DB	02cH
	DB	030H
	DB	0ffH
	DB	030H
	DB	030H
	DB	030H
	DB	09eH
	DB	00H
	DB	00H
	DB	00H
	DB	00H
	DB	00H
	DB	00H
	DB	00H
	DB	00H
	DB	00H
	DB	00H
	DB	00H
	DB	00H
	DB	00H
	DB	00H
	DB	00H
	DB	00H
	DB	00H
	DB	00H
	DB	00H
	DB	00H
	DB	00H
	DB	00H
	DB	00H
	DB	00H
	DB	030H
	DB	030H
	DB	030H
	DB	09eH
	DB	030H
	DB	02cH
	DB	030H
	DB	0ffH
	DB	030H
	DB	02cH
	DB	030H
	DB	0ffH
	DB	030H
	DB	030H
	DB	030H
	DB	09eH
	DB	00H
	DB	00H
	DB	00H
	DB	00H
	DB	030H
	DB	030H
	DB	030H
	DB	0a2H
	DB	028H
	DB	02cH
	DB	028H
	DB	0ffH
	DB	00H
	DB	00H
	DB	00H
	DB	00H
	DB	030H
	DB	02cH
	DB	030H
	DB	061H
	DB	030H
	DB	030H
	DB	030H
	DB	0ffH
	DB	030H
	DB	030H
	DB	030H
	DB	0ffH
	DB	030H
	DB	02cH
	DB	030H
	DB	0ffH
	DB	030H
	DB	02cH
	DB	030H
	DB	0ffH
	DB	030H
	DB	030H
	DB	030H
	DB	09eH
	DB	00H
	DB	00H
	DB	00H
	DB	00H
	DB	030H
	DB	030H
	DB	030H
	DB	09eH
	DB	030H
	DB	02cH
	DB	030H
	DB	0ffH
	DB	00H
	DB	00H
	DB	00H
	DB	00H
	DB	00H
	DB	00H
	DB	00H
	DB	00H
	DB	00H
	DB	00H
	DB	00H
	DB	00H
	DB	030H
	DB	030H
	DB	030H
	DB	09eH
	DB	030H
	DB	030H
	DB	030H
	DB	0ffH
	DB	028H
	DB	02cH
	DB	028H
	DB	0ffH
	DB	030H
	DB	030H
	DB	030H
	DB	09eH
	DB	00H
	DB	00H
	DB	00H
	DB	00H
	DB	030H
	DB	030H
	DB	030H
	DB	09eH
	DB	028H
	DB	02cH
	DB	028H
	DB	0ffH
	DB	030H
	DB	030H
	DB	030H
	DB	0ffH
	DB	030H
	DB	030H
	DB	030H
	DB	0ffH
	DB	028H
	DB	02cH
	DB	028H
	DB	0ffH
	DB	030H
	DB	02cH
	DB	030H
	DB	061H
	DB	00H
	DB	00H
	DB	00H
	DB	00H
	DB	028H
	DB	02cH
	DB	028H
	DB	0ffH
	DB	030H
	DB	030H
	DB	030H
	DB	09eH
	DB	00H
	DB	00H
	DB	00H
	DB	00H
	DB	00H
	DB	00H
	DB	00H
	DB	00H
	DB	00H
	DB	00H
	DB	00H
	DB	00H
	DB	00H
	DB	00H
	DB	00H
	DB	00H
	DB	00H
	DB	00H
	DB	00H
	DB	00H
	DB	00H
	DB	00H
	DB	00H
	DB	00H
	DB	00H
	DB	00H
	DB	00H
	DB	00H
	DB	00H
	DB	00H
	DB	00H
	DB	00H
	DB	00H
	DB	00H
	DB	00H
	DB	00H
	DB	00H
	DB	00H
	DB	00H
	DB	00H
	DB	00H
	DB	00H
	DB	00H
	DB	00H
	DB	00H
	DB	00H
	DB	00H
	DB	00H
	DB	00H
	DB	00H
	DB	00H
	DB	00H
	DB	00H
	DB	00H
	DB	00H
	DB	00H
	DB	00H
	DB	00H
	DB	00H
	DB	00H
	DB	00H
	DB	00H
	DB	00H
	DB	00H
	DB	00H
	DB	00H
	DB	00H
	DB	00H
	DB	00H
	DB	00H
	DB	00H
	DB	00H
	DB	00H
	DB	00H
	DB	00H
	DB	00H
	DB	00H
	DB	00H
	DB	00H
	DB	00H
	DB	00H
	DB	00H
	DB	00H
	DB	00H
	DB	00H
	DB	00H
	DB	00H
	DB	00H
	DB	00H
	DB	00H
	DB	00H
	DB	00H
	DB	00H
	DB	00H
	DB	00H
	DB	00H
	DB	00H
	DB	00H
	DB	00H
	DB	00H
	DB	00H
	DB	00H
	DB	00H
	DB	00H
	DB	00H
	DB	00H
	DB	00H
	DB	00H
	DB	00H
	DB	00H
	DB	00H
	DB	00H
	DB	00H
	DB	00H
	DB	00H
	DB	00H
	DB	00H
	DB	00H
	DB	00H
	DB	00H
	DB	00H
	DB	00H
	DB	00H
	DB	00H
	DB	00H
	DB	00H
	DB	00H
	DB	00H
	DB	00H
	DB	00H
	DB	00H
	DB	00H
	DB	00H
	DB	00H
	DB	00H
	DB	00H
	DB	00H
	DB	00H
	DB	00H
	DB	00H
	DB	00H
	DB	00H
	DB	00H
	DB	00H
	DB	00H
	DB	00H
	DB	00H
	DB	00H
	DB	00H
	DB	00H
	DB	00H
	DB	00H
	DB	00H
	DB	00H
	DB	00H
	DB	00H
	DB	00H
	DB	00H
	DB	00H
	DB	00H
	DB	00H
	DB	00H
	DB	00H
	DB	00H
	DB	00H
	DB	00H
	DB	00H
	DB	00H
	DB	00H
	DB	00H
	DB	00H
	DB	00H
	DB	00H
	DB	00H
	DB	00H
	DB	00H
	DB	00H
	DB	00H
	DB	00H
	DB	00H
	DB	00H
	DB	00H
	DB	00H
	DB	00H
	DB	00H
	DB	00H
	DB	00H
	DB	00H
	DB	00H
	DB	00H
	DB	00H
	DB	00H
	DB	00H
	DB	00H
	DB	00H
	DB	00H
	DB	00H
	DB	00H
	DB	00H
	DB	00H
	DB	00H
	DB	00H
	DB	00H
	DB	00H
	DB	00H
	DB	00H
	DB	00H
	DB	00H
	DB	00H
	DB	00H
	DB	00H
	DB	00H
	DB	00H
	DB	00H
	DB	00H
	DB	00H
	DB	00H
	DB	00H
	DB	00H
	DB	00H
	DB	00H
	DB	00H
	DB	00H
	DB	00H
	DB	00H
	DB	00H
	DB	00H
	DB	00H
	DB	00H
	DB	00H
	DB	00H
	DB	00H
	DB	00H
	DB	00H
	DB	00H
	DB	00H
	DB	00H
	DB	00H
	DB	00H
	DB	00H
	DB	00H
	DB	00H
	DB	00H
	DB	00H
	DB	00H
	DB	00H
	DB	00H
	DB	00H
	DB	00H
	DB	00H
	DB	00H
	DB	00H
	DB	00H
	DB	00H
	DB	00H
	DB	00H
	DB	00H
	DB	00H
	DB	00H
	DB	00H
	DB	00H
	DB	00H
	DB	00H
	DB	00H
	DB	00H
	DB	00H
	DB	00H
	DB	00H
	DB	00H
	DB	00H
	DB	00H
	DB	00H
	DB	00H
	DB	00H
	DB	00H
	DB	00H
	DB	00H
	DB	00H
	DB	00H
	DB	00H
	DB	00H
	DB	00H
	DB	00H
	DB	00H
	DB	00H
	DB	00H
	DB	00H
	DB	00H
	DB	00H
	DB	00H
	DB	00H
	DB	00H
	DB	00H
	DB	00H
	DB	00H
	DB	00H
	DB	00H
	DB	00H
	DB	00H
	DB	00H
	DB	00H
	DB	00H
	DB	00H
	DB	00H
	DB	00H
	DB	00H
	DB	00H
	DB	00H
	DB	00H
	DB	00H
	DB	00H
	DB	00H
	DB	00H
	DB	00H
	DB	00H
	DB	00H
	DB	00H
	DB	00H
	DB	00H
	DB	00H
	DB	00H
	DB	00H
	DB	00H
	DB	00H
	DB	00H
	DB	00H
	DB	00H
	DB	00H
	DB	00H
	DB	00H
	DB	00H
	DB	00H
	DB	00H
	DB	00H
	DB	00H
	DB	00H
	DB	00H
	DB	00H
	DB	00H
	DB	00H
	DB	00H
	DB	00H
	DB	00H
	DB	00H
	DB	00H
	DB	00H
	DB	00H
	DB	00H
	DB	00H
	DB	00H
	DB	00H
	DB	00H
	DB	00H
	DB	00H
	DB	00H
	DB	00H
	DB	00H
	DB	00H
	DB	00H
	DB	00H
	DB	00H
	DB	00H
	DB	00H
	DB	00H
	DB	00H
	DB	00H
	DB	00H
	DB	00H
	DB	00H
	DB	00H
	DB	00H
	DB	00H
	DB	00H
	DB	00H
	DB	00H
	DB	00H
	DB	00H
	DB	00H
	DB	00H
	DB	00H
	DB	00H
	DB	00H
	DB	00H
	DB	00H
	DB	00H
	DB	00H
	DB	00H
	DB	00H
	DB	00H
	DB	00H
	DB	00H
	DB	00H
	DB	00H
	DB	00H
	DB	00H
	DB	00H
	DB	00H
	DB	00H
	DB	00H
	DB	00H
	DB	00H
	DB	00H
	DB	00H
	DB	00H
	DB	00H
	DB	00H
	DB	00H
	DB	00H
	DB	00H
	DB	00H
	DB	00H
	DB	00H
	DB	00H
	DB	00H
	DB	00H
	DB	00H
	DB	00H
	DB	00H
	DB	00H
	DB	00H
	DB	00H
	DB	00H
	DB	00H
	DB	00H
	DB	00H
	DB	00H
	DB	00H
	DB	00H
	DB	00H
	DB	00H
	DB	00H
	DB	00H
	DB	00H
	DB	00H
	DB	00H
	DB	00H
	DB	00H
	DB	00H
	DB	00H
	DB	00H
	DB	00H
	DB	00H
	DB	00H
	DB	00H
	DB	00H
	DB	00H
	DB	00H
	DB	00H
	DB	00H
	DB	00H
	DB	00H
	DB	00H
	DB	00H
	DB	00H
	DB	00H
	DB	00H
	DB	00H
	DB	00H
	DB	00H
	DB	00H
	DB	00H
	DB	00H
	DB	00H
	DB	00H
	DB	00H
	DB	00H
	DB	00H
	DB	00H
	DB	00H
	DB	00H
	DB	00H
	DB	00H
	DB	00H
	DB	00H
	DB	00H
	DB	00H
	DB	00H
	DB	00H
	DB	00H
	DB	00H
	DB	00H
	DB	00H
	DB	00H
	DB	00H
	DB	00H
	DB	00H
	DB	00H
	DB	00H
	DB	00H
	DB	00H
	DB	00H
	DB	00H
	DB	00H
	DB	00H
	DB	00H
	DB	00H
	DB	00H
	DB	00H
	DB	00H
	DB	00H
	DB	00H
	DB	00H
	DB	00H
	DB	00H
	DB	00H
	DB	00H
	DB	00H
	DB	00H
	DB	00H
	DB	00H
	DB	00H
	DB	00H
	DB	00H
	DB	00H
	DB	00H
	DB	00H
	DB	00H
	DB	00H
	DB	00H
	DB	00H
	DB	00H
	DB	00H
	DB	00H
	DB	00H
	DB	00H
	DB	00H
	DB	00H
	DB	00H
	DB	00H
	DB	00H
	DB	00H
	DB	00H
	DB	00H
	DB	00H
	DB	00H
	DB	00H
	DB	00H
	DB	00H
	DB	00H
	DB	00H
	DB	00H
	DB	00H
	DB	00H
	DB	00H
	DB	00H
	DB	00H
	DB	00H
	DB	00H
	DB	00H
	DB	00H
	DB	00H
	DB	00H
	DB	00H
	DB	00H
	DB	00H
	DB	00H
	DB	00H
	DB	00H
	DB	00H
	DB	00H
	DB	00H
	DB	00H
	DB	00H
	DB	00H
	DB	00H
	DB	00H
	DB	00H
	DB	00H
	DB	00H
	DB	00H
	DB	00H
	DB	00H
	DB	00H
	DB	00H
	DB	00H
	DB	00H
	DB	00H
	DB	00H
	DB	00H
	DB	00H
	DB	00H
	DB	00H
	DB	00H
	DB	00H
	DB	00H
	DB	00H
	DB	00H
	DB	00H
	DB	00H
	DB	00H
	DB	00H
	DB	00H
	DB	00H
	DB	00H
	DB	00H
	DB	00H
	DB	00H
	DB	00H
	DB	00H
	DB	00H
	DB	00H
	DB	00H
	DB	00H
	DB	00H
	DB	00H
	DB	00H
	DB	00H
	DB	00H
	DB	00H
	DB	00H
	DB	00H
	DB	00H
	DB	00H
	DB	00H
	DB	00H
	DB	00H
	DB	00H
	DB	00H
	DB	00H
	DB	00H
	DB	00H
	DB	00H
	DB	00H
	DB	00H
	DB	00H
	DB	00H
	DB	00H
	DB	00H
	DB	00H
	DB	00H
	DB	00H
	DB	00H
	DB	00H
	DB	00H
	DB	00H
	DB	00H
	DB	00H
	DB	00H
	DB	00H
	DB	00H
	DB	00H
	DB	00H
	DB	00H
	DB	00H
	DB	00H
	DB	00H
	DB	00H
	DB	00H
	DB	00H
	DB	00H
	DB	00H
	DB	00H
	DB	00H
	DB	00H
	DB	00H
	DB	00H
	DB	00H
	DB	00H
	DB	00H
	DB	00H
	DB	00H
	DB	00H
	DB	00H
	DB	00H
	DB	00H
	DB	00H
	DB	00H
	DB	00H
	DB	00H
	DB	00H
	DB	00H
	DB	00H
	DB	00H
	DB	00H
	DB	00H
	DB	00H
	DB	00H
	DB	00H
	DB	00H
	DB	00H
	DB	00H
	DB	00H
	DB	00H
	DB	00H
	DB	00H
	DB	00H
	DB	00H
	DB	00H
	DB	00H
	DB	00H
	DB	00H
	DB	00H
	DB	00H
	DB	00H
	DB	00H
	DB	00H
	DB	00H
	DB	00H
	DB	00H
	DB	00H
	DB	00H
	DB	00H
	DB	00H
	DB	00H
	DB	00H
	DB	00H
	DB	00H
	DB	00H
	DB	00H
	DB	00H
	DB	00H
	DB	00H
	DB	00H
	DB	00H
	DB	00H
	DB	00H
	DB	00H
	DB	00H
	DB	00H
	DB	00H
	DB	00H
	DB	00H
	DB	00H
	DB	00H
	DB	00H
	DB	00H
	DB	00H
	DB	00H
	DB	00H
	DB	00H
	DB	00H
	DB	00H
	DB	00H
	DB	00H
	DB	00H
	DB	00H
	DB	00H
	DB	00H
	DB	00H
	DB	00H
	DB	00H
	DB	00H
	DB	00H
	DB	00H
	DB	00H
	DB	00H
	DB	00H
	DB	00H
	DB	00H
	DB	00H
	DB	00H
	DB	00H
	DB	00H
	DB	00H
	DB	00H
	DB	00H
	DB	00H
	DB	00H
	DB	00H
	DB	00H
	DB	00H
	DB	00H
	DB	00H
	DB	00H
	DB	00H
	DB	00H
	DB	00H
	DB	00H
	DB	00H
	DB	00H
	DB	00H
	DB	00H
	DB	00H
	DB	00H
	DB	00H
	DB	00H
	DB	00H
	DB	00H
	DB	00H
	DB	00H
	DB	00H
	DB	00H
	DB	00H
	DB	00H
	DB	00H
	DB	00H
	DB	00H
	DB	00H
	DB	00H
	DB	00H
	DB	00H
	DB	00H
	DB	00H
	DB	00H
	DB	00H
	DB	00H
	DB	00H
	DB	00H
	DB	00H
	DB	00H
	DB	00H
	DB	00H
	DB	00H
	DB	00H
	DB	00H
	DB	00H
	DB	00H
	DB	00H
	DB	00H
	DB	00H
	DB	00H
	DB	00H
	DB	00H
	DB	00H
	DB	00H
	DB	00H
	DB	00H
	DB	00H
	DB	00H
	DB	00H
	DB	00H
	DB	00H
	DB	00H
	DB	00H
	DB	00H
	DB	00H
	DB	00H
	DB	00H
	DB	00H
	DB	00H
	DB	00H
	DB	00H
	DB	00H
	DB	00H
	DB	00H
	DB	00H
	DB	00H
	DB	00H
	DB	00H
	DB	00H
	DB	00H
	DB	00H
	DB	00H
	DB	00H
	DB	00H
	DB	00H
	DB	00H
	DB	00H
	DB	00H
	DB	00H
	DB	00H
	DB	00H
	DB	00H
	DB	00H
	DB	00H
	DB	00H
	DB	00H
	DB	00H
	DB	00H
	DB	00H
	DB	00H
	DB	00H
	DB	00H
	DB	00H
	DB	00H
	DB	00H
	DB	00H
	DB	00H
	DB	00H
	DB	00H
	DB	00H
	DB	00H
	DB	00H
	DB	00H
	DB	00H
	DB	00H
	DB	00H
	DB	00H
	DB	00H
	DB	00H
	DB	00H
	DB	00H
	DB	00H
	DB	00H
	DB	00H
	DB	00H
	DB	00H
	DB	00H
	DB	00H
	DB	00H
	DB	00H
	DB	00H
	DB	00H
	DB	00H
	DB	00H
	DB	00H
	DB	00H
	DB	00H
	DB	00H
	DB	00H
	DB	00H
	DB	00H
	DB	00H
	DB	00H
	DB	00H
	DB	00H
	DB	00H
	DB	00H
	DB	00H
	DB	00H
	DB	00H
	DB	00H
	DB	00H
	DB	00H
	DB	00H
	DB	00H
	DB	00H
	DB	00H
	DB	00H
	DB	00H
	DB	00H
	DB	00H
	DB	00H
	DB	00H
	DB	00H
	DB	00H
	DB	00H
	DB	00H
	DB	00H
	DB	00H
	DB	00H
	DB	00H
	DB	00H
	DB	00H
	DB	00H
	DB	00H
	DB	00H
	DB	00H
	DB	00H
	DB	00H
	DB	00H
	DB	00H
	DB	00H
	DB	00H
	DB	00H
	DB	00H
	DB	00H
	DB	00H
	DB	00H
	DB	00H
	DB	00H
	DB	00H
	DB	00H
	DB	00H
	DB	00H
	DB	00H
	DB	00H
	DB	00H
	DB	00H
	DB	00H
	DB	00H
	DB	00H
	DB	00H
	DB	00H
	DB	00H
	DB	00H
	DB	00H
	DB	00H
	DB	00H
	DB	00H
	DB	00H
	DB	00H
	DB	00H
	DB	00H
	DB	00H
	DB	00H
	DB	00H
	DB	00H
	DB	00H
	DB	00H
	DB	00H
	DB	00H
	DB	00H
	DB	00H
	DB	00H
	DB	00H
	DB	00H
	DB	00H
	DB	00H
	DB	00H
	DB	00H
	DB	00H
	DB	00H
	DB	00H
	DB	00H
	DB	00H
	DB	00H
	DB	00H
	DB	00H
	DB	00H
	DB	00H
	DB	00H
	DB	00H
	DB	00H
	DB	00H
	DB	00H
	DB	00H
	DB	00H
	DB	00H
	DB	00H
	DB	00H
	DB	00H
	DB	00H
	DB	00H
	DB	00H
	DB	00H
	DB	00H
	DB	00H
	DB	00H
	DB	00H
	DB	00H
	DB	00H
	DB	00H
	DB	00H
	DB	00H
	DB	00H
	DB	00H
	DB	00H
	DB	00H
	DB	00H
	DB	00H
	DB	00H
	DB	00H
	DB	00H
	DB	00H
	DB	00H
	DB	00H
	DB	00H
	DB	00H
	DB	00H
	DB	00H
	DB	00H
	DB	00H
	DB	00H
	DB	00H
	DB	00H
	DB	00H
	DB	00H
	DB	00H
	DB	00H
	DB	00H
	DB	00H
	DB	00H
	DB	00H
	DB	00H
	DB	00H
	DB	00H
	DB	00H
	DB	00H
	DB	00H
	DB	00H
	DB	00H
	DB	00H
	DB	00H
	DB	00H
	DB	00H
	DB	00H
	DB	00H
	DB	00H
	DB	00H
	DB	00H
	DB	00H
	DB	00H
	DB	00H
	DB	00H
	DB	00H
	DB	00H
	DB	00H
	DB	00H
	DB	00H
	DB	00H
	DB	00H
	DB	00H
	DB	00H
	DB	00H
	DB	00H
	DB	00H
	DB	00H
	DB	00H
	DB	00H
	DB	00H
	DB	00H
	DB	00H
	DB	00H
	DB	00H
	DB	00H
	DB	00H
	DB	00H
	DB	00H
	DB	00H
	DB	00H
	DB	00H
	DB	00H
	DB	00H
	DB	00H
	DB	00H
	DB	00H
	DB	00H
	DB	00H
	DB	00H
	DB	00H
	DB	00H
	DB	00H
	DB	00H
	DB	00H
	DB	00H
	DB	00H
	DB	00H
	DB	00H
	DB	00H
	DB	00H
	DB	00H
	DB	00H
	DB	00H
	DB	00H
	DB	00H
	DB	00H
	DB	00H
	DB	00H
	DB	00H
	DB	00H
	DB	00H
	DB	00H
	DB	00H
	DB	00H
	DB	00H
	DB	00H
	DB	00H
	DB	00H
	DB	00H
	DB	00H
	DB	00H
	DB	00H
	DB	00H
	DB	00H
	DB	00H
	DB	00H
	DB	00H
	DB	00H
	DB	00H
	DB	00H
	DB	00H
	DB	00H
	DB	00H
	DB	00H
	DB	00H
	DB	00H
	DB	00H
	DB	00H
	DB	00H
	DB	00H
	DB	00H
	DB	00H
	DB	00H
	DB	00H
	DB	00H
	DB	00H
	DB	00H
	DB	00H
	DB	00H
	DB	00H
	DB	00H
	DB	00H
	DB	00H
	DB	00H
	DB	00H
	DB	00H
	DB	00H
	DB	00H
	DB	00H
	DB	00H
	DB	00H
	DB	00H
	DB	00H
	DB	00H
	DB	00H
	DB	00H
	DB	00H
	DB	00H
	DB	00H
	DB	00H
	DB	00H
	DB	00H
	DB	00H
	DB	00H
	DB	00H
	DB	00H
	DB	00H
	DB	00H
	DB	00H
	DB	00H
	DB	00H
	DB	00H
	DB	00H
	DB	00H
	DB	00H
	DB	00H
	DB	00H
	DB	00H
	DB	00H
	DB	00H
	DB	00H
	DB	00H
	DB	00H
	DB	00H
	DB	00H
	DB	00H
	DB	00H
	DB	00H
	DB	00H
	DB	00H
	DB	00H
	DB	00H
	DB	00H
	DB	00H
	DB	00H
	DB	00H
	DB	00H
	DB	00H
	DB	00H
	DB	00H
	DB	00H
	DB	00H
	DB	00H
	DB	00H
	DB	00H
	DB	00H
	DB	00H
	DB	00H
	DB	00H
	DB	00H
	DB	00H
	DB	00H
	DB	00H
	DB	00H
	DB	00H
	DB	00H
	DB	00H
	DB	00H
	DB	00H
	DB	00H
	DB	00H
	DB	00H
	DB	00H
	DB	00H
	DB	00H
	DB	00H
	DB	00H
	DB	00H
	DB	00H
	DB	00H
	DB	00H
	DB	00H
	DB	00H
	DB	00H
	DB	00H
	DB	00H
	DB	00H
	DB	00H
	DB	00H
	DB	00H
	DB	00H
	DB	00H
	DB	00H
	DB	00H
	DB	00H
	DB	00H
	DB	00H
	DB	00H
	DB	00H
	DB	00H
	DB	00H
	DB	00H
	DB	00H
	DB	00H
	DB	00H
	DB	00H
	DB	00H
	DB	00H
	DB	00H
	DB	00H
	DB	00H
	DB	00H
	DB	00H
	DB	00H
	DB	00H
	DB	00H
	DB	00H
	DB	00H
	DB	00H
	DB	00H
	DB	00H
	DB	00H
	DB	00H
	DB	00H
	DB	00H
	DB	00H
	DB	00H
	DB	00H
	DB	00H
	DB	00H
	DB	00H
	DB	00H
	DB	00H
	DB	00H
	DB	00H
	DB	00H
	DB	00H
	DB	00H
	DB	00H
	DB	00H
	DB	00H
	DB	00H
	DB	00H
	DB	00H
	DB	00H
	DB	00H
	DB	00H
	DB	00H
	DB	00H
	DB	00H
	DB	00H
	DB	00H
	DB	00H
	DB	00H
	DB	00H
	DB	00H
	DB	00H
	DB	00H
	DB	00H
	DB	00H
	DB	00H
	DB	00H
	DB	00H
	DB	00H
	DB	00H
	DB	00H
	DB	00H
	DB	00H
	DB	00H
	DB	00H
	DB	00H
	DB	00H
	DB	00H
	DB	00H
	DB	00H
	DB	00H
	DB	00H
	DB	00H
	DB	00H
	DB	00H
	DB	00H
	DB	00H
	DB	00H
	DB	00H
	DB	00H
	DB	00H
	DB	00H
	DB	00H
	DB	00H
	DB	00H
	DB	00H
	DB	00H
	DB	00H
	DB	00H
	DB	00H
	DB	00H
	DB	00H
	DB	00H
	DB	00H
	DB	00H
	DB	00H
	DB	00H
	DB	00H
	DB	00H
	DB	00H
	DB	00H
	DB	00H
	DB	00H
	DB	00H
	DB	00H
	DB	00H
	DB	00H
	DB	00H
	DB	00H
	DB	00H
	DB	00H
	DB	00H
	DB	00H
	DB	00H
	DB	00H
	DB	00H
	DB	00H
	DB	00H
	DB	00H
	DB	00H
	DB	00H
	DB	00H
	DB	00H
	DB	00H
	DB	00H
	DB	00H
	DB	00H
	DB	00H
	DB	00H
	DB	00H
	DB	00H
	DB	00H
	DB	00H
	DB	00H
	DB	00H
	DB	00H
	DB	00H
	DB	00H
	DB	00H
	DB	00H
	DB	00H
	DB	00H
	DB	00H
	DB	00H
	DB	00H
	DB	00H
	DB	00H
	DB	00H
	DB	00H
	DB	00H
	DB	00H
	DB	00H
	DB	00H
	DB	00H
	DB	00H
	DB	00H
	DB	00H
	DB	00H
	DB	00H
	DB	00H
	DB	00H
	DB	00H
	DB	00H
	DB	00H
	DB	00H
	DB	00H
	DB	00H
	DB	00H
	DB	00H
	DB	00H
	DB	00H
	DB	00H
	DB	00H
	DB	00H
	DB	00H
	DB	00H
	DB	00H
	DB	00H
	DB	00H
	DB	00H
	DB	00H
	DB	00H
	DB	00H
	DB	00H
	DB	00H
	DB	00H
	DB	00H
	DB	00H
	DB	00H
	DB	00H
	DB	00H
	DB	00H
	DB	00H
	DB	00H
	DB	00H
	DB	00H
	DB	00H
	DB	00H
	DB	00H
	DB	00H
	DB	00H
	DB	00H
	DB	00H
	DB	00H
	DB	00H
	DB	00H
	DB	00H
	DB	00H
	DB	00H
	DB	00H
	DB	00H
	DB	00H
	DB	00H
	DB	00H
	DB	00H
	DB	00H
	DB	00H
	DB	00H
	DB	00H
	DB	00H
	DB	00H
	DB	00H
	DB	00H
	DB	00H
	DB	00H
	DB	00H
	DB	00H
	DB	00H
	DB	00H
	DB	00H
	DB	00H
	DB	00H
	DB	00H
	DB	00H
	DB	00H
	DB	00H
	DB	00H
	DB	00H
	DB	00H
	DB	00H
	DB	00H
	DB	00H
	DB	00H
	DB	00H
	DB	00H
	DB	00H
	DB	00H
	DB	00H
	DB	00H
	DB	00H
	DB	00H
	DB	00H
	DB	00H
	DB	00H
	DB	00H
	DB	00H
	DB	00H
	DB	00H
	DB	00H
	DB	00H
	DB	00H
	DB	00H
	DB	00H
	DB	00H
	DB	00H
	DB	00H
	DB	00H
	DB	00H
	DB	00H
	DB	00H
	DB	00H
	DB	00H
	DB	00H
	DB	00H
	DB	00H
	DB	00H
	DB	00H
	DB	00H
	DB	00H
	DB	00H
	DB	00H
	DB	00H
	DB	00H
	DB	00H
	DB	00H
	DB	00H
	DB	00H
	DB	00H
	DB	00H
	DB	00H
	DB	00H
	DB	00H
	DB	00H
	DB	00H
	DB	00H
	DB	00H
	DB	00H
	DB	00H
	DB	00H
	DB	00H
	DB	00H
	DB	00H
	DB	00H
	DB	00H
	DB	00H
	DB	00H
	DB	00H
	DB	00H
	DB	00H
	DB	00H
	DB	00H
	DB	00H
	DB	00H
	DB	00H
	DB	00H
	DB	00H
	DB	00H
	DB	00H
	DB	00H
	DB	00H
	DB	00H
	DB	00H
	DB	00H
	DB	00H
	DB	00H
	DB	00H
CONST	ENDS
END
