; Listing generated by Microsoft (R) Optimizing Compiler Version 19.37.32822.0 

	TITLE	C:\TouchGFXProjects\KraftHeinz_DS3600\TouchGFX\build\Debug\obj\image_battery-med.obj
	.686P
	.XMM
	include listing.inc
	.model	flat

INCLUDELIB MSVCRTD
INCLUDELIB OLDNAMES

PUBLIC	?image_battery_med@@3QBEB			; image_battery_med
msvcjmc	SEGMENT
__38966392_Config@hpp DB 01H
__B50EAE28_image_battery-med@cpp DB 01H
msvcjmc	ENDS
CONST	SEGMENT
?image_battery_med@@3QBEB DB 00H			; image_battery_med
	DB	00H
	DB	00H
	DB	00H
	DB	00H
	DB	00H
	DB	00H
	DB	00H
	DB	00H
	DB	00H
	DB	00H
	DB	00H
	DB	00H
	DB	00H
	DB	00H
	DB	00H
	DB	00H
	DB	00H
	DB	00H
	DB	00H
	DB	00H
	DB	00H
	DB	00H
	DB	00H
	DB	00H
	DB	00H
	DB	00H
	DB	00H
	DB	00H
	DB	00H
	DB	00H
	DB	00H
	DB	00H
	DB	00H
	DB	00H
	DB	00H
	DB	00H
	DB	00H
	DB	00H
	DB	00H
	DB	00H
	DB	00H
	DB	00H
	DB	00H
	DB	00H
	DB	00H
	DB	00H
	DB	00H
	DB	00H
	DB	00H
	DB	00H
	DB	00H
	DB	00H
	DB	00H
	DB	00H
	DB	00H
	DB	00H
	DB	00H
	DB	00H
	DB	00H
	DB	00H
	DB	00H
	DB	00H
	DB	00H
	DB	00H
	DB	00H
	DB	00H
	DB	00H
	DB	00H
	DB	00H
	DB	00H
	DB	00H
	DB	00H
	DB	00H
	DB	00H
	DB	00H
	DB	00H
	DB	00H
	DB	00H
	DB	00H
	DB	00H
	DB	00H
	DB	00H
	DB	00H
	DB	00H
	DB	00H
	DB	00H
	DB	00H
	DB	00H
	DB	00H
	DB	00H
	DB	00H
	DB	00H
	DB	00H
	DB	00H
	DB	00H
	DB	00H
	DB	00H
	DB	00H
	DB	00H
	DB	00H
	DB	00H
	DB	00H
	DB	00H
	DB	00H
	DB	00H
	DB	00H
	DB	00H
	DB	00H
	DB	00H
	DB	00H
	DB	00H
	DB	00H
	DB	00H
	DB	00H
	DB	00H
	DB	00H
	DB	00H
	DB	00H
	DB	00H
	DB	00H
	DB	00H
	DB	00H
	DB	00H
	DB	00H
	DB	00H
	DB	00H
	DB	00H
	DB	00H
	DB	00H
	DB	00H
	DB	00H
	DB	00H
	DB	00H
	DB	00H
	DB	00H
	DB	00H
	DB	00H
	DB	00H
	DB	00H
	DB	00H
	DB	00H
	DB	00H
	DB	00H
	DB	00H
	DB	00H
	DB	00H
	DB	00H
	DB	00H
	DB	00H
	DB	00H
	DB	00H
	DB	00H
	DB	00H
	DB	00H
	DB	00H
	DB	00H
	DB	00H
	DB	00H
	DB	00H
	DB	00H
	DB	00H
	DB	00H
	DB	00H
	DB	00H
	DB	00H
	DB	00H
	DB	00H
	DB	00H
	DB	00H
	DB	00H
	DB	00H
	DB	00H
	DB	00H
	DB	00H
	DB	00H
	DB	00H
	DB	00H
	DB	00H
	DB	00H
	DB	00H
	DB	00H
	DB	00H
	DB	00H
	DB	00H
	DB	00H
	DB	00H
	DB	00H
	DB	00H
	DB	00H
	DB	00H
	DB	00H
	DB	00H
	DB	00H
	DB	00H
	DB	00H
	DB	00H
	DB	00H
	DB	00H
	DB	00H
	DB	00H
	DB	00H
	DB	00H
	DB	00H
	DB	00H
	DB	00H
	DB	00H
	DB	00H
	DB	00H
	DB	00H
	DB	00H
	DB	00H
	DB	00H
	DB	00H
	DB	00H
	DB	00H
	DB	00H
	DB	00H
	DB	00H
	DB	00H
	DB	00H
	DB	00H
	DB	00H
	DB	00H
	DB	00H
	DB	00H
	DB	00H
	DB	00H
	DB	00H
	DB	00H
	DB	00H
	DB	00H
	DB	00H
	DB	00H
	DB	00H
	DB	00H
	DB	00H
	DB	00H
	DB	00H
	DB	00H
	DB	00H
	DB	00H
	DB	00H
	DB	00H
	DB	00H
	DB	00H
	DB	00H
	DB	00H
	DB	00H
	DB	00H
	DB	00H
	DB	00H
	DB	00H
	DB	00H
	DB	00H
	DB	00H
	DB	00H
	DB	00H
	DB	00H
	DB	00H
	DB	00H
	DB	00H
	DB	00H
	DB	00H
	DB	00H
	DB	00H
	DB	00H
	DB	00H
	DB	00H
	DB	00H
	DB	00H
	DB	00H
	DB	00H
	DB	00H
	DB	00H
	DB	00H
	DB	00H
	DB	00H
	DB	00H
	DB	00H
	DB	00H
	DB	00H
	DB	00H
	DB	00H
	DB	00H
	DB	00H
	DB	00H
	DB	00H
	DB	00H
	DB	00H
	DB	00H
	DB	00H
	DB	00H
	DB	00H
	DB	00H
	DB	00H
	DB	00H
	DB	00H
	DB	00H
	DB	00H
	DB	00H
	DB	00H
	DB	00H
	DB	00H
	DB	00H
	DB	00H
	DB	00H
	DB	00H
	DB	0c0H
	DB	0bcH
	DB	0c0H
	DB	0beH
	DB	0c0H
	DB	0bcH
	DB	0c0H
	DB	0ffH
	DB	0b8H
	DB	0bcH
	DB	0b8H
	DB	0ffH
	DB	0c0H
	DB	0bcH
	DB	0c0H
	DB	0ffH
	DB	0c0H
	DB	0bcH
	DB	0c0H
	DB	0ffH
	DB	0b8H
	DB	0bcH
	DB	0b8H
	DB	0beH
	DB	00H
	DB	00H
	DB	00H
	DB	00H
	DB	00H
	DB	00H
	DB	00H
	DB	00H
	DB	00H
	DB	00H
	DB	00H
	DB	00H
	DB	00H
	DB	00H
	DB	00H
	DB	00H
	DB	00H
	DB	00H
	DB	00H
	DB	00H
	DB	00H
	DB	00H
	DB	00H
	DB	00H
	DB	00H
	DB	00H
	DB	00H
	DB	00H
	DB	00H
	DB	00H
	DB	00H
	DB	00H
	DB	00H
	DB	00H
	DB	00H
	DB	00H
	DB	00H
	DB	00H
	DB	00H
	DB	00H
	DB	00H
	DB	00H
	DB	00H
	DB	00H
	DB	00H
	DB	00H
	DB	00H
	DB	00H
	DB	00H
	DB	00H
	DB	00H
	DB	00H
	DB	00H
	DB	00H
	DB	00H
	DB	00H
	DB	00H
	DB	00H
	DB	00H
	DB	00H
	DB	00H
	DB	00H
	DB	00H
	DB	00H
	DB	00H
	DB	00H
	DB	00H
	DB	00H
	DB	00H
	DB	00H
	DB	00H
	DB	00H
	DB	00H
	DB	00H
	DB	00H
	DB	00H
	DB	00H
	DB	00H
	DB	00H
	DB	00H
	DB	00H
	DB	00H
	DB	00H
	DB	00H
	DB	00H
	DB	00H
	DB	00H
	DB	00H
	DB	00H
	DB	00H
	DB	00H
	DB	00H
	DB	00H
	DB	00H
	DB	00H
	DB	00H
	DB	00H
	DB	00H
	DB	00H
	DB	00H
	DB	00H
	DB	00H
	DB	00H
	DB	00H
	DB	0c0H
	DB	0c0H
	DB	0c0H
	DB	0beH
	DB	0b8H
	DB	0bcH
	DB	0b8H
	DB	0ffH
	DB	0c0H
	DB	0bcH
	DB	0c0H
	DB	0ffH
	DB	0c0H
	DB	0bcH
	DB	0c0H
	DB	0ffH
	DB	0b8H
	DB	0bcH
	DB	0b8H
	DB	0ffH
	DB	0b8H
	DB	0bcH
	DB	0b8H
	DB	0beH
	DB	00H
	DB	00H
	DB	00H
	DB	00H
	DB	00H
	DB	00H
	DB	00H
	DB	00H
	DB	00H
	DB	00H
	DB	00H
	DB	00H
	DB	00H
	DB	00H
	DB	00H
	DB	00H
	DB	00H
	DB	00H
	DB	00H
	DB	00H
	DB	00H
	DB	00H
	DB	00H
	DB	00H
	DB	00H
	DB	00H
	DB	00H
	DB	00H
	DB	00H
	DB	00H
	DB	00H
	DB	00H
	DB	00H
	DB	00H
	DB	00H
	DB	00H
	DB	00H
	DB	00H
	DB	00H
	DB	00H
	DB	00H
	DB	00H
	DB	00H
	DB	00H
	DB	00H
	DB	00H
	DB	00H
	DB	00H
	DB	00H
	DB	00H
	DB	00H
	DB	00H
	DB	00H
	DB	00H
	DB	00H
	DB	00H
	DB	00H
	DB	00H
	DB	00H
	DB	00H
	DB	00H
	DB	00H
	DB	00H
	DB	00H
	DB	00H
	DB	00H
	DB	00H
	DB	00H
	DB	00H
	DB	00H
	DB	00H
	DB	00H
	DB	00H
	DB	00H
	DB	00H
	DB	00H
	DB	00H
	DB	00H
	DB	00H
	DB	00H
	DB	00H
	DB	00H
	DB	00H
	DB	00H
	DB	00H
	DB	00H
	DB	00H
	DB	00H
	DB	00H
	DB	00H
	DB	00H
	DB	00H
	DB	0b8H
	DB	0b8H
	DB	0b8H
	DB	020H
	DB	0b8H
	DB	0bcH
	DB	0b8H
	DB	041H
	DB	0b8H
	DB	0bcH
	DB	0b8H
	DB	041H
	DB	0c0H
	DB	0bcH
	DB	0c0H
	DB	0cfH
	DB	0c0H
	DB	0bcH
	DB	0c0H
	DB	0ffH
	DB	0b8H
	DB	0c0H
	DB	0b8H
	DB	0ffH
	DB	0c0H
	DB	0bcH
	DB	0c0H
	DB	0ffH
	DB	0c0H
	DB	0bcH
	DB	0c0H
	DB	0ffH
	DB	0c0H
	DB	0bcH
	DB	0c0H
	DB	0cfH
	DB	0b8H
	DB	0bcH
	DB	0b8H
	DB	041H
	DB	0b8H
	DB	0bcH
	DB	0b8H
	DB	041H
	DB	0b8H
	DB	0b8H
	DB	0b8H
	DB	030H
	DB	00H
	DB	00H
	DB	00H
	DB	00H
	DB	00H
	DB	00H
	DB	00H
	DB	00H
	DB	00H
	DB	00H
	DB	00H
	DB	00H
	DB	00H
	DB	00H
	DB	00H
	DB	00H
	DB	00H
	DB	00H
	DB	00H
	DB	00H
	DB	00H
	DB	00H
	DB	00H
	DB	00H
	DB	00H
	DB	00H
	DB	00H
	DB	00H
	DB	00H
	DB	00H
	DB	00H
	DB	00H
	DB	00H
	DB	00H
	DB	00H
	DB	00H
	DB	00H
	DB	00H
	DB	00H
	DB	00H
	DB	00H
	DB	00H
	DB	00H
	DB	00H
	DB	00H
	DB	00H
	DB	00H
	DB	00H
	DB	00H
	DB	00H
	DB	00H
	DB	00H
	DB	00H
	DB	00H
	DB	00H
	DB	00H
	DB	00H
	DB	00H
	DB	00H
	DB	00H
	DB	00H
	DB	00H
	DB	00H
	DB	00H
	DB	00H
	DB	00H
	DB	00H
	DB	00H
	DB	00H
	DB	00H
	DB	00H
	DB	00H
	DB	00H
	DB	00H
	DB	00H
	DB	00H
	DB	0c0H
	DB	0bcH
	DB	0c0H
	DB	082H
	DB	0c0H
	DB	0bcH
	DB	0c0H
	DB	0ffH
	DB	0c0H
	DB	0bcH
	DB	0c0H
	DB	0ffH
	DB	0b8H
	DB	0bcH
	DB	0b8H
	DB	0ffH
	DB	0c0H
	DB	0bcH
	DB	0c0H
	DB	0ffH
	DB	0c0H
	DB	0bcH
	DB	0c0H
	DB	0ffH
	DB	0b8H
	DB	0bcH
	DB	0b8H
	DB	0ffH
	DB	0b8H
	DB	0c0H
	DB	0b8H
	DB	0ffH
	DB	0c0H
	DB	0bcH
	DB	0c0H
	DB	0ffH
	DB	0c0H
	DB	0bcH
	DB	0c0H
	DB	0ffH
	DB	0c0H
	DB	0bcH
	DB	0c0H
	DB	0ffH
	DB	0c0H
	DB	0bcH
	DB	0c0H
	DB	0ffH
	DB	0c0H
	DB	0bcH
	DB	0c0H
	DB	0ffH
	DB	0c0H
	DB	0bcH
	DB	0c0H
	DB	082H
	DB	00H
	DB	00H
	DB	00H
	DB	00H
	DB	00H
	DB	00H
	DB	00H
	DB	00H
	DB	00H
	DB	00H
	DB	00H
	DB	00H
	DB	00H
	DB	00H
	DB	00H
	DB	00H
	DB	00H
	DB	00H
	DB	00H
	DB	00H
	DB	00H
	DB	00H
	DB	00H
	DB	00H
	DB	00H
	DB	00H
	DB	00H
	DB	00H
	DB	00H
	DB	00H
	DB	00H
	DB	00H
	DB	00H
	DB	00H
	DB	00H
	DB	00H
	DB	00H
	DB	00H
	DB	00H
	DB	00H
	DB	00H
	DB	00H
	DB	00H
	DB	00H
	DB	00H
	DB	00H
	DB	00H
	DB	00H
	DB	00H
	DB	00H
	DB	00H
	DB	00H
	DB	00H
	DB	00H
	DB	00H
	DB	00H
	DB	00H
	DB	00H
	DB	00H
	DB	00H
	DB	00H
	DB	00H
	DB	00H
	DB	00H
	DB	00H
	DB	00H
	DB	00H
	DB	00H
	DB	00H
	DB	00H
	DB	00H
	DB	00H
	DB	0b8H
	DB	0bcH
	DB	0b8H
	DB	0ffH
	DB	0c0H
	DB	0bcH
	DB	0c0H
	DB	0ffH
	DB	0c0H
	DB	0bcH
	DB	0c0H
	DB	0ffH
	DB	0b8H
	DB	0bcH
	DB	0b8H
	DB	0ffH
	DB	0c0H
	DB	0bcH
	DB	0c0H
	DB	0ffH
	DB	0c0H
	DB	0c0H
	DB	0c0H
	DB	0ffH
	DB	0c0H
	DB	0bcH
	DB	0c0H
	DB	0ffH
	DB	0b8H
	DB	0bcH
	DB	0b8H
	DB	0ffH
	DB	0c0H
	DB	0bcH
	DB	0c0H
	DB	0ffH
	DB	0b8H
	DB	0c0H
	DB	0b8H
	DB	0ffH
	DB	0c0H
	DB	0bcH
	DB	0c0H
	DB	0ffH
	DB	0c0H
	DB	0bcH
	DB	0c0H
	DB	0ffH
	DB	0b8H
	DB	0bcH
	DB	0b8H
	DB	0ffH
	DB	0c0H
	DB	0bcH
	DB	0c0H
	DB	0ffH
	DB	00H
	DB	00H
	DB	00H
	DB	00H
	DB	00H
	DB	00H
	DB	00H
	DB	00H
	DB	00H
	DB	00H
	DB	00H
	DB	00H
	DB	00H
	DB	00H
	DB	00H
	DB	00H
	DB	00H
	DB	00H
	DB	00H
	DB	00H
	DB	00H
	DB	00H
	DB	00H
	DB	00H
	DB	00H
	DB	00H
	DB	00H
	DB	00H
	DB	00H
	DB	00H
	DB	00H
	DB	00H
	DB	00H
	DB	00H
	DB	00H
	DB	00H
	DB	00H
	DB	00H
	DB	00H
	DB	00H
	DB	00H
	DB	00H
	DB	00H
	DB	00H
	DB	00H
	DB	00H
	DB	00H
	DB	00H
	DB	00H
	DB	00H
	DB	00H
	DB	00H
	DB	00H
	DB	00H
	DB	00H
	DB	00H
	DB	00H
	DB	00H
	DB	00H
	DB	00H
	DB	00H
	DB	00H
	DB	00H
	DB	00H
	DB	00H
	DB	00H
	DB	00H
	DB	00H
	DB	00H
	DB	00H
	DB	00H
	DB	00H
	DB	0b8H
	DB	0bcH
	DB	0b8H
	DB	0ffH
	DB	0c0H
	DB	0bcH
	DB	0c0H
	DB	0ffH
	DB	0b8H
	DB	0c0H
	DB	0b8H
	DB	0ffH
	DB	0c0H
	DB	0bcH
	DB	0c0H
	DB	0ffH
	DB	0b8H
	DB	0bcH
	DB	0b8H
	DB	0ffH
	DB	0c0H
	DB	0bcH
	DB	0c0H
	DB	0ffH
	DB	0c0H
	DB	0c0H
	DB	0c0H
	DB	0ffH
	DB	0c0H
	DB	0bcH
	DB	0c0H
	DB	0ffH
	DB	0b8H
	DB	0bcH
	DB	0b8H
	DB	0ffH
	DB	0c0H
	DB	0bcH
	DB	0c0H
	DB	0ffH
	DB	0b8H
	DB	0c0H
	DB	0b8H
	DB	0ffH
	DB	0b8H
	DB	0bcH
	DB	0b8H
	DB	0ffH
	DB	0c0H
	DB	0c0H
	DB	0c0H
	DB	0ffH
	DB	0b8H
	DB	0bcH
	DB	0b8H
	DB	0ffH
	DB	00H
	DB	00H
	DB	00H
	DB	00H
	DB	00H
	DB	00H
	DB	00H
	DB	00H
	DB	00H
	DB	00H
	DB	00H
	DB	00H
	DB	00H
	DB	00H
	DB	00H
	DB	00H
	DB	00H
	DB	00H
	DB	00H
	DB	00H
	DB	00H
	DB	00H
	DB	00H
	DB	00H
	DB	00H
	DB	00H
	DB	00H
	DB	00H
	DB	00H
	DB	00H
	DB	00H
	DB	00H
	DB	00H
	DB	00H
	DB	00H
	DB	00H
	DB	00H
	DB	00H
	DB	00H
	DB	00H
	DB	00H
	DB	00H
	DB	00H
	DB	00H
	DB	00H
	DB	00H
	DB	00H
	DB	00H
	DB	00H
	DB	00H
	DB	00H
	DB	00H
	DB	00H
	DB	00H
	DB	00H
	DB	00H
	DB	00H
	DB	00H
	DB	00H
	DB	00H
	DB	00H
	DB	00H
	DB	00H
	DB	00H
	DB	00H
	DB	00H
	DB	00H
	DB	00H
	DB	00H
	DB	00H
	DB	00H
	DB	00H
	DB	0c0H
	DB	0bcH
	DB	0c0H
	DB	0ffH
	DB	0c0H
	DB	0bcH
	DB	0c0H
	DB	0ffH
	DB	0b8H
	DB	0bcH
	DB	0b8H
	DB	0ffH
	DB	0c0H
	DB	0c0H
	DB	0c0H
	DB	0ffH
	DB	0c0H
	DB	0bcH
	DB	0c0H
	DB	0ffH
	DB	0b8H
	DB	0bcH
	DB	0b8H
	DB	0ffH
	DB	0b8H
	DB	0bcH
	DB	0b8H
	DB	0ffH
	DB	0c0H
	DB	0c0H
	DB	0c0H
	DB	0ffH
	DB	0c0H
	DB	0bcH
	DB	0c0H
	DB	0ffH
	DB	0c0H
	DB	0bcH
	DB	0c0H
	DB	0ffH
	DB	0c0H
	DB	0bcH
	DB	0c0H
	DB	0ffH
	DB	0c0H
	DB	0bcH
	DB	0c0H
	DB	0ffH
	DB	0c0H
	DB	0bcH
	DB	0c0H
	DB	0ffH
	DB	0c0H
	DB	0c0H
	DB	0c0H
	DB	0ffH
	DB	00H
	DB	00H
	DB	00H
	DB	00H
	DB	00H
	DB	00H
	DB	00H
	DB	00H
	DB	00H
	DB	00H
	DB	00H
	DB	00H
	DB	00H
	DB	00H
	DB	00H
	DB	00H
	DB	00H
	DB	00H
	DB	00H
	DB	00H
	DB	00H
	DB	00H
	DB	00H
	DB	00H
	DB	00H
	DB	00H
	DB	00H
	DB	00H
	DB	00H
	DB	00H
	DB	00H
	DB	00H
	DB	00H
	DB	00H
	DB	00H
	DB	00H
	DB	00H
	DB	00H
	DB	00H
	DB	00H
	DB	00H
	DB	00H
	DB	00H
	DB	00H
	DB	00H
	DB	00H
	DB	00H
	DB	00H
	DB	00H
	DB	00H
	DB	00H
	DB	00H
	DB	00H
	DB	00H
	DB	00H
	DB	00H
	DB	00H
	DB	00H
	DB	00H
	DB	00H
	DB	00H
	DB	00H
	DB	00H
	DB	00H
	DB	00H
	DB	00H
	DB	00H
	DB	00H
	DB	00H
	DB	00H
	DB	00H
	DB	00H
	DB	0c0H
	DB	0bcH
	DB	0c0H
	DB	0ffH
	DB	0b8H
	DB	0bcH
	DB	0b8H
	DB	0ffH
	DB	0c0H
	DB	0bcH
	DB	0c0H
	DB	0ffH
	DB	0c0H
	DB	0bcH
	DB	0c0H
	DB	0ffH
	DB	0b8H
	DB	0c0H
	DB	0b8H
	DB	0ffH
	DB	0c0H
	DB	0bcH
	DB	0c0H
	DB	0ffH
	DB	0c0H
	DB	0bcH
	DB	0c0H
	DB	0ffH
	DB	0b8H
	DB	0bcH
	DB	0b8H
	DB	0ffH
	DB	0b8H
	DB	0c0H
	DB	0b8H
	DB	0ffH
	DB	0c0H
	DB	0bcH
	DB	0c0H
	DB	0ffH
	DB	0b8H
	DB	0bcH
	DB	0b8H
	DB	0ffH
	DB	0b8H
	DB	0c0H
	DB	0b8H
	DB	0ffH
	DB	0c0H
	DB	0bcH
	DB	0c0H
	DB	0ffH
	DB	0b8H
	DB	0bcH
	DB	0b8H
	DB	0ffH
	DB	00H
	DB	00H
	DB	00H
	DB	00H
	DB	00H
	DB	00H
	DB	00H
	DB	00H
	DB	00H
	DB	00H
	DB	00H
	DB	00H
	DB	00H
	DB	00H
	DB	00H
	DB	00H
	DB	00H
	DB	00H
	DB	00H
	DB	00H
	DB	00H
	DB	00H
	DB	00H
	DB	00H
	DB	00H
	DB	00H
	DB	00H
	DB	00H
	DB	00H
	DB	00H
	DB	00H
	DB	00H
	DB	00H
	DB	00H
	DB	00H
	DB	00H
	DB	00H
	DB	00H
	DB	00H
	DB	00H
	DB	00H
	DB	00H
	DB	00H
	DB	00H
	DB	00H
	DB	00H
	DB	00H
	DB	00H
	DB	00H
	DB	00H
	DB	00H
	DB	00H
	DB	00H
	DB	00H
	DB	00H
	DB	00H
	DB	00H
	DB	00H
	DB	00H
	DB	00H
	DB	00H
	DB	00H
	DB	00H
	DB	00H
	DB	00H
	DB	00H
	DB	00H
	DB	00H
	DB	00H
	DB	00H
	DB	00H
	DB	00H
	DB	0b8H
	DB	0bcH
	DB	0b8H
	DB	0ffH
	DB	0c0H
	DB	0c0H
	DB	0c0H
	DB	0ffH
	DB	0c0H
	DB	0bcH
	DB	0c0H
	DB	0ffH
	DB	0b8H
	DB	0bcH
	DB	0b8H
	DB	0ffH
	DB	0c0H
	DB	0bcH
	DB	0c0H
	DB	0ffH
	DB	0c0H
	DB	0c0H
	DB	0c0H
	DB	0ffH
	DB	0b8H
	DB	0bcH
	DB	0b8H
	DB	0ffH
	DB	0c0H
	DB	0bcH
	DB	0c0H
	DB	0ffH
	DB	0c0H
	DB	0bcH
	DB	0c0H
	DB	0ffH
	DB	0b8H
	DB	0c0H
	DB	0b8H
	DB	0ffH
	DB	0c0H
	DB	0bcH
	DB	0c0H
	DB	0ffH
	DB	0c0H
	DB	0bcH
	DB	0c0H
	DB	0ffH
	DB	0b8H
	DB	0bcH
	DB	0b8H
	DB	0ffH
	DB	0c0H
	DB	0bcH
	DB	0c0H
	DB	0ffH
	DB	00H
	DB	00H
	DB	00H
	DB	00H
	DB	00H
	DB	00H
	DB	00H
	DB	00H
	DB	00H
	DB	00H
	DB	00H
	DB	00H
	DB	00H
	DB	00H
	DB	00H
	DB	00H
	DB	00H
	DB	00H
	DB	00H
	DB	00H
	DB	00H
	DB	00H
	DB	00H
	DB	00H
	DB	00H
	DB	00H
	DB	00H
	DB	00H
	DB	00H
	DB	00H
	DB	00H
	DB	00H
	DB	00H
	DB	00H
	DB	00H
	DB	00H
	DB	00H
	DB	00H
	DB	00H
	DB	00H
	DB	00H
	DB	00H
	DB	00H
	DB	00H
	DB	00H
	DB	00H
	DB	00H
	DB	00H
	DB	00H
	DB	00H
	DB	00H
	DB	00H
	DB	00H
	DB	00H
	DB	00H
	DB	00H
	DB	00H
	DB	00H
	DB	00H
	DB	00H
	DB	00H
	DB	00H
	DB	00H
	DB	00H
	DB	00H
	DB	00H
	DB	00H
	DB	00H
	DB	00H
	DB	00H
	DB	00H
	DB	00H
	DB	0c0H
	DB	0bcH
	DB	0c0H
	DB	0ffH
	DB	0c0H
	DB	0bcH
	DB	0c0H
	DB	0ffH
	DB	0b8H
	DB	0c0H
	DB	0b8H
	DB	0ffH
	DB	0b8H
	DB	0bcH
	DB	0b8H
	DB	0ffH
	DB	0c0H
	DB	0bcH
	DB	0c0H
	DB	0ffH
	DB	0c0H
	DB	0bcH
	DB	0c0H
	DB	0ffH
	DB	0b8H
	DB	0c0H
	DB	0b8H
	DB	0ffH
	DB	0c0H
	DB	0bcH
	DB	0c0H
	DB	0ffH
	DB	0c0H
	DB	0bcH
	DB	0c0H
	DB	0ffH
	DB	0b8H
	DB	0bcH
	DB	0b8H
	DB	0ffH
	DB	0c0H
	DB	0c0H
	DB	0c0H
	DB	0ffH
	DB	0c0H
	DB	0bcH
	DB	0c0H
	DB	0ffH
	DB	0b8H
	DB	0bcH
	DB	0b8H
	DB	0ffH
	DB	0c0H
	DB	0c0H
	DB	0c0H
	DB	0ffH
	DB	00H
	DB	00H
	DB	00H
	DB	00H
	DB	00H
	DB	00H
	DB	00H
	DB	00H
	DB	00H
	DB	00H
	DB	00H
	DB	00H
	DB	00H
	DB	00H
	DB	00H
	DB	00H
	DB	00H
	DB	00H
	DB	00H
	DB	00H
	DB	00H
	DB	00H
	DB	00H
	DB	00H
	DB	00H
	DB	00H
	DB	00H
	DB	00H
	DB	00H
	DB	00H
	DB	00H
	DB	00H
	DB	00H
	DB	00H
	DB	00H
	DB	00H
	DB	00H
	DB	00H
	DB	00H
	DB	00H
	DB	00H
	DB	00H
	DB	00H
	DB	00H
	DB	00H
	DB	00H
	DB	00H
	DB	00H
	DB	00H
	DB	00H
	DB	00H
	DB	00H
	DB	00H
	DB	00H
	DB	00H
	DB	00H
	DB	00H
	DB	00H
	DB	00H
	DB	00H
	DB	00H
	DB	00H
	DB	00H
	DB	00H
	DB	00H
	DB	00H
	DB	00H
	DB	00H
	DB	00H
	DB	00H
	DB	00H
	DB	00H
	DB	0c0H
	DB	0bcH
	DB	0c0H
	DB	0ffH
	DB	0b8H
	DB	0bcH
	DB	0b8H
	DB	0ffH
	DB	0c0H
	DB	0c0H
	DB	0c0H
	DB	0ffH
	DB	0c0H
	DB	0bcH
	DB	0c0H
	DB	0ffH
	DB	0b8H
	DB	0bcH
	DB	0b8H
	DB	0ffH
	DB	0c0H
	DB	0c0H
	DB	0c0H
	DB	0ffH
	DB	0b8H
	DB	0bcH
	DB	0b8H
	DB	0ffH
	DB	0c0H
	DB	0bcH
	DB	0c0H
	DB	0ffH
	DB	0c0H
	DB	0bcH
	DB	0c0H
	DB	0ffH
	DB	0b8H
	DB	0bcH
	DB	0b8H
	DB	0ffH
	DB	0c0H
	DB	0c0H
	DB	0c0H
	DB	0ffH
	DB	0c0H
	DB	0bcH
	DB	0c0H
	DB	0ffH
	DB	0b8H
	DB	0bcH
	DB	0b8H
	DB	0ffH
	DB	0c0H
	DB	0bcH
	DB	0c0H
	DB	0ffH
	DB	00H
	DB	00H
	DB	00H
	DB	00H
	DB	00H
	DB	00H
	DB	00H
	DB	00H
	DB	00H
	DB	00H
	DB	00H
	DB	00H
	DB	00H
	DB	00H
	DB	00H
	DB	00H
	DB	00H
	DB	00H
	DB	00H
	DB	00H
	DB	00H
	DB	00H
	DB	00H
	DB	00H
	DB	00H
	DB	00H
	DB	00H
	DB	00H
	DB	00H
	DB	00H
	DB	00H
	DB	00H
	DB	00H
	DB	00H
	DB	00H
	DB	00H
	DB	00H
	DB	00H
	DB	00H
	DB	00H
	DB	00H
	DB	00H
	DB	00H
	DB	00H
	DB	00H
	DB	00H
	DB	00H
	DB	00H
	DB	00H
	DB	00H
	DB	00H
	DB	00H
	DB	00H
	DB	00H
	DB	00H
	DB	00H
	DB	00H
	DB	00H
	DB	00H
	DB	00H
	DB	00H
	DB	00H
	DB	00H
	DB	00H
	DB	00H
	DB	00H
	DB	00H
	DB	00H
	DB	00H
	DB	00H
	DB	00H
	DB	00H
	DB	0b8H
	DB	0bcH
	DB	0b8H
	DB	0ffH
	DB	0c0H
	DB	0bcH
	DB	0c0H
	DB	0ffH
	DB	0c0H
	DB	0bcH
	DB	0c0H
	DB	0ffH
	DB	0b8H
	DB	0bcH
	DB	0b8H
	DB	0ffH
	DB	0c0H
	DB	0c0H
	DB	0c0H
	DB	0ffH
	DB	0c0H
	DB	0bcH
	DB	0c0H
	DB	0ffH
	DB	0b8H
	DB	0bcH
	DB	0b8H
	DB	0ffH
	DB	0c0H
	DB	0c0H
	DB	0c0H
	DB	0ffH
	DB	0b8H
	DB	0bcH
	DB	0b8H
	DB	0ffH
	DB	0c0H
	DB	0bcH
	DB	0c0H
	DB	0ffH
	DB	0b8H
	DB	0bcH
	DB	0b8H
	DB	0ffH
	DB	0c0H
	DB	0c0H
	DB	0c0H
	DB	0ffH
	DB	0c0H
	DB	0bcH
	DB	0c0H
	DB	0ffH
	DB	0b8H
	DB	0bcH
	DB	0b8H
	DB	0ffH
	DB	00H
	DB	00H
	DB	00H
	DB	00H
	DB	00H
	DB	00H
	DB	00H
	DB	00H
	DB	00H
	DB	00H
	DB	00H
	DB	00H
	DB	00H
	DB	00H
	DB	00H
	DB	00H
	DB	00H
	DB	00H
	DB	00H
	DB	00H
	DB	00H
	DB	00H
	DB	00H
	DB	00H
	DB	00H
	DB	00H
	DB	00H
	DB	00H
	DB	00H
	DB	00H
	DB	00H
	DB	00H
	DB	00H
	DB	00H
	DB	00H
	DB	00H
	DB	00H
	DB	00H
	DB	00H
	DB	00H
	DB	00H
	DB	00H
	DB	00H
	DB	00H
	DB	00H
	DB	00H
	DB	00H
	DB	00H
	DB	00H
	DB	00H
	DB	00H
	DB	00H
	DB	00H
	DB	00H
	DB	00H
	DB	00H
	DB	00H
	DB	00H
	DB	00H
	DB	00H
	DB	00H
	DB	00H
	DB	00H
	DB	00H
	DB	00H
	DB	00H
	DB	00H
	DB	00H
	DB	00H
	DB	00H
	DB	00H
	DB	00H
	DB	0c0H
	DB	0bcH
	DB	0c0H
	DB	0ffH
	DB	0c0H
	DB	0c0H
	DB	0c0H
	DB	0ffH
	DB	0b8H
	DB	0bcH
	DB	0b8H
	DB	0ffH
	DB	0c0H
	DB	0bcH
	DB	0c0H
	DB	0ffH
	DB	0c0H
	DB	0bcH
	DB	0c0H
	DB	0ffH
	DB	0b8H
	DB	0bcH
	DB	0b8H
	DB	0ffH
	DB	0c0H
	DB	0bcH
	DB	0c0H
	DB	0ffH
	DB	0c0H
	DB	0c0H
	DB	0c0H
	DB	0ffH
	DB	0c0H
	DB	0bcH
	DB	0c0H
	DB	0ffH
	DB	0b8H
	DB	0bcH
	DB	0b8H
	DB	0ffH
	DB	0c0H
	DB	0c0H
	DB	0c0H
	DB	0ffH
	DB	0b8H
	DB	0bcH
	DB	0b8H
	DB	0ffH
	DB	0c0H
	DB	0bcH
	DB	0c0H
	DB	0ffH
	DB	0c0H
	DB	0c0H
	DB	0c0H
	DB	0ffH
	DB	00H
	DB	00H
	DB	00H
	DB	00H
	DB	00H
	DB	00H
	DB	00H
	DB	00H
	DB	00H
	DB	00H
	DB	00H
	DB	00H
	DB	00H
	DB	00H
	DB	00H
	DB	00H
	DB	00H
	DB	00H
	DB	00H
	DB	00H
	DB	00H
	DB	00H
	DB	00H
	DB	00H
	DB	00H
	DB	00H
	DB	00H
	DB	00H
	DB	00H
	DB	00H
	DB	00H
	DB	00H
	DB	00H
	DB	00H
	DB	00H
	DB	00H
	DB	00H
	DB	00H
	DB	00H
	DB	00H
	DB	00H
	DB	00H
	DB	00H
	DB	00H
	DB	00H
	DB	00H
	DB	00H
	DB	00H
	DB	00H
	DB	00H
	DB	00H
	DB	00H
	DB	00H
	DB	00H
	DB	00H
	DB	00H
	DB	00H
	DB	00H
	DB	00H
	DB	00H
	DB	00H
	DB	00H
	DB	00H
	DB	00H
	DB	00H
	DB	00H
	DB	00H
	DB	00H
	DB	00H
	DB	00H
	DB	00H
	DB	00H
	DB	0c0H
	DB	0bcH
	DB	0c0H
	DB	0ffH
	DB	0b8H
	DB	0c0H
	DB	0b8H
	DB	0ffH
	DB	0b8H
	DB	0bcH
	DB	0b8H
	DB	0ffH
	DB	0c0H
	DB	0bcH
	DB	0c0H
	DB	0ffH
	DB	0c0H
	DB	0c0H
	DB	0c0H
	DB	0ffH
	DB	0b8H
	DB	0bcH
	DB	0b8H
	DB	0ffH
	DB	0c0H
	DB	0bcH
	DB	0c0H
	DB	0ffH
	DB	0b8H
	DB	0bcH
	DB	0b8H
	DB	0ffH
	DB	0c0H
	DB	0bcH
	DB	0c0H
	DB	0ffH
	DB	0c0H
	DB	0c0H
	DB	0c0H
	DB	0ffH
	DB	0b8H
	DB	0bcH
	DB	0b8H
	DB	0ffH
	DB	0c0H
	DB	0bcH
	DB	0c0H
	DB	0ffH
	DB	0b8H
	DB	0bcH
	DB	0b8H
	DB	0ffH
	DB	0c0H
	DB	0bcH
	DB	0c0H
	DB	0ffH
	DB	00H
	DB	00H
	DB	00H
	DB	00H
	DB	00H
	DB	00H
	DB	00H
	DB	00H
	DB	00H
	DB	00H
	DB	00H
	DB	00H
	DB	00H
	DB	00H
	DB	00H
	DB	00H
	DB	00H
	DB	00H
	DB	00H
	DB	00H
	DB	00H
	DB	00H
	DB	00H
	DB	00H
	DB	00H
	DB	00H
	DB	00H
	DB	00H
	DB	00H
	DB	00H
	DB	00H
	DB	00H
	DB	00H
	DB	00H
	DB	00H
	DB	00H
	DB	00H
	DB	00H
	DB	00H
	DB	00H
	DB	00H
	DB	00H
	DB	00H
	DB	00H
	DB	00H
	DB	00H
	DB	00H
	DB	00H
	DB	00H
	DB	00H
	DB	00H
	DB	00H
	DB	00H
	DB	00H
	DB	00H
	DB	00H
	DB	00H
	DB	00H
	DB	00H
	DB	00H
	DB	00H
	DB	00H
	DB	00H
	DB	00H
	DB	00H
	DB	00H
	DB	00H
	DB	00H
	DB	00H
	DB	00H
	DB	00H
	DB	00H
	DB	0c0H
	DB	0bcH
	DB	0c0H
	DB	0ffH
	DB	0c0H
	DB	0bcH
	DB	0c0H
	DB	0ffH
	DB	0b8H
	DB	0bcH
	DB	0b8H
	DB	0ffH
	DB	0c0H
	DB	0c0H
	DB	0c0H
	DB	0ffH
	DB	0c0H
	DB	0bcH
	DB	0c0H
	DB	0ffH
	DB	0b8H
	DB	0bcH
	DB	0b8H
	DB	0ffH
	DB	0c0H
	DB	0c0H
	DB	0c0H
	DB	0ffH
	DB	0b8H
	DB	0bcH
	DB	0b8H
	DB	0ffH
	DB	0c0H
	DB	0bcH
	DB	0c0H
	DB	0ffH
	DB	0c0H
	DB	0bcH
	DB	0c0H
	DB	0ffH
	DB	0b8H
	DB	0bcH
	DB	0b8H
	DB	0ffH
	DB	0c0H
	DB	0c0H
	DB	0c0H
	DB	0ffH
	DB	0c0H
	DB	0bcH
	DB	0c0H
	DB	0ffH
	DB	0b8H
	DB	0bcH
	DB	0b8H
	DB	0ffH
	DB	00H
	DB	00H
	DB	00H
	DB	00H
	DB	00H
	DB	00H
	DB	00H
	DB	00H
	DB	00H
	DB	00H
	DB	00H
	DB	00H
	DB	00H
	DB	00H
	DB	00H
	DB	00H
	DB	00H
	DB	00H
	DB	00H
	DB	00H
	DB	00H
	DB	00H
	DB	00H
	DB	00H
	DB	00H
	DB	00H
	DB	00H
	DB	00H
	DB	00H
	DB	00H
	DB	00H
	DB	00H
	DB	00H
	DB	00H
	DB	00H
	DB	00H
	DB	00H
	DB	00H
	DB	00H
	DB	00H
	DB	00H
	DB	00H
	DB	00H
	DB	00H
	DB	00H
	DB	00H
	DB	00H
	DB	00H
	DB	00H
	DB	00H
	DB	00H
	DB	00H
	DB	00H
	DB	00H
	DB	00H
	DB	00H
	DB	00H
	DB	00H
	DB	00H
	DB	00H
	DB	00H
	DB	00H
	DB	00H
	DB	00H
	DB	00H
	DB	00H
	DB	00H
	DB	00H
	DB	00H
	DB	00H
	DB	00H
	DB	00H
	DB	00H
	DB	0b4H
	DB	00H
	DB	0ffH
	DB	00H
	DB	0b4H
	DB	00H
	DB	0ffH
	DB	00H
	DB	0b4H
	DB	00H
	DB	0ffH
	DB	00H
	DB	0b4H
	DB	00H
	DB	0ffH
	DB	00H
	DB	0b4H
	DB	00H
	DB	0ffH
	DB	00H
	DB	0b4H
	DB	00H
	DB	0ffH
	DB	00H
	DB	0b4H
	DB	00H
	DB	0ffH
	DB	00H
	DB	0b4H
	DB	00H
	DB	0ffH
	DB	00H
	DB	0b4H
	DB	00H
	DB	0ffH
	DB	00H
	DB	0b4H
	DB	00H
	DB	0ffH
	DB	00H
	DB	0b4H
	DB	00H
	DB	0ffH
	DB	00H
	DB	0b4H
	DB	00H
	DB	0ffH
	DB	00H
	DB	0b4H
	DB	00H
	DB	0ffH
	DB	00H
	DB	0b4H
	DB	00H
	DB	0ffH
	DB	00H
	DB	00H
	DB	00H
	DB	00H
	DB	00H
	DB	00H
	DB	00H
	DB	00H
	DB	00H
	DB	00H
	DB	00H
	DB	00H
	DB	00H
	DB	00H
	DB	00H
	DB	00H
	DB	00H
	DB	00H
	DB	00H
	DB	00H
	DB	00H
	DB	00H
	DB	00H
	DB	00H
	DB	00H
	DB	00H
	DB	00H
	DB	00H
	DB	00H
	DB	00H
	DB	00H
	DB	00H
	DB	00H
	DB	00H
	DB	00H
	DB	00H
	DB	00H
	DB	00H
	DB	00H
	DB	00H
	DB	00H
	DB	00H
	DB	00H
	DB	00H
	DB	00H
	DB	00H
	DB	00H
	DB	00H
	DB	00H
	DB	00H
	DB	00H
	DB	00H
	DB	00H
	DB	00H
	DB	00H
	DB	00H
	DB	00H
	DB	00H
	DB	00H
	DB	00H
	DB	00H
	DB	00H
	DB	00H
	DB	00H
	DB	00H
	DB	00H
	DB	00H
	DB	00H
	DB	00H
	DB	00H
	DB	00H
	DB	00H
	DB	00H
	DB	0b4H
	DB	00H
	DB	0ffH
	DB	00H
	DB	0b4H
	DB	00H
	DB	0ffH
	DB	00H
	DB	0b4H
	DB	00H
	DB	0ffH
	DB	00H
	DB	0b4H
	DB	00H
	DB	0ffH
	DB	00H
	DB	0b4H
	DB	00H
	DB	0ffH
	DB	00H
	DB	0b4H
	DB	00H
	DB	0ffH
	DB	00H
	DB	0b4H
	DB	00H
	DB	0ffH
	DB	00H
	DB	0b4H
	DB	00H
	DB	0ffH
	DB	00H
	DB	0b4H
	DB	00H
	DB	0ffH
	DB	00H
	DB	0b4H
	DB	00H
	DB	0ffH
	DB	00H
	DB	0b4H
	DB	00H
	DB	0ffH
	DB	00H
	DB	0b4H
	DB	00H
	DB	0ffH
	DB	00H
	DB	0b4H
	DB	00H
	DB	0ffH
	DB	00H
	DB	0b4H
	DB	00H
	DB	0ffH
	DB	00H
	DB	00H
	DB	00H
	DB	00H
	DB	00H
	DB	00H
	DB	00H
	DB	00H
	DB	00H
	DB	00H
	DB	00H
	DB	00H
	DB	00H
	DB	00H
	DB	00H
	DB	00H
	DB	00H
	DB	00H
	DB	00H
	DB	00H
	DB	00H
	DB	00H
	DB	00H
	DB	00H
	DB	00H
	DB	00H
	DB	00H
	DB	00H
	DB	00H
	DB	00H
	DB	00H
	DB	00H
	DB	00H
	DB	00H
	DB	00H
	DB	00H
	DB	00H
	DB	00H
	DB	00H
	DB	00H
	DB	00H
	DB	00H
	DB	00H
	DB	00H
	DB	00H
	DB	00H
	DB	00H
	DB	00H
	DB	00H
	DB	00H
	DB	00H
	DB	00H
	DB	00H
	DB	00H
	DB	00H
	DB	00H
	DB	00H
	DB	00H
	DB	00H
	DB	00H
	DB	00H
	DB	00H
	DB	00H
	DB	00H
	DB	00H
	DB	00H
	DB	00H
	DB	00H
	DB	00H
	DB	00H
	DB	00H
	DB	00H
	DB	00H
	DB	0b4H
	DB	00H
	DB	0ffH
	DB	00H
	DB	0b4H
	DB	00H
	DB	0ffH
	DB	00H
	DB	0b4H
	DB	00H
	DB	0ffH
	DB	00H
	DB	0b4H
	DB	00H
	DB	0ffH
	DB	00H
	DB	0b4H
	DB	00H
	DB	0ffH
	DB	00H
	DB	0b4H
	DB	00H
	DB	0ffH
	DB	00H
	DB	0b4H
	DB	00H
	DB	0ffH
	DB	00H
	DB	0b4H
	DB	00H
	DB	0ffH
	DB	00H
	DB	0b4H
	DB	00H
	DB	0ffH
	DB	00H
	DB	0b4H
	DB	00H
	DB	0ffH
	DB	00H
	DB	0b4H
	DB	00H
	DB	0ffH
	DB	00H
	DB	0b4H
	DB	00H
	DB	0ffH
	DB	00H
	DB	0b4H
	DB	00H
	DB	0ffH
	DB	00H
	DB	0b4H
	DB	00H
	DB	0ffH
	DB	00H
	DB	00H
	DB	00H
	DB	00H
	DB	00H
	DB	00H
	DB	00H
	DB	00H
	DB	00H
	DB	00H
	DB	00H
	DB	00H
	DB	00H
	DB	00H
	DB	00H
	DB	00H
	DB	00H
	DB	00H
	DB	00H
	DB	00H
	DB	00H
	DB	00H
	DB	00H
	DB	00H
	DB	00H
	DB	00H
	DB	00H
	DB	00H
	DB	00H
	DB	00H
	DB	00H
	DB	00H
	DB	00H
	DB	00H
	DB	00H
	DB	00H
	DB	00H
	DB	00H
	DB	00H
	DB	00H
	DB	00H
	DB	00H
	DB	00H
	DB	00H
	DB	00H
	DB	00H
	DB	00H
	DB	00H
	DB	00H
	DB	00H
	DB	00H
	DB	00H
	DB	00H
	DB	00H
	DB	00H
	DB	00H
	DB	00H
	DB	00H
	DB	00H
	DB	00H
	DB	00H
	DB	00H
	DB	00H
	DB	00H
	DB	00H
	DB	00H
	DB	00H
	DB	00H
	DB	00H
	DB	00H
	DB	00H
	DB	00H
	DB	00H
	DB	0b4H
	DB	00H
	DB	0ffH
	DB	00H
	DB	0b4H
	DB	00H
	DB	0ffH
	DB	00H
	DB	0b4H
	DB	00H
	DB	0ffH
	DB	00H
	DB	0b4H
	DB	00H
	DB	0ffH
	DB	00H
	DB	0b4H
	DB	00H
	DB	0ffH
	DB	00H
	DB	0b4H
	DB	00H
	DB	0ffH
	DB	00H
	DB	0b4H
	DB	00H
	DB	0ffH
	DB	00H
	DB	0b4H
	DB	00H
	DB	0ffH
	DB	00H
	DB	0b4H
	DB	00H
	DB	0ffH
	DB	00H
	DB	0b4H
	DB	00H
	DB	0ffH
	DB	00H
	DB	0b4H
	DB	00H
	DB	0ffH
	DB	00H
	DB	0b4H
	DB	00H
	DB	0ffH
	DB	00H
	DB	0b4H
	DB	00H
	DB	0ffH
	DB	00H
	DB	0b4H
	DB	00H
	DB	0ffH
	DB	00H
	DB	00H
	DB	00H
	DB	00H
	DB	00H
	DB	00H
	DB	00H
	DB	00H
	DB	00H
	DB	00H
	DB	00H
	DB	00H
	DB	00H
	DB	00H
	DB	00H
	DB	00H
	DB	00H
	DB	00H
	DB	00H
	DB	00H
	DB	00H
	DB	00H
	DB	00H
	DB	00H
	DB	00H
	DB	00H
	DB	00H
	DB	00H
	DB	00H
	DB	00H
	DB	00H
	DB	00H
	DB	00H
	DB	00H
	DB	00H
	DB	00H
	DB	00H
	DB	00H
	DB	00H
	DB	00H
	DB	00H
	DB	00H
	DB	00H
	DB	00H
	DB	00H
	DB	00H
	DB	00H
	DB	00H
	DB	00H
	DB	00H
	DB	00H
	DB	00H
	DB	00H
	DB	00H
	DB	00H
	DB	00H
	DB	00H
	DB	00H
	DB	00H
	DB	00H
	DB	00H
	DB	00H
	DB	00H
	DB	00H
	DB	00H
	DB	00H
	DB	00H
	DB	00H
	DB	00H
	DB	00H
	DB	00H
	DB	00H
	DB	00H
	DB	0b4H
	DB	00H
	DB	0ffH
	DB	00H
	DB	0b4H
	DB	00H
	DB	0ffH
	DB	00H
	DB	0b4H
	DB	00H
	DB	0ffH
	DB	00H
	DB	0b4H
	DB	00H
	DB	0ffH
	DB	00H
	DB	0b4H
	DB	00H
	DB	0ffH
	DB	00H
	DB	0b4H
	DB	00H
	DB	0ffH
	DB	00H
	DB	0b4H
	DB	00H
	DB	0ffH
	DB	00H
	DB	0b4H
	DB	00H
	DB	0ffH
	DB	00H
	DB	0b4H
	DB	00H
	DB	0ffH
	DB	00H
	DB	0b4H
	DB	00H
	DB	0ffH
	DB	00H
	DB	0b4H
	DB	00H
	DB	0ffH
	DB	00H
	DB	0b4H
	DB	00H
	DB	0ffH
	DB	00H
	DB	0b4H
	DB	00H
	DB	0ffH
	DB	00H
	DB	0b4H
	DB	00H
	DB	0ffH
	DB	00H
	DB	00H
	DB	00H
	DB	00H
	DB	00H
	DB	00H
	DB	00H
	DB	00H
	DB	00H
	DB	00H
	DB	00H
	DB	00H
	DB	00H
	DB	00H
	DB	00H
	DB	00H
	DB	00H
	DB	00H
	DB	00H
	DB	00H
	DB	00H
	DB	00H
	DB	00H
	DB	00H
	DB	00H
	DB	00H
	DB	00H
	DB	00H
	DB	00H
	DB	00H
	DB	00H
	DB	00H
	DB	00H
	DB	00H
	DB	00H
	DB	00H
	DB	00H
	DB	00H
	DB	00H
	DB	00H
	DB	00H
	DB	00H
	DB	00H
	DB	00H
	DB	00H
	DB	00H
	DB	00H
	DB	00H
	DB	00H
	DB	00H
	DB	00H
	DB	00H
	DB	00H
	DB	00H
	DB	00H
	DB	00H
	DB	00H
	DB	00H
	DB	00H
	DB	00H
	DB	00H
	DB	00H
	DB	00H
	DB	00H
	DB	00H
	DB	00H
	DB	00H
	DB	00H
	DB	00H
	DB	00H
	DB	00H
	DB	00H
	DB	00H
	DB	0b4H
	DB	00H
	DB	0ffH
	DB	00H
	DB	0b4H
	DB	00H
	DB	0ffH
	DB	00H
	DB	0b4H
	DB	00H
	DB	0ffH
	DB	00H
	DB	0b4H
	DB	00H
	DB	0ffH
	DB	00H
	DB	0b4H
	DB	00H
	DB	0ffH
	DB	00H
	DB	0b4H
	DB	00H
	DB	0ffH
	DB	00H
	DB	0b4H
	DB	00H
	DB	0ffH
	DB	00H
	DB	0b4H
	DB	00H
	DB	0ffH
	DB	00H
	DB	0b4H
	DB	00H
	DB	0ffH
	DB	00H
	DB	0b4H
	DB	00H
	DB	0ffH
	DB	00H
	DB	0b4H
	DB	00H
	DB	0ffH
	DB	00H
	DB	0b4H
	DB	00H
	DB	0ffH
	DB	00H
	DB	0b4H
	DB	00H
	DB	0ffH
	DB	00H
	DB	0b4H
	DB	00H
	DB	0ffH
	DB	00H
	DB	00H
	DB	00H
	DB	00H
	DB	00H
	DB	00H
	DB	00H
	DB	00H
	DB	00H
	DB	00H
	DB	00H
	DB	00H
	DB	00H
	DB	00H
	DB	00H
	DB	00H
	DB	00H
	DB	00H
	DB	00H
	DB	00H
	DB	00H
	DB	00H
	DB	00H
	DB	00H
	DB	00H
	DB	00H
	DB	00H
	DB	00H
	DB	00H
	DB	00H
	DB	00H
	DB	00H
	DB	00H
	DB	00H
	DB	00H
	DB	00H
	DB	00H
	DB	00H
	DB	00H
	DB	00H
	DB	00H
	DB	00H
	DB	00H
	DB	00H
	DB	00H
	DB	00H
	DB	00H
	DB	00H
	DB	00H
	DB	00H
	DB	00H
	DB	00H
	DB	00H
	DB	00H
	DB	00H
	DB	00H
	DB	00H
	DB	00H
	DB	00H
	DB	00H
	DB	00H
	DB	00H
	DB	00H
	DB	00H
	DB	00H
	DB	00H
	DB	00H
	DB	00H
	DB	00H
	DB	00H
	DB	00H
	DB	00H
	DB	00H
	DB	0b4H
	DB	00H
	DB	0ffH
	DB	00H
	DB	0b4H
	DB	00H
	DB	0ffH
	DB	00H
	DB	0b4H
	DB	00H
	DB	0ffH
	DB	00H
	DB	0b4H
	DB	00H
	DB	0ffH
	DB	00H
	DB	0b4H
	DB	00H
	DB	0ffH
	DB	00H
	DB	0b4H
	DB	00H
	DB	0ffH
	DB	00H
	DB	0b4H
	DB	00H
	DB	0ffH
	DB	00H
	DB	0b4H
	DB	00H
	DB	0ffH
	DB	00H
	DB	0b4H
	DB	00H
	DB	0ffH
	DB	00H
	DB	0b4H
	DB	00H
	DB	0ffH
	DB	00H
	DB	0b4H
	DB	00H
	DB	0ffH
	DB	00H
	DB	0b4H
	DB	00H
	DB	0ffH
	DB	00H
	DB	0b4H
	DB	00H
	DB	0ffH
	DB	00H
	DB	0b4H
	DB	00H
	DB	0ffH
	DB	00H
	DB	00H
	DB	00H
	DB	00H
	DB	00H
	DB	00H
	DB	00H
	DB	00H
	DB	00H
	DB	00H
	DB	00H
	DB	00H
	DB	00H
	DB	00H
	DB	00H
	DB	00H
	DB	00H
	DB	00H
	DB	00H
	DB	00H
	DB	00H
	DB	00H
	DB	00H
	DB	00H
	DB	00H
	DB	00H
	DB	00H
	DB	00H
	DB	00H
	DB	00H
	DB	00H
	DB	00H
	DB	00H
	DB	00H
	DB	00H
	DB	00H
	DB	00H
	DB	00H
	DB	00H
	DB	00H
	DB	00H
	DB	00H
	DB	00H
	DB	00H
	DB	00H
	DB	00H
	DB	00H
	DB	00H
	DB	00H
	DB	00H
	DB	00H
	DB	00H
	DB	00H
	DB	00H
	DB	00H
	DB	00H
	DB	00H
	DB	00H
	DB	00H
	DB	00H
	DB	00H
	DB	00H
	DB	00H
	DB	00H
	DB	00H
	DB	00H
	DB	00H
	DB	00H
	DB	00H
	DB	00H
	DB	00H
	DB	00H
	DB	00H
	DB	0b4H
	DB	00H
	DB	0ffH
	DB	00H
	DB	0b4H
	DB	00H
	DB	0ffH
	DB	00H
	DB	0b4H
	DB	00H
	DB	0ffH
	DB	00H
	DB	0b4H
	DB	00H
	DB	0ffH
	DB	00H
	DB	0b4H
	DB	00H
	DB	0ffH
	DB	00H
	DB	0b4H
	DB	00H
	DB	0ffH
	DB	00H
	DB	0b4H
	DB	00H
	DB	0ffH
	DB	00H
	DB	0b4H
	DB	00H
	DB	0ffH
	DB	00H
	DB	0b4H
	DB	00H
	DB	0ffH
	DB	00H
	DB	0b4H
	DB	00H
	DB	0ffH
	DB	00H
	DB	0b4H
	DB	00H
	DB	0ffH
	DB	00H
	DB	0b4H
	DB	00H
	DB	0ffH
	DB	00H
	DB	0b4H
	DB	00H
	DB	0ffH
	DB	00H
	DB	0b4H
	DB	00H
	DB	0ffH
	DB	00H
	DB	00H
	DB	00H
	DB	00H
	DB	00H
	DB	00H
	DB	00H
	DB	00H
	DB	00H
	DB	00H
	DB	00H
	DB	00H
	DB	00H
	DB	00H
	DB	00H
	DB	00H
	DB	00H
	DB	00H
	DB	00H
	DB	00H
	DB	00H
	DB	00H
	DB	00H
	DB	00H
	DB	00H
	DB	00H
	DB	00H
	DB	00H
	DB	00H
	DB	00H
	DB	00H
	DB	00H
	DB	00H
	DB	00H
	DB	00H
	DB	00H
	DB	00H
	DB	00H
	DB	00H
	DB	00H
	DB	00H
	DB	00H
	DB	00H
	DB	00H
	DB	00H
	DB	00H
	DB	00H
	DB	00H
	DB	00H
	DB	00H
	DB	00H
	DB	00H
	DB	00H
	DB	00H
	DB	00H
	DB	00H
	DB	00H
	DB	00H
	DB	00H
	DB	00H
	DB	00H
	DB	00H
	DB	00H
	DB	00H
	DB	00H
	DB	00H
	DB	00H
	DB	00H
	DB	00H
	DB	00H
	DB	00H
	DB	00H
	DB	00H
	DB	0b4H
	DB	00H
	DB	0ffH
	DB	00H
	DB	0b4H
	DB	00H
	DB	0ffH
	DB	00H
	DB	0b4H
	DB	00H
	DB	0ffH
	DB	00H
	DB	0b4H
	DB	00H
	DB	0ffH
	DB	00H
	DB	0b4H
	DB	00H
	DB	0ffH
	DB	00H
	DB	0b4H
	DB	00H
	DB	0ffH
	DB	00H
	DB	0b4H
	DB	00H
	DB	0ffH
	DB	00H
	DB	0b4H
	DB	00H
	DB	0ffH
	DB	00H
	DB	0b4H
	DB	00H
	DB	0ffH
	DB	00H
	DB	0b4H
	DB	00H
	DB	0ffH
	DB	00H
	DB	0b4H
	DB	00H
	DB	0ffH
	DB	00H
	DB	0b4H
	DB	00H
	DB	0ffH
	DB	00H
	DB	0b4H
	DB	00H
	DB	0ffH
	DB	00H
	DB	0b4H
	DB	00H
	DB	0ffH
	DB	00H
	DB	00H
	DB	00H
	DB	00H
	DB	00H
	DB	00H
	DB	00H
	DB	00H
	DB	00H
	DB	00H
	DB	00H
	DB	00H
	DB	00H
	DB	00H
	DB	00H
	DB	00H
	DB	00H
	DB	00H
	DB	00H
	DB	00H
	DB	00H
	DB	00H
	DB	00H
	DB	00H
	DB	00H
	DB	00H
	DB	00H
	DB	00H
	DB	00H
	DB	00H
	DB	00H
	DB	00H
	DB	00H
	DB	00H
	DB	00H
	DB	00H
	DB	00H
	DB	00H
	DB	00H
	DB	00H
	DB	00H
	DB	00H
	DB	00H
	DB	00H
	DB	00H
	DB	00H
	DB	00H
	DB	00H
	DB	00H
	DB	00H
	DB	00H
	DB	00H
	DB	00H
	DB	00H
	DB	00H
	DB	00H
	DB	00H
	DB	00H
	DB	00H
	DB	00H
	DB	00H
	DB	00H
	DB	00H
	DB	00H
	DB	00H
	DB	00H
	DB	00H
	DB	00H
	DB	00H
	DB	00H
	DB	00H
	DB	00H
	DB	00H
	DB	0b4H
	DB	00H
	DB	0ffH
	DB	00H
	DB	0b4H
	DB	00H
	DB	0ffH
	DB	00H
	DB	0b4H
	DB	00H
	DB	0ffH
	DB	00H
	DB	0b4H
	DB	00H
	DB	0ffH
	DB	00H
	DB	0b4H
	DB	00H
	DB	0ffH
	DB	00H
	DB	0b4H
	DB	00H
	DB	0ffH
	DB	00H
	DB	0b4H
	DB	00H
	DB	0ffH
	DB	00H
	DB	0b4H
	DB	00H
	DB	0ffH
	DB	00H
	DB	0b4H
	DB	00H
	DB	0ffH
	DB	00H
	DB	0b4H
	DB	00H
	DB	0ffH
	DB	00H
	DB	0b4H
	DB	00H
	DB	0ffH
	DB	00H
	DB	0b4H
	DB	00H
	DB	0ffH
	DB	00H
	DB	0b4H
	DB	00H
	DB	0ffH
	DB	00H
	DB	0b4H
	DB	00H
	DB	0ffH
	DB	00H
	DB	00H
	DB	00H
	DB	00H
	DB	00H
	DB	00H
	DB	00H
	DB	00H
	DB	00H
	DB	00H
	DB	00H
	DB	00H
	DB	00H
	DB	00H
	DB	00H
	DB	00H
	DB	00H
	DB	00H
	DB	00H
	DB	00H
	DB	00H
	DB	00H
	DB	00H
	DB	00H
	DB	00H
	DB	00H
	DB	00H
	DB	00H
	DB	00H
	DB	00H
	DB	00H
	DB	00H
	DB	00H
	DB	00H
	DB	00H
	DB	00H
	DB	00H
	DB	00H
	DB	00H
	DB	00H
	DB	00H
	DB	00H
	DB	00H
	DB	00H
	DB	00H
	DB	00H
	DB	00H
	DB	00H
	DB	00H
	DB	00H
	DB	00H
	DB	00H
	DB	00H
	DB	00H
	DB	00H
	DB	00H
	DB	00H
	DB	00H
	DB	00H
	DB	00H
	DB	00H
	DB	00H
	DB	00H
	DB	00H
	DB	00H
	DB	00H
	DB	00H
	DB	00H
	DB	00H
	DB	00H
	DB	00H
	DB	00H
	DB	00H
	DB	0b4H
	DB	00H
	DB	0ffH
	DB	00H
	DB	0b4H
	DB	00H
	DB	0ffH
	DB	00H
	DB	0b4H
	DB	00H
	DB	0ffH
	DB	00H
	DB	0b4H
	DB	00H
	DB	0ffH
	DB	00H
	DB	0b4H
	DB	00H
	DB	0ffH
	DB	00H
	DB	0b4H
	DB	00H
	DB	0ffH
	DB	00H
	DB	0b4H
	DB	00H
	DB	0ffH
	DB	00H
	DB	0b4H
	DB	00H
	DB	0ffH
	DB	00H
	DB	0b4H
	DB	00H
	DB	0ffH
	DB	00H
	DB	0b4H
	DB	00H
	DB	0ffH
	DB	00H
	DB	0b4H
	DB	00H
	DB	0ffH
	DB	00H
	DB	0b4H
	DB	00H
	DB	0ffH
	DB	00H
	DB	0b4H
	DB	00H
	DB	0ffH
	DB	00H
	DB	0b4H
	DB	00H
	DB	0ffH
	DB	00H
	DB	00H
	DB	00H
	DB	00H
	DB	00H
	DB	00H
	DB	00H
	DB	00H
	DB	00H
	DB	00H
	DB	00H
	DB	00H
	DB	00H
	DB	00H
	DB	00H
	DB	00H
	DB	00H
	DB	00H
	DB	00H
	DB	00H
	DB	00H
	DB	00H
	DB	00H
	DB	00H
	DB	00H
	DB	00H
	DB	00H
	DB	00H
	DB	00H
	DB	00H
	DB	00H
	DB	00H
	DB	00H
	DB	00H
	DB	00H
	DB	00H
	DB	00H
	DB	00H
	DB	00H
	DB	00H
	DB	00H
	DB	00H
	DB	00H
	DB	00H
	DB	00H
	DB	00H
	DB	00H
	DB	00H
	DB	00H
	DB	00H
	DB	00H
	DB	00H
	DB	00H
	DB	00H
	DB	00H
	DB	00H
	DB	00H
	DB	00H
	DB	00H
	DB	00H
	DB	00H
	DB	00H
	DB	00H
	DB	00H
	DB	00H
	DB	00H
	DB	00H
	DB	00H
	DB	00H
	DB	00H
	DB	00H
	DB	00H
	DB	00H
	DB	0b4H
	DB	00H
	DB	0ffH
	DB	00H
	DB	0b4H
	DB	00H
	DB	0ffH
	DB	00H
	DB	0b4H
	DB	00H
	DB	0ffH
	DB	00H
	DB	0b4H
	DB	00H
	DB	0ffH
	DB	00H
	DB	0b4H
	DB	00H
	DB	0ffH
	DB	00H
	DB	0b4H
	DB	00H
	DB	0ffH
	DB	00H
	DB	0b4H
	DB	00H
	DB	0ffH
	DB	00H
	DB	0b4H
	DB	00H
	DB	0ffH
	DB	00H
	DB	0b4H
	DB	00H
	DB	0ffH
	DB	00H
	DB	0b4H
	DB	00H
	DB	0ffH
	DB	00H
	DB	0b4H
	DB	00H
	DB	0ffH
	DB	00H
	DB	0b4H
	DB	00H
	DB	0ffH
	DB	00H
	DB	0b4H
	DB	00H
	DB	0ffH
	DB	00H
	DB	0b4H
	DB	00H
	DB	0ffH
	DB	00H
	DB	00H
	DB	00H
	DB	00H
	DB	00H
	DB	00H
	DB	00H
	DB	00H
	DB	00H
	DB	00H
	DB	00H
	DB	00H
	DB	00H
	DB	00H
	DB	00H
	DB	00H
	DB	00H
	DB	00H
	DB	00H
	DB	00H
	DB	00H
	DB	00H
	DB	00H
	DB	00H
	DB	00H
	DB	00H
	DB	00H
	DB	00H
	DB	00H
	DB	00H
	DB	00H
	DB	00H
	DB	00H
	DB	00H
	DB	00H
	DB	00H
	DB	00H
	DB	00H
	DB	00H
	DB	00H
	DB	00H
	DB	00H
	DB	00H
	DB	00H
	DB	00H
	DB	00H
	DB	00H
	DB	00H
	DB	00H
	DB	00H
	DB	00H
	DB	00H
	DB	00H
	DB	00H
	DB	00H
	DB	00H
	DB	00H
	DB	00H
	DB	00H
	DB	00H
	DB	00H
	DB	00H
	DB	00H
	DB	00H
	DB	00H
	DB	00H
	DB	00H
	DB	00H
	DB	00H
	DB	00H
	DB	00H
	DB	00H
	DB	00H
	DB	0b4H
	DB	00H
	DB	07dH
	DB	00H
	DB	0b4H
	DB	00H
	DB	0ffH
	DB	00H
	DB	0b4H
	DB	00H
	DB	0ffH
	DB	00H
	DB	0b4H
	DB	00H
	DB	0ffH
	DB	00H
	DB	0b4H
	DB	00H
	DB	0ffH
	DB	00H
	DB	0b4H
	DB	00H
	DB	0ffH
	DB	00H
	DB	0b4H
	DB	00H
	DB	0ffH
	DB	00H
	DB	0b4H
	DB	00H
	DB	0ffH
	DB	00H
	DB	0b4H
	DB	00H
	DB	0ffH
	DB	00H
	DB	0b4H
	DB	00H
	DB	0ffH
	DB	00H
	DB	0b4H
	DB	00H
	DB	0ffH
	DB	00H
	DB	0b4H
	DB	00H
	DB	0ffH
	DB	00H
	DB	0b4H
	DB	00H
	DB	0ffH
	DB	00H
	DB	0b4H
	DB	00H
	DB	07dH
	DB	00H
	DB	00H
	DB	00H
	DB	00H
	DB	00H
	DB	00H
	DB	00H
	DB	00H
	DB	00H
	DB	00H
	DB	00H
	DB	00H
	DB	00H
	DB	00H
	DB	00H
	DB	00H
	DB	00H
	DB	00H
	DB	00H
	DB	00H
	DB	00H
	DB	00H
	DB	00H
	DB	00H
	DB	00H
	DB	00H
	DB	00H
	DB	00H
	DB	00H
	DB	00H
	DB	00H
	DB	00H
	DB	00H
	DB	00H
	DB	00H
	DB	00H
	DB	00H
	DB	00H
	DB	00H
	DB	00H
	DB	00H
	DB	00H
	DB	00H
	DB	00H
	DB	00H
	DB	00H
	DB	00H
	DB	00H
	DB	00H
	DB	00H
	DB	00H
	DB	00H
	DB	00H
	DB	00H
	DB	00H
	DB	00H
	DB	00H
	DB	00H
	DB	00H
	DB	00H
	DB	00H
	DB	00H
	DB	00H
	DB	00H
	DB	00H
	DB	00H
	DB	00H
	DB	00H
	DB	00H
	DB	00H
	DB	00H
	DB	00H
	DB	00H
	DB	00H
	DB	00H
	DB	00H
	DB	00H
	DB	00H
	DB	00H
	DB	00H
	DB	00H
	DB	00H
	DB	00H
	DB	00H
	DB	00H
	DB	00H
	DB	00H
	DB	00H
	DB	00H
	DB	00H
	DB	00H
	DB	00H
	DB	00H
	DB	00H
	DB	00H
	DB	00H
	DB	00H
	DB	00H
	DB	00H
	DB	00H
	DB	00H
	DB	00H
	DB	00H
	DB	00H
	DB	00H
	DB	00H
	DB	00H
	DB	00H
	DB	00H
	DB	00H
	DB	00H
	DB	00H
	DB	00H
	DB	00H
	DB	00H
	DB	00H
	DB	00H
	DB	00H
	DB	00H
	DB	00H
	DB	00H
	DB	00H
	DB	00H
	DB	00H
	DB	00H
	DB	00H
	DB	00H
	DB	00H
	DB	00H
	DB	00H
	DB	00H
	DB	00H
	DB	00H
	DB	00H
	DB	00H
	DB	00H
	DB	00H
	DB	00H
	DB	00H
	DB	00H
	DB	00H
	DB	00H
	DB	00H
	DB	00H
	DB	00H
	DB	00H
	DB	00H
	DB	00H
	DB	00H
	DB	00H
	DB	00H
	DB	00H
	DB	00H
	DB	00H
	DB	00H
	DB	00H
	DB	00H
	DB	00H
	DB	00H
	DB	00H
	DB	00H
	DB	00H
	DB	00H
	DB	00H
	DB	00H
	DB	00H
	DB	00H
	DB	00H
	DB	00H
	DB	00H
	DB	00H
	DB	00H
	DB	00H
	DB	00H
	DB	00H
	DB	00H
	DB	00H
	DB	00H
	DB	00H
	DB	00H
	DB	00H
	DB	00H
	DB	00H
	DB	00H
	DB	00H
	DB	00H
	DB	00H
	DB	00H
	DB	00H
	DB	00H
	DB	00H
	DB	00H
	DB	00H
	DB	00H
	DB	00H
	DB	00H
	DB	00H
	DB	00H
	DB	00H
	DB	00H
	DB	00H
	DB	00H
	DB	00H
	DB	00H
	DB	00H
	DB	00H
	DB	00H
	DB	00H
	DB	00H
	DB	00H
	DB	00H
	DB	00H
	DB	00H
	DB	00H
	DB	00H
	DB	00H
	DB	00H
	DB	00H
	DB	00H
	DB	00H
	DB	00H
	DB	00H
	DB	00H
	DB	00H
	DB	00H
	DB	00H
	DB	00H
	DB	00H
	DB	00H
	DB	00H
	DB	00H
	DB	00H
	DB	00H
	DB	00H
	DB	00H
	DB	00H
	DB	00H
	DB	00H
	DB	00H
	DB	00H
	DB	00H
	DB	00H
	DB	00H
	DB	00H
	DB	00H
	DB	00H
	DB	00H
	DB	00H
	DB	00H
	DB	00H
	DB	00H
	DB	00H
	DB	00H
	DB	00H
	DB	00H
	DB	00H
	DB	00H
	DB	00H
	DB	00H
	DB	00H
	DB	00H
	DB	00H
	DB	00H
	DB	00H
	DB	00H
	DB	00H
	DB	00H
	DB	00H
	DB	00H
	DB	00H
	DB	00H
	DB	00H
	DB	00H
	DB	00H
	DB	00H
	DB	00H
	DB	00H
	DB	00H
	DB	00H
	DB	00H
	DB	00H
	DB	00H
	DB	00H
	DB	00H
	DB	00H
	DB	00H
	DB	00H
	DB	00H
	DB	00H
	DB	00H
	DB	00H
	DB	00H
CONST	ENDS
END
