; Listing generated by Microsoft (R) Optimizing Compiler Version 19.37.32822.0 

	TITLE	C:\TouchGFXProjects\KraftHeinz_DS3600\TouchGFX\build\Debug\obj\image_battery-med-low-eol.obj
	.686P
	.XMM
	include listing.inc
	.model	flat

INCLUDELIB MSVCRTD
INCLUDELIB OLDNAMES

PUBLIC	?image_battery_med_low_eol@@3QBEB		; image_battery_med_low_eol
msvcjmc	SEGMENT
__38966392_Config@hpp DB 01H
__E25330E6_image_battery-med-low-eol@cpp DB 01H
msvcjmc	ENDS
CONST	SEGMENT
?image_battery_med_low_eol@@3QBEB DB 0f8H		; image_battery_med_low_eol
	DB	0fcH
	DB	0f8H
	DB	00H
	DB	0f8H
	DB	0fcH
	DB	0f8H
	DB	00H
	DB	0f8H
	DB	0fcH
	DB	0f8H
	DB	00H
	DB	0f8H
	DB	0fcH
	DB	0f8H
	DB	00H
	DB	0f8H
	DB	0fcH
	DB	0f8H
	DB	00H
	DB	0f8H
	DB	0fcH
	DB	0f8H
	DB	00H
	DB	0f8H
	DB	0fcH
	DB	0f8H
	DB	00H
	DB	0f8H
	DB	0fcH
	DB	0f8H
	DB	00H
	DB	0f8H
	DB	0fcH
	DB	0f8H
	DB	00H
	DB	0f8H
	DB	0fcH
	DB	0f8H
	DB	00H
	DB	0f8H
	DB	0fcH
	DB	0f8H
	DB	00H
	DB	0f8H
	DB	0fcH
	DB	0f8H
	DB	00H
	DB	098H
	DB	098H
	DB	098H
	DB	0ffH
	DB	098H
	DB	098H
	DB	098H
	DB	0ffH
	DB	098H
	DB	098H
	DB	098H
	DB	0ffH
	DB	098H
	DB	098H
	DB	098H
	DB	0ffH
	DB	098H
	DB	098H
	DB	098H
	DB	0ffH
	DB	098H
	DB	098H
	DB	098H
	DB	0ffH
	DB	098H
	DB	098H
	DB	098H
	DB	0ffH
	DB	098H
	DB	098H
	DB	098H
	DB	0ffH
	DB	0f8H
	DB	0fcH
	DB	0f8H
	DB	00H
	DB	0f8H
	DB	0fcH
	DB	0f8H
	DB	00H
	DB	0f8H
	DB	0fcH
	DB	0f8H
	DB	00H
	DB	0f8H
	DB	0fcH
	DB	0f8H
	DB	00H
	DB	0f8H
	DB	0fcH
	DB	0f8H
	DB	00H
	DB	0f8H
	DB	0fcH
	DB	0f8H
	DB	00H
	DB	0f8H
	DB	0fcH
	DB	0f8H
	DB	00H
	DB	0f8H
	DB	0fcH
	DB	0f8H
	DB	00H
	DB	0f8H
	DB	0fcH
	DB	0f8H
	DB	00H
	DB	0f8H
	DB	0fcH
	DB	0f8H
	DB	00H
	DB	0f8H
	DB	0fcH
	DB	0f8H
	DB	00H
	DB	0f8H
	DB	0fcH
	DB	0f8H
	DB	00H
	DB	0f8H
	DB	0fcH
	DB	0f8H
	DB	00H
	DB	0f8H
	DB	0fcH
	DB	0f8H
	DB	00H
	DB	0f8H
	DB	0fcH
	DB	0f8H
	DB	00H
	DB	0f8H
	DB	0fcH
	DB	0f8H
	DB	00H
	DB	0f8H
	DB	0fcH
	DB	0f8H
	DB	00H
	DB	0f8H
	DB	0fcH
	DB	0f8H
	DB	00H
	DB	0f8H
	DB	0fcH
	DB	0f8H
	DB	00H
	DB	0f8H
	DB	0fcH
	DB	0f8H
	DB	00H
	DB	0f8H
	DB	0fcH
	DB	0f8H
	DB	00H
	DB	0f8H
	DB	0fcH
	DB	0f8H
	DB	00H
	DB	0f8H
	DB	0fcH
	DB	0f8H
	DB	00H
	DB	0f8H
	DB	0fcH
	DB	0f8H
	DB	00H
	DB	098H
	DB	098H
	DB	098H
	DB	0ffH
	DB	098H
	DB	098H
	DB	098H
	DB	0ffH
	DB	098H
	DB	098H
	DB	098H
	DB	0ffH
	DB	098H
	DB	098H
	DB	098H
	DB	0ffH
	DB	098H
	DB	098H
	DB	098H
	DB	0ffH
	DB	098H
	DB	098H
	DB	098H
	DB	0ffH
	DB	098H
	DB	098H
	DB	098H
	DB	0ffH
	DB	098H
	DB	098H
	DB	098H
	DB	0ffH
	DB	0f8H
	DB	0fcH
	DB	0f8H
	DB	00H
	DB	0f8H
	DB	0fcH
	DB	0f8H
	DB	00H
	DB	0f8H
	DB	0fcH
	DB	0f8H
	DB	00H
	DB	0f8H
	DB	0fcH
	DB	0f8H
	DB	00H
	DB	0f8H
	DB	0fcH
	DB	0f8H
	DB	00H
	DB	0f8H
	DB	0fcH
	DB	0f8H
	DB	00H
	DB	0f8H
	DB	0fcH
	DB	0f8H
	DB	00H
	DB	0f8H
	DB	0fcH
	DB	0f8H
	DB	00H
	DB	0f8H
	DB	0fcH
	DB	0f8H
	DB	00H
	DB	0f8H
	DB	0fcH
	DB	0f8H
	DB	00H
	DB	0f8H
	DB	0fcH
	DB	0f8H
	DB	00H
	DB	0f8H
	DB	0fcH
	DB	0f8H
	DB	00H
	DB	0f8H
	DB	0fcH
	DB	0f8H
	DB	00H
	DB	0f8H
	DB	0fcH
	DB	0f8H
	DB	00H
	DB	0f8H
	DB	0fcH
	DB	0f8H
	DB	00H
	DB	0f8H
	DB	0fcH
	DB	0f8H
	DB	00H
	DB	0f8H
	DB	0fcH
	DB	0f8H
	DB	00H
	DB	0f8H
	DB	0fcH
	DB	0f8H
	DB	00H
	DB	0f8H
	DB	0fcH
	DB	0f8H
	DB	00H
	DB	0f8H
	DB	0fcH
	DB	0f8H
	DB	00H
	DB	0f8H
	DB	0fcH
	DB	0f8H
	DB	00H
	DB	0f8H
	DB	0fcH
	DB	0f8H
	DB	00H
	DB	0f8H
	DB	0fcH
	DB	0f8H
	DB	00H
	DB	0f8H
	DB	0fcH
	DB	0f8H
	DB	00H
	DB	098H
	DB	098H
	DB	098H
	DB	0ffH
	DB	098H
	DB	098H
	DB	098H
	DB	0ffH
	DB	098H
	DB	09cH
	DB	098H
	DB	0ffH
	DB	098H
	DB	098H
	DB	098H
	DB	0ffH
	DB	098H
	DB	09cH
	DB	098H
	DB	0ffH
	DB	098H
	DB	098H
	DB	098H
	DB	0ffH
	DB	098H
	DB	098H
	DB	098H
	DB	0ffH
	DB	098H
	DB	09cH
	DB	098H
	DB	0ffH
	DB	0f8H
	DB	0fcH
	DB	0f8H
	DB	00H
	DB	0f8H
	DB	0fcH
	DB	0f8H
	DB	00H
	DB	0f8H
	DB	0fcH
	DB	0f8H
	DB	00H
	DB	0f8H
	DB	0fcH
	DB	0f8H
	DB	00H
	DB	0f8H
	DB	0fcH
	DB	0f8H
	DB	00H
	DB	0f8H
	DB	0fcH
	DB	0f8H
	DB	00H
	DB	0f8H
	DB	0fcH
	DB	0f8H
	DB	00H
	DB	0f8H
	DB	0fcH
	DB	0f8H
	DB	00H
	DB	0f8H
	DB	0fcH
	DB	0f8H
	DB	00H
	DB	0f8H
	DB	0fcH
	DB	0f8H
	DB	00H
	DB	0f8H
	DB	0fcH
	DB	0f8H
	DB	00H
	DB	0f8H
	DB	0fcH
	DB	0f8H
	DB	00H
	DB	0f8H
	DB	0fcH
	DB	0f8H
	DB	00H
	DB	0f8H
	DB	0fcH
	DB	0f8H
	DB	00H
	DB	0f8H
	DB	0fcH
	DB	0f8H
	DB	00H
	DB	0f8H
	DB	0fcH
	DB	0f8H
	DB	00H
	DB	0f8H
	DB	0fcH
	DB	0f8H
	DB	00H
	DB	0f8H
	DB	0fcH
	DB	0f8H
	DB	00H
	DB	0f8H
	DB	0fcH
	DB	0f8H
	DB	00H
	DB	0f8H
	DB	0fcH
	DB	0f8H
	DB	00H
	DB	0f8H
	DB	0fcH
	DB	0f8H
	DB	00H
	DB	0f8H
	DB	0fcH
	DB	0f8H
	DB	00H
	DB	0f8H
	DB	0fcH
	DB	0f8H
	DB	00H
	DB	0f8H
	DB	0fcH
	DB	0f8H
	DB	00H
	DB	098H
	DB	098H
	DB	098H
	DB	0ffH
	DB	098H
	DB	098H
	DB	098H
	DB	0ffH
	DB	098H
	DB	098H
	DB	098H
	DB	0ffH
	DB	098H
	DB	09cH
	DB	098H
	DB	0ffH
	DB	098H
	DB	098H
	DB	098H
	DB	0ffH
	DB	098H
	DB	098H
	DB	098H
	DB	0ffH
	DB	098H
	DB	09cH
	DB	098H
	DB	0ffH
	DB	098H
	DB	098H
	DB	098H
	DB	0ffH
	DB	0f8H
	DB	0fcH
	DB	0f8H
	DB	00H
	DB	0f8H
	DB	0fcH
	DB	0f8H
	DB	00H
	DB	0f8H
	DB	0fcH
	DB	0f8H
	DB	00H
	DB	0f8H
	DB	0fcH
	DB	0f8H
	DB	00H
	DB	0f8H
	DB	0fcH
	DB	0f8H
	DB	00H
	DB	0f8H
	DB	0fcH
	DB	0f8H
	DB	00H
	DB	0f8H
	DB	0fcH
	DB	0f8H
	DB	00H
	DB	0f8H
	DB	0fcH
	DB	0f8H
	DB	00H
	DB	0f8H
	DB	0fcH
	DB	0f8H
	DB	00H
	DB	0f8H
	DB	0fcH
	DB	0f8H
	DB	00H
	DB	0f8H
	DB	0fcH
	DB	0f8H
	DB	00H
	DB	0f8H
	DB	0fcH
	DB	0f8H
	DB	00H
	DB	0f8H
	DB	0fcH
	DB	0f8H
	DB	00H
	DB	0f8H
	DB	0fcH
	DB	0f8H
	DB	00H
	DB	0f8H
	DB	0fcH
	DB	0f8H
	DB	00H
	DB	0f8H
	DB	0fcH
	DB	0f8H
	DB	00H
	DB	0f8H
	DB	0fcH
	DB	0f8H
	DB	00H
	DB	0f8H
	DB	0fcH
	DB	0f8H
	DB	00H
	DB	0f8H
	DB	0fcH
	DB	0f8H
	DB	00H
	DB	090H
	DB	08cH
	DB	090H
	DB	08eH
	DB	098H
	DB	098H
	DB	098H
	DB	0ffH
	DB	098H
	DB	098H
	DB	098H
	DB	0ffH
	DB	098H
	DB	098H
	DB	098H
	DB	0ffH
	DB	098H
	DB	098H
	DB	098H
	DB	0ffH
	DB	098H
	DB	09cH
	DB	098H
	DB	0ffH
	DB	098H
	DB	098H
	DB	098H
	DB	0ffH
	DB	098H
	DB	098H
	DB	098H
	DB	0ffH
	DB	098H
	DB	098H
	DB	098H
	DB	0ffH
	DB	0a0H
	DB	098H
	DB	0a0H
	DB	0ffH
	DB	098H
	DB	098H
	DB	098H
	DB	0ffH
	DB	098H
	DB	098H
	DB	098H
	DB	0ffH
	DB	098H
	DB	098H
	DB	098H
	DB	0ffH
	DB	098H
	DB	098H
	DB	098H
	DB	0ffH
	DB	098H
	DB	098H
	DB	098H
	DB	0ffH
	DB	098H
	DB	098H
	DB	098H
	DB	0ffH
	DB	098H
	DB	098H
	DB	098H
	DB	0ffH
	DB	090H
	DB	090H
	DB	090H
	DB	08eH
	DB	0f8H
	DB	0fcH
	DB	0f8H
	DB	00H
	DB	0f8H
	DB	0fcH
	DB	0f8H
	DB	00H
	DB	0f8H
	DB	0fcH
	DB	0f8H
	DB	00H
	DB	0f8H
	DB	0fcH
	DB	0f8H
	DB	00H
	DB	0f8H
	DB	0fcH
	DB	0f8H
	DB	00H
	DB	0f8H
	DB	0fcH
	DB	0f8H
	DB	00H
	DB	0f8H
	DB	0fcH
	DB	0f8H
	DB	00H
	DB	0f8H
	DB	0fcH
	DB	0f8H
	DB	00H
	DB	0f8H
	DB	0fcH
	DB	0f8H
	DB	00H
	DB	0f8H
	DB	0fcH
	DB	0f8H
	DB	00H
	DB	0f8H
	DB	0fcH
	DB	0f8H
	DB	00H
	DB	0f8H
	DB	0fcH
	DB	0f8H
	DB	00H
	DB	0f8H
	DB	0fcH
	DB	0f8H
	DB	00H
	DB	0f8H
	DB	0fcH
	DB	0f8H
	DB	00H
	DB	098H
	DB	098H
	DB	098H
	DB	0ffH
	DB	098H
	DB	098H
	DB	098H
	DB	0ffH
	DB	098H
	DB	098H
	DB	098H
	DB	0ffH
	DB	098H
	DB	098H
	DB	098H
	DB	0ffH
	DB	098H
	DB	098H
	DB	098H
	DB	0ffH
	DB	098H
	DB	098H
	DB	098H
	DB	0ffH
	DB	098H
	DB	09cH
	DB	098H
	DB	0ffH
	DB	098H
	DB	098H
	DB	098H
	DB	0ffH
	DB	098H
	DB	098H
	DB	098H
	DB	0ffH
	DB	098H
	DB	09cH
	DB	098H
	DB	0ffH
	DB	098H
	DB	098H
	DB	098H
	DB	0ffH
	DB	098H
	DB	098H
	DB	098H
	DB	0ffH
	DB	0a0H
	DB	09cH
	DB	0a0H
	DB	0ffH
	DB	098H
	DB	098H
	DB	098H
	DB	0ffH
	DB	098H
	DB	098H
	DB	098H
	DB	0ffH
	DB	098H
	DB	098H
	DB	098H
	DB	0ffH
	DB	098H
	DB	098H
	DB	098H
	DB	0ffH
	DB	098H
	DB	098H
	DB	098H
	DB	0ffH
	DB	0f8H
	DB	0fcH
	DB	0f8H
	DB	00H
	DB	0f8H
	DB	0fcH
	DB	0f8H
	DB	00H
	DB	0f8H
	DB	0fcH
	DB	0f8H
	DB	00H
	DB	0f8H
	DB	0fcH
	DB	0f8H
	DB	00H
	DB	0f8H
	DB	0fcH
	DB	0f8H
	DB	00H
	DB	0f8H
	DB	0fcH
	DB	0f8H
	DB	00H
	DB	0f8H
	DB	0fcH
	DB	0f8H
	DB	00H
	DB	0f8H
	DB	0fcH
	DB	0f8H
	DB	00H
	DB	0f8H
	DB	0fcH
	DB	0f8H
	DB	00H
	DB	0f8H
	DB	0fcH
	DB	0f8H
	DB	00H
	DB	0f8H
	DB	0fcH
	DB	0f8H
	DB	00H
	DB	0f8H
	DB	0fcH
	DB	0f8H
	DB	00H
	DB	0f8H
	DB	0fcH
	DB	0f8H
	DB	00H
	DB	0f8H
	DB	0fcH
	DB	0f8H
	DB	00H
	DB	098H
	DB	098H
	DB	098H
	DB	0ffH
	DB	098H
	DB	09cH
	DB	098H
	DB	0ffH
	DB	098H
	DB	098H
	DB	098H
	DB	0ffH
	DB	098H
	DB	09cH
	DB	098H
	DB	0ffH
	DB	098H
	DB	098H
	DB	098H
	DB	0ffH
	DB	098H
	DB	098H
	DB	098H
	DB	0ffH
	DB	0a0H
	DB	098H
	DB	0a0H
	DB	0ffH
	DB	098H
	DB	09cH
	DB	098H
	DB	0ffH
	DB	098H
	DB	098H
	DB	098H
	DB	0ffH
	DB	098H
	DB	098H
	DB	098H
	DB	0ffH
	DB	098H
	DB	09cH
	DB	098H
	DB	0ffH
	DB	098H
	DB	098H
	DB	098H
	DB	0ffH
	DB	098H
	DB	098H
	DB	098H
	DB	0ffH
	DB	098H
	DB	09cH
	DB	098H
	DB	0ffH
	DB	098H
	DB	098H
	DB	098H
	DB	0ffH
	DB	098H
	DB	09cH
	DB	098H
	DB	0ffH
	DB	098H
	DB	098H
	DB	098H
	DB	0ffH
	DB	098H
	DB	098H
	DB	098H
	DB	0ffH
	DB	0f8H
	DB	0fcH
	DB	0f8H
	DB	00H
	DB	0f8H
	DB	0fcH
	DB	0f8H
	DB	00H
	DB	0f8H
	DB	0fcH
	DB	0f8H
	DB	00H
	DB	0f8H
	DB	0fcH
	DB	0f8H
	DB	00H
	DB	0f8H
	DB	0fcH
	DB	0f8H
	DB	00H
	DB	0f8H
	DB	0fcH
	DB	0f8H
	DB	00H
	DB	0f8H
	DB	0fcH
	DB	0f8H
	DB	00H
	DB	0f8H
	DB	0fcH
	DB	0f8H
	DB	00H
	DB	0f8H
	DB	0fcH
	DB	0f8H
	DB	00H
	DB	0f8H
	DB	0fcH
	DB	0f8H
	DB	00H
	DB	0f8H
	DB	0fcH
	DB	0f8H
	DB	00H
	DB	0f8H
	DB	0fcH
	DB	0f8H
	DB	00H
	DB	0f8H
	DB	0fcH
	DB	0f8H
	DB	00H
	DB	0f8H
	DB	0fcH
	DB	0f8H
	DB	00H
	DB	098H
	DB	098H
	DB	098H
	DB	0ffH
	DB	098H
	DB	098H
	DB	098H
	DB	0ffH
	DB	098H
	DB	098H
	DB	098H
	DB	0ffH
	DB	098H
	DB	09cH
	DB	098H
	DB	0ffH
	DB	098H
	DB	098H
	DB	098H
	DB	0ffH
	DB	098H
	DB	098H
	DB	098H
	DB	0ffH
	DB	098H
	DB	09cH
	DB	098H
	DB	0ffH
	DB	098H
	DB	098H
	DB	098H
	DB	0ffH
	DB	0a0H
	DB	098H
	DB	0a0H
	DB	0ffH
	DB	098H
	DB	098H
	DB	098H
	DB	0ffH
	DB	098H
	DB	098H
	DB	098H
	DB	0ffH
	DB	0a0H
	DB	098H
	DB	0a0H
	DB	0ffH
	DB	098H
	DB	098H
	DB	098H
	DB	0ffH
	DB	098H
	DB	098H
	DB	098H
	DB	0ffH
	DB	098H
	DB	098H
	DB	098H
	DB	0ffH
	DB	098H
	DB	098H
	DB	098H
	DB	0ffH
	DB	098H
	DB	09cH
	DB	098H
	DB	0ffH
	DB	098H
	DB	098H
	DB	098H
	DB	0ffH
	DB	0f8H
	DB	0fcH
	DB	0f8H
	DB	00H
	DB	0f8H
	DB	0fcH
	DB	0f8H
	DB	00H
	DB	0f8H
	DB	0fcH
	DB	0f8H
	DB	00H
	DB	0f8H
	DB	0fcH
	DB	0f8H
	DB	00H
	DB	0f8H
	DB	0fcH
	DB	0f8H
	DB	00H
	DB	0f8H
	DB	0fcH
	DB	0f8H
	DB	00H
	DB	0f8H
	DB	0fcH
	DB	0f8H
	DB	00H
	DB	0f8H
	DB	0fcH
	DB	0f8H
	DB	00H
	DB	0f8H
	DB	0fcH
	DB	0f8H
	DB	00H
	DB	0f8H
	DB	0fcH
	DB	0f8H
	DB	00H
	DB	0f8H
	DB	0fcH
	DB	0f8H
	DB	00H
	DB	0f8H
	DB	0fcH
	DB	0f8H
	DB	00H
	DB	0f8H
	DB	0fcH
	DB	0f8H
	DB	00H
	DB	0f8H
	DB	0fcH
	DB	0f8H
	DB	00H
	DB	098H
	DB	098H
	DB	098H
	DB	0ffH
	DB	098H
	DB	098H
	DB	098H
	DB	0ffH
	DB	098H
	DB	098H
	DB	098H
	DB	0ffH
	DB	098H
	DB	098H
	DB	098H
	DB	0ffH
	DB	0a0H
	DB	098H
	DB	0a0H
	DB	0ffH
	DB	098H
	DB	098H
	DB	098H
	DB	0ffH
	DB	098H
	DB	09cH
	DB	098H
	DB	0ffH
	DB	098H
	DB	098H
	DB	098H
	DB	0ffH
	DB	098H
	DB	098H
	DB	098H
	DB	0ffH
	DB	098H
	DB	09cH
	DB	098H
	DB	0ffH
	DB	098H
	DB	098H
	DB	098H
	DB	0ffH
	DB	098H
	DB	09cH
	DB	098H
	DB	0ffH
	DB	098H
	DB	09cH
	DB	098H
	DB	0ffH
	DB	098H
	DB	098H
	DB	098H
	DB	0ffH
	DB	0a0H
	DB	098H
	DB	0a0H
	DB	0ffH
	DB	098H
	DB	098H
	DB	098H
	DB	0ffH
	DB	098H
	DB	098H
	DB	098H
	DB	0ffH
	DB	098H
	DB	098H
	DB	098H
	DB	0ffH
	DB	0f8H
	DB	0fcH
	DB	0f8H
	DB	00H
	DB	0f8H
	DB	0fcH
	DB	0f8H
	DB	00H
	DB	0f8H
	DB	0fcH
	DB	0f8H
	DB	00H
	DB	0f8H
	DB	0fcH
	DB	0f8H
	DB	00H
	DB	0f8H
	DB	0fcH
	DB	0f8H
	DB	00H
	DB	0f8H
	DB	0fcH
	DB	0f8H
	DB	00H
	DB	0f8H
	DB	0fcH
	DB	0f8H
	DB	00H
	DB	0f8H
	DB	0fcH
	DB	0f8H
	DB	00H
	DB	0f8H
	DB	0fcH
	DB	0f8H
	DB	00H
	DB	0f8H
	DB	0fcH
	DB	0f8H
	DB	00H
	DB	0f8H
	DB	0fcH
	DB	0f8H
	DB	00H
	DB	0f8H
	DB	0fcH
	DB	0f8H
	DB	00H
	DB	0f8H
	DB	0fcH
	DB	0f8H
	DB	00H
	DB	0f8H
	DB	0fcH
	DB	0f8H
	DB	00H
	DB	098H
	DB	098H
	DB	098H
	DB	0ffH
	DB	098H
	DB	09cH
	DB	098H
	DB	0ffH
	DB	098H
	DB	09cH
	DB	098H
	DB	0ffH
	DB	098H
	DB	098H
	DB	098H
	DB	0ffH
	DB	098H
	DB	098H
	DB	098H
	DB	0ffH
	DB	098H
	DB	09cH
	DB	098H
	DB	0ffH
	DB	098H
	DB	098H
	DB	098H
	DB	0ffH
	DB	098H
	DB	098H
	DB	098H
	DB	0ffH
	DB	098H
	DB	098H
	DB	098H
	DB	0ffH
	DB	098H
	DB	09cH
	DB	098H
	DB	0ffH
	DB	098H
	DB	098H
	DB	098H
	DB	0ffH
	DB	098H
	DB	098H
	DB	098H
	DB	0ffH
	DB	098H
	DB	098H
	DB	098H
	DB	0ffH
	DB	098H
	DB	09cH
	DB	098H
	DB	0ffH
	DB	098H
	DB	098H
	DB	098H
	DB	0ffH
	DB	098H
	DB	09cH
	DB	098H
	DB	0ffH
	DB	0a0H
	DB	098H
	DB	0a0H
	DB	0ffH
	DB	098H
	DB	098H
	DB	098H
	DB	0ffH
	DB	0f8H
	DB	0fcH
	DB	0f8H
	DB	00H
	DB	0f8H
	DB	0fcH
	DB	0f8H
	DB	00H
	DB	0f8H
	DB	0fcH
	DB	0f8H
	DB	00H
	DB	0f8H
	DB	0fcH
	DB	0f8H
	DB	00H
	DB	0f8H
	DB	0fcH
	DB	0f8H
	DB	00H
	DB	0f8H
	DB	0fcH
	DB	0f8H
	DB	00H
	DB	0f8H
	DB	0fcH
	DB	0f8H
	DB	00H
	DB	0f8H
	DB	0fcH
	DB	0f8H
	DB	00H
	DB	0f8H
	DB	0fcH
	DB	0f8H
	DB	00H
	DB	0f8H
	DB	0fcH
	DB	0f8H
	DB	00H
	DB	0f8H
	DB	0fcH
	DB	0f8H
	DB	00H
	DB	0f8H
	DB	0fcH
	DB	0f8H
	DB	00H
	DB	0f8H
	DB	0fcH
	DB	0f8H
	DB	00H
	DB	0f8H
	DB	0fcH
	DB	0f8H
	DB	00H
	DB	098H
	DB	098H
	DB	098H
	DB	0ffH
	DB	098H
	DB	098H
	DB	098H
	DB	0ffH
	DB	098H
	DB	098H
	DB	098H
	DB	0ffH
	DB	098H
	DB	098H
	DB	098H
	DB	0ffH
	DB	098H
	DB	09cH
	DB	098H
	DB	0ffH
	DB	0a0H
	DB	098H
	DB	0a0H
	DB	0ffH
	DB	098H
	DB	098H
	DB	098H
	DB	0ffH
	DB	098H
	DB	098H
	DB	098H
	DB	0ffH
	DB	0a0H
	DB	098H
	DB	0a0H
	DB	0ffH
	DB	098H
	DB	098H
	DB	098H
	DB	0ffH
	DB	098H
	DB	098H
	DB	098H
	DB	0ffH
	DB	0a0H
	DB	098H
	DB	0a0H
	DB	0ffH
	DB	098H
	DB	098H
	DB	098H
	DB	0ffH
	DB	098H
	DB	098H
	DB	098H
	DB	0ffH
	DB	098H
	DB	098H
	DB	098H
	DB	0ffH
	DB	098H
	DB	09cH
	DB	098H
	DB	0ffH
	DB	098H
	DB	098H
	DB	098H
	DB	0ffH
	DB	098H
	DB	098H
	DB	098H
	DB	0ffH
	DB	0f8H
	DB	0fcH
	DB	0f8H
	DB	00H
	DB	0f8H
	DB	0fcH
	DB	0f8H
	DB	00H
	DB	0f8H
	DB	0fcH
	DB	0f8H
	DB	00H
	DB	0f8H
	DB	0fcH
	DB	0f8H
	DB	00H
	DB	0f8H
	DB	0fcH
	DB	0f8H
	DB	00H
	DB	0f8H
	DB	0fcH
	DB	0f8H
	DB	00H
	DB	0f8H
	DB	0fcH
	DB	0f8H
	DB	00H
	DB	0f8H
	DB	0fcH
	DB	0f8H
	DB	00H
	DB	0f8H
	DB	0fcH
	DB	0f8H
	DB	00H
	DB	0f8H
	DB	0fcH
	DB	0f8H
	DB	00H
	DB	0f8H
	DB	0fcH
	DB	0f8H
	DB	00H
	DB	0f8H
	DB	0fcH
	DB	0f8H
	DB	00H
	DB	0f8H
	DB	0fcH
	DB	0f8H
	DB	00H
	DB	0f8H
	DB	0fcH
	DB	0f8H
	DB	00H
	DB	098H
	DB	098H
	DB	098H
	DB	0ffH
	DB	098H
	DB	098H
	DB	098H
	DB	0ffH
	DB	0a0H
	DB	098H
	DB	0a0H
	DB	0ffH
	DB	098H
	DB	098H
	DB	098H
	DB	0ffH
	DB	098H
	DB	098H
	DB	098H
	DB	0ffH
	DB	098H
	DB	098H
	DB	098H
	DB	0ffH
	DB	098H
	DB	09cH
	DB	098H
	DB	0ffH
	DB	098H
	DB	09cH
	DB	098H
	DB	0ffH
	DB	098H
	DB	098H
	DB	098H
	DB	0ffH
	DB	098H
	DB	098H
	DB	098H
	DB	0ffH
	DB	098H
	DB	09cH
	DB	098H
	DB	0ffH
	DB	098H
	DB	09cH
	DB	098H
	DB	0ffH
	DB	098H
	DB	098H
	DB	098H
	DB	0ffH
	DB	0a0H
	DB	098H
	DB	0a0H
	DB	0ffH
	DB	098H
	DB	098H
	DB	098H
	DB	0ffH
	DB	098H
	DB	098H
	DB	098H
	DB	0ffH
	DB	098H
	DB	09cH
	DB	098H
	DB	0ffH
	DB	098H
	DB	098H
	DB	098H
	DB	0ffH
	DB	0f8H
	DB	0fcH
	DB	0f8H
	DB	00H
	DB	0f8H
	DB	0fcH
	DB	0f8H
	DB	00H
	DB	0f8H
	DB	0fcH
	DB	0f8H
	DB	00H
	DB	0f8H
	DB	0fcH
	DB	0f8H
	DB	00H
	DB	0f8H
	DB	0fcH
	DB	0f8H
	DB	00H
	DB	0f8H
	DB	0fcH
	DB	0f8H
	DB	00H
	DB	0f8H
	DB	0fcH
	DB	0f8H
	DB	00H
	DB	0f8H
	DB	0fcH
	DB	0f8H
	DB	00H
	DB	0f8H
	DB	0fcH
	DB	0f8H
	DB	00H
	DB	0f8H
	DB	0fcH
	DB	0f8H
	DB	00H
	DB	0f8H
	DB	0fcH
	DB	0f8H
	DB	00H
	DB	0f8H
	DB	0fcH
	DB	0f8H
	DB	00H
	DB	0f8H
	DB	0fcH
	DB	0f8H
	DB	00H
	DB	0f8H
	DB	0fcH
	DB	0f8H
	DB	00H
	DB	098H
	DB	098H
	DB	098H
	DB	0ffH
	DB	098H
	DB	09cH
	DB	098H
	DB	0ffH
	DB	098H
	DB	09cH
	DB	098H
	DB	0ffH
	DB	098H
	DB	098H
	DB	098H
	DB	0ffH
	DB	098H
	DB	098H
	DB	098H
	DB	0ffH
	DB	0a0H
	DB	0a0H
	DB	0a0H
	DB	0ffH
	DB	0d0H
	DB	0ccH
	DB	0d0H
	DB	0ffH
	DB	0f0H
	DB	0ecH
	DB	0f0H
	DB	0ffH
	DB	0f8H
	DB	0fcH
	DB	0f8H
	DB	0ffH
	DB	0f8H
	DB	0fcH
	DB	0f8H
	DB	0ffH
	DB	0f0H
	DB	0ecH
	DB	0f0H
	DB	0ffH
	DB	0c8H
	DB	0ccH
	DB	0c8H
	DB	0ffH
	DB	0a0H
	DB	09cH
	DB	0a0H
	DB	0ffH
	DB	098H
	DB	09cH
	DB	098H
	DB	0ffH
	DB	098H
	DB	098H
	DB	098H
	DB	0ffH
	DB	098H
	DB	098H
	DB	098H
	DB	0ffH
	DB	0a0H
	DB	09cH
	DB	0a0H
	DB	0ffH
	DB	098H
	DB	098H
	DB	098H
	DB	0ffH
	DB	0f8H
	DB	0fcH
	DB	0f8H
	DB	00H
	DB	0f8H
	DB	0fcH
	DB	0f8H
	DB	00H
	DB	0f8H
	DB	0fcH
	DB	0f8H
	DB	00H
	DB	0f8H
	DB	0fcH
	DB	0f8H
	DB	00H
	DB	0f8H
	DB	0fcH
	DB	0f8H
	DB	00H
	DB	0f8H
	DB	0fcH
	DB	0f8H
	DB	00H
	DB	0f8H
	DB	0fcH
	DB	0f8H
	DB	00H
	DB	0f8H
	DB	0fcH
	DB	0f8H
	DB	00H
	DB	0f8H
	DB	0fcH
	DB	0f8H
	DB	00H
	DB	0f8H
	DB	0fcH
	DB	0f8H
	DB	00H
	DB	0f8H
	DB	0fcH
	DB	0f8H
	DB	00H
	DB	0f8H
	DB	0fcH
	DB	0f8H
	DB	00H
	DB	0f8H
	DB	0fcH
	DB	0f8H
	DB	00H
	DB	0f8H
	DB	0fcH
	DB	0f8H
	DB	00H
	DB	098H
	DB	098H
	DB	098H
	DB	0ffH
	DB	098H
	DB	098H
	DB	098H
	DB	0ffH
	DB	098H
	DB	098H
	DB	098H
	DB	0ffH
	DB	098H
	DB	09cH
	DB	098H
	DB	0ffH
	DB	098H
	DB	098H
	DB	098H
	DB	0ffH
	DB	0d8H
	DB	0d8H
	DB	0d8H
	DB	0ffH
	DB	0f8H
	DB	0fcH
	DB	0f8H
	DB	0ffH
	DB	0f0H
	DB	0ecH
	DB	0f0H
	DB	0ffH
	DB	0d8H
	DB	0d4H
	DB	0d8H
	DB	0ffH
	DB	0d8H
	DB	0d4H
	DB	0d8H
	DB	0ffH
	DB	0f0H
	DB	0ecH
	DB	0f0H
	DB	0ffH
	DB	0f8H
	DB	0fcH
	DB	0f8H
	DB	0ffH
	DB	0f0H
	DB	0f0H
	DB	0f0H
	DB	0ffH
	DB	0a8H
	DB	0a8H
	DB	0a8H
	DB	0ffH
	DB	098H
	DB	098H
	DB	098H
	DB	0ffH
	DB	098H
	DB	098H
	DB	098H
	DB	0ffH
	DB	098H
	DB	098H
	DB	098H
	DB	0ffH
	DB	098H
	DB	098H
	DB	098H
	DB	0ffH
	DB	0f8H
	DB	0fcH
	DB	0f8H
	DB	00H
	DB	0f8H
	DB	0fcH
	DB	0f8H
	DB	00H
	DB	0f8H
	DB	0fcH
	DB	0f8H
	DB	00H
	DB	0f8H
	DB	0fcH
	DB	0f8H
	DB	00H
	DB	0f8H
	DB	0fcH
	DB	0f8H
	DB	00H
	DB	0f8H
	DB	0fcH
	DB	0f8H
	DB	00H
	DB	0f8H
	DB	0fcH
	DB	0f8H
	DB	00H
	DB	0f8H
	DB	0fcH
	DB	0f8H
	DB	00H
	DB	0f8H
	DB	0fcH
	DB	0f8H
	DB	00H
	DB	0f8H
	DB	0fcH
	DB	0f8H
	DB	00H
	DB	0f8H
	DB	0fcH
	DB	0f8H
	DB	00H
	DB	0f8H
	DB	0fcH
	DB	0f8H
	DB	00H
	DB	0f8H
	DB	0fcH
	DB	0f8H
	DB	00H
	DB	0f8H
	DB	0fcH
	DB	0f8H
	DB	00H
	DB	098H
	DB	098H
	DB	098H
	DB	0ffH
	DB	098H
	DB	098H
	DB	098H
	DB	0ffH
	DB	0a0H
	DB	098H
	DB	0a0H
	DB	0ffH
	DB	0a0H
	DB	09cH
	DB	0a0H
	DB	0ffH
	DB	098H
	DB	098H
	DB	098H
	DB	0ffH
	DB	0a8H
	DB	0a8H
	DB	0a8H
	DB	0ffH
	DB	0b8H
	DB	0b4H
	DB	0b8H
	DB	0ffH
	DB	098H
	DB	098H
	DB	098H
	DB	0ffH
	DB	098H
	DB	09cH
	DB	098H
	DB	0ffH
	DB	098H
	DB	098H
	DB	098H
	DB	0ffH
	DB	098H
	DB	098H
	DB	098H
	DB	0ffH
	DB	0c0H
	DB	0bcH
	DB	0c0H
	DB	0ffH
	DB	0f8H
	DB	0fcH
	DB	0f8H
	DB	0ffH
	DB	0f0H
	DB	0f0H
	DB	0f0H
	DB	0ffH
	DB	0a0H
	DB	09cH
	DB	0a0H
	DB	0ffH
	DB	098H
	DB	09cH
	DB	098H
	DB	0ffH
	DB	098H
	DB	098H
	DB	098H
	DB	0ffH
	DB	098H
	DB	098H
	DB	098H
	DB	0ffH
	DB	0f8H
	DB	0fcH
	DB	0f8H
	DB	00H
	DB	0f8H
	DB	0fcH
	DB	0f8H
	DB	00H
	DB	0f8H
	DB	0fcH
	DB	0f8H
	DB	00H
	DB	0f8H
	DB	0fcH
	DB	0f8H
	DB	00H
	DB	0f8H
	DB	0fcH
	DB	0f8H
	DB	00H
	DB	0f8H
	DB	0fcH
	DB	0f8H
	DB	00H
	DB	0f8H
	DB	0fcH
	DB	0f8H
	DB	00H
	DB	0f8H
	DB	0fcH
	DB	0f8H
	DB	00H
	DB	0f8H
	DB	0fcH
	DB	0f8H
	DB	00H
	DB	0f8H
	DB	0fcH
	DB	0f8H
	DB	00H
	DB	0f8H
	DB	0fcH
	DB	0f8H
	DB	00H
	DB	0f8H
	DB	0fcH
	DB	0f8H
	DB	00H
	DB	0f8H
	DB	0fcH
	DB	0f8H
	DB	00H
	DB	0f8H
	DB	0fcH
	DB	0f8H
	DB	00H
	DB	098H
	DB	098H
	DB	098H
	DB	0ffH
	DB	098H
	DB	09cH
	DB	098H
	DB	0ffH
	DB	0a0H
	DB	0a0H
	DB	0a0H
	DB	0ffH
	DB	0e8H
	DB	0e8H
	DB	0e8H
	DB	0ffH
	DB	0c0H
	DB	0bcH
	DB	0c0H
	DB	0ffH
	DB	098H
	DB	098H
	DB	098H
	DB	0ffH
	DB	098H
	DB	098H
	DB	098H
	DB	0ffH
	DB	098H
	DB	098H
	DB	098H
	DB	0ffH
	DB	098H
	DB	09cH
	DB	098H
	DB	0ffH
	DB	098H
	DB	098H
	DB	098H
	DB	0ffH
	DB	098H
	DB	098H
	DB	098H
	DB	0ffH
	DB	098H
	DB	09cH
	DB	098H
	DB	0ffH
	DB	0c0H
	DB	0bcH
	DB	0c0H
	DB	0ffH
	DB	0f8H
	DB	0fcH
	DB	0f8H
	DB	0ffH
	DB	0c8H
	DB	0c8H
	DB	0c8H
	DB	0ffH
	DB	098H
	DB	098H
	DB	098H
	DB	0ffH
	DB	098H
	DB	09cH
	DB	098H
	DB	0ffH
	DB	098H
	DB	098H
	DB	098H
	DB	0ffH
	DB	0f8H
	DB	0fcH
	DB	0f8H
	DB	00H
	DB	0f8H
	DB	0fcH
	DB	0f8H
	DB	00H
	DB	0f8H
	DB	0fcH
	DB	0f8H
	DB	00H
	DB	0f8H
	DB	0fcH
	DB	0f8H
	DB	00H
	DB	0f8H
	DB	0fcH
	DB	0f8H
	DB	00H
	DB	0f8H
	DB	0fcH
	DB	0f8H
	DB	00H
	DB	0f8H
	DB	0fcH
	DB	0f8H
	DB	00H
	DB	0f8H
	DB	0fcH
	DB	0f8H
	DB	00H
	DB	0f8H
	DB	0fcH
	DB	0f8H
	DB	00H
	DB	0f8H
	DB	0fcH
	DB	0f8H
	DB	00H
	DB	0f8H
	DB	0fcH
	DB	0f8H
	DB	00H
	DB	0f8H
	DB	0fcH
	DB	0f8H
	DB	00H
	DB	0f8H
	DB	0fcH
	DB	0f8H
	DB	00H
	DB	0f8H
	DB	0fcH
	DB	0f8H
	DB	00H
	DB	098H
	DB	098H
	DB	098H
	DB	0ffH
	DB	0a0H
	DB	0a0H
	DB	0a0H
	DB	0ffH
	DB	0e8H
	DB	0e8H
	DB	0e8H
	DB	0ffH
	DB	0f8H
	DB	0fcH
	DB	0f8H
	DB	0ffH
	DB	0f8H
	DB	0fcH
	DB	0f8H
	DB	0ffH
	DB	0c0H
	DB	0bcH
	DB	0c0H
	DB	0ffH
	DB	098H
	DB	098H
	DB	098H
	DB	0ffH
	DB	098H
	DB	098H
	DB	098H
	DB	0ffH
	DB	098H
	DB	098H
	DB	098H
	DB	0ffH
	DB	098H
	DB	098H
	DB	098H
	DB	0ffH
	DB	098H
	DB	098H
	DB	098H
	DB	0ffH
	DB	098H
	DB	098H
	DB	098H
	DB	0ffH
	DB	098H
	DB	098H
	DB	098H
	DB	0ffH
	DB	0f0H
	DB	0ecH
	DB	0f0H
	DB	0ffH
	DB	0f0H
	DB	0f0H
	DB	0f0H
	DB	0ffH
	DB	098H
	DB	098H
	DB	098H
	DB	0ffH
	DB	098H
	DB	098H
	DB	098H
	DB	0ffH
	DB	098H
	DB	09cH
	DB	098H
	DB	0ffH
	DB	0f8H
	DB	0fcH
	DB	0f8H
	DB	00H
	DB	0f8H
	DB	0fcH
	DB	0f8H
	DB	00H
	DB	0f8H
	DB	0fcH
	DB	0f8H
	DB	00H
	DB	0f8H
	DB	0fcH
	DB	0f8H
	DB	00H
	DB	0f8H
	DB	0fcH
	DB	0f8H
	DB	00H
	DB	0f8H
	DB	0fcH
	DB	0f8H
	DB	00H
	DB	0f8H
	DB	0fcH
	DB	0f8H
	DB	00H
	DB	0f8H
	DB	0fcH
	DB	0f8H
	DB	00H
	DB	0f8H
	DB	0fcH
	DB	0f8H
	DB	00H
	DB	0f8H
	DB	0fcH
	DB	0f8H
	DB	00H
	DB	0f8H
	DB	0fcH
	DB	0f8H
	DB	00H
	DB	0f8H
	DB	0fcH
	DB	0f8H
	DB	00H
	DB	0f8H
	DB	0fcH
	DB	0f8H
	DB	00H
	DB	0f8H
	DB	0fcH
	DB	0f8H
	DB	00H
	DB	098H
	DB	098H
	DB	098H
	DB	0ffH
	DB	0e8H
	DB	0e8H
	DB	0e8H
	DB	0ffH
	DB	0f8H
	DB	0fcH
	DB	0f8H
	DB	0ffH
	DB	0f8H
	DB	0fcH
	DB	0f8H
	DB	0ffH
	DB	0f8H
	DB	0fcH
	DB	0f8H
	DB	0ffH
	DB	0f8H
	DB	0fcH
	DB	0f8H
	DB	0ffH
	DB	0b8H
	DB	0b8H
	DB	0b8H
	DB	0ffH
	DB	098H
	DB	09cH
	DB	098H
	DB	0ffH
	DB	098H
	DB	098H
	DB	098H
	DB	0ffH
	DB	098H
	DB	09cH
	DB	098H
	DB	0ffH
	DB	098H
	DB	098H
	DB	098H
	DB	0ffH
	DB	0b8H
	DB	0b8H
	DB	0b8H
	DB	0ffH
	DB	0e0H
	DB	0e0H
	DB	0e0H
	DB	0ffH
	DB	0d8H
	DB	0dcH
	DB	0d8H
	DB	0ffH
	DB	0f8H
	DB	0fcH
	DB	0f8H
	DB	0ffH
	DB	0c0H
	DB	0bcH
	DB	0c0H
	DB	0ffH
	DB	0e0H
	DB	0dcH
	DB	0e0H
	DB	0ffH
	DB	098H
	DB	098H
	DB	098H
	DB	0ffH
	DB	0f8H
	DB	0fcH
	DB	0f8H
	DB	00H
	DB	0f8H
	DB	0fcH
	DB	0f8H
	DB	00H
	DB	0f8H
	DB	0fcH
	DB	0f8H
	DB	00H
	DB	0f8H
	DB	0fcH
	DB	0f8H
	DB	00H
	DB	0f8H
	DB	0fcH
	DB	0f8H
	DB	00H
	DB	0f8H
	DB	0fcH
	DB	0f8H
	DB	00H
	DB	0f8H
	DB	0fcH
	DB	0f8H
	DB	00H
	DB	0f8H
	DB	0fcH
	DB	0f8H
	DB	00H
	DB	0f8H
	DB	0fcH
	DB	0f8H
	DB	00H
	DB	0f8H
	DB	0fcH
	DB	0f8H
	DB	00H
	DB	0f8H
	DB	0fcH
	DB	0f8H
	DB	00H
	DB	0f8H
	DB	0fcH
	DB	0f8H
	DB	00H
	DB	0f8H
	DB	0fcH
	DB	0f8H
	DB	00H
	DB	0f8H
	DB	0fcH
	DB	0f8H
	DB	00H
	DB	098H
	DB	098H
	DB	098H
	DB	0ffH
	DB	0e0H
	DB	0dcH
	DB	0e0H
	DB	0ffH
	DB	0c0H
	DB	0c0H
	DB	0c0H
	DB	0ffH
	DB	0f8H
	DB	0fcH
	DB	0f8H
	DB	0ffH
	DB	0d8H
	DB	0dcH
	DB	0d8H
	DB	0ffH
	DB	0e0H
	DB	0e0H
	DB	0e0H
	DB	0ffH
	DB	0b8H
	DB	0b8H
	DB	0b8H
	DB	0ffH
	DB	098H
	DB	098H
	DB	098H
	DB	0ffH
	DB	098H
	DB	098H
	DB	098H
	DB	0ffH
	DB	098H
	DB	098H
	DB	098H
	DB	0ffH
	DB	098H
	DB	09cH
	DB	098H
	DB	0ffH
	DB	0b8H
	DB	0b8H
	DB	0b8H
	DB	0ffH
	DB	0f8H
	DB	0fcH
	DB	0f8H
	DB	0ffH
	DB	0f8H
	DB	0fcH
	DB	0f8H
	DB	0ffH
	DB	0f8H
	DB	0fcH
	DB	0f8H
	DB	0ffH
	DB	0f8H
	DB	0fcH
	DB	0f8H
	DB	0ffH
	DB	0e8H
	DB	0e8H
	DB	0e8H
	DB	0ffH
	DB	098H
	DB	098H
	DB	098H
	DB	0ffH
	DB	0f8H
	DB	0fcH
	DB	0f8H
	DB	00H
	DB	0f8H
	DB	0fcH
	DB	0f8H
	DB	00H
	DB	0f8H
	DB	0fcH
	DB	0f8H
	DB	00H
	DB	0f8H
	DB	0fcH
	DB	0f8H
	DB	00H
	DB	0f8H
	DB	0fcH
	DB	0f8H
	DB	00H
	DB	0f8H
	DB	0fcH
	DB	0f8H
	DB	00H
	DB	0f8H
	DB	0fcH
	DB	0f8H
	DB	00H
	DB	0f8H
	DB	0fcH
	DB	0f8H
	DB	00H
	DB	0f8H
	DB	0fcH
	DB	0f8H
	DB	00H
	DB	0f8H
	DB	0fcH
	DB	0f8H
	DB	00H
	DB	0f8H
	DB	0fcH
	DB	0f8H
	DB	00H
	DB	0f8H
	DB	0fcH
	DB	0f8H
	DB	00H
	DB	0f8H
	DB	0fcH
	DB	0f8H
	DB	00H
	DB	0f8H
	DB	0fcH
	DB	0f8H
	DB	00H
	DB	098H
	DB	098H
	DB	098H
	DB	0ffH
	DB	098H
	DB	098H
	DB	098H
	DB	0ffH
	DB	098H
	DB	098H
	DB	098H
	DB	0ffH
	DB	0f0H
	DB	0f0H
	DB	0f0H
	DB	0ffH
	DB	0f0H
	DB	0ecH
	DB	0f0H
	DB	0ffH
	DB	098H
	DB	098H
	DB	098H
	DB	0ffH
	DB	098H
	DB	098H
	DB	098H
	DB	0ffH
	DB	098H
	DB	098H
	DB	098H
	DB	0ffH
	DB	098H
	DB	098H
	DB	098H
	DB	0ffH
	DB	098H
	DB	098H
	DB	098H
	DB	0ffH
	DB	098H
	DB	098H
	DB	098H
	DB	0ffH
	DB	098H
	DB	098H
	DB	098H
	DB	0ffH
	DB	0c0H
	DB	0bcH
	DB	0c0H
	DB	0ffH
	DB	0f8H
	DB	0fcH
	DB	0f8H
	DB	0ffH
	DB	0f8H
	DB	0fcH
	DB	0f8H
	DB	0ffH
	DB	0e8H
	DB	0e8H
	DB	0e8H
	DB	0ffH
	DB	0a0H
	DB	0a0H
	DB	0a0H
	DB	0ffH
	DB	098H
	DB	09cH
	DB	098H
	DB	0ffH
	DB	0f8H
	DB	0fcH
	DB	0f8H
	DB	00H
	DB	0f8H
	DB	0fcH
	DB	0f8H
	DB	00H
	DB	0f8H
	DB	0fcH
	DB	0f8H
	DB	00H
	DB	0f8H
	DB	0fcH
	DB	0f8H
	DB	00H
	DB	0f8H
	DB	0fcH
	DB	0f8H
	DB	00H
	DB	0f8H
	DB	0fcH
	DB	0f8H
	DB	00H
	DB	0f8H
	DB	0fcH
	DB	0f8H
	DB	00H
	DB	0f8H
	DB	0fcH
	DB	0f8H
	DB	00H
	DB	0f8H
	DB	0fcH
	DB	0f8H
	DB	00H
	DB	0f8H
	DB	0fcH
	DB	0f8H
	DB	00H
	DB	0f8H
	DB	0fcH
	DB	0f8H
	DB	00H
	DB	0f8H
	DB	0fcH
	DB	0f8H
	DB	00H
	DB	0f8H
	DB	0fcH
	DB	0f8H
	DB	00H
	DB	0f8H
	DB	0fcH
	DB	0f8H
	DB	00H
	DB	098H
	DB	098H
	DB	098H
	DB	0ffH
	DB	098H
	DB	09cH
	DB	098H
	DB	0ffH
	DB	098H
	DB	098H
	DB	098H
	DB	0ffH
	DB	0c8H
	DB	0c8H
	DB	0c8H
	DB	0ffH
	DB	0f8H
	DB	0fcH
	DB	0f8H
	DB	0ffH
	DB	0b8H
	DB	0bcH
	DB	0b8H
	DB	0ffH
	DB	098H
	DB	098H
	DB	098H
	DB	0ffH
	DB	098H
	DB	09cH
	DB	098H
	DB	0ffH
	DB	098H
	DB	09cH
	DB	098H
	DB	0ffH
	DB	098H
	DB	098H
	DB	098H
	DB	0ffH
	DB	098H
	DB	098H
	DB	098H
	DB	0ffH
	DB	098H
	DB	098H
	DB	098H
	DB	0ffH
	DB	098H
	DB	098H
	DB	098H
	DB	0ffH
	DB	0c0H
	DB	0bcH
	DB	0c0H
	DB	0ffH
	DB	0e8H
	DB	0e8H
	DB	0e8H
	DB	0ffH
	DB	0a0H
	DB	0a0H
	DB	0a0H
	DB	0ffH
	DB	098H
	DB	098H
	DB	098H
	DB	0ffH
	DB	098H
	DB	098H
	DB	098H
	DB	0ffH
	DB	0f8H
	DB	0fcH
	DB	0f8H
	DB	00H
	DB	0f8H
	DB	0fcH
	DB	0f8H
	DB	00H
	DB	0f8H
	DB	0fcH
	DB	0f8H
	DB	00H
	DB	0f8H
	DB	0fcH
	DB	0f8H
	DB	00H
	DB	0f8H
	DB	0fcH
	DB	0f8H
	DB	00H
	DB	0f8H
	DB	0fcH
	DB	0f8H
	DB	00H
	DB	0f8H
	DB	0fcH
	DB	0f8H
	DB	00H
	DB	0f8H
	DB	0fcH
	DB	0f8H
	DB	00H
	DB	0f8H
	DB	0fcH
	DB	0f8H
	DB	00H
	DB	0f8H
	DB	0fcH
	DB	0f8H
	DB	00H
	DB	0f8H
	DB	0fcH
	DB	0f8H
	DB	00H
	DB	0f8H
	DB	0fcH
	DB	0f8H
	DB	00H
	DB	0f8H
	DB	0fcH
	DB	0f8H
	DB	00H
	DB	0f8H
	DB	0fcH
	DB	0f8H
	DB	00H
	DB	098H
	DB	098H
	DB	098H
	DB	0ffH
	DB	098H
	DB	098H
	DB	098H
	DB	0ffH
	DB	098H
	DB	098H
	DB	098H
	DB	0ffH
	DB	0a0H
	DB	09cH
	DB	0a0H
	DB	0ffH
	DB	0f0H
	DB	0f0H
	DB	0f0H
	DB	0ffH
	DB	0f8H
	DB	0fcH
	DB	0f8H
	DB	0ffH
	DB	0c0H
	DB	0bcH
	DB	0c0H
	DB	0ffH
	DB	098H
	DB	098H
	DB	098H
	DB	0ffH
	DB	098H
	DB	098H
	DB	098H
	DB	0ffH
	DB	098H
	DB	098H
	DB	098H
	DB	0ffH
	DB	098H
	DB	09cH
	DB	098H
	DB	0ffH
	DB	0b8H
	DB	0b4H
	DB	0b8H
	DB	0ffH
	DB	0a8H
	DB	0a8H
	DB	0a8H
	DB	0ffH
	DB	098H
	DB	09cH
	DB	098H
	DB	0ffH
	DB	098H
	DB	09cH
	DB	098H
	DB	0ffH
	DB	098H
	DB	098H
	DB	098H
	DB	0ffH
	DB	098H
	DB	098H
	DB	098H
	DB	0ffH
	DB	098H
	DB	098H
	DB	098H
	DB	0ffH
	DB	0f8H
	DB	0fcH
	DB	0f8H
	DB	00H
	DB	0f8H
	DB	0fcH
	DB	0f8H
	DB	00H
	DB	0f8H
	DB	0fcH
	DB	0f8H
	DB	00H
	DB	0f8H
	DB	0fcH
	DB	0f8H
	DB	00H
	DB	0f8H
	DB	0fcH
	DB	0f8H
	DB	00H
	DB	0f8H
	DB	0fcH
	DB	0f8H
	DB	00H
	DB	0f8H
	DB	0fcH
	DB	0f8H
	DB	00H
	DB	0f8H
	DB	0fcH
	DB	0f8H
	DB	00H
	DB	0f8H
	DB	0fcH
	DB	0f8H
	DB	00H
	DB	0f8H
	DB	0fcH
	DB	0f8H
	DB	00H
	DB	0f8H
	DB	0fcH
	DB	0f8H
	DB	00H
	DB	0f8H
	DB	0fcH
	DB	0f8H
	DB	00H
	DB	0f8H
	DB	0fcH
	DB	0f8H
	DB	00H
	DB	0f8H
	DB	0fcH
	DB	0f8H
	DB	00H
	DB	08H
	DB	0d0H
	DB	0f8H
	DB	0ffH
	DB	08H
	DB	0d0H
	DB	0f8H
	DB	0ffH
	DB	08H
	DB	0d0H
	DB	0f8H
	DB	0ffH
	DB	08H
	DB	0d0H
	DB	0f8H
	DB	0ffH
	DB	030H
	DB	0d4H
	DB	0f8H
	DB	0ffH
	DB	0d8H
	DB	0f8H
	DB	0f8H
	DB	0ffH
	DB	0f8H
	DB	0fcH
	DB	0f8H
	DB	0ffH
	DB	0d8H
	DB	0f8H
	DB	0f8H
	DB	0ffH
	DB	0a0H
	DB	0ecH
	DB	0f8H
	DB	0ffH
	DB	098H
	DB	0ecH
	DB	0f8H
	DB	0ffH
	DB	0d8H
	DB	0f8H
	DB	0f8H
	DB	0ffH
	DB	0f8H
	DB	0fcH
	DB	0f8H
	DB	0ffH
	DB	0a0H
	DB	0ecH
	DB	0f8H
	DB	0ffH
	DB	08H
	DB	0d0H
	DB	0f8H
	DB	0ffH
	DB	08H
	DB	0d0H
	DB	0f8H
	DB	0ffH
	DB	08H
	DB	0ccH
	DB	0f8H
	DB	0ffH
	DB	010H
	DB	0d0H
	DB	0f8H
	DB	0ffH
	DB	08H
	DB	0d0H
	DB	0f8H
	DB	0ffH
	DB	0f8H
	DB	0fcH
	DB	0f8H
	DB	00H
	DB	0f8H
	DB	0fcH
	DB	0f8H
	DB	00H
	DB	0f8H
	DB	0fcH
	DB	0f8H
	DB	00H
	DB	0f8H
	DB	0fcH
	DB	0f8H
	DB	00H
	DB	0f8H
	DB	0fcH
	DB	0f8H
	DB	00H
	DB	0f8H
	DB	0fcH
	DB	0f8H
	DB	00H
	DB	0f8H
	DB	0fcH
	DB	0f8H
	DB	00H
	DB	0f8H
	DB	0fcH
	DB	0f8H
	DB	00H
	DB	0f8H
	DB	0fcH
	DB	0f8H
	DB	00H
	DB	0f8H
	DB	0fcH
	DB	0f8H
	DB	00H
	DB	0f8H
	DB	0fcH
	DB	0f8H
	DB	00H
	DB	0f8H
	DB	0fcH
	DB	0f8H
	DB	00H
	DB	0f8H
	DB	0fcH
	DB	0f8H
	DB	00H
	DB	0f8H
	DB	0fcH
	DB	0f8H
	DB	00H
	DB	00H
	DB	0d4H
	DB	0f8H
	DB	0ffH
	DB	00H
	DB	0d0H
	DB	0f8H
	DB	0ffH
	DB	00H
	DB	0d4H
	DB	0f8H
	DB	0ffH
	DB	00H
	DB	0d4H
	DB	0f8H
	DB	0ffH
	DB	00H
	DB	0d0H
	DB	0f8H
	DB	0ffH
	DB	08H
	DB	0d4H
	DB	0f8H
	DB	0ffH
	DB	078H
	DB	0e8H
	DB	0f8H
	DB	0ffH
	DB	0d8H
	DB	0f8H
	DB	0f8H
	DB	0ffH
	DB	0f8H
	DB	0fcH
	DB	0f8H
	DB	0ffH
	DB	0f8H
	DB	0fcH
	DB	0f8H
	DB	0ffH
	DB	0d8H
	DB	0f8H
	DB	0f8H
	DB	0ffH
	DB	078H
	DB	0e8H
	DB	0f8H
	DB	0ffH
	DB	010H
	DB	0d4H
	DB	0f8H
	DB	0ffH
	DB	00H
	DB	0d0H
	DB	0f8H
	DB	0ffH
	DB	00H
	DB	0d0H
	DB	0f8H
	DB	0ffH
	DB	00H
	DB	0d4H
	DB	0f8H
	DB	0ffH
	DB	00H
	DB	0d4H
	DB	0f8H
	DB	0ffH
	DB	00H
	DB	0d0H
	DB	0f8H
	DB	0ffH
	DB	0f8H
	DB	0fcH
	DB	0f8H
	DB	00H
	DB	0f8H
	DB	0fcH
	DB	0f8H
	DB	00H
	DB	0f8H
	DB	0fcH
	DB	0f8H
	DB	00H
	DB	0f8H
	DB	0fcH
	DB	0f8H
	DB	00H
	DB	0f8H
	DB	0fcH
	DB	0f8H
	DB	00H
	DB	0f8H
	DB	0fcH
	DB	0f8H
	DB	00H
	DB	0f8H
	DB	0fcH
	DB	0f8H
	DB	00H
	DB	0f8H
	DB	0fcH
	DB	0f8H
	DB	00H
	DB	0f8H
	DB	0fcH
	DB	0f8H
	DB	00H
	DB	0f8H
	DB	0fcH
	DB	0f8H
	DB	00H
	DB	0f8H
	DB	0fcH
	DB	0f8H
	DB	00H
	DB	0f8H
	DB	0fcH
	DB	0f8H
	DB	00H
	DB	0f8H
	DB	0fcH
	DB	0f8H
	DB	00H
	DB	0f8H
	DB	0fcH
	DB	0f8H
	DB	00H
	DB	00H
	DB	0d0H
	DB	0f8H
	DB	0ffH
	DB	00H
	DB	0d0H
	DB	0f8H
	DB	0ffH
	DB	00H
	DB	0d0H
	DB	0f8H
	DB	0ffH
	DB	00H
	DB	0d4H
	DB	0f8H
	DB	0ffH
	DB	00H
	DB	0d0H
	DB	0f8H
	DB	0ffH
	DB	00H
	DB	0d4H
	DB	0f8H
	DB	0ffH
	DB	00H
	DB	0d4H
	DB	0f8H
	DB	0ffH
	DB	00H
	DB	0d0H
	DB	0f8H
	DB	0ffH
	DB	00H
	DB	0d0H
	DB	0f8H
	DB	0ffH
	DB	00H
	DB	0d4H
	DB	0f8H
	DB	0ffH
	DB	00H
	DB	0d0H
	DB	0f8H
	DB	0ffH
	DB	00H
	DB	0d4H
	DB	0f8H
	DB	0ffH
	DB	00H
	DB	0d4H
	DB	0f8H
	DB	0ffH
	DB	00H
	DB	0d0H
	DB	0f8H
	DB	0ffH
	DB	00H
	DB	0d0H
	DB	0f8H
	DB	0ffH
	DB	00H
	DB	0d4H
	DB	0f8H
	DB	0ffH
	DB	00H
	DB	0d0H
	DB	0f8H
	DB	0ffH
	DB	00H
	DB	0d4H
	DB	0f8H
	DB	0ffH
	DB	0f8H
	DB	0fcH
	DB	0f8H
	DB	00H
	DB	0f8H
	DB	0fcH
	DB	0f8H
	DB	00H
	DB	0f8H
	DB	0fcH
	DB	0f8H
	DB	00H
	DB	0f8H
	DB	0fcH
	DB	0f8H
	DB	00H
	DB	0f8H
	DB	0fcH
	DB	0f8H
	DB	00H
	DB	0f8H
	DB	0fcH
	DB	0f8H
	DB	00H
	DB	0f8H
	DB	0fcH
	DB	0f8H
	DB	00H
	DB	0f8H
	DB	0fcH
	DB	0f8H
	DB	00H
	DB	0f8H
	DB	0fcH
	DB	0f8H
	DB	00H
	DB	0f8H
	DB	0fcH
	DB	0f8H
	DB	00H
	DB	0f8H
	DB	0fcH
	DB	0f8H
	DB	00H
	DB	0f8H
	DB	0fcH
	DB	0f8H
	DB	00H
	DB	0f8H
	DB	0fcH
	DB	0f8H
	DB	00H
	DB	0f8H
	DB	0fcH
	DB	0f8H
	DB	00H
	DB	00H
	DB	0d4H
	DB	0f8H
	DB	0ffH
	DB	00H
	DB	0d4H
	DB	0f8H
	DB	0ffH
	DB	00H
	DB	0d0H
	DB	0f8H
	DB	0ffH
	DB	00H
	DB	0d0H
	DB	0f8H
	DB	0ffH
	DB	00H
	DB	0d4H
	DB	0f8H
	DB	0ffH
	DB	00H
	DB	0d0H
	DB	0f8H
	DB	0ffH
	DB	00H
	DB	0d4H
	DB	0f8H
	DB	0ffH
	DB	00H
	DB	0d0H
	DB	0f8H
	DB	0ffH
	DB	00H
	DB	0d4H
	DB	0f8H
	DB	0ffH
	DB	00H
	DB	0d4H
	DB	0f8H
	DB	0ffH
	DB	00H
	DB	0d0H
	DB	0f8H
	DB	0ffH
	DB	00H
	DB	0d0H
	DB	0f8H
	DB	0ffH
	DB	00H
	DB	0d4H
	DB	0f8H
	DB	0ffH
	DB	00H
	DB	0d4H
	DB	0f8H
	DB	0ffH
	DB	00H
	DB	0d0H
	DB	0f8H
	DB	0ffH
	DB	00H
	DB	0d4H
	DB	0f8H
	DB	0ffH
	DB	00H
	DB	0d0H
	DB	0f8H
	DB	0ffH
	DB	00H
	DB	0d4H
	DB	0f8H
	DB	0ffH
	DB	0f8H
	DB	0fcH
	DB	0f8H
	DB	00H
	DB	0f8H
	DB	0fcH
	DB	0f8H
	DB	00H
	DB	0f8H
	DB	0fcH
	DB	0f8H
	DB	00H
	DB	0f8H
	DB	0fcH
	DB	0f8H
	DB	00H
	DB	0f8H
	DB	0fcH
	DB	0f8H
	DB	00H
	DB	0f8H
	DB	0fcH
	DB	0f8H
	DB	00H
	DB	0f8H
	DB	0fcH
	DB	0f8H
	DB	00H
	DB	0f8H
	DB	0fcH
	DB	0f8H
	DB	00H
	DB	0f8H
	DB	0fcH
	DB	0f8H
	DB	00H
	DB	0f8H
	DB	0fcH
	DB	0f8H
	DB	00H
	DB	0f8H
	DB	0fcH
	DB	0f8H
	DB	00H
	DB	0f8H
	DB	0fcH
	DB	0f8H
	DB	00H
	DB	0f8H
	DB	0fcH
	DB	0f8H
	DB	00H
	DB	0f8H
	DB	0fcH
	DB	0f8H
	DB	00H
	DB	00H
	DB	0d0H
	DB	0f8H
	DB	0ffH
	DB	00H
	DB	0d4H
	DB	0f8H
	DB	0ffH
	DB	00H
	DB	0d4H
	DB	0f8H
	DB	0ffH
	DB	00H
	DB	0d0H
	DB	0f8H
	DB	0ffH
	DB	00H
	DB	0d4H
	DB	0f8H
	DB	0ffH
	DB	00H
	DB	0d0H
	DB	0f8H
	DB	0ffH
	DB	00H
	DB	0d0H
	DB	0f8H
	DB	0ffH
	DB	00H
	DB	0d4H
	DB	0f8H
	DB	0ffH
	DB	00H
	DB	0d0H
	DB	0f8H
	DB	0ffH
	DB	00H
	DB	0d4H
	DB	0f8H
	DB	0ffH
	DB	00H
	DB	0d0H
	DB	0f8H
	DB	0ffH
	DB	00H
	DB	0d0H
	DB	0f8H
	DB	0ffH
	DB	00H
	DB	0d4H
	DB	0f8H
	DB	0ffH
	DB	00H
	DB	0d0H
	DB	0f8H
	DB	0ffH
	DB	00H
	DB	0d4H
	DB	0f8H
	DB	0ffH
	DB	00H
	DB	0d0H
	DB	0f8H
	DB	0ffH
	DB	00H
	DB	0d4H
	DB	0f8H
	DB	0ffH
	DB	00H
	DB	0d0H
	DB	0f8H
	DB	0ffH
	DB	0f8H
	DB	0fcH
	DB	0f8H
	DB	00H
	DB	0f8H
	DB	0fcH
	DB	0f8H
	DB	00H
	DB	0f8H
	DB	0fcH
	DB	0f8H
	DB	00H
	DB	0f8H
	DB	0fcH
	DB	0f8H
	DB	00H
	DB	0f8H
	DB	0fcH
	DB	0f8H
	DB	00H
	DB	0f8H
	DB	0fcH
	DB	0f8H
	DB	00H
	DB	0f8H
	DB	0fcH
	DB	0f8H
	DB	00H
	DB	0f8H
	DB	0fcH
	DB	0f8H
	DB	00H
	DB	0f8H
	DB	0fcH
	DB	0f8H
	DB	00H
	DB	0f8H
	DB	0fcH
	DB	0f8H
	DB	00H
	DB	0f8H
	DB	0fcH
	DB	0f8H
	DB	00H
	DB	0f8H
	DB	0fcH
	DB	0f8H
	DB	00H
	DB	0f8H
	DB	0fcH
	DB	0f8H
	DB	00H
	DB	0f8H
	DB	0fcH
	DB	0f8H
	DB	00H
	DB	00H
	DB	0d0H
	DB	0f8H
	DB	0ffH
	DB	00H
	DB	0d0H
	DB	0f8H
	DB	0ffH
	DB	00H
	DB	0d4H
	DB	0f8H
	DB	0ffH
	DB	00H
	DB	0d4H
	DB	0f8H
	DB	0ffH
	DB	00H
	DB	0d0H
	DB	0f8H
	DB	0ffH
	DB	00H
	DB	0d4H
	DB	0f8H
	DB	0ffH
	DB	00H
	DB	0d4H
	DB	0f8H
	DB	0ffH
	DB	00H
	DB	0d0H
	DB	0f8H
	DB	0ffH
	DB	00H
	DB	0d4H
	DB	0f8H
	DB	0ffH
	DB	00H
	DB	0d0H
	DB	0f8H
	DB	0ffH
	DB	00H
	DB	0d4H
	DB	0f8H
	DB	0ffH
	DB	00H
	DB	0d4H
	DB	0f8H
	DB	0ffH
	DB	00H
	DB	0d0H
	DB	0f8H
	DB	0ffH
	DB	00H
	DB	0d4H
	DB	0f8H
	DB	0ffH
	DB	00H
	DB	0d0H
	DB	0f8H
	DB	0ffH
	DB	00H
	DB	0d4H
	DB	0f8H
	DB	0ffH
	DB	00H
	DB	0d0H
	DB	0f8H
	DB	0ffH
	DB	00H
	DB	0d4H
	DB	0f8H
	DB	0ffH
	DB	0f8H
	DB	0fcH
	DB	0f8H
	DB	00H
	DB	0f8H
	DB	0fcH
	DB	0f8H
	DB	00H
	DB	0f8H
	DB	0fcH
	DB	0f8H
	DB	00H
	DB	0f8H
	DB	0fcH
	DB	0f8H
	DB	00H
	DB	0f8H
	DB	0fcH
	DB	0f8H
	DB	00H
	DB	0f8H
	DB	0fcH
	DB	0f8H
	DB	00H
	DB	0f8H
	DB	0fcH
	DB	0f8H
	DB	00H
	DB	0f8H
	DB	0fcH
	DB	0f8H
	DB	00H
	DB	0f8H
	DB	0fcH
	DB	0f8H
	DB	00H
	DB	0f8H
	DB	0fcH
	DB	0f8H
	DB	00H
	DB	0f8H
	DB	0fcH
	DB	0f8H
	DB	00H
	DB	0f8H
	DB	0fcH
	DB	0f8H
	DB	00H
	DB	0f8H
	DB	0fcH
	DB	0f8H
	DB	00H
	DB	0f8H
	DB	0fcH
	DB	0f8H
	DB	00H
	DB	00H
	DB	0d4H
	DB	0f8H
	DB	0ffH
	DB	00H
	DB	0d0H
	DB	0f8H
	DB	0ffH
	DB	00H
	DB	0d0H
	DB	0f8H
	DB	0ffH
	DB	00H
	DB	0d4H
	DB	0f8H
	DB	0ffH
	DB	00H
	DB	0d0H
	DB	0f8H
	DB	0ffH
	DB	00H
	DB	0d4H
	DB	0f8H
	DB	0ffH
	DB	00H
	DB	0d0H
	DB	0f8H
	DB	0ffH
	DB	00H
	DB	0d4H
	DB	0f8H
	DB	0ffH
	DB	00H
	DB	0d0H
	DB	0f8H
	DB	0ffH
	DB	00H
	DB	0d4H
	DB	0f8H
	DB	0ffH
	DB	00H
	DB	0d0H
	DB	0f8H
	DB	0ffH
	DB	00H
	DB	0d4H
	DB	0f8H
	DB	0ffH
	DB	00H
	DB	0d0H
	DB	0f8H
	DB	0ffH
	DB	00H
	DB	0d0H
	DB	0f8H
	DB	0ffH
	DB	00H
	DB	0d4H
	DB	0f8H
	DB	0ffH
	DB	00H
	DB	0d0H
	DB	0f8H
	DB	0ffH
	DB	00H
	DB	0d4H
	DB	0f8H
	DB	0ffH
	DB	00H
	DB	0d0H
	DB	0f8H
	DB	0ffH
	DB	0f8H
	DB	0fcH
	DB	0f8H
	DB	00H
	DB	0f8H
	DB	0fcH
	DB	0f8H
	DB	00H
	DB	0f8H
	DB	0fcH
	DB	0f8H
	DB	00H
	DB	0f8H
	DB	0fcH
	DB	0f8H
	DB	00H
	DB	0f8H
	DB	0fcH
	DB	0f8H
	DB	00H
	DB	0f8H
	DB	0fcH
	DB	0f8H
	DB	00H
	DB	0f8H
	DB	0fcH
	DB	0f8H
	DB	00H
	DB	0f8H
	DB	0fcH
	DB	0f8H
	DB	00H
	DB	0f8H
	DB	0fcH
	DB	0f8H
	DB	00H
	DB	0f8H
	DB	0fcH
	DB	0f8H
	DB	00H
	DB	0f8H
	DB	0fcH
	DB	0f8H
	DB	00H
	DB	0f8H
	DB	0fcH
	DB	0f8H
	DB	00H
	DB	0f8H
	DB	0fcH
	DB	0f8H
	DB	00H
	DB	0f8H
	DB	0fcH
	DB	0f8H
	DB	00H
	DB	00H
	DB	0d4H
	DB	0f8H
	DB	0ffH
	DB	00H
	DB	0d4H
	DB	0f8H
	DB	0ffH
	DB	00H
	DB	0d0H
	DB	0f8H
	DB	0ffH
	DB	00H
	DB	0d0H
	DB	0f8H
	DB	0ffH
	DB	00H
	DB	0d4H
	DB	0f8H
	DB	0ffH
	DB	00H
	DB	0d0H
	DB	0f8H
	DB	0ffH
	DB	00H
	DB	0d4H
	DB	0f8H
	DB	0ffH
	DB	00H
	DB	0d0H
	DB	0f8H
	DB	0ffH
	DB	00H
	DB	0d4H
	DB	0f8H
	DB	0ffH
	DB	00H
	DB	0d0H
	DB	0f8H
	DB	0ffH
	DB	00H
	DB	0d4H
	DB	0f8H
	DB	0ffH
	DB	00H
	DB	0d0H
	DB	0f8H
	DB	0ffH
	DB	00H
	DB	0d4H
	DB	0f8H
	DB	0ffH
	DB	00H
	DB	0d4H
	DB	0f8H
	DB	0ffH
	DB	00H
	DB	0d0H
	DB	0f8H
	DB	0ffH
	DB	00H
	DB	0d4H
	DB	0f8H
	DB	0ffH
	DB	00H
	DB	0d0H
	DB	0f8H
	DB	0ffH
	DB	00H
	DB	0d4H
	DB	0f8H
	DB	0ffH
	DB	0f8H
	DB	0fcH
	DB	0f8H
	DB	00H
	DB	0f8H
	DB	0fcH
	DB	0f8H
	DB	00H
	DB	0f8H
	DB	0fcH
	DB	0f8H
	DB	00H
	DB	0f8H
	DB	0fcH
	DB	0f8H
	DB	00H
	DB	0f8H
	DB	0fcH
	DB	0f8H
	DB	00H
	DB	0f8H
	DB	0fcH
	DB	0f8H
	DB	00H
	DB	0f8H
	DB	0fcH
	DB	0f8H
	DB	00H
	DB	0f8H
	DB	0fcH
	DB	0f8H
	DB	00H
	DB	0f8H
	DB	0fcH
	DB	0f8H
	DB	00H
	DB	0f8H
	DB	0fcH
	DB	0f8H
	DB	00H
	DB	0f8H
	DB	0fcH
	DB	0f8H
	DB	00H
	DB	0f8H
	DB	0fcH
	DB	0f8H
	DB	00H
	DB	0f8H
	DB	0fcH
	DB	0f8H
	DB	00H
	DB	0f8H
	DB	0fcH
	DB	0f8H
	DB	00H
	DB	00H
	DB	0d0H
	DB	0f8H
	DB	0ebH
	DB	00H
	DB	0d4H
	DB	0f8H
	DB	0ffH
	DB	00H
	DB	0d4H
	DB	0f8H
	DB	0ffH
	DB	00H
	DB	0d0H
	DB	0f8H
	DB	0ffH
	DB	00H
	DB	0d4H
	DB	0f8H
	DB	0ffH
	DB	00H
	DB	0d4H
	DB	0f8H
	DB	0ffH
	DB	00H
	DB	0d0H
	DB	0f8H
	DB	0ffH
	DB	00H
	DB	0d4H
	DB	0f8H
	DB	0ffH
	DB	00H
	DB	0d0H
	DB	0f8H
	DB	0ffH
	DB	00H
	DB	0d4H
	DB	0f8H
	DB	0ffH
	DB	00H
	DB	0d0H
	DB	0f8H
	DB	0ffH
	DB	00H
	DB	0d0H
	DB	0f8H
	DB	0ffH
	DB	00H
	DB	0d4H
	DB	0f8H
	DB	0ffH
	DB	00H
	DB	0d0H
	DB	0f8H
	DB	0ffH
	DB	00H
	DB	0d4H
	DB	0f8H
	DB	0ffH
	DB	00H
	DB	0d0H
	DB	0f8H
	DB	0ffH
	DB	00H
	DB	0d4H
	DB	0f8H
	DB	0ffH
	DB	00H
	DB	0d0H
	DB	0f8H
	DB	0ebH
	DB	0f8H
	DB	0fcH
	DB	0f8H
	DB	00H
	DB	0f8H
	DB	0fcH
	DB	0f8H
	DB	00H
	DB	0f8H
	DB	0fcH
	DB	0f8H
	DB	00H
	DB	0f8H
	DB	0fcH
	DB	0f8H
	DB	00H
	DB	0f8H
	DB	0fcH
	DB	0f8H
	DB	00H
	DB	0f8H
	DB	0fcH
	DB	0f8H
	DB	00H
	DB	0f8H
	DB	0fcH
	DB	0f8H
	DB	00H
	DB	0f8H
	DB	0fcH
	DB	0f8H
	DB	00H
	DB	0f8H
	DB	0fcH
	DB	0f8H
	DB	00H
	DB	0f8H
	DB	0fcH
	DB	0f8H
	DB	00H
	DB	0f8H
	DB	0fcH
	DB	0f8H
	DB	00H
	DB	0f8H
	DB	0fcH
	DB	0f8H
	DB	00H
	DB	0f8H
	DB	0fcH
	DB	0f8H
	DB	00H
	DB	0f8H
	DB	0fcH
	DB	0f8H
	DB	00H
	DB	00H
	DB	0d0H
	DB	0f8H
	DB	055H
	DB	00H
	DB	0d0H
	DB	0f8H
	DB	0ebH
	DB	00H
	DB	0d4H
	DB	0f8H
	DB	0ffH
	DB	00H
	DB	0d0H
	DB	0f8H
	DB	0ffH
	DB	00H
	DB	0d0H
	DB	0f8H
	DB	0ffH
	DB	00H
	DB	0d4H
	DB	0f8H
	DB	0ffH
	DB	00H
	DB	0d0H
	DB	0f8H
	DB	0ffH
	DB	00H
	DB	0d0H
	DB	0f8H
	DB	0ffH
	DB	00H
	DB	0d4H
	DB	0f8H
	DB	0ffH
	DB	00H
	DB	0d4H
	DB	0f8H
	DB	0ffH
	DB	00H
	DB	0d0H
	DB	0f8H
	DB	0ffH
	DB	00H
	DB	0d4H
	DB	0f8H
	DB	0ffH
	DB	00H
	DB	0d0H
	DB	0f8H
	DB	0ffH
	DB	00H
	DB	0d4H
	DB	0f8H
	DB	0ffH
	DB	00H
	DB	0d0H
	DB	0f8H
	DB	0ffH
	DB	00H
	DB	0d4H
	DB	0f8H
	DB	0ffH
	DB	00H
	DB	0d0H
	DB	0f8H
	DB	0ebH
	DB	00H
	DB	0d4H
	DB	0f8H
	DB	055H
	DB	0f8H
	DB	0fcH
	DB	0f8H
	DB	00H
	DB	0f8H
	DB	0fcH
	DB	0f8H
	DB	00H
	DB	0f8H
	DB	0fcH
	DB	0f8H
	DB	00H
	DB	0f8H
	DB	0fcH
	DB	0f8H
	DB	00H
	DB	0f8H
	DB	0fcH
	DB	0f8H
	DB	00H
	DB	0f8H
	DB	0fcH
	DB	0f8H
	DB	00H
	DB	0f8H
	DB	0fcH
	DB	0f8H
	DB	00H
CONST	ENDS
END
