; Listing generated by Microsoft (R) Optimizing Compiler Version 19.37.32822.0 

	TITLE	C:\TouchGFXProjects\KraftHeinz_DS3600\TouchGFX\build\Debug\obj\image_battery-low.obj
	.686P
	.XMM
	include listing.inc
	.model	flat

INCLUDELIB MSVCRTD
INCLUDELIB OLDNAMES

PUBLIC	?image_battery_low@@3QBEB			; image_battery_low
msvcjmc	SEGMENT
__38966392_Config@hpp DB 01H
__95A26BA8_image_battery-low@cpp DB 01H
msvcjmc	ENDS
CONST	SEGMENT
?image_battery_low@@3QBEB DB 00H			; image_battery_low
	DB	00H
	DB	00H
	DB	00H
	DB	00H
	DB	00H
	DB	00H
	DB	00H
	DB	00H
	DB	00H
	DB	00H
	DB	00H
	DB	00H
	DB	00H
	DB	00H
	DB	00H
	DB	00H
	DB	00H
	DB	00H
	DB	00H
	DB	00H
	DB	00H
	DB	00H
	DB	00H
	DB	00H
	DB	00H
	DB	00H
	DB	00H
	DB	00H
	DB	00H
	DB	00H
	DB	00H
	DB	00H
	DB	00H
	DB	00H
	DB	00H
	DB	00H
	DB	00H
	DB	00H
	DB	00H
	DB	00H
	DB	00H
	DB	00H
	DB	00H
	DB	00H
	DB	00H
	DB	00H
	DB	00H
	DB	00H
	DB	00H
	DB	00H
	DB	00H
	DB	00H
	DB	00H
	DB	00H
	DB	00H
	DB	00H
	DB	00H
	DB	00H
	DB	00H
	DB	00H
	DB	00H
	DB	00H
	DB	00H
	DB	00H
	DB	00H
	DB	00H
	DB	00H
	DB	00H
	DB	00H
	DB	00H
	DB	00H
	DB	00H
	DB	00H
	DB	00H
	DB	00H
	DB	00H
	DB	00H
	DB	00H
	DB	00H
	DB	00H
	DB	00H
	DB	00H
	DB	00H
	DB	00H
	DB	00H
	DB	00H
	DB	00H
	DB	00H
	DB	00H
	DB	00H
	DB	00H
	DB	00H
	DB	00H
	DB	00H
	DB	00H
	DB	00H
	DB	00H
	DB	00H
	DB	00H
	DB	00H
	DB	00H
	DB	00H
	DB	00H
	DB	00H
	DB	00H
	DB	00H
	DB	00H
	DB	00H
	DB	00H
	DB	00H
	DB	00H
	DB	00H
	DB	00H
	DB	00H
	DB	00H
	DB	00H
	DB	00H
	DB	00H
	DB	00H
	DB	00H
	DB	00H
	DB	00H
	DB	00H
	DB	00H
	DB	00H
	DB	00H
	DB	00H
	DB	00H
	DB	00H
	DB	00H
	DB	00H
	DB	00H
	DB	00H
	DB	00H
	DB	00H
	DB	00H
	DB	00H
	DB	00H
	DB	00H
	DB	00H
	DB	00H
	DB	00H
	DB	00H
	DB	00H
	DB	00H
	DB	00H
	DB	00H
	DB	00H
	DB	00H
	DB	00H
	DB	00H
	DB	00H
	DB	00H
	DB	00H
	DB	00H
	DB	00H
	DB	00H
	DB	00H
	DB	00H
	DB	00H
	DB	00H
	DB	00H
	DB	00H
	DB	00H
	DB	00H
	DB	00H
	DB	00H
	DB	00H
	DB	00H
	DB	00H
	DB	00H
	DB	00H
	DB	00H
	DB	00H
	DB	00H
	DB	00H
	DB	00H
	DB	00H
	DB	00H
	DB	00H
	DB	00H
	DB	00H
	DB	00H
	DB	00H
	DB	00H
	DB	00H
	DB	00H
	DB	00H
	DB	00H
	DB	00H
	DB	00H
	DB	00H
	DB	00H
	DB	00H
	DB	00H
	DB	00H
	DB	00H
	DB	00H
	DB	00H
	DB	00H
	DB	00H
	DB	00H
	DB	00H
	DB	00H
	DB	00H
	DB	00H
	DB	00H
	DB	00H
	DB	00H
	DB	00H
	DB	00H
	DB	00H
	DB	00H
	DB	00H
	DB	00H
	DB	00H
	DB	00H
	DB	00H
	DB	00H
	DB	00H
	DB	00H
	DB	00H
	DB	00H
	DB	00H
	DB	00H
	DB	00H
	DB	00H
	DB	00H
	DB	00H
	DB	00H
	DB	00H
	DB	00H
	DB	00H
	DB	00H
	DB	00H
	DB	00H
	DB	00H
	DB	00H
	DB	00H
	DB	00H
	DB	00H
	DB	00H
	DB	00H
	DB	00H
	DB	00H
	DB	00H
	DB	00H
	DB	00H
	DB	00H
	DB	00H
	DB	00H
	DB	00H
	DB	00H
	DB	00H
	DB	00H
	DB	00H
	DB	00H
	DB	00H
	DB	00H
	DB	00H
	DB	00H
	DB	00H
	DB	00H
	DB	00H
	DB	00H
	DB	00H
	DB	00H
	DB	00H
	DB	00H
	DB	00H
	DB	00H
	DB	00H
	DB	00H
	DB	00H
	DB	00H
	DB	00H
	DB	00H
	DB	00H
	DB	00H
	DB	00H
	DB	00H
	DB	00H
	DB	00H
	DB	00H
	DB	00H
	DB	00H
	DB	00H
	DB	00H
	DB	00H
	DB	00H
	DB	00H
	DB	00H
	DB	00H
	DB	00H
	DB	00H
	DB	00H
	DB	00H
	DB	00H
	DB	00H
	DB	00H
	DB	00H
	DB	00H
	DB	00H
	DB	00H
	DB	00H
	DB	00H
	DB	00H
	DB	0c0H
	DB	0bcH
	DB	0c0H
	DB	0beH
	DB	0c0H
	DB	0bcH
	DB	0c0H
	DB	0ffH
	DB	0b8H
	DB	0bcH
	DB	0b8H
	DB	0ffH
	DB	0c0H
	DB	0bcH
	DB	0c0H
	DB	0ffH
	DB	0c0H
	DB	0bcH
	DB	0c0H
	DB	0ffH
	DB	0b8H
	DB	0bcH
	DB	0b8H
	DB	0beH
	DB	00H
	DB	00H
	DB	00H
	DB	00H
	DB	00H
	DB	00H
	DB	00H
	DB	00H
	DB	00H
	DB	00H
	DB	00H
	DB	00H
	DB	00H
	DB	00H
	DB	00H
	DB	00H
	DB	00H
	DB	00H
	DB	00H
	DB	00H
	DB	00H
	DB	00H
	DB	00H
	DB	00H
	DB	00H
	DB	00H
	DB	00H
	DB	00H
	DB	00H
	DB	00H
	DB	00H
	DB	00H
	DB	00H
	DB	00H
	DB	00H
	DB	00H
	DB	00H
	DB	00H
	DB	00H
	DB	00H
	DB	00H
	DB	00H
	DB	00H
	DB	00H
	DB	00H
	DB	00H
	DB	00H
	DB	00H
	DB	00H
	DB	00H
	DB	00H
	DB	00H
	DB	00H
	DB	00H
	DB	00H
	DB	00H
	DB	00H
	DB	00H
	DB	00H
	DB	00H
	DB	00H
	DB	00H
	DB	00H
	DB	00H
	DB	00H
	DB	00H
	DB	00H
	DB	00H
	DB	00H
	DB	00H
	DB	00H
	DB	00H
	DB	00H
	DB	00H
	DB	00H
	DB	00H
	DB	00H
	DB	00H
	DB	00H
	DB	00H
	DB	00H
	DB	00H
	DB	00H
	DB	00H
	DB	00H
	DB	00H
	DB	00H
	DB	00H
	DB	00H
	DB	00H
	DB	00H
	DB	00H
	DB	00H
	DB	00H
	DB	00H
	DB	00H
	DB	00H
	DB	00H
	DB	00H
	DB	00H
	DB	00H
	DB	00H
	DB	00H
	DB	00H
	DB	0c0H
	DB	0c0H
	DB	0c0H
	DB	0beH
	DB	0b8H
	DB	0bcH
	DB	0b8H
	DB	0ffH
	DB	0c0H
	DB	0bcH
	DB	0c0H
	DB	0ffH
	DB	0c0H
	DB	0bcH
	DB	0c0H
	DB	0ffH
	DB	0b8H
	DB	0bcH
	DB	0b8H
	DB	0ffH
	DB	0b8H
	DB	0bcH
	DB	0b8H
	DB	0beH
	DB	00H
	DB	00H
	DB	00H
	DB	00H
	DB	00H
	DB	00H
	DB	00H
	DB	00H
	DB	00H
	DB	00H
	DB	00H
	DB	00H
	DB	00H
	DB	00H
	DB	00H
	DB	00H
	DB	00H
	DB	00H
	DB	00H
	DB	00H
	DB	00H
	DB	00H
	DB	00H
	DB	00H
	DB	00H
	DB	00H
	DB	00H
	DB	00H
	DB	00H
	DB	00H
	DB	00H
	DB	00H
	DB	00H
	DB	00H
	DB	00H
	DB	00H
	DB	00H
	DB	00H
	DB	00H
	DB	00H
	DB	00H
	DB	00H
	DB	00H
	DB	00H
	DB	00H
	DB	00H
	DB	00H
	DB	00H
	DB	00H
	DB	00H
	DB	00H
	DB	00H
	DB	00H
	DB	00H
	DB	00H
	DB	00H
	DB	00H
	DB	00H
	DB	00H
	DB	00H
	DB	00H
	DB	00H
	DB	00H
	DB	00H
	DB	00H
	DB	00H
	DB	00H
	DB	00H
	DB	00H
	DB	00H
	DB	00H
	DB	00H
	DB	00H
	DB	00H
	DB	00H
	DB	00H
	DB	00H
	DB	00H
	DB	00H
	DB	00H
	DB	00H
	DB	00H
	DB	00H
	DB	00H
	DB	00H
	DB	00H
	DB	00H
	DB	00H
	DB	00H
	DB	00H
	DB	00H
	DB	00H
	DB	0b8H
	DB	0b8H
	DB	0b8H
	DB	020H
	DB	0b8H
	DB	0bcH
	DB	0b8H
	DB	041H
	DB	0b8H
	DB	0bcH
	DB	0b8H
	DB	041H
	DB	0c0H
	DB	0bcH
	DB	0c0H
	DB	0cfH
	DB	0c0H
	DB	0bcH
	DB	0c0H
	DB	0ffH
	DB	0b8H
	DB	0c0H
	DB	0b8H
	DB	0ffH
	DB	0c0H
	DB	0bcH
	DB	0c0H
	DB	0ffH
	DB	0c0H
	DB	0bcH
	DB	0c0H
	DB	0ffH
	DB	0c0H
	DB	0bcH
	DB	0c0H
	DB	0cfH
	DB	0b8H
	DB	0bcH
	DB	0b8H
	DB	041H
	DB	0b8H
	DB	0bcH
	DB	0b8H
	DB	041H
	DB	0b8H
	DB	0b8H
	DB	0b8H
	DB	030H
	DB	00H
	DB	00H
	DB	00H
	DB	00H
	DB	00H
	DB	00H
	DB	00H
	DB	00H
	DB	00H
	DB	00H
	DB	00H
	DB	00H
	DB	00H
	DB	00H
	DB	00H
	DB	00H
	DB	00H
	DB	00H
	DB	00H
	DB	00H
	DB	00H
	DB	00H
	DB	00H
	DB	00H
	DB	00H
	DB	00H
	DB	00H
	DB	00H
	DB	00H
	DB	00H
	DB	00H
	DB	00H
	DB	00H
	DB	00H
	DB	00H
	DB	00H
	DB	00H
	DB	00H
	DB	00H
	DB	00H
	DB	00H
	DB	00H
	DB	00H
	DB	00H
	DB	00H
	DB	00H
	DB	00H
	DB	00H
	DB	00H
	DB	00H
	DB	00H
	DB	00H
	DB	00H
	DB	00H
	DB	00H
	DB	00H
	DB	00H
	DB	00H
	DB	00H
	DB	00H
	DB	00H
	DB	00H
	DB	00H
	DB	00H
	DB	00H
	DB	00H
	DB	00H
	DB	00H
	DB	00H
	DB	00H
	DB	00H
	DB	00H
	DB	00H
	DB	00H
	DB	00H
	DB	00H
	DB	0c0H
	DB	0bcH
	DB	0c0H
	DB	082H
	DB	0c0H
	DB	0bcH
	DB	0c0H
	DB	0ffH
	DB	0c0H
	DB	0bcH
	DB	0c0H
	DB	0ffH
	DB	0b8H
	DB	0bcH
	DB	0b8H
	DB	0ffH
	DB	0c0H
	DB	0bcH
	DB	0c0H
	DB	0ffH
	DB	0c0H
	DB	0bcH
	DB	0c0H
	DB	0ffH
	DB	0b8H
	DB	0bcH
	DB	0b8H
	DB	0ffH
	DB	0b8H
	DB	0c0H
	DB	0b8H
	DB	0ffH
	DB	0c0H
	DB	0bcH
	DB	0c0H
	DB	0ffH
	DB	0c0H
	DB	0bcH
	DB	0c0H
	DB	0ffH
	DB	0c0H
	DB	0bcH
	DB	0c0H
	DB	0ffH
	DB	0c0H
	DB	0bcH
	DB	0c0H
	DB	0ffH
	DB	0c0H
	DB	0bcH
	DB	0c0H
	DB	0ffH
	DB	0c0H
	DB	0bcH
	DB	0c0H
	DB	082H
	DB	00H
	DB	00H
	DB	00H
	DB	00H
	DB	00H
	DB	00H
	DB	00H
	DB	00H
	DB	00H
	DB	00H
	DB	00H
	DB	00H
	DB	00H
	DB	00H
	DB	00H
	DB	00H
	DB	00H
	DB	00H
	DB	00H
	DB	00H
	DB	00H
	DB	00H
	DB	00H
	DB	00H
	DB	00H
	DB	00H
	DB	00H
	DB	00H
	DB	00H
	DB	00H
	DB	00H
	DB	00H
	DB	00H
	DB	00H
	DB	00H
	DB	00H
	DB	00H
	DB	00H
	DB	00H
	DB	00H
	DB	00H
	DB	00H
	DB	00H
	DB	00H
	DB	00H
	DB	00H
	DB	00H
	DB	00H
	DB	00H
	DB	00H
	DB	00H
	DB	00H
	DB	00H
	DB	00H
	DB	00H
	DB	00H
	DB	00H
	DB	00H
	DB	00H
	DB	00H
	DB	00H
	DB	00H
	DB	00H
	DB	00H
	DB	00H
	DB	00H
	DB	00H
	DB	00H
	DB	00H
	DB	00H
	DB	00H
	DB	00H
	DB	0b8H
	DB	0bcH
	DB	0b8H
	DB	0ffH
	DB	0c0H
	DB	0bcH
	DB	0c0H
	DB	0ffH
	DB	0c0H
	DB	0bcH
	DB	0c0H
	DB	0ffH
	DB	0b8H
	DB	0bcH
	DB	0b8H
	DB	0ffH
	DB	0c0H
	DB	0bcH
	DB	0c0H
	DB	0ffH
	DB	0c0H
	DB	0c0H
	DB	0c0H
	DB	0ffH
	DB	0c0H
	DB	0bcH
	DB	0c0H
	DB	0ffH
	DB	0b8H
	DB	0bcH
	DB	0b8H
	DB	0ffH
	DB	0c0H
	DB	0bcH
	DB	0c0H
	DB	0ffH
	DB	0b8H
	DB	0c0H
	DB	0b8H
	DB	0ffH
	DB	0c0H
	DB	0bcH
	DB	0c0H
	DB	0ffH
	DB	0c0H
	DB	0bcH
	DB	0c0H
	DB	0ffH
	DB	0b8H
	DB	0bcH
	DB	0b8H
	DB	0ffH
	DB	0c0H
	DB	0bcH
	DB	0c0H
	DB	0ffH
	DB	00H
	DB	00H
	DB	00H
	DB	00H
	DB	00H
	DB	00H
	DB	00H
	DB	00H
	DB	00H
	DB	00H
	DB	00H
	DB	00H
	DB	00H
	DB	00H
	DB	00H
	DB	00H
	DB	00H
	DB	00H
	DB	00H
	DB	00H
	DB	00H
	DB	00H
	DB	00H
	DB	00H
	DB	00H
	DB	00H
	DB	00H
	DB	00H
	DB	00H
	DB	00H
	DB	00H
	DB	00H
	DB	00H
	DB	00H
	DB	00H
	DB	00H
	DB	00H
	DB	00H
	DB	00H
	DB	00H
	DB	00H
	DB	00H
	DB	00H
	DB	00H
	DB	00H
	DB	00H
	DB	00H
	DB	00H
	DB	00H
	DB	00H
	DB	00H
	DB	00H
	DB	00H
	DB	00H
	DB	00H
	DB	00H
	DB	00H
	DB	00H
	DB	00H
	DB	00H
	DB	00H
	DB	00H
	DB	00H
	DB	00H
	DB	00H
	DB	00H
	DB	00H
	DB	00H
	DB	00H
	DB	00H
	DB	00H
	DB	00H
	DB	0b8H
	DB	0bcH
	DB	0b8H
	DB	0ffH
	DB	0c0H
	DB	0bcH
	DB	0c0H
	DB	0ffH
	DB	0b8H
	DB	0c0H
	DB	0b8H
	DB	0ffH
	DB	0c0H
	DB	0bcH
	DB	0c0H
	DB	0ffH
	DB	0b8H
	DB	0bcH
	DB	0b8H
	DB	0ffH
	DB	0c0H
	DB	0bcH
	DB	0c0H
	DB	0ffH
	DB	0c0H
	DB	0c0H
	DB	0c0H
	DB	0ffH
	DB	0c0H
	DB	0bcH
	DB	0c0H
	DB	0ffH
	DB	0b8H
	DB	0bcH
	DB	0b8H
	DB	0ffH
	DB	0c0H
	DB	0bcH
	DB	0c0H
	DB	0ffH
	DB	0b8H
	DB	0c0H
	DB	0b8H
	DB	0ffH
	DB	0b8H
	DB	0bcH
	DB	0b8H
	DB	0ffH
	DB	0c0H
	DB	0c0H
	DB	0c0H
	DB	0ffH
	DB	0b8H
	DB	0bcH
	DB	0b8H
	DB	0ffH
	DB	00H
	DB	00H
	DB	00H
	DB	00H
	DB	00H
	DB	00H
	DB	00H
	DB	00H
	DB	00H
	DB	00H
	DB	00H
	DB	00H
	DB	00H
	DB	00H
	DB	00H
	DB	00H
	DB	00H
	DB	00H
	DB	00H
	DB	00H
	DB	00H
	DB	00H
	DB	00H
	DB	00H
	DB	00H
	DB	00H
	DB	00H
	DB	00H
	DB	00H
	DB	00H
	DB	00H
	DB	00H
	DB	00H
	DB	00H
	DB	00H
	DB	00H
	DB	00H
	DB	00H
	DB	00H
	DB	00H
	DB	00H
	DB	00H
	DB	00H
	DB	00H
	DB	00H
	DB	00H
	DB	00H
	DB	00H
	DB	00H
	DB	00H
	DB	00H
	DB	00H
	DB	00H
	DB	00H
	DB	00H
	DB	00H
	DB	00H
	DB	00H
	DB	00H
	DB	00H
	DB	00H
	DB	00H
	DB	00H
	DB	00H
	DB	00H
	DB	00H
	DB	00H
	DB	00H
	DB	00H
	DB	00H
	DB	00H
	DB	00H
	DB	0c0H
	DB	0bcH
	DB	0c0H
	DB	0ffH
	DB	0c0H
	DB	0bcH
	DB	0c0H
	DB	0ffH
	DB	0b8H
	DB	0bcH
	DB	0b8H
	DB	0ffH
	DB	0c0H
	DB	0c0H
	DB	0c0H
	DB	0ffH
	DB	0c0H
	DB	0bcH
	DB	0c0H
	DB	0ffH
	DB	0b8H
	DB	0bcH
	DB	0b8H
	DB	0ffH
	DB	0b8H
	DB	0bcH
	DB	0b8H
	DB	0ffH
	DB	0c0H
	DB	0c0H
	DB	0c0H
	DB	0ffH
	DB	0c0H
	DB	0bcH
	DB	0c0H
	DB	0ffH
	DB	0c0H
	DB	0bcH
	DB	0c0H
	DB	0ffH
	DB	0c0H
	DB	0bcH
	DB	0c0H
	DB	0ffH
	DB	0c0H
	DB	0bcH
	DB	0c0H
	DB	0ffH
	DB	0c0H
	DB	0bcH
	DB	0c0H
	DB	0ffH
	DB	0c0H
	DB	0c0H
	DB	0c0H
	DB	0ffH
	DB	00H
	DB	00H
	DB	00H
	DB	00H
	DB	00H
	DB	00H
	DB	00H
	DB	00H
	DB	00H
	DB	00H
	DB	00H
	DB	00H
	DB	00H
	DB	00H
	DB	00H
	DB	00H
	DB	00H
	DB	00H
	DB	00H
	DB	00H
	DB	00H
	DB	00H
	DB	00H
	DB	00H
	DB	00H
	DB	00H
	DB	00H
	DB	00H
	DB	00H
	DB	00H
	DB	00H
	DB	00H
	DB	00H
	DB	00H
	DB	00H
	DB	00H
	DB	00H
	DB	00H
	DB	00H
	DB	00H
	DB	00H
	DB	00H
	DB	00H
	DB	00H
	DB	00H
	DB	00H
	DB	00H
	DB	00H
	DB	00H
	DB	00H
	DB	00H
	DB	00H
	DB	00H
	DB	00H
	DB	00H
	DB	00H
	DB	00H
	DB	00H
	DB	00H
	DB	00H
	DB	00H
	DB	00H
	DB	00H
	DB	00H
	DB	00H
	DB	00H
	DB	00H
	DB	00H
	DB	00H
	DB	00H
	DB	00H
	DB	00H
	DB	0c0H
	DB	0bcH
	DB	0c0H
	DB	0ffH
	DB	0b8H
	DB	0bcH
	DB	0b8H
	DB	0ffH
	DB	0c0H
	DB	0bcH
	DB	0c0H
	DB	0ffH
	DB	0c0H
	DB	0bcH
	DB	0c0H
	DB	0ffH
	DB	0b8H
	DB	0c0H
	DB	0b8H
	DB	0ffH
	DB	0c0H
	DB	0bcH
	DB	0c0H
	DB	0ffH
	DB	0c0H
	DB	0bcH
	DB	0c0H
	DB	0ffH
	DB	0b8H
	DB	0bcH
	DB	0b8H
	DB	0ffH
	DB	0b8H
	DB	0c0H
	DB	0b8H
	DB	0ffH
	DB	0c0H
	DB	0bcH
	DB	0c0H
	DB	0ffH
	DB	0b8H
	DB	0bcH
	DB	0b8H
	DB	0ffH
	DB	0b8H
	DB	0c0H
	DB	0b8H
	DB	0ffH
	DB	0c0H
	DB	0bcH
	DB	0c0H
	DB	0ffH
	DB	0b8H
	DB	0bcH
	DB	0b8H
	DB	0ffH
	DB	00H
	DB	00H
	DB	00H
	DB	00H
	DB	00H
	DB	00H
	DB	00H
	DB	00H
	DB	00H
	DB	00H
	DB	00H
	DB	00H
	DB	00H
	DB	00H
	DB	00H
	DB	00H
	DB	00H
	DB	00H
	DB	00H
	DB	00H
	DB	00H
	DB	00H
	DB	00H
	DB	00H
	DB	00H
	DB	00H
	DB	00H
	DB	00H
	DB	00H
	DB	00H
	DB	00H
	DB	00H
	DB	00H
	DB	00H
	DB	00H
	DB	00H
	DB	00H
	DB	00H
	DB	00H
	DB	00H
	DB	00H
	DB	00H
	DB	00H
	DB	00H
	DB	00H
	DB	00H
	DB	00H
	DB	00H
	DB	00H
	DB	00H
	DB	00H
	DB	00H
	DB	00H
	DB	00H
	DB	00H
	DB	00H
	DB	00H
	DB	00H
	DB	00H
	DB	00H
	DB	00H
	DB	00H
	DB	00H
	DB	00H
	DB	00H
	DB	00H
	DB	00H
	DB	00H
	DB	00H
	DB	00H
	DB	00H
	DB	00H
	DB	0b8H
	DB	0bcH
	DB	0b8H
	DB	0ffH
	DB	0c0H
	DB	0c0H
	DB	0c0H
	DB	0ffH
	DB	0c0H
	DB	0bcH
	DB	0c0H
	DB	0ffH
	DB	0b8H
	DB	0bcH
	DB	0b8H
	DB	0ffH
	DB	0c0H
	DB	0bcH
	DB	0c0H
	DB	0ffH
	DB	0c0H
	DB	0c0H
	DB	0c0H
	DB	0ffH
	DB	0b8H
	DB	0bcH
	DB	0b8H
	DB	0ffH
	DB	0c0H
	DB	0bcH
	DB	0c0H
	DB	0ffH
	DB	0c0H
	DB	0bcH
	DB	0c0H
	DB	0ffH
	DB	0b8H
	DB	0c0H
	DB	0b8H
	DB	0ffH
	DB	0c0H
	DB	0bcH
	DB	0c0H
	DB	0ffH
	DB	0c0H
	DB	0bcH
	DB	0c0H
	DB	0ffH
	DB	0b8H
	DB	0bcH
	DB	0b8H
	DB	0ffH
	DB	0c0H
	DB	0bcH
	DB	0c0H
	DB	0ffH
	DB	00H
	DB	00H
	DB	00H
	DB	00H
	DB	00H
	DB	00H
	DB	00H
	DB	00H
	DB	00H
	DB	00H
	DB	00H
	DB	00H
	DB	00H
	DB	00H
	DB	00H
	DB	00H
	DB	00H
	DB	00H
	DB	00H
	DB	00H
	DB	00H
	DB	00H
	DB	00H
	DB	00H
	DB	00H
	DB	00H
	DB	00H
	DB	00H
	DB	00H
	DB	00H
	DB	00H
	DB	00H
	DB	00H
	DB	00H
	DB	00H
	DB	00H
	DB	00H
	DB	00H
	DB	00H
	DB	00H
	DB	00H
	DB	00H
	DB	00H
	DB	00H
	DB	00H
	DB	00H
	DB	00H
	DB	00H
	DB	00H
	DB	00H
	DB	00H
	DB	00H
	DB	00H
	DB	00H
	DB	00H
	DB	00H
	DB	00H
	DB	00H
	DB	00H
	DB	00H
	DB	00H
	DB	00H
	DB	00H
	DB	00H
	DB	00H
	DB	00H
	DB	00H
	DB	00H
	DB	00H
	DB	00H
	DB	00H
	DB	00H
	DB	0c0H
	DB	0bcH
	DB	0c0H
	DB	0ffH
	DB	0c0H
	DB	0bcH
	DB	0c0H
	DB	0ffH
	DB	0b8H
	DB	0c0H
	DB	0b8H
	DB	0ffH
	DB	0b8H
	DB	0bcH
	DB	0b8H
	DB	0ffH
	DB	0c0H
	DB	0bcH
	DB	0c0H
	DB	0ffH
	DB	0c0H
	DB	0bcH
	DB	0c0H
	DB	0ffH
	DB	0b8H
	DB	0c0H
	DB	0b8H
	DB	0ffH
	DB	0c0H
	DB	0bcH
	DB	0c0H
	DB	0ffH
	DB	0c0H
	DB	0bcH
	DB	0c0H
	DB	0ffH
	DB	0b8H
	DB	0bcH
	DB	0b8H
	DB	0ffH
	DB	0c0H
	DB	0c0H
	DB	0c0H
	DB	0ffH
	DB	0c0H
	DB	0bcH
	DB	0c0H
	DB	0ffH
	DB	0b8H
	DB	0bcH
	DB	0b8H
	DB	0ffH
	DB	0c0H
	DB	0c0H
	DB	0c0H
	DB	0ffH
	DB	00H
	DB	00H
	DB	00H
	DB	00H
	DB	00H
	DB	00H
	DB	00H
	DB	00H
	DB	00H
	DB	00H
	DB	00H
	DB	00H
	DB	00H
	DB	00H
	DB	00H
	DB	00H
	DB	00H
	DB	00H
	DB	00H
	DB	00H
	DB	00H
	DB	00H
	DB	00H
	DB	00H
	DB	00H
	DB	00H
	DB	00H
	DB	00H
	DB	00H
	DB	00H
	DB	00H
	DB	00H
	DB	00H
	DB	00H
	DB	00H
	DB	00H
	DB	00H
	DB	00H
	DB	00H
	DB	00H
	DB	00H
	DB	00H
	DB	00H
	DB	00H
	DB	00H
	DB	00H
	DB	00H
	DB	00H
	DB	00H
	DB	00H
	DB	00H
	DB	00H
	DB	00H
	DB	00H
	DB	00H
	DB	00H
	DB	00H
	DB	00H
	DB	00H
	DB	00H
	DB	00H
	DB	00H
	DB	00H
	DB	00H
	DB	00H
	DB	00H
	DB	00H
	DB	00H
	DB	00H
	DB	00H
	DB	00H
	DB	00H
	DB	0c0H
	DB	0bcH
	DB	0c0H
	DB	0ffH
	DB	0b8H
	DB	0bcH
	DB	0b8H
	DB	0ffH
	DB	0c0H
	DB	0c0H
	DB	0c0H
	DB	0ffH
	DB	0c0H
	DB	0bcH
	DB	0c0H
	DB	0ffH
	DB	0b8H
	DB	0bcH
	DB	0b8H
	DB	0ffH
	DB	0c0H
	DB	0c0H
	DB	0c0H
	DB	0ffH
	DB	0b8H
	DB	0bcH
	DB	0b8H
	DB	0ffH
	DB	0c0H
	DB	0bcH
	DB	0c0H
	DB	0ffH
	DB	0c0H
	DB	0bcH
	DB	0c0H
	DB	0ffH
	DB	0b8H
	DB	0bcH
	DB	0b8H
	DB	0ffH
	DB	0c0H
	DB	0c0H
	DB	0c0H
	DB	0ffH
	DB	0c0H
	DB	0bcH
	DB	0c0H
	DB	0ffH
	DB	0b8H
	DB	0bcH
	DB	0b8H
	DB	0ffH
	DB	0c0H
	DB	0bcH
	DB	0c0H
	DB	0ffH
	DB	00H
	DB	00H
	DB	00H
	DB	00H
	DB	00H
	DB	00H
	DB	00H
	DB	00H
	DB	00H
	DB	00H
	DB	00H
	DB	00H
	DB	00H
	DB	00H
	DB	00H
	DB	00H
	DB	00H
	DB	00H
	DB	00H
	DB	00H
	DB	00H
	DB	00H
	DB	00H
	DB	00H
	DB	00H
	DB	00H
	DB	00H
	DB	00H
	DB	00H
	DB	00H
	DB	00H
	DB	00H
	DB	00H
	DB	00H
	DB	00H
	DB	00H
	DB	00H
	DB	00H
	DB	00H
	DB	00H
	DB	00H
	DB	00H
	DB	00H
	DB	00H
	DB	00H
	DB	00H
	DB	00H
	DB	00H
	DB	00H
	DB	00H
	DB	00H
	DB	00H
	DB	00H
	DB	00H
	DB	00H
	DB	00H
	DB	00H
	DB	00H
	DB	00H
	DB	00H
	DB	00H
	DB	00H
	DB	00H
	DB	00H
	DB	00H
	DB	00H
	DB	00H
	DB	00H
	DB	00H
	DB	00H
	DB	00H
	DB	00H
	DB	0b8H
	DB	0bcH
	DB	0b8H
	DB	0ffH
	DB	0c0H
	DB	0bcH
	DB	0c0H
	DB	0ffH
	DB	0c0H
	DB	0bcH
	DB	0c0H
	DB	0ffH
	DB	0b8H
	DB	0bcH
	DB	0b8H
	DB	0ffH
	DB	0c0H
	DB	0c0H
	DB	0c0H
	DB	0ffH
	DB	0c0H
	DB	0bcH
	DB	0c0H
	DB	0ffH
	DB	0b8H
	DB	0bcH
	DB	0b8H
	DB	0ffH
	DB	0c0H
	DB	0c0H
	DB	0c0H
	DB	0ffH
	DB	0b8H
	DB	0bcH
	DB	0b8H
	DB	0ffH
	DB	0c0H
	DB	0bcH
	DB	0c0H
	DB	0ffH
	DB	0b8H
	DB	0bcH
	DB	0b8H
	DB	0ffH
	DB	0c0H
	DB	0c0H
	DB	0c0H
	DB	0ffH
	DB	0c0H
	DB	0bcH
	DB	0c0H
	DB	0ffH
	DB	0b8H
	DB	0bcH
	DB	0b8H
	DB	0ffH
	DB	00H
	DB	00H
	DB	00H
	DB	00H
	DB	00H
	DB	00H
	DB	00H
	DB	00H
	DB	00H
	DB	00H
	DB	00H
	DB	00H
	DB	00H
	DB	00H
	DB	00H
	DB	00H
	DB	00H
	DB	00H
	DB	00H
	DB	00H
	DB	00H
	DB	00H
	DB	00H
	DB	00H
	DB	00H
	DB	00H
	DB	00H
	DB	00H
	DB	00H
	DB	00H
	DB	00H
	DB	00H
	DB	00H
	DB	00H
	DB	00H
	DB	00H
	DB	00H
	DB	00H
	DB	00H
	DB	00H
	DB	00H
	DB	00H
	DB	00H
	DB	00H
	DB	00H
	DB	00H
	DB	00H
	DB	00H
	DB	00H
	DB	00H
	DB	00H
	DB	00H
	DB	00H
	DB	00H
	DB	00H
	DB	00H
	DB	00H
	DB	00H
	DB	00H
	DB	00H
	DB	00H
	DB	00H
	DB	00H
	DB	00H
	DB	00H
	DB	00H
	DB	00H
	DB	00H
	DB	00H
	DB	00H
	DB	00H
	DB	00H
	DB	0c0H
	DB	0bcH
	DB	0c0H
	DB	0ffH
	DB	0c0H
	DB	0c0H
	DB	0c0H
	DB	0ffH
	DB	0b8H
	DB	0bcH
	DB	0b8H
	DB	0ffH
	DB	0c0H
	DB	0bcH
	DB	0c0H
	DB	0ffH
	DB	0c0H
	DB	0bcH
	DB	0c0H
	DB	0ffH
	DB	0b8H
	DB	0bcH
	DB	0b8H
	DB	0ffH
	DB	0c0H
	DB	0bcH
	DB	0c0H
	DB	0ffH
	DB	0c0H
	DB	0c0H
	DB	0c0H
	DB	0ffH
	DB	0c0H
	DB	0bcH
	DB	0c0H
	DB	0ffH
	DB	0b8H
	DB	0bcH
	DB	0b8H
	DB	0ffH
	DB	0c0H
	DB	0c0H
	DB	0c0H
	DB	0ffH
	DB	0b8H
	DB	0bcH
	DB	0b8H
	DB	0ffH
	DB	0c0H
	DB	0bcH
	DB	0c0H
	DB	0ffH
	DB	0c0H
	DB	0c0H
	DB	0c0H
	DB	0ffH
	DB	00H
	DB	00H
	DB	00H
	DB	00H
	DB	00H
	DB	00H
	DB	00H
	DB	00H
	DB	00H
	DB	00H
	DB	00H
	DB	00H
	DB	00H
	DB	00H
	DB	00H
	DB	00H
	DB	00H
	DB	00H
	DB	00H
	DB	00H
	DB	00H
	DB	00H
	DB	00H
	DB	00H
	DB	00H
	DB	00H
	DB	00H
	DB	00H
	DB	00H
	DB	00H
	DB	00H
	DB	00H
	DB	00H
	DB	00H
	DB	00H
	DB	00H
	DB	00H
	DB	00H
	DB	00H
	DB	00H
	DB	00H
	DB	00H
	DB	00H
	DB	00H
	DB	00H
	DB	00H
	DB	00H
	DB	00H
	DB	00H
	DB	00H
	DB	00H
	DB	00H
	DB	00H
	DB	00H
	DB	00H
	DB	00H
	DB	00H
	DB	00H
	DB	00H
	DB	00H
	DB	00H
	DB	00H
	DB	00H
	DB	00H
	DB	00H
	DB	00H
	DB	00H
	DB	00H
	DB	00H
	DB	00H
	DB	00H
	DB	00H
	DB	0c0H
	DB	0bcH
	DB	0c0H
	DB	0ffH
	DB	0b8H
	DB	0c0H
	DB	0b8H
	DB	0ffH
	DB	0b8H
	DB	0bcH
	DB	0b8H
	DB	0ffH
	DB	0c0H
	DB	0bcH
	DB	0c0H
	DB	0ffH
	DB	0c0H
	DB	0c0H
	DB	0c0H
	DB	0ffH
	DB	0b8H
	DB	0bcH
	DB	0b8H
	DB	0ffH
	DB	0c0H
	DB	0bcH
	DB	0c0H
	DB	0ffH
	DB	0b8H
	DB	0bcH
	DB	0b8H
	DB	0ffH
	DB	0c0H
	DB	0bcH
	DB	0c0H
	DB	0ffH
	DB	0c0H
	DB	0c0H
	DB	0c0H
	DB	0ffH
	DB	0b8H
	DB	0bcH
	DB	0b8H
	DB	0ffH
	DB	0c0H
	DB	0bcH
	DB	0c0H
	DB	0ffH
	DB	0b8H
	DB	0bcH
	DB	0b8H
	DB	0ffH
	DB	0c0H
	DB	0bcH
	DB	0c0H
	DB	0ffH
	DB	00H
	DB	00H
	DB	00H
	DB	00H
	DB	00H
	DB	00H
	DB	00H
	DB	00H
	DB	00H
	DB	00H
	DB	00H
	DB	00H
	DB	00H
	DB	00H
	DB	00H
	DB	00H
	DB	00H
	DB	00H
	DB	00H
	DB	00H
	DB	00H
	DB	00H
	DB	00H
	DB	00H
	DB	00H
	DB	00H
	DB	00H
	DB	00H
	DB	00H
	DB	00H
	DB	00H
	DB	00H
	DB	00H
	DB	00H
	DB	00H
	DB	00H
	DB	00H
	DB	00H
	DB	00H
	DB	00H
	DB	00H
	DB	00H
	DB	00H
	DB	00H
	DB	00H
	DB	00H
	DB	00H
	DB	00H
	DB	00H
	DB	00H
	DB	00H
	DB	00H
	DB	00H
	DB	00H
	DB	00H
	DB	00H
	DB	00H
	DB	00H
	DB	00H
	DB	00H
	DB	00H
	DB	00H
	DB	00H
	DB	00H
	DB	00H
	DB	00H
	DB	00H
	DB	00H
	DB	00H
	DB	00H
	DB	00H
	DB	00H
	DB	0c0H
	DB	0bcH
	DB	0c0H
	DB	0ffH
	DB	0c0H
	DB	0bcH
	DB	0c0H
	DB	0ffH
	DB	0b8H
	DB	0bcH
	DB	0b8H
	DB	0ffH
	DB	0c0H
	DB	0c0H
	DB	0c0H
	DB	0ffH
	DB	0c0H
	DB	0bcH
	DB	0c0H
	DB	0ffH
	DB	0b8H
	DB	0bcH
	DB	0b8H
	DB	0ffH
	DB	0c0H
	DB	0c0H
	DB	0c0H
	DB	0ffH
	DB	0b8H
	DB	0bcH
	DB	0b8H
	DB	0ffH
	DB	0c0H
	DB	0bcH
	DB	0c0H
	DB	0ffH
	DB	0c0H
	DB	0bcH
	DB	0c0H
	DB	0ffH
	DB	0b8H
	DB	0bcH
	DB	0b8H
	DB	0ffH
	DB	0c0H
	DB	0c0H
	DB	0c0H
	DB	0ffH
	DB	0c0H
	DB	0bcH
	DB	0c0H
	DB	0ffH
	DB	0b8H
	DB	0bcH
	DB	0b8H
	DB	0ffH
	DB	00H
	DB	00H
	DB	00H
	DB	00H
	DB	00H
	DB	00H
	DB	00H
	DB	00H
	DB	00H
	DB	00H
	DB	00H
	DB	00H
	DB	00H
	DB	00H
	DB	00H
	DB	00H
	DB	00H
	DB	00H
	DB	00H
	DB	00H
	DB	00H
	DB	00H
	DB	00H
	DB	00H
	DB	00H
	DB	00H
	DB	00H
	DB	00H
	DB	00H
	DB	00H
	DB	00H
	DB	00H
	DB	00H
	DB	00H
	DB	00H
	DB	00H
	DB	00H
	DB	00H
	DB	00H
	DB	00H
	DB	00H
	DB	00H
	DB	00H
	DB	00H
	DB	00H
	DB	00H
	DB	00H
	DB	00H
	DB	00H
	DB	00H
	DB	00H
	DB	00H
	DB	00H
	DB	00H
	DB	00H
	DB	00H
	DB	00H
	DB	00H
	DB	00H
	DB	00H
	DB	00H
	DB	00H
	DB	00H
	DB	00H
	DB	00H
	DB	00H
	DB	00H
	DB	00H
	DB	00H
	DB	00H
	DB	00H
	DB	00H
	DB	0b8H
	DB	0bcH
	DB	0b8H
	DB	0ffH
	DB	0c0H
	DB	0bcH
	DB	0c0H
	DB	0ffH
	DB	0c0H
	DB	0c0H
	DB	0c0H
	DB	0ffH
	DB	0b8H
	DB	0bcH
	DB	0b8H
	DB	0ffH
	DB	0c0H
	DB	0bcH
	DB	0c0H
	DB	0ffH
	DB	0c0H
	DB	0bcH
	DB	0c0H
	DB	0ffH
	DB	0b8H
	DB	0c0H
	DB	0b8H
	DB	0ffH
	DB	0c0H
	DB	0bcH
	DB	0c0H
	DB	0ffH
	DB	0c0H
	DB	0bcH
	DB	0c0H
	DB	0ffH
	DB	0b8H
	DB	0c0H
	DB	0b8H
	DB	0ffH
	DB	0c0H
	DB	0bcH
	DB	0c0H
	DB	0ffH
	DB	0c0H
	DB	0bcH
	DB	0c0H
	DB	0ffH
	DB	0b8H
	DB	0c0H
	DB	0b8H
	DB	0ffH
	DB	0c0H
	DB	0bcH
	DB	0c0H
	DB	0ffH
	DB	00H
	DB	00H
	DB	00H
	DB	00H
	DB	00H
	DB	00H
	DB	00H
	DB	00H
	DB	00H
	DB	00H
	DB	00H
	DB	00H
	DB	00H
	DB	00H
	DB	00H
	DB	00H
	DB	00H
	DB	00H
	DB	00H
	DB	00H
	DB	00H
	DB	00H
	DB	00H
	DB	00H
	DB	00H
	DB	00H
	DB	00H
	DB	00H
	DB	00H
	DB	00H
	DB	00H
	DB	00H
	DB	00H
	DB	00H
	DB	00H
	DB	00H
	DB	00H
	DB	00H
	DB	00H
	DB	00H
	DB	00H
	DB	00H
	DB	00H
	DB	00H
	DB	00H
	DB	00H
	DB	00H
	DB	00H
	DB	00H
	DB	00H
	DB	00H
	DB	00H
	DB	00H
	DB	00H
	DB	00H
	DB	00H
	DB	00H
	DB	00H
	DB	00H
	DB	00H
	DB	00H
	DB	00H
	DB	00H
	DB	00H
	DB	00H
	DB	00H
	DB	00H
	DB	00H
	DB	00H
	DB	00H
	DB	00H
	DB	00H
	DB	0b8H
	DB	0bcH
	DB	0b8H
	DB	0ffH
	DB	0c0H
	DB	0bcH
	DB	0c0H
	DB	0ffH
	DB	0c0H
	DB	0bcH
	DB	0c0H
	DB	0ffH
	DB	0b8H
	DB	0bcH
	DB	0b8H
	DB	0ffH
	DB	0c0H
	DB	0c0H
	DB	0c0H
	DB	0ffH
	DB	0c0H
	DB	0bcH
	DB	0c0H
	DB	0ffH
	DB	0b8H
	DB	0bcH
	DB	0b8H
	DB	0ffH
	DB	0c0H
	DB	0bcH
	DB	0c0H
	DB	0ffH
	DB	0b8H
	DB	0c0H
	DB	0b8H
	DB	0ffH
	DB	0c0H
	DB	0bcH
	DB	0c0H
	DB	0ffH
	DB	0c0H
	DB	0bcH
	DB	0c0H
	DB	0ffH
	DB	0b8H
	DB	0bcH
	DB	0b8H
	DB	0ffH
	DB	0c0H
	DB	0bcH
	DB	0c0H
	DB	0ffH
	DB	0c0H
	DB	0c0H
	DB	0c0H
	DB	0ffH
	DB	00H
	DB	00H
	DB	00H
	DB	00H
	DB	00H
	DB	00H
	DB	00H
	DB	00H
	DB	00H
	DB	00H
	DB	00H
	DB	00H
	DB	00H
	DB	00H
	DB	00H
	DB	00H
	DB	00H
	DB	00H
	DB	00H
	DB	00H
	DB	00H
	DB	00H
	DB	00H
	DB	00H
	DB	00H
	DB	00H
	DB	00H
	DB	00H
	DB	00H
	DB	00H
	DB	00H
	DB	00H
	DB	00H
	DB	00H
	DB	00H
	DB	00H
	DB	00H
	DB	00H
	DB	00H
	DB	00H
	DB	00H
	DB	00H
	DB	00H
	DB	00H
	DB	00H
	DB	00H
	DB	00H
	DB	00H
	DB	00H
	DB	00H
	DB	00H
	DB	00H
	DB	00H
	DB	00H
	DB	00H
	DB	00H
	DB	00H
	DB	00H
	DB	00H
	DB	00H
	DB	00H
	DB	00H
	DB	00H
	DB	00H
	DB	00H
	DB	00H
	DB	00H
	DB	00H
	DB	00H
	DB	00H
	DB	00H
	DB	00H
	DB	0c0H
	DB	0bcH
	DB	0c0H
	DB	0ffH
	DB	0b8H
	DB	0c0H
	DB	0b8H
	DB	0ffH
	DB	0c0H
	DB	0bcH
	DB	0c0H
	DB	0ffH
	DB	0b8H
	DB	0bcH
	DB	0b8H
	DB	0ffH
	DB	0c0H
	DB	0c0H
	DB	0c0H
	DB	0ffH
	DB	0b8H
	DB	0bcH
	DB	0b8H
	DB	0ffH
	DB	0c0H
	DB	0bcH
	DB	0c0H
	DB	0ffH
	DB	0c0H
	DB	0c0H
	DB	0c0H
	DB	0ffH
	DB	0b8H
	DB	0bcH
	DB	0b8H
	DB	0ffH
	DB	0c0H
	DB	0bcH
	DB	0c0H
	DB	0ffH
	DB	0b8H
	DB	0c0H
	DB	0b8H
	DB	0ffH
	DB	0c0H
	DB	0bcH
	DB	0c0H
	DB	0ffH
	DB	0b8H
	DB	0bcH
	DB	0b8H
	DB	0ffH
	DB	0b8H
	DB	0bcH
	DB	0b8H
	DB	0ffH
	DB	00H
	DB	00H
	DB	00H
	DB	00H
	DB	00H
	DB	00H
	DB	00H
	DB	00H
	DB	00H
	DB	00H
	DB	00H
	DB	00H
	DB	00H
	DB	00H
	DB	00H
	DB	00H
	DB	00H
	DB	00H
	DB	00H
	DB	00H
	DB	00H
	DB	00H
	DB	00H
	DB	00H
	DB	00H
	DB	00H
	DB	00H
	DB	00H
	DB	00H
	DB	00H
	DB	00H
	DB	00H
	DB	00H
	DB	00H
	DB	00H
	DB	00H
	DB	00H
	DB	00H
	DB	00H
	DB	00H
	DB	00H
	DB	00H
	DB	00H
	DB	00H
	DB	00H
	DB	00H
	DB	00H
	DB	00H
	DB	00H
	DB	00H
	DB	00H
	DB	00H
	DB	00H
	DB	00H
	DB	00H
	DB	00H
	DB	00H
	DB	00H
	DB	00H
	DB	00H
	DB	00H
	DB	00H
	DB	00H
	DB	00H
	DB	00H
	DB	00H
	DB	00H
	DB	00H
	DB	00H
	DB	00H
	DB	00H
	DB	00H
	DB	0c0H
	DB	0bcH
	DB	0c0H
	DB	0ffH
	DB	0c0H
	DB	0c0H
	DB	0c0H
	DB	0ffH
	DB	0b8H
	DB	0bcH
	DB	0b8H
	DB	0ffH
	DB	0c0H
	DB	0bcH
	DB	0c0H
	DB	0ffH
	DB	0c0H
	DB	0bcH
	DB	0c0H
	DB	0ffH
	DB	0b8H
	DB	0bcH
	DB	0b8H
	DB	0ffH
	DB	0c0H
	DB	0bcH
	DB	0c0H
	DB	0ffH
	DB	0c0H
	DB	0bcH
	DB	0c0H
	DB	0ffH
	DB	0b8H
	DB	0bcH
	DB	0b8H
	DB	0ffH
	DB	0c0H
	DB	0bcH
	DB	0c0H
	DB	0ffH
	DB	0c0H
	DB	0c0H
	DB	0c0H
	DB	0ffH
	DB	0c0H
	DB	0bcH
	DB	0c0H
	DB	0ffH
	DB	0c0H
	DB	0bcH
	DB	0c0H
	DB	0ffH
	DB	0c0H
	DB	0c0H
	DB	0c0H
	DB	0ffH
	DB	00H
	DB	00H
	DB	00H
	DB	00H
	DB	00H
	DB	00H
	DB	00H
	DB	00H
	DB	00H
	DB	00H
	DB	00H
	DB	00H
	DB	00H
	DB	00H
	DB	00H
	DB	00H
	DB	00H
	DB	00H
	DB	00H
	DB	00H
	DB	00H
	DB	00H
	DB	00H
	DB	00H
	DB	00H
	DB	00H
	DB	00H
	DB	00H
	DB	00H
	DB	00H
	DB	00H
	DB	00H
	DB	00H
	DB	00H
	DB	00H
	DB	00H
	DB	00H
	DB	00H
	DB	00H
	DB	00H
	DB	00H
	DB	00H
	DB	00H
	DB	00H
	DB	00H
	DB	00H
	DB	00H
	DB	00H
	DB	00H
	DB	00H
	DB	00H
	DB	00H
	DB	00H
	DB	00H
	DB	00H
	DB	00H
	DB	00H
	DB	00H
	DB	00H
	DB	00H
	DB	00H
	DB	00H
	DB	00H
	DB	00H
	DB	00H
	DB	00H
	DB	00H
	DB	00H
	DB	00H
	DB	00H
	DB	00H
	DB	00H
	DB	0b8H
	DB	0bcH
	DB	0b8H
	DB	0ffH
	DB	0c0H
	DB	0bcH
	DB	0c0H
	DB	0ffH
	DB	0c0H
	DB	0bcH
	DB	0c0H
	DB	0ffH
	DB	0b8H
	DB	0c0H
	DB	0b8H
	DB	0ffH
	DB	0c0H
	DB	0bcH
	DB	0c0H
	DB	0ffH
	DB	0c0H
	DB	0c0H
	DB	0c0H
	DB	0ffH
	DB	0b8H
	DB	0bcH
	DB	0b8H
	DB	0ffH
	DB	0c0H
	DB	0bcH
	DB	0c0H
	DB	0ffH
	DB	0c0H
	DB	0c0H
	DB	0c0H
	DB	0ffH
	DB	0b8H
	DB	0bcH
	DB	0b8H
	DB	0ffH
	DB	0b8H
	DB	0bcH
	DB	0b8H
	DB	0ffH
	DB	0c0H
	DB	0bcH
	DB	0c0H
	DB	0ffH
	DB	0b8H
	DB	0bcH
	DB	0b8H
	DB	0ffH
	DB	0c0H
	DB	0bcH
	DB	0c0H
	DB	0ffH
	DB	00H
	DB	00H
	DB	00H
	DB	00H
	DB	00H
	DB	00H
	DB	00H
	DB	00H
	DB	00H
	DB	00H
	DB	00H
	DB	00H
	DB	00H
	DB	00H
	DB	00H
	DB	00H
	DB	00H
	DB	00H
	DB	00H
	DB	00H
	DB	00H
	DB	00H
	DB	00H
	DB	00H
	DB	00H
	DB	00H
	DB	00H
	DB	00H
	DB	00H
	DB	00H
	DB	00H
	DB	00H
	DB	00H
	DB	00H
	DB	00H
	DB	00H
	DB	00H
	DB	00H
	DB	00H
	DB	00H
	DB	00H
	DB	00H
	DB	00H
	DB	00H
	DB	00H
	DB	00H
	DB	00H
	DB	00H
	DB	00H
	DB	00H
	DB	00H
	DB	00H
	DB	00H
	DB	00H
	DB	00H
	DB	00H
	DB	00H
	DB	00H
	DB	00H
	DB	00H
	DB	00H
	DB	00H
	DB	00H
	DB	00H
	DB	00H
	DB	00H
	DB	00H
	DB	00H
	DB	00H
	DB	00H
	DB	00H
	DB	00H
	DB	0c0H
	DB	0bcH
	DB	0c0H
	DB	0ffH
	DB	0b8H
	DB	0bcH
	DB	0b8H
	DB	0ffH
	DB	0c0H
	DB	0c0H
	DB	0c0H
	DB	0ffH
	DB	0b8H
	DB	0bcH
	DB	0b8H
	DB	0ffH
	DB	0c0H
	DB	0bcH
	DB	0c0H
	DB	0ffH
	DB	0c0H
	DB	0bcH
	DB	0c0H
	DB	0ffH
	DB	0b8H
	DB	0c0H
	DB	0b8H
	DB	0ffH
	DB	0b8H
	DB	0bcH
	DB	0b8H
	DB	0ffH
	DB	0c0H
	DB	0bcH
	DB	0c0H
	DB	0ffH
	DB	0c0H
	DB	0c0H
	DB	0c0H
	DB	0ffH
	DB	0b8H
	DB	0bcH
	DB	0b8H
	DB	0ffH
	DB	0c0H
	DB	0c0H
	DB	0c0H
	DB	0ffH
	DB	0b8H
	DB	0bcH
	DB	0b8H
	DB	0ffH
	DB	0b8H
	DB	0bcH
	DB	0b8H
	DB	0ffH
	DB	00H
	DB	00H
	DB	00H
	DB	00H
	DB	00H
	DB	00H
	DB	00H
	DB	00H
	DB	00H
	DB	00H
	DB	00H
	DB	00H
	DB	00H
	DB	00H
	DB	00H
	DB	00H
	DB	00H
	DB	00H
	DB	00H
	DB	00H
	DB	00H
	DB	00H
	DB	00H
	DB	00H
	DB	00H
	DB	00H
	DB	00H
	DB	00H
	DB	00H
	DB	00H
	DB	00H
	DB	00H
	DB	00H
	DB	00H
	DB	00H
	DB	00H
	DB	00H
	DB	00H
	DB	00H
	DB	00H
	DB	00H
	DB	00H
	DB	00H
	DB	00H
	DB	00H
	DB	00H
	DB	00H
	DB	00H
	DB	00H
	DB	00H
	DB	00H
	DB	00H
	DB	00H
	DB	00H
	DB	00H
	DB	00H
	DB	00H
	DB	00H
	DB	00H
	DB	00H
	DB	00H
	DB	00H
	DB	00H
	DB	00H
	DB	00H
	DB	00H
	DB	00H
	DB	00H
	DB	00H
	DB	00H
	DB	00H
	DB	00H
	DB	0c0H
	DB	0bcH
	DB	0c0H
	DB	0ffH
	DB	0c0H
	DB	0c0H
	DB	0c0H
	DB	0ffH
	DB	0b8H
	DB	0bcH
	DB	0b8H
	DB	0ffH
	DB	0c0H
	DB	0bcH
	DB	0c0H
	DB	0ffH
	DB	0b8H
	DB	0bcH
	DB	0b8H
	DB	0ffH
	DB	0c0H
	DB	0bcH
	DB	0c0H
	DB	0ffH
	DB	0c0H
	DB	0bcH
	DB	0c0H
	DB	0ffH
	DB	0b8H
	DB	0bcH
	DB	0b8H
	DB	0ffH
	DB	0c0H
	DB	0bcH
	DB	0c0H
	DB	0ffH
	DB	0c0H
	DB	0bcH
	DB	0c0H
	DB	0ffH
	DB	0c0H
	DB	0bcH
	DB	0c0H
	DB	0ffH
	DB	0c0H
	DB	0bcH
	DB	0c0H
	DB	0ffH
	DB	0c0H
	DB	0c0H
	DB	0c0H
	DB	0ffH
	DB	0c0H
	DB	0bcH
	DB	0c0H
	DB	0ffH
	DB	00H
	DB	00H
	DB	00H
	DB	00H
	DB	00H
	DB	00H
	DB	00H
	DB	00H
	DB	00H
	DB	00H
	DB	00H
	DB	00H
	DB	00H
	DB	00H
	DB	00H
	DB	00H
	DB	00H
	DB	00H
	DB	00H
	DB	00H
	DB	00H
	DB	00H
	DB	00H
	DB	00H
	DB	00H
	DB	00H
	DB	00H
	DB	00H
	DB	00H
	DB	00H
	DB	00H
	DB	00H
	DB	00H
	DB	00H
	DB	00H
	DB	00H
	DB	00H
	DB	00H
	DB	00H
	DB	00H
	DB	00H
	DB	00H
	DB	00H
	DB	00H
	DB	00H
	DB	00H
	DB	00H
	DB	00H
	DB	00H
	DB	00H
	DB	00H
	DB	00H
	DB	00H
	DB	00H
	DB	00H
	DB	00H
	DB	00H
	DB	00H
	DB	00H
	DB	00H
	DB	00H
	DB	00H
	DB	00H
	DB	00H
	DB	00H
	DB	00H
	DB	00H
	DB	00H
	DB	00H
	DB	00H
	DB	00H
	DB	00H
	DB	0b8H
	DB	0bcH
	DB	0b8H
	DB	0ffH
	DB	0c0H
	DB	0bcH
	DB	0c0H
	DB	0ffH
	DB	0c0H
	DB	0bcH
	DB	0c0H
	DB	0ffH
	DB	0b8H
	DB	0c0H
	DB	0b8H
	DB	0ffH
	DB	0c0H
	DB	0c0H
	DB	0c0H
	DB	0ffH
	DB	0c0H
	DB	0bcH
	DB	0c0H
	DB	0ffH
	DB	0b8H
	DB	0c0H
	DB	0b8H
	DB	0ffH
	DB	0c0H
	DB	0bcH
	DB	0c0H
	DB	0ffH
	DB	0c0H
	DB	0c0H
	DB	0c0H
	DB	0ffH
	DB	0b8H
	DB	0bcH
	DB	0b8H
	DB	0ffH
	DB	0b8H
	DB	0bcH
	DB	0b8H
	DB	0ffH
	DB	0c0H
	DB	0bcH
	DB	0c0H
	DB	0ffH
	DB	0b8H
	DB	0c0H
	DB	0b8H
	DB	0ffH
	DB	0c0H
	DB	0bcH
	DB	0c0H
	DB	0ffH
	DB	00H
	DB	00H
	DB	00H
	DB	00H
	DB	00H
	DB	00H
	DB	00H
	DB	00H
	DB	00H
	DB	00H
	DB	00H
	DB	00H
	DB	00H
	DB	00H
	DB	00H
	DB	00H
	DB	00H
	DB	00H
	DB	00H
	DB	00H
	DB	00H
	DB	00H
	DB	00H
	DB	00H
	DB	00H
	DB	00H
	DB	00H
	DB	00H
	DB	00H
	DB	00H
	DB	00H
	DB	00H
	DB	00H
	DB	00H
	DB	00H
	DB	00H
	DB	00H
	DB	00H
	DB	00H
	DB	00H
	DB	00H
	DB	00H
	DB	00H
	DB	00H
	DB	00H
	DB	00H
	DB	00H
	DB	00H
	DB	00H
	DB	00H
	DB	00H
	DB	00H
	DB	00H
	DB	00H
	DB	00H
	DB	00H
	DB	00H
	DB	00H
	DB	00H
	DB	00H
	DB	00H
	DB	00H
	DB	00H
	DB	00H
	DB	00H
	DB	00H
	DB	00H
	DB	00H
	DB	00H
	DB	00H
	DB	00H
	DB	00H
	DB	0c0H
	DB	0bcH
	DB	0c0H
	DB	0ffH
	DB	0b8H
	DB	0bcH
	DB	0b8H
	DB	0ffH
	DB	0c0H
	DB	0bcH
	DB	0c0H
	DB	0ffH
	DB	0c0H
	DB	0bcH
	DB	0c0H
	DB	0ffH
	DB	0b8H
	DB	0bcH
	DB	0b8H
	DB	0ffH
	DB	0c0H
	DB	0bcH
	DB	0c0H
	DB	0ffH
	DB	0b8H
	DB	0bcH
	DB	0b8H
	DB	0ffH
	DB	0c0H
	DB	0c0H
	DB	0c0H
	DB	0ffH
	DB	0c0H
	DB	0bcH
	DB	0c0H
	DB	0ffH
	DB	0b8H
	DB	0c0H
	DB	0b8H
	DB	0ffH
	DB	0c0H
	DB	0bcH
	DB	0c0H
	DB	0ffH
	DB	0c0H
	DB	0bcH
	DB	0c0H
	DB	0ffH
	DB	0b8H
	DB	0bcH
	DB	0b8H
	DB	0ffH
	DB	0b8H
	DB	0bcH
	DB	0b8H
	DB	0ffH
	DB	00H
	DB	00H
	DB	00H
	DB	00H
	DB	00H
	DB	00H
	DB	00H
	DB	00H
	DB	00H
	DB	00H
	DB	00H
	DB	00H
	DB	00H
	DB	00H
	DB	00H
	DB	00H
	DB	00H
	DB	00H
	DB	00H
	DB	00H
	DB	00H
	DB	00H
	DB	00H
	DB	00H
	DB	00H
	DB	00H
	DB	00H
	DB	00H
	DB	00H
	DB	00H
	DB	00H
	DB	00H
	DB	00H
	DB	00H
	DB	00H
	DB	00H
	DB	00H
	DB	00H
	DB	00H
	DB	00H
	DB	00H
	DB	00H
	DB	00H
	DB	00H
	DB	00H
	DB	00H
	DB	00H
	DB	00H
	DB	00H
	DB	00H
	DB	00H
	DB	00H
	DB	00H
	DB	00H
	DB	00H
	DB	00H
	DB	00H
	DB	00H
	DB	00H
	DB	00H
	DB	00H
	DB	00H
	DB	00H
	DB	00H
	DB	00H
	DB	00H
	DB	00H
	DB	00H
	DB	00H
	DB	00H
	DB	00H
	DB	00H
	DB	0c0H
	DB	0c0H
	DB	0c0H
	DB	0ffH
	DB	0b8H
	DB	0bcH
	DB	0b8H
	DB	0ffH
	DB	0c0H
	DB	0c0H
	DB	0c0H
	DB	0ffH
	DB	0c0H
	DB	0bcH
	DB	0c0H
	DB	0ffH
	DB	0b8H
	DB	0bcH
	DB	0b8H
	DB	0ffH
	DB	0c0H
	DB	0bcH
	DB	0c0H
	DB	0ffH
	DB	0c0H
	DB	0bcH
	DB	0c0H
	DB	0ffH
	DB	0b8H
	DB	0bcH
	DB	0b8H
	DB	0ffH
	DB	0c0H
	DB	0bcH
	DB	0c0H
	DB	0ffH
	DB	0c0H
	DB	0bcH
	DB	0c0H
	DB	0ffH
	DB	0b8H
	DB	0c0H
	DB	0b8H
	DB	0ffH
	DB	0c0H
	DB	0bcH
	DB	0c0H
	DB	0ffH
	DB	0c0H
	DB	0bcH
	DB	0c0H
	DB	0ffH
	DB	0c0H
	DB	0c0H
	DB	0c0H
	DB	0ffH
	DB	00H
	DB	00H
	DB	00H
	DB	00H
	DB	00H
	DB	00H
	DB	00H
	DB	00H
	DB	00H
	DB	00H
	DB	00H
	DB	00H
	DB	00H
	DB	00H
	DB	00H
	DB	00H
	DB	00H
	DB	00H
	DB	00H
	DB	00H
	DB	00H
	DB	00H
	DB	00H
	DB	00H
	DB	00H
	DB	00H
	DB	00H
	DB	00H
	DB	00H
	DB	00H
	DB	00H
	DB	00H
	DB	00H
	DB	00H
	DB	00H
	DB	00H
	DB	00H
	DB	00H
	DB	00H
	DB	00H
	DB	00H
	DB	00H
	DB	00H
	DB	00H
	DB	00H
	DB	00H
	DB	00H
	DB	00H
	DB	00H
	DB	00H
	DB	00H
	DB	00H
	DB	00H
	DB	00H
	DB	00H
	DB	00H
	DB	00H
	DB	00H
	DB	00H
	DB	00H
	DB	00H
	DB	00H
	DB	00H
	DB	00H
	DB	00H
	DB	00H
	DB	00H
	DB	00H
	DB	00H
	DB	00H
	DB	00H
	DB	00H
	DB	020H
	DB	01cH
	DB	0e8H
	DB	0ffH
	DB	020H
	DB	01cH
	DB	0f0H
	DB	0ffH
	DB	020H
	DB	01cH
	DB	0e8H
	DB	0ffH
	DB	028H
	DB	01cH
	DB	0f0H
	DB	0ffH
	DB	020H
	DB	01cH
	DB	0f0H
	DB	0ffH
	DB	020H
	DB	01cH
	DB	0e8H
	DB	0ffH
	DB	028H
	DB	01cH
	DB	0f0H
	DB	0ffH
	DB	020H
	DB	01cH
	DB	0e8H
	DB	0ffH
	DB	020H
	DB	01cH
	DB	0f0H
	DB	0ffH
	DB	020H
	DB	01cH
	DB	0f0H
	DB	0ffH
	DB	020H
	DB	01cH
	DB	0e8H
	DB	0ffH
	DB	020H
	DB	01cH
	DB	0e8H
	DB	0ffH
	DB	028H
	DB	01cH
	DB	0f0H
	DB	0ffH
	DB	020H
	DB	01cH
	DB	0f0H
	DB	0ffH
	DB	00H
	DB	00H
	DB	00H
	DB	00H
	DB	00H
	DB	00H
	DB	00H
	DB	00H
	DB	00H
	DB	00H
	DB	00H
	DB	00H
	DB	00H
	DB	00H
	DB	00H
	DB	00H
	DB	00H
	DB	00H
	DB	00H
	DB	00H
	DB	00H
	DB	00H
	DB	00H
	DB	00H
	DB	00H
	DB	00H
	DB	00H
	DB	00H
	DB	00H
	DB	00H
	DB	00H
	DB	00H
	DB	00H
	DB	00H
	DB	00H
	DB	00H
	DB	00H
	DB	00H
	DB	00H
	DB	00H
	DB	00H
	DB	00H
	DB	00H
	DB	00H
	DB	00H
	DB	00H
	DB	00H
	DB	00H
	DB	00H
	DB	00H
	DB	00H
	DB	00H
	DB	00H
	DB	00H
	DB	00H
	DB	00H
	DB	00H
	DB	00H
	DB	00H
	DB	00H
	DB	00H
	DB	00H
	DB	00H
	DB	00H
	DB	00H
	DB	00H
	DB	00H
	DB	00H
	DB	00H
	DB	00H
	DB	00H
	DB	00H
	DB	028H
	DB	01cH
	DB	0f0H
	DB	0ffH
	DB	028H
	DB	01cH
	DB	0f0H
	DB	0ffH
	DB	020H
	DB	01cH
	DB	0e8H
	DB	0ffH
	DB	028H
	DB	01cH
	DB	0f0H
	DB	0ffH
	DB	028H
	DB	01cH
	DB	0f0H
	DB	0ffH
	DB	020H
	DB	01cH
	DB	0e8H
	DB	0ffH
	DB	028H
	DB	01cH
	DB	0f0H
	DB	0ffH
	DB	028H
	DB	01cH
	DB	0f0H
	DB	0ffH
	DB	020H
	DB	01cH
	DB	0e8H
	DB	0ffH
	DB	028H
	DB	01cH
	DB	0f0H
	DB	0ffH
	DB	028H
	DB	01cH
	DB	0f0H
	DB	0ffH
	DB	028H
	DB	01cH
	DB	0e8H
	DB	0ffH
	DB	020H
	DB	01cH
	DB	0f0H
	DB	0ffH
	DB	020H
	DB	01cH
	DB	0e8H
	DB	0ffH
	DB	00H
	DB	00H
	DB	00H
	DB	00H
	DB	00H
	DB	00H
	DB	00H
	DB	00H
	DB	00H
	DB	00H
	DB	00H
	DB	00H
	DB	00H
	DB	00H
	DB	00H
	DB	00H
	DB	00H
	DB	00H
	DB	00H
	DB	00H
	DB	00H
	DB	00H
	DB	00H
	DB	00H
	DB	00H
	DB	00H
	DB	00H
	DB	00H
	DB	00H
	DB	00H
	DB	00H
	DB	00H
	DB	00H
	DB	00H
	DB	00H
	DB	00H
	DB	00H
	DB	00H
	DB	00H
	DB	00H
	DB	00H
	DB	00H
	DB	00H
	DB	00H
	DB	00H
	DB	00H
	DB	00H
	DB	00H
	DB	00H
	DB	00H
	DB	00H
	DB	00H
	DB	00H
	DB	00H
	DB	00H
	DB	00H
	DB	00H
	DB	00H
	DB	00H
	DB	00H
	DB	00H
	DB	00H
	DB	00H
	DB	00H
	DB	00H
	DB	00H
	DB	00H
	DB	00H
	DB	00H
	DB	00H
	DB	00H
	DB	00H
	DB	020H
	DB	01cH
	DB	0f0H
	DB	07dH
	DB	028H
	DB	01cH
	DB	0e8H
	DB	0ffH
	DB	020H
	DB	01cH
	DB	0f0H
	DB	0ffH
	DB	020H
	DB	01cH
	DB	0e8H
	DB	0ffH
	DB	028H
	DB	01cH
	DB	0f0H
	DB	0ffH
	DB	020H
	DB	01cH
	DB	0f0H
	DB	0ffH
	DB	020H
	DB	01cH
	DB	0e8H
	DB	0ffH
	DB	028H
	DB	01cH
	DB	0f0H
	DB	0ffH
	DB	028H
	DB	01cH
	DB	0e8H
	DB	0ffH
	DB	020H
	DB	01cH
	DB	0f0H
	DB	0ffH
	DB	028H
	DB	01cH
	DB	0f0H
	DB	0ffH
	DB	020H
	DB	01cH
	DB	0f0H
	DB	0ffH
	DB	028H
	DB	01cH
	DB	0e8H
	DB	0ffH
	DB	028H
	DB	01cH
	DB	0f0H
	DB	07dH
	DB	00H
	DB	00H
	DB	00H
	DB	00H
	DB	00H
	DB	00H
	DB	00H
	DB	00H
	DB	00H
	DB	00H
	DB	00H
	DB	00H
	DB	00H
	DB	00H
	DB	00H
	DB	00H
	DB	00H
	DB	00H
	DB	00H
	DB	00H
	DB	00H
	DB	00H
	DB	00H
	DB	00H
	DB	00H
	DB	00H
	DB	00H
	DB	00H
	DB	00H
	DB	00H
	DB	00H
	DB	00H
	DB	00H
	DB	00H
	DB	00H
	DB	00H
	DB	00H
	DB	00H
	DB	00H
	DB	00H
	DB	00H
	DB	00H
	DB	00H
	DB	00H
	DB	00H
	DB	00H
	DB	00H
	DB	00H
	DB	00H
	DB	00H
	DB	00H
	DB	00H
	DB	00H
	DB	00H
	DB	00H
	DB	00H
	DB	00H
	DB	00H
	DB	00H
	DB	00H
	DB	00H
	DB	00H
	DB	00H
	DB	00H
	DB	00H
	DB	00H
	DB	00H
	DB	00H
	DB	00H
	DB	00H
	DB	00H
	DB	00H
	DB	00H
	DB	00H
	DB	00H
	DB	00H
	DB	00H
	DB	00H
	DB	00H
	DB	00H
	DB	00H
	DB	00H
	DB	00H
	DB	00H
	DB	00H
	DB	00H
	DB	00H
	DB	00H
	DB	00H
	DB	00H
	DB	00H
	DB	00H
	DB	00H
	DB	00H
	DB	00H
	DB	00H
	DB	00H
	DB	00H
	DB	00H
	DB	00H
	DB	00H
	DB	00H
	DB	00H
	DB	00H
	DB	00H
	DB	00H
	DB	00H
	DB	00H
	DB	00H
	DB	00H
	DB	00H
	DB	00H
	DB	00H
	DB	00H
	DB	00H
	DB	00H
	DB	00H
	DB	00H
	DB	00H
	DB	00H
	DB	00H
	DB	00H
	DB	00H
	DB	00H
	DB	00H
	DB	00H
	DB	00H
	DB	00H
	DB	00H
	DB	00H
	DB	00H
	DB	00H
	DB	00H
	DB	00H
	DB	00H
	DB	00H
	DB	00H
	DB	00H
	DB	00H
	DB	00H
	DB	00H
	DB	00H
	DB	00H
	DB	00H
	DB	00H
	DB	00H
	DB	00H
	DB	00H
	DB	00H
	DB	00H
	DB	00H
	DB	00H
	DB	00H
	DB	00H
	DB	00H
	DB	00H
	DB	00H
	DB	00H
	DB	00H
	DB	00H
	DB	00H
	DB	00H
	DB	00H
	DB	00H
	DB	00H
	DB	00H
	DB	00H
	DB	00H
	DB	00H
	DB	00H
	DB	00H
	DB	00H
	DB	00H
	DB	00H
	DB	00H
	DB	00H
	DB	00H
	DB	00H
	DB	00H
	DB	00H
	DB	00H
	DB	00H
	DB	00H
	DB	00H
	DB	00H
	DB	00H
	DB	00H
	DB	00H
	DB	00H
	DB	00H
	DB	00H
	DB	00H
	DB	00H
	DB	00H
	DB	00H
	DB	00H
	DB	00H
	DB	00H
	DB	00H
	DB	00H
	DB	00H
	DB	00H
	DB	00H
	DB	00H
	DB	00H
	DB	00H
	DB	00H
	DB	00H
	DB	00H
	DB	00H
	DB	00H
	DB	00H
	DB	00H
	DB	00H
	DB	00H
	DB	00H
	DB	00H
	DB	00H
	DB	00H
	DB	00H
	DB	00H
	DB	00H
	DB	00H
	DB	00H
	DB	00H
	DB	00H
	DB	00H
	DB	00H
	DB	00H
	DB	00H
	DB	00H
	DB	00H
	DB	00H
	DB	00H
	DB	00H
	DB	00H
	DB	00H
	DB	00H
	DB	00H
	DB	00H
	DB	00H
	DB	00H
	DB	00H
	DB	00H
	DB	00H
	DB	00H
	DB	00H
	DB	00H
	DB	00H
	DB	00H
	DB	00H
	DB	00H
	DB	00H
	DB	00H
	DB	00H
	DB	00H
	DB	00H
	DB	00H
	DB	00H
	DB	00H
	DB	00H
	DB	00H
	DB	00H
	DB	00H
	DB	00H
	DB	00H
	DB	00H
	DB	00H
	DB	00H
	DB	00H
	DB	00H
	DB	00H
	DB	00H
	DB	00H
	DB	00H
	DB	00H
	DB	00H
	DB	00H
	DB	00H
	DB	00H
	DB	00H
	DB	00H
	DB	00H
	DB	00H
	DB	00H
	DB	00H
	DB	00H
	DB	00H
	DB	00H
	DB	00H
	DB	00H
	DB	00H
CONST	ENDS
END
