; Listing generated by Microsoft (R) Optimizing Compiler Version 19.37.32822.0 

	TITLE	C:\TouchGFXProjects\KraftHeinz_DS3600\TouchGFX\build\Debug\obj\image_Exclamation.obj
	.686P
	.XMM
	include listing.inc
	.model	flat

INCLUDELIB MSVCRTD
INCLUDELIB OLDNAMES

PUBLIC	?image_exclamation@@3QBEB			; image_exclamation
msvcjmc	SEGMENT
__38966392_Config@hpp DB 01H
__8927D9B7_image_Exclamation@cpp DB 01H
msvcjmc	ENDS
CONST	SEGMENT
?image_exclamation@@3QBEB DB 00H			; image_exclamation
	DB	00H
	DB	00H
	DB	00H
	DB	00H
	DB	00H
	DB	00H
	DB	00H
	DB	00H
	DB	00H
	DB	00H
	DB	00H
	DB	00H
	DB	00H
	DB	00H
	DB	00H
	DB	00H
	DB	00H
	DB	00H
	DB	00H
	DB	00H
	DB	00H
	DB	00H
	DB	00H
	DB	00H
	DB	00H
	DB	00H
	DB	00H
	DB	00H
	DB	00H
	DB	00H
	DB	00H
	DB	00H
	DB	00H
	DB	00H
	DB	00H
	DB	00H
	DB	00H
	DB	00H
	DB	00H
	DB	00H
	DB	00H
	DB	00H
	DB	00H
	DB	00H
	DB	00H
	DB	00H
	DB	00H
	DB	00H
	DB	00H
	DB	00H
	DB	00H
	DB	00H
	DB	00H
	DB	00H
	DB	00H
	DB	00H
	DB	00H
	DB	00H
	DB	00H
	DB	00H
	DB	00H
	DB	00H
	DB	00H
	DB	00H
	DB	00H
	DB	00H
	DB	00H
	DB	00H
	DB	00H
	DB	00H
	DB	00H
	DB	00H
	DB	00H
	DB	00H
	DB	00H
	DB	00H
	DB	00H
	DB	00H
	DB	00H
	DB	00H
	DB	00H
	DB	00H
	DB	00H
	DB	00H
	DB	00H
	DB	00H
	DB	00H
	DB	00H
	DB	00H
	DB	00H
	DB	00H
	DB	00H
	DB	00H
	DB	00H
	DB	00H
	DB	00H
	DB	00H
	DB	00H
	DB	00H
	DB	00H
	DB	00H
	DB	00H
	DB	00H
	DB	00H
	DB	00H
	DB	00H
	DB	00H
	DB	00H
	DB	00H
	DB	00H
	DB	00H
	DB	00H
	DB	00H
	DB	00H
	DB	00H
	DB	00H
	DB	00H
	DB	00H
	DB	00H
	DB	00H
	DB	00H
	DB	00H
	DB	00H
	DB	00H
	DB	00H
	DB	00H
	DB	00H
	DB	00H
	DB	00H
	DB	00H
	DB	00H
	DB	00H
	DB	00H
	DB	00H
	DB	00H
	DB	00H
	DB	00H
	DB	00H
	DB	00H
	DB	00H
	DB	00H
	DB	00H
	DB	00H
	DB	00H
	DB	00H
	DB	00H
	DB	00H
	DB	00H
	DB	00H
	DB	00H
	DB	00H
	DB	00H
	DB	00H
	DB	00H
	DB	00H
	DB	00H
	DB	00H
	DB	00H
	DB	00H
	DB	00H
	DB	00H
	DB	00H
	DB	00H
	DB	00H
	DB	00H
	DB	00H
	DB	00H
	DB	00H
	DB	00H
	DB	00H
	DB	00H
	DB	00H
	DB	00H
	DB	00H
	DB	00H
	DB	00H
	DB	00H
	DB	00H
	DB	00H
	DB	00H
	DB	00H
	DB	00H
	DB	00H
	DB	00H
	DB	00H
	DB	00H
	DB	00H
	DB	00H
	DB	00H
	DB	00H
	DB	00H
	DB	00H
	DB	00H
	DB	00H
	DB	00H
	DB	00H
	DB	00H
	DB	00H
	DB	00H
	DB	00H
	DB	00H
	DB	00H
	DB	00H
	DB	00H
	DB	00H
	DB	00H
	DB	00H
	DB	00H
	DB	00H
	DB	00H
	DB	00H
	DB	00H
	DB	00H
	DB	00H
	DB	00H
	DB	00H
	DB	00H
	DB	00H
	DB	00H
	DB	00H
	DB	00H
	DB	00H
	DB	00H
	DB	00H
	DB	00H
	DB	00H
	DB	00H
	DB	00H
	DB	00H
	DB	00H
	DB	00H
	DB	00H
	DB	00H
	DB	00H
	DB	00H
	DB	00H
	DB	00H
	DB	00H
	DB	00H
	DB	00H
	DB	00H
	DB	00H
	DB	00H
	DB	00H
	DB	00H
	DB	00H
	DB	00H
	DB	00H
	DB	00H
	DB	00H
	DB	00H
	DB	00H
	DB	00H
	DB	00H
	DB	00H
	DB	00H
	DB	00H
	DB	00H
	DB	00H
	DB	00H
	DB	00H
	DB	00H
	DB	00H
	DB	00H
	DB	00H
	DB	00H
	DB	00H
	DB	00H
	DB	00H
	DB	00H
	DB	00H
	DB	00H
	DB	00H
	DB	00H
	DB	00H
	DB	00H
	DB	00H
	DB	00H
	DB	00H
	DB	00H
	DB	00H
	DB	00H
	DB	00H
	DB	00H
	DB	00H
	DB	00H
	DB	00H
	DB	00H
	DB	00H
	DB	00H
	DB	00H
	DB	00H
	DB	00H
	DB	00H
	DB	00H
	DB	00H
	DB	00H
	DB	00H
	DB	00H
	DB	00H
	DB	00H
	DB	00H
	DB	00H
	DB	00H
	DB	00H
	DB	00H
	DB	00H
	DB	00H
	DB	00H
	DB	00H
	DB	00H
	DB	00H
	DB	00H
	DB	00H
	DB	00H
	DB	00H
	DB	00H
	DB	00H
	DB	00H
	DB	00H
	DB	00H
	DB	00H
	DB	00H
	DB	00H
	DB	00H
	DB	00H
	DB	00H
	DB	00H
	DB	00H
	DB	00H
	DB	00H
	DB	00H
	DB	00H
	DB	00H
	DB	00H
	DB	00H
	DB	00H
	DB	00H
	DB	00H
	DB	00H
	DB	00H
	DB	00H
	DB	00H
	DB	00H
	DB	00H
	DB	00H
	DB	00H
	DB	00H
	DB	00H
	DB	00H
	DB	00H
	DB	00H
	DB	00H
	DB	00H
	DB	00H
	DB	00H
	DB	00H
	DB	00H
	DB	00H
	DB	00H
	DB	00H
	DB	00H
	DB	00H
	DB	00H
	DB	00H
	DB	00H
	DB	00H
	DB	00H
	DB	00H
	DB	00H
	DB	00H
	DB	00H
	DB	00H
	DB	00H
	DB	00H
	DB	00H
	DB	00H
	DB	00H
	DB	00H
	DB	00H
	DB	00H
	DB	00H
	DB	00H
	DB	00H
	DB	00H
	DB	00H
	DB	00H
	DB	00H
	DB	00H
	DB	00H
	DB	00H
	DB	00H
	DB	00H
	DB	00H
	DB	00H
	DB	00H
	DB	00H
	DB	00H
	DB	00H
	DB	00H
	DB	00H
	DB	00H
	DB	00H
	DB	00H
	DB	00H
	DB	00H
	DB	00H
	DB	00H
	DB	00H
	DB	00H
	DB	00H
	DB	00H
	DB	00H
	DB	00H
	DB	00H
	DB	00H
	DB	00H
	DB	00H
	DB	00H
	DB	00H
	DB	00H
	DB	00H
	DB	00H
	DB	00H
	DB	00H
	DB	00H
	DB	00H
	DB	00H
	DB	00H
	DB	00H
	DB	00H
	DB	00H
	DB	00H
	DB	00H
	DB	00H
	DB	00H
	DB	00H
	DB	00H
	DB	00H
	DB	00H
	DB	00H
	DB	00H
	DB	00H
	DB	00H
	DB	00H
	DB	00H
	DB	00H
	DB	00H
	DB	00H
	DB	00H
	DB	00H
	DB	00H
	DB	00H
	DB	00H
	DB	00H
	DB	00H
	DB	00H
	DB	00H
	DB	00H
	DB	00H
	DB	00H
	DB	00H
	DB	00H
	DB	00H
	DB	00H
	DB	00H
	DB	00H
	DB	00H
	DB	00H
	DB	00H
	DB	00H
	DB	00H
	DB	00H
	DB	00H
	DB	00H
	DB	00H
	DB	00H
	DB	00H
	DB	00H
	DB	00H
	DB	00H
	DB	00H
	DB	00H
	DB	00H
	DB	00H
	DB	00H
	DB	00H
	DB	00H
	DB	00H
	DB	00H
	DB	00H
	DB	00H
	DB	00H
	DB	00H
	DB	00H
	DB	00H
	DB	00H
	DB	00H
	DB	00H
	DB	00H
	DB	00H
	DB	00H
	DB	00H
	DB	00H
	DB	00H
	DB	00H
	DB	00H
	DB	00H
	DB	00H
	DB	00H
	DB	00H
	DB	00H
	DB	00H
	DB	00H
	DB	00H
	DB	00H
	DB	00H
	DB	00H
	DB	00H
	DB	00H
	DB	00H
	DB	00H
	DB	00H
	DB	00H
	DB	00H
	DB	00H
	DB	00H
	DB	00H
	DB	00H
	DB	00H
	DB	00H
	DB	00H
	DB	00H
	DB	00H
	DB	00H
	DB	00H
	DB	00H
	DB	00H
	DB	00H
	DB	00H
	DB	00H
	DB	00H
	DB	00H
	DB	00H
	DB	00H
	DB	00H
	DB	00H
	DB	00H
	DB	00H
	DB	00H
	DB	00H
	DB	00H
	DB	00H
	DB	00H
	DB	00H
	DB	00H
	DB	00H
	DB	00H
	DB	00H
	DB	00H
	DB	00H
	DB	00H
	DB	00H
	DB	00H
	DB	00H
	DB	00H
	DB	00H
	DB	00H
	DB	00H
	DB	00H
	DB	00H
	DB	00H
	DB	00H
	DB	00H
	DB	00H
	DB	00H
	DB	00H
	DB	00H
	DB	00H
	DB	00H
	DB	00H
	DB	00H
	DB	00H
	DB	00H
	DB	00H
	DB	00H
	DB	00H
	DB	00H
	DB	00H
	DB	00H
	DB	00H
	DB	00H
	DB	00H
	DB	00H
	DB	00H
	DB	00H
	DB	00H
	DB	00H
	DB	00H
	DB	00H
	DB	00H
	DB	00H
	DB	00H
	DB	00H
	DB	00H
	DB	00H
	DB	00H
	DB	00H
	DB	00H
	DB	00H
	DB	00H
	DB	00H
	DB	00H
	DB	00H
	DB	00H
	DB	00H
	DB	00H
	DB	00H
	DB	00H
	DB	00H
	DB	00H
	DB	00H
	DB	00H
	DB	00H
	DB	00H
	DB	00H
	DB	00H
	DB	00H
	DB	00H
	DB	00H
	DB	00H
	DB	00H
	DB	00H
	DB	00H
	DB	00H
	DB	00H
	DB	00H
	DB	00H
	DB	00H
	DB	00H
	DB	00H
	DB	00H
	DB	00H
	DB	00H
	DB	00H
	DB	00H
	DB	00H
	DB	00H
	DB	00H
	DB	00H
	DB	00H
	DB	00H
	DB	00H
	DB	00H
	DB	00H
	DB	00H
	DB	00H
	DB	00H
	DB	00H
	DB	00H
	DB	00H
	DB	00H
	DB	00H
	DB	00H
	DB	00H
	DB	00H
	DB	00H
	DB	00H
	DB	00H
	DB	00H
	DB	00H
	DB	00H
	DB	00H
	DB	00H
	DB	00H
	DB	00H
	DB	00H
	DB	00H
	DB	00H
	DB	00H
	DB	00H
	DB	00H
	DB	00H
	DB	00H
	DB	00H
	DB	00H
	DB	00H
	DB	00H
	DB	00H
	DB	00H
	DB	00H
	DB	00H
	DB	00H
	DB	00H
	DB	00H
	DB	00H
	DB	00H
	DB	00H
	DB	00H
	DB	00H
	DB	00H
	DB	00H
	DB	00H
	DB	00H
	DB	00H
	DB	00H
	DB	00H
	DB	00H
	DB	00H
	DB	00H
	DB	00H
	DB	00H
	DB	00H
	DB	00H
	DB	00H
	DB	00H
	DB	00H
	DB	00H
	DB	00H
	DB	00H
	DB	00H
	DB	00H
	DB	00H
	DB	00H
	DB	00H
	DB	00H
	DB	00H
	DB	00H
	DB	00H
	DB	00H
	DB	00H
	DB	00H
	DB	00H
	DB	00H
	DB	00H
	DB	00H
	DB	00H
	DB	00H
	DB	00H
	DB	00H
	DB	00H
	DB	00H
	DB	00H
	DB	00H
	DB	00H
	DB	00H
	DB	00H
	DB	00H
	DB	00H
	DB	00H
	DB	00H
	DB	00H
	DB	00H
	DB	00H
	DB	00H
	DB	00H
	DB	00H
	DB	00H
	DB	00H
	DB	00H
	DB	00H
	DB	00H
	DB	00H
	DB	00H
	DB	00H
	DB	00H
	DB	00H
	DB	00H
	DB	00H
	DB	00H
	DB	00H
	DB	00H
	DB	00H
	DB	00H
	DB	00H
	DB	00H
	DB	00H
	DB	00H
	DB	00H
	DB	00H
	DB	00H
	DB	00H
	DB	00H
	DB	00H
	DB	00H
	DB	00H
	DB	00H
	DB	00H
	DB	00H
	DB	00H
	DB	00H
	DB	00H
	DB	00H
	DB	00H
	DB	00H
	DB	00H
	DB	00H
	DB	00H
	DB	00H
	DB	00H
	DB	00H
	DB	00H
	DB	00H
	DB	00H
	DB	00H
	DB	00H
	DB	00H
	DB	00H
	DB	00H
	DB	00H
	DB	00H
	DB	00H
	DB	00H
	DB	00H
	DB	00H
	DB	00H
	DB	00H
	DB	00H
	DB	00H
	DB	00H
	DB	00H
	DB	00H
	DB	00H
	DB	00H
	DB	00H
	DB	00H
	DB	00H
	DB	00H
	DB	00H
	DB	00H
	DB	00H
	DB	00H
	DB	00H
	DB	00H
	DB	00H
	DB	00H
	DB	00H
	DB	00H
	DB	00H
	DB	00H
	DB	00H
	DB	00H
	DB	00H
	DB	00H
	DB	00H
	DB	00H
	DB	00H
	DB	00H
	DB	00H
	DB	00H
	DB	00H
	DB	00H
	DB	00H
	DB	00H
	DB	00H
	DB	00H
	DB	00H
	DB	00H
	DB	00H
	DB	00H
	DB	00H
	DB	00H
	DB	00H
	DB	00H
	DB	00H
	DB	00H
	DB	00H
	DB	00H
	DB	00H
	DB	00H
	DB	00H
	DB	00H
	DB	00H
	DB	00H
	DB	00H
	DB	00H
	DB	00H
	DB	00H
	DB	00H
	DB	00H
	DB	00H
	DB	00H
	DB	00H
	DB	00H
	DB	00H
	DB	00H
	DB	00H
	DB	00H
	DB	00H
	DB	00H
	DB	00H
	DB	00H
	DB	00H
	DB	00H
	DB	00H
	DB	00H
	DB	00H
	DB	00H
	DB	00H
	DB	00H
	DB	00H
	DB	00H
	DB	00H
	DB	00H
	DB	00H
	DB	00H
	DB	00H
	DB	00H
	DB	00H
	DB	00H
	DB	00H
	DB	00H
	DB	00H
	DB	00H
	DB	00H
	DB	00H
	DB	00H
	DB	00H
	DB	00H
	DB	00H
	DB	00H
	DB	00H
	DB	00H
	DB	00H
	DB	00H
	DB	00H
	DB	00H
	DB	00H
	DB	00H
	DB	00H
	DB	00H
	DB	00H
	DB	00H
	DB	00H
	DB	00H
	DB	00H
	DB	00H
	DB	00H
	DB	00H
	DB	00H
	DB	00H
	DB	00H
	DB	00H
	DB	00H
	DB	00H
	DB	00H
	DB	00H
	DB	00H
	DB	00H
	DB	00H
	DB	00H
	DB	00H
	DB	00H
	DB	00H
	DB	00H
	DB	00H
	DB	00H
	DB	00H
	DB	00H
	DB	00H
	DB	00H
	DB	00H
	DB	00H
	DB	00H
	DB	00H
	DB	00H
	DB	00H
	DB	00H
	DB	00H
	DB	00H
	DB	00H
	DB	00H
	DB	00H
	DB	00H
	DB	00H
	DB	00H
	DB	00H
	DB	00H
	DB	00H
	DB	00H
	DB	00H
	DB	00H
	DB	00H
	DB	00H
	DB	00H
	DB	00H
	DB	00H
	DB	00H
	DB	00H
	DB	00H
	DB	00H
	DB	00H
	DB	00H
	DB	00H
	DB	00H
	DB	00H
	DB	00H
	DB	00H
	DB	00H
	DB	00H
	DB	00H
	DB	00H
	DB	00H
	DB	00H
	DB	00H
	DB	00H
	DB	00H
	DB	00H
	DB	00H
	DB	00H
	DB	00H
	DB	00H
	DB	00H
	DB	00H
	DB	00H
	DB	00H
	DB	00H
	DB	00H
	DB	00H
	DB	020H
	DB	020H
	DB	0f0H
	DB	010H
	DB	020H
	DB	01cH
	DB	0e8H
	DB	041H
	DB	028H
	DB	01cH
	DB	0f0H
	DB	08eH
	DB	020H
	DB	01cH
	DB	0f0H
	DB	09eH
	DB	020H
	DB	01cH
	DB	0f0H
	DB	0beH
	DB	028H
	DB	01cH
	DB	0f0H
	DB	0beH
	DB	020H
	DB	01cH
	DB	0f0H
	DB	0aeH
	DB	020H
	DB	01cH
	DB	0e8H
	DB	07dH
	DB	020H
	DB	018H
	DB	0e8H
	DB	051H
	DB	00H
	DB	00H
	DB	00H
	DB	00H
	DB	00H
	DB	00H
	DB	00H
	DB	00H
	DB	00H
	DB	00H
	DB	00H
	DB	00H
	DB	00H
	DB	00H
	DB	00H
	DB	00H
	DB	00H
	DB	00H
	DB	00H
	DB	00H
	DB	00H
	DB	00H
	DB	00H
	DB	00H
	DB	00H
	DB	00H
	DB	00H
	DB	00H
	DB	00H
	DB	00H
	DB	00H
	DB	00H
	DB	00H
	DB	00H
	DB	00H
	DB	00H
	DB	00H
	DB	00H
	DB	00H
	DB	00H
	DB	00H
	DB	00H
	DB	00H
	DB	00H
	DB	00H
	DB	00H
	DB	00H
	DB	00H
	DB	00H
	DB	00H
	DB	00H
	DB	00H
	DB	00H
	DB	00H
	DB	00H
	DB	00H
	DB	00H
	DB	00H
	DB	00H
	DB	00H
	DB	00H
	DB	00H
	DB	00H
	DB	00H
	DB	00H
	DB	00H
	DB	00H
	DB	00H
	DB	00H
	DB	00H
	DB	00H
	DB	00H
	DB	00H
	DB	00H
	DB	00H
	DB	00H
	DB	00H
	DB	00H
	DB	00H
	DB	00H
	DB	00H
	DB	00H
	DB	00H
	DB	00H
	DB	00H
	DB	00H
	DB	00H
	DB	00H
	DB	00H
	DB	00H
	DB	00H
	DB	00H
	DB	00H
	DB	00H
	DB	00H
	DB	00H
	DB	00H
	DB	00H
	DB	00H
	DB	00H
	DB	00H
	DB	00H
	DB	00H
	DB	00H
	DB	00H
	DB	00H
	DB	00H
	DB	00H
	DB	00H
	DB	00H
	DB	00H
	DB	00H
	DB	00H
	DB	00H
	DB	00H
	DB	00H
	DB	028H
	DB	020H
	DB	0f0H
	DB	020H
	DB	020H
	DB	01cH
	DB	0f0H
	DB	08eH
	DB	028H
	DB	01cH
	DB	0f0H
	DB	0efH
	DB	020H
	DB	01cH
	DB	0e8H
	DB	0ffH
	DB	028H
	DB	01cH
	DB	0f0H
	DB	0ffH
	DB	028H
	DB	01cH
	DB	0e8H
	DB	0ffH
	DB	020H
	DB	01cH
	DB	0e8H
	DB	0ffH
	DB	028H
	DB	01cH
	DB	0f0H
	DB	0ffH
	DB	028H
	DB	01cH
	DB	0f0H
	DB	0ffH
	DB	028H
	DB	01cH
	DB	0f0H
	DB	0ffH
	DB	028H
	DB	01cH
	DB	0f0H
	DB	0ffH
	DB	020H
	DB	01cH
	DB	0f0H
	DB	0efH
	DB	020H
	DB	01cH
	DB	0f0H
	DB	09eH
	DB	020H
	DB	020H
	DB	0f0H
	DB	020H
	DB	00H
	DB	00H
	DB	00H
	DB	00H
	DB	00H
	DB	00H
	DB	00H
	DB	00H
	DB	00H
	DB	00H
	DB	00H
	DB	00H
	DB	00H
	DB	00H
	DB	00H
	DB	00H
	DB	00H
	DB	00H
	DB	00H
	DB	00H
	DB	00H
	DB	00H
	DB	00H
	DB	00H
	DB	00H
	DB	00H
	DB	00H
	DB	00H
	DB	00H
	DB	00H
	DB	00H
	DB	00H
	DB	00H
	DB	00H
	DB	00H
	DB	00H
	DB	00H
	DB	00H
	DB	00H
	DB	00H
	DB	00H
	DB	00H
	DB	00H
	DB	00H
	DB	00H
	DB	00H
	DB	00H
	DB	00H
	DB	00H
	DB	00H
	DB	00H
	DB	00H
	DB	00H
	DB	00H
	DB	00H
	DB	00H
	DB	00H
	DB	00H
	DB	00H
	DB	00H
	DB	00H
	DB	00H
	DB	00H
	DB	00H
	DB	00H
	DB	00H
	DB	00H
	DB	00H
	DB	00H
	DB	00H
	DB	00H
	DB	00H
	DB	00H
	DB	00H
	DB	00H
	DB	00H
	DB	00H
	DB	00H
	DB	00H
	DB	00H
	DB	00H
	DB	00H
	DB	00H
	DB	00H
	DB	00H
	DB	00H
	DB	00H
	DB	00H
	DB	00H
	DB	00H
	DB	00H
	DB	00H
	DB	00H
	DB	00H
	DB	00H
	DB	00H
	DB	00H
	DB	00H
	DB	00H
	DB	00H
	DB	020H
	DB	01cH
	DB	0f0H
	DB	082H
	DB	028H
	DB	01cH
	DB	0e8H
	DB	0ffH
	DB	028H
	DB	01cH
	DB	0f0H
	DB	0ffH
	DB	020H
	DB	01cH
	DB	0e8H
	DB	0ffH
	DB	020H
	DB	01cH
	DB	0f0H
	DB	0ffH
	DB	028H
	DB	01cH
	DB	0f0H
	DB	0ffH
	DB	020H
	DB	01cH
	DB	0e8H
	DB	0ffH
	DB	020H
	DB	01cH
	DB	0f0H
	DB	0ffH
	DB	028H
	DB	01cH
	DB	0e8H
	DB	0ffH
	DB	020H
	DB	01cH
	DB	0e8H
	DB	0ffH
	DB	020H
	DB	01cH
	DB	0f0H
	DB	0ffH
	DB	028H
	DB	01cH
	DB	0e8H
	DB	0ffH
	DB	028H
	DB	01cH
	DB	0f0H
	DB	0ffH
	DB	020H
	DB	01cH
	DB	0e8H
	DB	0ffH
	DB	028H
	DB	01cH
	DB	0f0H
	DB	0ffH
	DB	028H
	DB	01cH
	DB	0f0H
	DB	082H
	DB	00H
	DB	00H
	DB	00H
	DB	00H
	DB	00H
	DB	00H
	DB	00H
	DB	00H
	DB	00H
	DB	00H
	DB	00H
	DB	00H
	DB	00H
	DB	00H
	DB	00H
	DB	00H
	DB	00H
	DB	00H
	DB	00H
	DB	00H
	DB	00H
	DB	00H
	DB	00H
	DB	00H
	DB	00H
	DB	00H
	DB	00H
	DB	00H
	DB	00H
	DB	00H
	DB	00H
	DB	00H
	DB	00H
	DB	00H
	DB	00H
	DB	00H
	DB	00H
	DB	00H
	DB	00H
	DB	00H
	DB	00H
	DB	00H
	DB	00H
	DB	00H
	DB	00H
	DB	00H
	DB	00H
	DB	00H
	DB	00H
	DB	00H
	DB	00H
	DB	00H
	DB	00H
	DB	00H
	DB	00H
	DB	00H
	DB	00H
	DB	00H
	DB	00H
	DB	00H
	DB	00H
	DB	00H
	DB	00H
	DB	00H
	DB	00H
	DB	00H
	DB	00H
	DB	00H
	DB	00H
	DB	00H
	DB	00H
	DB	00H
	DB	00H
	DB	00H
	DB	00H
	DB	00H
	DB	00H
	DB	00H
	DB	00H
	DB	00H
	DB	00H
	DB	00H
	DB	00H
	DB	00H
	DB	00H
	DB	00H
	DB	00H
	DB	00H
	DB	028H
	DB	020H
	DB	0f0H
	DB	020H
	DB	020H
	DB	01cH
	DB	0f0H
	DB	0cfH
	DB	028H
	DB	01cH
	DB	0e8H
	DB	0ffH
	DB	020H
	DB	01cH
	DB	0f0H
	DB	0ffH
	DB	028H
	DB	01cH
	DB	0f0H
	DB	0ffH
	DB	020H
	DB	01cH
	DB	0e8H
	DB	0ffH
	DB	028H
	DB	01cH
	DB	0f0H
	DB	0ffH
	DB	028H
	DB	01cH
	DB	0f0H
	DB	0ffH
	DB	020H
	DB	01cH
	DB	0f0H
	DB	0ffH
	DB	028H
	DB	01cH
	DB	0f0H
	DB	0ffH
	DB	020H
	DB	01cH
	DB	0f0H
	DB	0ffH
	DB	020H
	DB	01cH
	DB	0e8H
	DB	0ffH
	DB	028H
	DB	01cH
	DB	0f0H
	DB	0ffH
	DB	020H
	DB	01cH
	DB	0f0H
	DB	0ffH
	DB	020H
	DB	01cH
	DB	0e8H
	DB	0ffH
	DB	028H
	DB	01cH
	DB	0f0H
	DB	0ffH
	DB	020H
	DB	01cH
	DB	0e8H
	DB	0ffH
	DB	020H
	DB	01cH
	DB	0e8H
	DB	0ffH
	DB	020H
	DB	01cH
	DB	0f0H
	DB	0cfH
	DB	020H
	DB	020H
	DB	0f0H
	DB	020H
	DB	00H
	DB	00H
	DB	00H
	DB	00H
	DB	00H
	DB	00H
	DB	00H
	DB	00H
	DB	00H
	DB	00H
	DB	00H
	DB	00H
	DB	00H
	DB	00H
	DB	00H
	DB	00H
	DB	00H
	DB	00H
	DB	00H
	DB	00H
	DB	00H
	DB	00H
	DB	00H
	DB	00H
	DB	00H
	DB	00H
	DB	00H
	DB	00H
	DB	00H
	DB	00H
	DB	00H
	DB	00H
	DB	00H
	DB	00H
	DB	00H
	DB	00H
	DB	00H
	DB	00H
	DB	00H
	DB	00H
	DB	00H
	DB	00H
	DB	00H
	DB	00H
	DB	00H
	DB	00H
	DB	00H
	DB	00H
	DB	00H
	DB	00H
	DB	00H
	DB	00H
	DB	00H
	DB	00H
	DB	00H
	DB	00H
	DB	00H
	DB	00H
	DB	00H
	DB	00H
	DB	00H
	DB	00H
	DB	00H
	DB	00H
	DB	00H
	DB	00H
	DB	00H
	DB	00H
	DB	00H
	DB	00H
	DB	00H
	DB	00H
	DB	00H
	DB	00H
	DB	00H
	DB	00H
	DB	028H
	DB	020H
	DB	0f0H
	DB	020H
	DB	028H
	DB	01cH
	DB	0f0H
	DB	0dfH
	DB	020H
	DB	01cH
	DB	0e8H
	DB	0ffH
	DB	028H
	DB	01cH
	DB	0f0H
	DB	0ffH
	DB	020H
	DB	01cH
	DB	0f0H
	DB	0ffH
	DB	020H
	DB	01cH
	DB	0e8H
	DB	0ffH
	DB	028H
	DB	01cH
	DB	0f0H
	DB	0ffH
	DB	020H
	DB	01cH
	DB	0e8H
	DB	0ffH
	DB	020H
	DB	01cH
	DB	0e8H
	DB	0ffH
	DB	028H
	DB	01cH
	DB	0f0H
	DB	0ffH
	DB	028H
	DB	01cH
	DB	0e8H
	DB	0ffH
	DB	020H
	DB	01cH
	DB	0f0H
	DB	0ffH
	DB	028H
	DB	01cH
	DB	0f0H
	DB	0ffH
	DB	028H
	DB	01cH
	DB	0e8H
	DB	0ffH
	DB	020H
	DB	01cH
	DB	0f0H
	DB	0ffH
	DB	028H
	DB	01cH
	DB	0f0H
	DB	0ffH
	DB	028H
	DB	01cH
	DB	0f0H
	DB	0ffH
	DB	020H
	DB	01cH
	DB	0f0H
	DB	0ffH
	DB	028H
	DB	01cH
	DB	0e8H
	DB	0ffH
	DB	028H
	DB	01cH
	DB	0f0H
	DB	0ffH
	DB	020H
	DB	01cH
	DB	0f0H
	DB	0dfH
	DB	020H
	DB	020H
	DB	0f0H
	DB	020H
	DB	00H
	DB	00H
	DB	00H
	DB	00H
	DB	00H
	DB	00H
	DB	00H
	DB	00H
	DB	00H
	DB	00H
	DB	00H
	DB	00H
	DB	00H
	DB	00H
	DB	00H
	DB	00H
	DB	00H
	DB	00H
	DB	00H
	DB	00H
	DB	00H
	DB	00H
	DB	00H
	DB	00H
	DB	00H
	DB	00H
	DB	00H
	DB	00H
	DB	00H
	DB	00H
	DB	00H
	DB	00H
	DB	00H
	DB	00H
	DB	00H
	DB	00H
	DB	00H
	DB	00H
	DB	00H
	DB	00H
	DB	00H
	DB	00H
	DB	00H
	DB	00H
	DB	00H
	DB	00H
	DB	00H
	DB	00H
	DB	00H
	DB	00H
	DB	00H
	DB	00H
	DB	00H
	DB	00H
	DB	00H
	DB	00H
	DB	00H
	DB	00H
	DB	00H
	DB	00H
	DB	00H
	DB	00H
	DB	00H
	DB	00H
	DB	00H
	DB	00H
	DB	00H
	DB	00H
	DB	00H
	DB	00H
	DB	00H
	DB	00H
	DB	020H
	DB	01cH
	DB	0f0H
	DB	0cfH
	DB	028H
	DB	01cH
	DB	0e8H
	DB	0ffH
	DB	028H
	DB	01cH
	DB	0f0H
	DB	0ffH
	DB	020H
	DB	01cH
	DB	0f0H
	DB	0ffH
	DB	028H
	DB	01cH
	DB	0e8H
	DB	0ffH
	DB	028H
	DB	01cH
	DB	0f0H
	DB	0ffH
	DB	020H
	DB	01cH
	DB	0f0H
	DB	0ffH
	DB	028H
	DB	01cH
	DB	0f0H
	DB	0ffH
	DB	020H
	DB	01cH
	DB	0e8H
	DB	0ffH
	DB	028H
	DB	01cH
	DB	0f0H
	DB	0ffH
	DB	020H
	DB	01cH
	DB	0e8H
	DB	0ffH
	DB	020H
	DB	01cH
	DB	0f0H
	DB	0ffH
	DB	028H
	DB	01cH
	DB	0f0H
	DB	0ffH
	DB	020H
	DB	01cH
	DB	0e8H
	DB	0ffH
	DB	028H
	DB	01cH
	DB	0e8H
	DB	0ffH
	DB	020H
	DB	01cH
	DB	0f0H
	DB	0ffH
	DB	020H
	DB	01cH
	DB	0e8H
	DB	0ffH
	DB	028H
	DB	01cH
	DB	0f0H
	DB	0ffH
	DB	028H
	DB	01cH
	DB	0f0H
	DB	0ffH
	DB	020H
	DB	01cH
	DB	0e8H
	DB	0ffH
	DB	028H
	DB	01cH
	DB	0e8H
	DB	0ffH
	DB	020H
	DB	01cH
	DB	0f0H
	DB	0cfH
	DB	00H
	DB	00H
	DB	00H
	DB	00H
	DB	00H
	DB	00H
	DB	00H
	DB	00H
	DB	00H
	DB	00H
	DB	00H
	DB	00H
	DB	00H
	DB	00H
	DB	00H
	DB	00H
	DB	00H
	DB	00H
	DB	00H
	DB	00H
	DB	00H
	DB	00H
	DB	00H
	DB	00H
	DB	00H
	DB	00H
	DB	00H
	DB	00H
	DB	00H
	DB	00H
	DB	00H
	DB	00H
	DB	00H
	DB	00H
	DB	00H
	DB	00H
	DB	00H
	DB	00H
	DB	00H
	DB	00H
	DB	00H
	DB	00H
	DB	00H
	DB	00H
	DB	00H
	DB	00H
	DB	00H
	DB	00H
	DB	00H
	DB	00H
	DB	00H
	DB	00H
	DB	00H
	DB	00H
	DB	00H
	DB	00H
	DB	00H
	DB	00H
	DB	00H
	DB	00H
	DB	00H
	DB	00H
	DB	00H
	DB	00H
	DB	00H
	DB	00H
	DB	00H
	DB	00H
	DB	020H
	DB	01cH
	DB	0f0H
	DB	082H
	DB	028H
	DB	01cH
	DB	0e8H
	DB	0ffH
	DB	020H
	DB	01cH
	DB	0f0H
	DB	0ffH
	DB	020H
	DB	01cH
	DB	0f0H
	DB	0ffH
	DB	028H
	DB	01cH
	DB	0e8H
	DB	0ffH
	DB	020H
	DB	01cH
	DB	0e8H
	DB	0ffH
	DB	028H
	DB	01cH
	DB	0f0H
	DB	0ffH
	DB	020H
	DB	01cH
	DB	0f0H
	DB	0ffH
	DB	028H
	DB	01cH
	DB	0e8H
	DB	0ffH
	DB	028H
	DB	01cH
	DB	0f0H
	DB	0ffH
	DB	020H
	DB	01cH
	DB	0f0H
	DB	0ffH
	DB	028H
	DB	01cH
	DB	0e8H
	DB	0ffH
	DB	028H
	DB	01cH
	DB	0f0H
	DB	0ffH
	DB	020H
	DB	01cH
	DB	0f0H
	DB	0ffH
	DB	028H
	DB	01cH
	DB	0e8H
	DB	0ffH
	DB	020H
	DB	01cH
	DB	0f0H
	DB	0ffH
	DB	028H
	DB	01cH
	DB	0f0H
	DB	0ffH
	DB	020H
	DB	01cH
	DB	0e8H
	DB	0ffH
	DB	028H
	DB	01cH
	DB	0f0H
	DB	0ffH
	DB	020H
	DB	01cH
	DB	0f0H
	DB	0ffH
	DB	020H
	DB	01cH
	DB	0e8H
	DB	0ffH
	DB	028H
	DB	01cH
	DB	0f0H
	DB	0ffH
	DB	028H
	DB	01cH
	DB	0f0H
	DB	0ffH
	DB	020H
	DB	01cH
	DB	0e8H
	DB	07dH
	DB	00H
	DB	00H
	DB	00H
	DB	00H
	DB	00H
	DB	00H
	DB	00H
	DB	00H
	DB	00H
	DB	00H
	DB	00H
	DB	00H
	DB	00H
	DB	00H
	DB	00H
	DB	00H
	DB	00H
	DB	00H
	DB	00H
	DB	00H
	DB	00H
	DB	00H
	DB	00H
	DB	00H
	DB	00H
	DB	00H
	DB	00H
	DB	00H
	DB	00H
	DB	00H
	DB	00H
	DB	00H
	DB	00H
	DB	00H
	DB	00H
	DB	00H
	DB	00H
	DB	00H
	DB	00H
	DB	00H
	DB	00H
	DB	00H
	DB	00H
	DB	00H
	DB	00H
	DB	00H
	DB	00H
	DB	00H
	DB	00H
	DB	00H
	DB	00H
	DB	00H
	DB	00H
	DB	00H
	DB	00H
	DB	00H
	DB	00H
	DB	00H
	DB	00H
	DB	00H
	DB	028H
	DB	020H
	DB	0f0H
	DB	020H
	DB	028H
	DB	01cH
	DB	0e8H
	DB	0ffH
	DB	020H
	DB	01cH
	DB	0f0H
	DB	0ffH
	DB	028H
	DB	01cH
	DB	0f0H
	DB	0ffH
	DB	020H
	DB	01cH
	DB	0e8H
	DB	0ffH
	DB	028H
	DB	01cH
	DB	0f0H
	DB	0ffH
	DB	020H
	DB	01cH
	DB	0f0H
	DB	0ffH
	DB	020H
	DB	01cH
	DB	0e8H
	DB	0ffH
	DB	028H
	DB	01cH
	DB	0f0H
	DB	0ffH
	DB	020H
	DB	01cH
	DB	0e8H
	DB	0ffH
	DB	020H
	DB	01cH
	DB	0f0H
	DB	0ffH
	DB	028H
	DB	01cH
	DB	0f0H
	DB	0aeH
	DB	020H
	DB	020H
	DB	0f0H
	DB	020H
	DB	020H
	DB	020H
	DB	0f0H
	DB	020H
	DB	020H
	DB	01cH
	DB	0f0H
	DB	0aeH
	DB	028H
	DB	01cH
	DB	0e8H
	DB	0ffH
	DB	028H
	DB	01cH
	DB	0f0H
	DB	0ffH
	DB	020H
	DB	01cH
	DB	0f0H
	DB	0ffH
	DB	028H
	DB	01cH
	DB	0e8H
	DB	0ffH
	DB	020H
	DB	01cH
	DB	0f0H
	DB	0ffH
	DB	028H
	DB	01cH
	DB	0f0H
	DB	0ffH
	DB	020H
	DB	01cH
	DB	0e8H
	DB	0ffH
	DB	028H
	DB	01cH
	DB	0f0H
	DB	0ffH
	DB	020H
	DB	01cH
	DB	0f0H
	DB	0ffH
	DB	028H
	DB	01cH
	DB	0e8H
	DB	0ffH
	DB	020H
	DB	020H
	DB	0f0H
	DB	020H
	DB	00H
	DB	00H
	DB	00H
	DB	00H
	DB	00H
	DB	00H
	DB	00H
	DB	00H
	DB	00H
	DB	00H
	DB	00H
	DB	00H
	DB	00H
	DB	00H
	DB	00H
	DB	00H
	DB	00H
	DB	00H
	DB	00H
	DB	00H
	DB	00H
	DB	00H
	DB	00H
	DB	00H
	DB	00H
	DB	00H
	DB	00H
	DB	00H
	DB	00H
	DB	00H
	DB	00H
	DB	00H
	DB	00H
	DB	00H
	DB	00H
	DB	00H
	DB	00H
	DB	00H
	DB	00H
	DB	00H
	DB	00H
	DB	00H
	DB	00H
	DB	00H
	DB	00H
	DB	00H
	DB	00H
	DB	00H
	DB	00H
	DB	00H
	DB	00H
	DB	00H
	DB	00H
	DB	00H
	DB	00H
	DB	00H
	DB	028H
	DB	01cH
	DB	0f0H
	DB	09eH
	DB	020H
	DB	01cH
	DB	0e8H
	DB	0ffH
	DB	028H
	DB	01cH
	DB	0f0H
	DB	0ffH
	DB	020H
	DB	01cH
	DB	0f0H
	DB	0ffH
	DB	028H
	DB	01cH
	DB	0e8H
	DB	0ffH
	DB	028H
	DB	01cH
	DB	0f0H
	DB	0ffH
	DB	020H
	DB	01cH
	DB	0f0H
	DB	0ffH
	DB	028H
	DB	01cH
	DB	0e8H
	DB	0ffH
	DB	028H
	DB	01cH
	DB	0f0H
	DB	0ffH
	DB	020H
	DB	01cH
	DB	0f0H
	DB	0ffH
	DB	028H
	DB	01cH
	DB	0e8H
	DB	0ffH
	DB	020H
	DB	01cH
	DB	0e8H
	DB	09eH
	DB	00H
	DB	00H
	DB	00H
	DB	00H
	DB	00H
	DB	00H
	DB	00H
	DB	00H
	DB	028H
	DB	01cH
	DB	0e8H
	DB	09eH
	DB	020H
	DB	01cH
	DB	0f0H
	DB	0ffH
	DB	020H
	DB	01cH
	DB	0f0H
	DB	0ffH
	DB	028H
	DB	01cH
	DB	0e8H
	DB	0ffH
	DB	020H
	DB	01cH
	DB	0f0H
	DB	0ffH
	DB	028H
	DB	01cH
	DB	0e8H
	DB	0ffH
	DB	020H
	DB	01cH
	DB	0f0H
	DB	0ffH
	DB	028H
	DB	01cH
	DB	0f0H
	DB	0ffH
	DB	020H
	DB	01cH
	DB	0e8H
	DB	0ffH
	DB	020H
	DB	01cH
	DB	0f0H
	DB	0ffH
	DB	028H
	DB	01cH
	DB	0f0H
	DB	0ffH
	DB	020H
	DB	01cH
	DB	0f0H
	DB	08eH
	DB	00H
	DB	00H
	DB	00H
	DB	00H
	DB	00H
	DB	00H
	DB	00H
	DB	00H
	DB	00H
	DB	00H
	DB	00H
	DB	00H
	DB	00H
	DB	00H
	DB	00H
	DB	00H
	DB	00H
	DB	00H
	DB	00H
	DB	00H
	DB	00H
	DB	00H
	DB	00H
	DB	00H
	DB	00H
	DB	00H
	DB	00H
	DB	00H
	DB	00H
	DB	00H
	DB	00H
	DB	00H
	DB	00H
	DB	00H
	DB	00H
	DB	00H
	DB	00H
	DB	00H
	DB	00H
	DB	00H
	DB	00H
	DB	00H
	DB	00H
	DB	00H
	DB	00H
	DB	00H
	DB	00H
	DB	00H
	DB	00H
	DB	00H
	DB	00H
	DB	00H
	DB	00H
	DB	00H
	DB	00H
	DB	00H
	DB	020H
	DB	01cH
	DB	0f0H
	DB	0efH
	DB	028H
	DB	01cH
	DB	0e8H
	DB	0ffH
	DB	020H
	DB	01cH
	DB	0f0H
	DB	0ffH
	DB	020H
	DB	01cH
	DB	0e8H
	DB	0ffH
	DB	028H
	DB	01cH
	DB	0f0H
	DB	0ffH
	DB	020H
	DB	01cH
	DB	0f0H
	DB	0ffH
	DB	020H
	DB	01cH
	DB	0e8H
	DB	0ffH
	DB	028H
	DB	01cH
	DB	0f0H
	DB	0ffH
	DB	020H
	DB	01cH
	DB	0f0H
	DB	0ffH
	DB	028H
	DB	01cH
	DB	0f0H
	DB	0ffH
	DB	020H
	DB	01cH
	DB	0e8H
	DB	0ffH
	DB	020H
	DB	01cH
	DB	0f0H
	DB	09eH
	DB	00H
	DB	00H
	DB	00H
	DB	00H
	DB	00H
	DB	00H
	DB	00H
	DB	00H
	DB	028H
	DB	01cH
	DB	0f0H
	DB	09eH
	DB	020H
	DB	01cH
	DB	0f0H
	DB	0ffH
	DB	028H
	DB	01cH
	DB	0e8H
	DB	0ffH
	DB	020H
	DB	01cH
	DB	0f0H
	DB	0ffH
	DB	028H
	DB	01cH
	DB	0f0H
	DB	0ffH
	DB	020H
	DB	01cH
	DB	0e8H
	DB	0ffH
	DB	028H
	DB	01cH
	DB	0f0H
	DB	0ffH
	DB	028H
	DB	01cH
	DB	0e8H
	DB	0ffH
	DB	020H
	DB	01cH
	DB	0f0H
	DB	0ffH
	DB	028H
	DB	01cH
	DB	0e8H
	DB	0ffH
	DB	028H
	DB	01cH
	DB	0f0H
	DB	0ffH
	DB	020H
	DB	01cH
	DB	0e8H
	DB	0efH
	DB	020H
	DB	010H
	DB	0f0H
	DB	010H
	DB	00H
	DB	00H
	DB	00H
	DB	00H
	DB	00H
	DB	00H
	DB	00H
	DB	00H
	DB	00H
	DB	00H
	DB	00H
	DB	00H
	DB	00H
	DB	00H
	DB	00H
	DB	00H
	DB	00H
	DB	00H
	DB	00H
	DB	00H
	DB	00H
	DB	00H
	DB	00H
	DB	00H
	DB	00H
	DB	00H
	DB	00H
	DB	00H
	DB	00H
	DB	00H
	DB	00H
	DB	00H
	DB	00H
	DB	00H
	DB	00H
	DB	00H
	DB	00H
	DB	00H
	DB	00H
	DB	00H
	DB	00H
	DB	00H
	DB	00H
	DB	00H
	DB	00H
	DB	00H
	DB	00H
	DB	00H
	DB	020H
	DB	01cH
	DB	0e8H
	DB	051H
	DB	028H
	DB	01cH
	DB	0f0H
	DB	0ffH
	DB	028H
	DB	01cH
	DB	0f0H
	DB	0ffH
	DB	020H
	DB	01cH
	DB	0e8H
	DB	0ffH
	DB	028H
	DB	01cH
	DB	0f0H
	DB	0ffH
	DB	028H
	DB	01cH
	DB	0f0H
	DB	0ffH
	DB	020H
	DB	01cH
	DB	0e8H
	DB	0ffH
	DB	028H
	DB	01cH
	DB	0e8H
	DB	0ffH
	DB	020H
	DB	01cH
	DB	0f0H
	DB	0ffH
	DB	028H
	DB	01cH
	DB	0e8H
	DB	0ffH
	DB	020H
	DB	01cH
	DB	0f0H
	DB	0ffH
	DB	028H
	DB	01cH
	DB	0f0H
	DB	0ffH
	DB	020H
	DB	01cH
	DB	0f0H
	DB	09eH
	DB	00H
	DB	00H
	DB	00H
	DB	00H
	DB	00H
	DB	00H
	DB	00H
	DB	00H
	DB	028H
	DB	01cH
	DB	0f0H
	DB	09eH
	DB	028H
	DB	01cH
	DB	0e8H
	DB	0ffH
	DB	020H
	DB	01cH
	DB	0e8H
	DB	0ffH
	DB	028H
	DB	01cH
	DB	0f0H
	DB	0ffH
	DB	020H
	DB	01cH
	DB	0f0H
	DB	0ffH
	DB	020H
	DB	01cH
	DB	0e8H
	DB	0ffH
	DB	028H
	DB	01cH
	DB	0f0H
	DB	0ffH
	DB	020H
	DB	01cH
	DB	0f0H
	DB	0ffH
	DB	020H
	DB	01cH
	DB	0e8H
	DB	0ffH
	DB	028H
	DB	01cH
	DB	0f0H
	DB	0ffH
	DB	020H
	DB	01cH
	DB	0e8H
	DB	0ffH
	DB	028H
	DB	01cH
	DB	0f0H
	DB	0ffH
	DB	028H
	DB	01cH
	DB	0e8H
	DB	041H
	DB	00H
	DB	00H
	DB	00H
	DB	00H
	DB	00H
	DB	00H
	DB	00H
	DB	00H
	DB	00H
	DB	00H
	DB	00H
	DB	00H
	DB	00H
	DB	00H
	DB	00H
	DB	00H
	DB	00H
	DB	00H
	DB	00H
	DB	00H
	DB	00H
	DB	00H
	DB	00H
	DB	00H
	DB	00H
	DB	00H
	DB	00H
	DB	00H
	DB	00H
	DB	00H
	DB	00H
	DB	00H
	DB	00H
	DB	00H
	DB	00H
	DB	00H
	DB	00H
	DB	00H
	DB	00H
	DB	00H
	DB	00H
	DB	00H
	DB	00H
	DB	00H
	DB	00H
	DB	00H
	DB	00H
	DB	00H
	DB	020H
	DB	01cH
	DB	0f0H
	DB	07dH
	DB	028H
	DB	01cH
	DB	0e8H
	DB	0ffH
	DB	020H
	DB	01cH
	DB	0f0H
	DB	0ffH
	DB	020H
	DB	01cH
	DB	0f0H
	DB	0ffH
	DB	028H
	DB	01cH
	DB	0e8H
	DB	0ffH
	DB	020H
	DB	01cH
	DB	0f0H
	DB	0ffH
	DB	028H
	DB	01cH
	DB	0f0H
	DB	0ffH
	DB	028H
	DB	01cH
	DB	0f0H
	DB	0ffH
	DB	020H
	DB	01cH
	DB	0e8H
	DB	0ffH
	DB	028H
	DB	01cH
	DB	0f0H
	DB	0ffH
	DB	028H
	DB	01cH
	DB	0e8H
	DB	0ffH
	DB	020H
	DB	01cH
	DB	0e8H
	DB	0ffH
	DB	028H
	DB	01cH
	DB	0f0H
	DB	09eH
	DB	00H
	DB	00H
	DB	00H
	DB	00H
	DB	00H
	DB	00H
	DB	00H
	DB	00H
	DB	028H
	DB	020H
	DB	0e8H
	DB	09eH
	DB	020H
	DB	01cH
	DB	0f0H
	DB	0ffH
	DB	020H
	DB	01cH
	DB	0f0H
	DB	0ffH
	DB	028H
	DB	01cH
	DB	0e8H
	DB	0ffH
	DB	028H
	DB	01cH
	DB	0f0H
	DB	0ffH
	DB	020H
	DB	01cH
	DB	0f0H
	DB	0ffH
	DB	028H
	DB	01cH
	DB	0e8H
	DB	0ffH
	DB	028H
	DB	01cH
	DB	0f0H
	DB	0ffH
	DB	020H
	DB	01cH
	DB	0f0H
	DB	0ffH
	DB	028H
	DB	01cH
	DB	0f0H
	DB	0ffH
	DB	020H
	DB	01cH
	DB	0f0H
	DB	0ffH
	DB	020H
	DB	01cH
	DB	0f0H
	DB	0ffH
	DB	028H
	DB	01cH
	DB	0f0H
	DB	08eH
	DB	00H
	DB	00H
	DB	00H
	DB	00H
	DB	00H
	DB	00H
	DB	00H
	DB	00H
	DB	00H
	DB	00H
	DB	00H
	DB	00H
	DB	00H
	DB	00H
	DB	00H
	DB	00H
	DB	00H
	DB	00H
	DB	00H
	DB	00H
	DB	00H
	DB	00H
	DB	00H
	DB	00H
	DB	00H
	DB	00H
	DB	00H
	DB	00H
	DB	00H
	DB	00H
	DB	00H
	DB	00H
	DB	00H
	DB	00H
	DB	00H
	DB	00H
	DB	00H
	DB	00H
	DB	00H
	DB	00H
	DB	00H
	DB	00H
	DB	00H
	DB	00H
	DB	00H
	DB	00H
	DB	00H
	DB	00H
	DB	028H
	DB	01cH
	DB	0f0H
	DB	0aeH
	DB	020H
	DB	01cH
	DB	0e8H
	DB	0ffH
	DB	028H
	DB	01cH
	DB	0f0H
	DB	0ffH
	DB	028H
	DB	01cH
	DB	0f0H
	DB	0ffH
	DB	020H
	DB	01cH
	DB	0e8H
	DB	0ffH
	DB	020H
	DB	01cH
	DB	0e8H
	DB	0ffH
	DB	028H
	DB	01cH
	DB	0f0H
	DB	0ffH
	DB	020H
	DB	01cH
	DB	0f0H
	DB	0ffH
	DB	020H
	DB	01cH
	DB	0f0H
	DB	0ffH
	DB	028H
	DB	01cH
	DB	0f0H
	DB	0ffH
	DB	020H
	DB	01cH
	DB	0f0H
	DB	0ffH
	DB	020H
	DB	01cH
	DB	0e8H
	DB	0ffH
	DB	020H
	DB	01cH
	DB	0f0H
	DB	09eH
	DB	00H
	DB	00H
	DB	00H
	DB	00H
	DB	00H
	DB	00H
	DB	00H
	DB	00H
	DB	028H
	DB	01cH
	DB	0f0H
	DB	09eH
	DB	020H
	DB	01cH
	DB	0f0H
	DB	0ffH
	DB	028H
	DB	01cH
	DB	0f0H
	DB	0ffH
	DB	020H
	DB	01cH
	DB	0e8H
	DB	0ffH
	DB	028H
	DB	01cH
	DB	0f0H
	DB	0ffH
	DB	020H
	DB	01cH
	DB	0f0H
	DB	0ffH
	DB	020H
	DB	01cH
	DB	0e8H
	DB	0ffH
	DB	028H
	DB	01cH
	DB	0e8H
	DB	0ffH
	DB	028H
	DB	01cH
	DB	0f0H
	DB	0ffH
	DB	020H
	DB	01cH
	DB	0e8H
	DB	0ffH
	DB	028H
	DB	01cH
	DB	0e8H
	DB	0ffH
	DB	020H
	DB	01cH
	DB	0f0H
	DB	0ffH
	DB	020H
	DB	01cH
	DB	0e8H
	DB	09eH
	DB	00H
	DB	00H
	DB	00H
	DB	00H
	DB	00H
	DB	00H
	DB	00H
	DB	00H
	DB	00H
	DB	00H
	DB	00H
	DB	00H
	DB	00H
	DB	00H
	DB	00H
	DB	00H
	DB	00H
	DB	00H
	DB	00H
	DB	00H
	DB	00H
	DB	00H
	DB	00H
	DB	00H
	DB	00H
	DB	00H
	DB	00H
	DB	00H
	DB	00H
	DB	00H
	DB	00H
	DB	00H
	DB	00H
	DB	00H
	DB	00H
	DB	00H
	DB	00H
	DB	00H
	DB	00H
	DB	00H
	DB	00H
	DB	00H
	DB	00H
	DB	00H
	DB	00H
	DB	00H
	DB	00H
	DB	00H
	DB	020H
	DB	01cH
	DB	0f0H
	DB	0beH
	DB	028H
	DB	01cH
	DB	0f0H
	DB	0ffH
	DB	020H
	DB	01cH
	DB	0e8H
	DB	0ffH
	DB	028H
	DB	01cH
	DB	0f0H
	DB	0ffH
	DB	020H
	DB	01cH
	DB	0f0H
	DB	0ffH
	DB	028H
	DB	01cH
	DB	0e8H
	DB	0ffH
	DB	020H
	DB	01cH
	DB	0f0H
	DB	0ffH
	DB	028H
	DB	01cH
	DB	0e8H
	DB	0ffH
	DB	020H
	DB	01cH
	DB	0e8H
	DB	0ffH
	DB	028H
	DB	01cH
	DB	0f0H
	DB	0ffH
	DB	028H
	DB	01cH
	DB	0f0H
	DB	0ffH
	DB	028H
	DB	01cH
	DB	0e8H
	DB	0ffH
	DB	020H
	DB	01cH
	DB	0f0H
	DB	09eH
	DB	00H
	DB	00H
	DB	00H
	DB	00H
	DB	00H
	DB	00H
	DB	00H
	DB	00H
	DB	028H
	DB	01cH
	DB	0e8H
	DB	0a2H
	DB	020H
	DB	01cH
	DB	0e8H
	DB	0ffH
	DB	028H
	DB	01cH
	DB	0f0H
	DB	0ffH
	DB	020H
	DB	01cH
	DB	0e8H
	DB	0ffH
	DB	028H
	DB	01cH
	DB	0f0H
	DB	0ffH
	DB	028H
	DB	01cH
	DB	0f0H
	DB	0ffH
	DB	020H
	DB	01cH
	DB	0e8H
	DB	0ffH
	DB	020H
	DB	01cH
	DB	0f0H
	DB	0ffH
	DB	028H
	DB	01cH
	DB	0f0H
	DB	0ffH
	DB	020H
	DB	01cH
	DB	0e8H
	DB	0ffH
	DB	028H
	DB	01cH
	DB	0f0H
	DB	0ffH
	DB	028H
	DB	01cH
	DB	0f0H
	DB	0ffH
	DB	020H
	DB	01cH
	DB	0e8H
	DB	0beH
	DB	00H
	DB	00H
	DB	00H
	DB	00H
	DB	00H
	DB	00H
	DB	00H
	DB	00H
	DB	00H
	DB	00H
	DB	00H
	DB	00H
	DB	00H
	DB	00H
	DB	00H
	DB	00H
	DB	00H
	DB	00H
	DB	00H
	DB	00H
	DB	00H
	DB	00H
	DB	00H
	DB	00H
	DB	00H
	DB	00H
	DB	00H
	DB	00H
	DB	00H
	DB	00H
	DB	00H
	DB	00H
	DB	00H
	DB	00H
	DB	00H
	DB	00H
	DB	00H
	DB	00H
	DB	00H
	DB	00H
	DB	00H
	DB	00H
	DB	00H
	DB	00H
	DB	00H
	DB	00H
	DB	00H
	DB	00H
	DB	020H
	DB	01cH
	DB	0f0H
	DB	0beH
	DB	028H
	DB	01cH
	DB	0e8H
	DB	0ffH
	DB	020H
	DB	01cH
	DB	0f0H
	DB	0ffH
	DB	020H
	DB	01cH
	DB	0f0H
	DB	0ffH
	DB	028H
	DB	01cH
	DB	0e8H
	DB	0ffH
	DB	028H
	DB	01cH
	DB	0f0H
	DB	0ffH
	DB	020H
	DB	01cH
	DB	0f0H
	DB	0ffH
	DB	028H
	DB	01cH
	DB	0e8H
	DB	0ffH
	DB	020H
	DB	01cH
	DB	0f0H
	DB	0ffH
	DB	020H
	DB	01cH
	DB	0e8H
	DB	0ffH
	DB	028H
	DB	01cH
	DB	0f0H
	DB	0ffH
	DB	020H
	DB	01cH
	DB	0f0H
	DB	0ffH
	DB	020H
	DB	01cH
	DB	0e8H
	DB	09eH
	DB	00H
	DB	00H
	DB	00H
	DB	00H
	DB	00H
	DB	00H
	DB	00H
	DB	00H
	DB	028H
	DB	020H
	DB	0f0H
	DB	09eH
	DB	020H
	DB	01cH
	DB	0f0H
	DB	0ffH
	DB	020H
	DB	01cH
	DB	0e8H
	DB	0ffH
	DB	028H
	DB	01cH
	DB	0f0H
	DB	0ffH
	DB	020H
	DB	01cH
	DB	0e8H
	DB	0ffH
	DB	028H
	DB	01cH
	DB	0f0H
	DB	0ffH
	DB	028H
	DB	01cH
	DB	0f0H
	DB	0ffH
	DB	020H
	DB	01cH
	DB	0f0H
	DB	0ffH
	DB	020H
	DB	01cH
	DB	0e8H
	DB	0ffH
	DB	028H
	DB	01cH
	DB	0f0H
	DB	0ffH
	DB	020H
	DB	01cH
	DB	0f0H
	DB	0ffH
	DB	028H
	DB	01cH
	DB	0e8H
	DB	0ffH
	DB	028H
	DB	01cH
	DB	0e8H
	DB	0beH
	DB	00H
	DB	00H
	DB	00H
	DB	00H
	DB	00H
	DB	00H
	DB	00H
	DB	00H
	DB	00H
	DB	00H
	DB	00H
	DB	00H
	DB	00H
	DB	00H
	DB	00H
	DB	00H
	DB	00H
	DB	00H
	DB	00H
	DB	00H
	DB	00H
	DB	00H
	DB	00H
	DB	00H
	DB	00H
	DB	00H
	DB	00H
	DB	00H
	DB	00H
	DB	00H
	DB	00H
	DB	00H
	DB	00H
	DB	00H
	DB	00H
	DB	00H
	DB	00H
	DB	00H
	DB	00H
	DB	00H
	DB	00H
	DB	00H
	DB	00H
	DB	00H
	DB	00H
	DB	00H
	DB	00H
	DB	00H
	DB	028H
	DB	01cH
	DB	0e8H
	DB	09eH
	DB	028H
	DB	01cH
	DB	0f0H
	DB	0ffH
	DB	020H
	DB	01cH
	DB	0f0H
	DB	0ffH
	DB	028H
	DB	01cH
	DB	0e8H
	DB	0ffH
	DB	020H
	DB	01cH
	DB	0f0H
	DB	0ffH
	DB	020H
	DB	01cH
	DB	0f0H
	DB	0ffH
	DB	028H
	DB	01cH
	DB	0e8H
	DB	0ffH
	DB	028H
	DB	01cH
	DB	0f0H
	DB	0ffH
	DB	020H
	DB	01cH
	DB	0f0H
	DB	0ffH
	DB	028H
	DB	01cH
	DB	0e8H
	DB	0ffH
	DB	020H
	DB	01cH
	DB	0f0H
	DB	0ffH
	DB	028H
	DB	01cH
	DB	0f0H
	DB	0ffH
	DB	020H
	DB	01cH
	DB	0f0H
	DB	0dfH
	DB	020H
	DB	020H
	DB	0e8H
	DB	09eH
	DB	028H
	DB	01cH
	DB	0f0H
	DB	09eH
	DB	028H
	DB	01cH
	DB	0f0H
	DB	0dfH
	DB	020H
	DB	01cH
	DB	0e8H
	DB	0ffH
	DB	028H
	DB	01cH
	DB	0f0H
	DB	0ffH
	DB	028H
	DB	01cH
	DB	0f0H
	DB	0ffH
	DB	020H
	DB	01cH
	DB	0e8H
	DB	0ffH
	DB	020H
	DB	01cH
	DB	0e8H
	DB	0ffH
	DB	028H
	DB	01cH
	DB	0f0H
	DB	0ffH
	DB	028H
	DB	01cH
	DB	0e8H
	DB	0ffH
	DB	020H
	DB	01cH
	DB	0f0H
	DB	0ffH
	DB	028H
	DB	01cH
	DB	0f0H
	DB	0ffH
	DB	020H
	DB	01cH
	DB	0e8H
	DB	0ffH
	DB	020H
	DB	01cH
	DB	0f0H
	DB	0ffH
	DB	028H
	DB	01cH
	DB	0f0H
	DB	0aeH
	DB	00H
	DB	00H
	DB	00H
	DB	00H
	DB	00H
	DB	00H
	DB	00H
	DB	00H
	DB	00H
	DB	00H
	DB	00H
	DB	00H
	DB	00H
	DB	00H
	DB	00H
	DB	00H
	DB	00H
	DB	00H
	DB	00H
	DB	00H
	DB	00H
	DB	00H
	DB	00H
	DB	00H
	DB	00H
	DB	00H
	DB	00H
	DB	00H
	DB	00H
	DB	00H
	DB	00H
	DB	00H
	DB	00H
	DB	00H
	DB	00H
	DB	00H
	DB	00H
	DB	00H
	DB	00H
	DB	00H
	DB	00H
	DB	00H
	DB	00H
	DB	00H
	DB	00H
	DB	00H
	DB	00H
	DB	00H
	DB	020H
	DB	01cH
	DB	0f0H
	DB	08eH
	DB	020H
	DB	01cH
	DB	0e8H
	DB	0ffH
	DB	028H
	DB	01cH
	DB	0f0H
	DB	0ffH
	DB	028H
	DB	01cH
	DB	0e8H
	DB	0ffH
	DB	020H
	DB	01cH
	DB	0f0H
	DB	0ffH
	DB	020H
	DB	01cH
	DB	0f0H
	DB	0ffH
	DB	028H
	DB	01cH
	DB	0e8H
	DB	0ffH
	DB	020H
	DB	01cH
	DB	0f0H
	DB	0ffH
	DB	028H
	DB	01cH
	DB	0f0H
	DB	0ffH
	DB	020H
	DB	01cH
	DB	0e8H
	DB	0ffH
	DB	028H
	DB	01cH
	DB	0e8H
	DB	0ffH
	DB	028H
	DB	01cH
	DB	0f0H
	DB	0ffH
	DB	028H
	DB	01cH
	DB	0e8H
	DB	0ffH
	DB	020H
	DB	01cH
	DB	0f0H
	DB	0ffH
	DB	028H
	DB	01cH
	DB	0f0H
	DB	0ffH
	DB	020H
	DB	01cH
	DB	0e8H
	DB	0ffH
	DB	020H
	DB	01cH
	DB	0f0H
	DB	0ffH
	DB	028H
	DB	01cH
	DB	0f0H
	DB	0ffH
	DB	020H
	DB	01cH
	DB	0f0H
	DB	0ffH
	DB	028H
	DB	01cH
	DB	0f0H
	DB	0ffH
	DB	020H
	DB	01cH
	DB	0f0H
	DB	0ffH
	DB	020H
	DB	01cH
	DB	0e8H
	DB	0ffH
	DB	028H
	DB	01cH
	DB	0f0H
	DB	0ffH
	DB	020H
	DB	01cH
	DB	0f0H
	DB	0ffH
	DB	028H
	DB	01cH
	DB	0e8H
	DB	0ffH
	DB	028H
	DB	01cH
	DB	0f0H
	DB	0ffH
	DB	020H
	DB	01cH
	DB	0f0H
	DB	0ffH
	DB	020H
	DB	01cH
	DB	0f0H
	DB	082H
	DB	00H
	DB	00H
	DB	00H
	DB	00H
	DB	00H
	DB	00H
	DB	00H
	DB	00H
	DB	00H
	DB	00H
	DB	00H
	DB	00H
	DB	00H
	DB	00H
	DB	00H
	DB	00H
	DB	00H
	DB	00H
	DB	00H
	DB	00H
	DB	00H
	DB	00H
	DB	00H
	DB	00H
	DB	00H
	DB	00H
	DB	00H
	DB	00H
	DB	00H
	DB	00H
	DB	00H
	DB	00H
	DB	00H
	DB	00H
	DB	00H
	DB	00H
	DB	00H
	DB	00H
	DB	00H
	DB	00H
	DB	00H
	DB	00H
	DB	00H
	DB	00H
	DB	00H
	DB	00H
	DB	00H
	DB	00H
	DB	028H
	DB	01cH
	DB	0e8H
	DB	041H
	DB	020H
	DB	01cH
	DB	0f0H
	DB	0ffH
	DB	028H
	DB	01cH
	DB	0f0H
	DB	0ffH
	DB	020H
	DB	01cH
	DB	0e8H
	DB	0ffH
	DB	028H
	DB	01cH
	DB	0f0H
	DB	0ffH
	DB	028H
	DB	01cH
	DB	0e8H
	DB	0ffH
	DB	020H
	DB	01cH
	DB	0f0H
	DB	0ffH
	DB	028H
	DB	01cH
	DB	0f0H
	DB	0ffH
	DB	020H
	DB	01cH
	DB	0e8H
	DB	0ffH
	DB	020H
	DB	01cH
	DB	0f0H
	DB	0ffH
	DB	028H
	DB	01cH
	DB	0f0H
	DB	0ffH
	DB	020H
	DB	01cH
	DB	0e8H
	DB	0ffH
	DB	020H
	DB	01cH
	DB	0f0H
	DB	0ffH
	DB	028H
	DB	01cH
	DB	0f0H
	DB	0ffH
	DB	020H
	DB	01cH
	DB	0e8H
	DB	0ffH
	DB	028H
	DB	01cH
	DB	0f0H
	DB	0ffH
	DB	028H
	DB	01cH
	DB	0e8H
	DB	0ffH
	DB	020H
	DB	01cH
	DB	0e8H
	DB	0ffH
	DB	028H
	DB	01cH
	DB	0f0H
	DB	0ffH
	DB	028H
	DB	01cH
	DB	0e8H
	DB	0ffH
	DB	020H
	DB	01cH
	DB	0f0H
	DB	0ffH
	DB	028H
	DB	01cH
	DB	0f0H
	DB	0ffH
	DB	020H
	DB	01cH
	DB	0e8H
	DB	0ffH
	DB	020H
	DB	01cH
	DB	0f0H
	DB	0ffH
	DB	028H
	DB	01cH
	DB	0e8H
	DB	0ffH
	DB	020H
	DB	01cH
	DB	0f0H
	DB	0ffH
	DB	028H
	DB	01cH
	DB	0e8H
	DB	0ffH
	DB	020H
	DB	018H
	DB	0e8H
	DB	04dH
	DB	00H
	DB	00H
	DB	00H
	DB	00H
	DB	00H
	DB	00H
	DB	00H
	DB	00H
	DB	00H
	DB	00H
	DB	00H
	DB	00H
	DB	00H
	DB	00H
	DB	00H
	DB	00H
	DB	00H
	DB	00H
	DB	00H
	DB	00H
	DB	00H
	DB	00H
	DB	00H
	DB	00H
	DB	00H
	DB	00H
	DB	00H
	DB	00H
	DB	00H
	DB	00H
	DB	00H
	DB	00H
	DB	00H
	DB	00H
	DB	00H
	DB	00H
	DB	00H
	DB	00H
	DB	00H
	DB	00H
	DB	00H
	DB	00H
	DB	00H
	DB	00H
	DB	00H
	DB	00H
	DB	00H
	DB	00H
	DB	020H
	DB	020H
	DB	0f0H
	DB	010H
	DB	028H
	DB	01cH
	DB	0f0H
	DB	0efH
	DB	020H
	DB	01cH
	DB	0e8H
	DB	0ffH
	DB	020H
	DB	01cH
	DB	0f0H
	DB	0ffH
	DB	028H
	DB	01cH
	DB	0f0H
	DB	0ffH
	DB	020H
	DB	01cH
	DB	0e8H
	DB	0ffH
	DB	028H
	DB	01cH
	DB	0f0H
	DB	0ffH
	DB	028H
	DB	01cH
	DB	0e8H
	DB	0ffH
	DB	020H
	DB	01cH
	DB	0f0H
	DB	0ffH
	DB	028H
	DB	01cH
	DB	0f0H
	DB	0ffH
	DB	020H
	DB	01cH
	DB	0f0H
	DB	0ffH
	DB	028H
	DB	01cH
	DB	0e8H
	DB	0ffH
	DB	020H
	DB	01cH
	DB	0f0H
	DB	0aeH
	DB	020H
	DB	020H
	DB	0f0H
	DB	020H
	DB	020H
	DB	020H
	DB	0f0H
	DB	020H
	DB	028H
	DB	01cH
	DB	0f0H
	DB	0aeH
	DB	020H
	DB	01cH
	DB	0f0H
	DB	0ffH
	DB	020H
	DB	01cH
	DB	0e8H
	DB	0ffH
	DB	028H
	DB	01cH
	DB	0f0H
	DB	0ffH
	DB	020H
	DB	01cH
	DB	0e8H
	DB	0ffH
	DB	028H
	DB	01cH
	DB	0f0H
	DB	0ffH
	DB	028H
	DB	01cH
	DB	0f0H
	DB	0ffH
	DB	020H
	DB	01cH
	DB	0e8H
	DB	0ffH
	DB	028H
	DB	01cH
	DB	0f0H
	DB	0ffH
	DB	020H
	DB	01cH
	DB	0f0H
	DB	0ffH
	DB	028H
	DB	01cH
	DB	0e8H
	DB	0ffH
	DB	028H
	DB	01cH
	DB	0f0H
	DB	0efH
	DB	00H
	DB	00H
	DB	00H
	DB	00H
	DB	00H
	DB	00H
	DB	00H
	DB	00H
	DB	00H
	DB	00H
	DB	00H
	DB	00H
	DB	00H
	DB	00H
	DB	00H
	DB	00H
	DB	00H
	DB	00H
	DB	00H
	DB	00H
	DB	00H
	DB	00H
	DB	00H
	DB	00H
	DB	00H
	DB	00H
	DB	00H
	DB	00H
	DB	00H
	DB	00H
	DB	00H
	DB	00H
	DB	00H
	DB	00H
	DB	00H
	DB	00H
	DB	00H
	DB	00H
	DB	00H
	DB	00H
	DB	00H
	DB	00H
	DB	00H
	DB	00H
	DB	00H
	DB	00H
	DB	00H
	DB	00H
	DB	00H
	DB	00H
	DB	00H
	DB	00H
	DB	00H
	DB	00H
	DB	00H
	DB	00H
	DB	020H
	DB	01cH
	DB	0e8H
	DB	08eH
	DB	028H
	DB	01cH
	DB	0f0H
	DB	0ffH
	DB	028H
	DB	01cH
	DB	0f0H
	DB	0ffH
	DB	020H
	DB	01cH
	DB	0e8H
	DB	0ffH
	DB	020H
	DB	01cH
	DB	0f0H
	DB	0ffH
	DB	028H
	DB	01cH
	DB	0f0H
	DB	0ffH
	DB	020H
	DB	01cH
	DB	0e8H
	DB	0ffH
	DB	028H
	DB	01cH
	DB	0f0H
	DB	0ffH
	DB	020H
	DB	01cH
	DB	0e8H
	DB	0ffH
	DB	028H
	DB	01cH
	DB	0f0H
	DB	0ffH
	DB	028H
	DB	01cH
	DB	0f0H
	DB	0ffH
	DB	020H
	DB	01cH
	DB	0e8H
	DB	09eH
	DB	00H
	DB	00H
	DB	00H
	DB	00H
	DB	00H
	DB	00H
	DB	00H
	DB	00H
	DB	028H
	DB	01cH
	DB	0e8H
	DB	09eH
	DB	020H
	DB	01cH
	DB	0f0H
	DB	0ffH
	DB	028H
	DB	01cH
	DB	0f0H
	DB	0ffH
	DB	020H
	DB	01cH
	DB	0f0H
	DB	0ffH
	DB	020H
	DB	01cH
	DB	0e8H
	DB	0ffH
	DB	028H
	DB	01cH
	DB	0f0H
	DB	0ffH
	DB	020H
	DB	01cH
	DB	0e8H
	DB	0ffH
	DB	028H
	DB	01cH
	DB	0f0H
	DB	0ffH
	DB	028H
	DB	01cH
	DB	0f0H
	DB	0ffH
	DB	020H
	DB	01cH
	DB	0e8H
	DB	0ffH
	DB	020H
	DB	01cH
	DB	0f0H
	DB	0ffH
	DB	020H
	DB	01cH
	DB	0f0H
	DB	09eH
	DB	00H
	DB	00H
	DB	00H
	DB	00H
	DB	00H
	DB	00H
	DB	00H
	DB	00H
	DB	00H
	DB	00H
	DB	00H
	DB	00H
	DB	00H
	DB	00H
	DB	00H
	DB	00H
	DB	00H
	DB	00H
	DB	00H
	DB	00H
	DB	00H
	DB	00H
	DB	00H
	DB	00H
	DB	00H
	DB	00H
	DB	00H
	DB	00H
	DB	00H
	DB	00H
	DB	00H
	DB	00H
	DB	00H
	DB	00H
	DB	00H
	DB	00H
	DB	00H
	DB	00H
	DB	00H
	DB	00H
	DB	00H
	DB	00H
	DB	00H
	DB	00H
	DB	00H
	DB	00H
	DB	00H
	DB	00H
	DB	00H
	DB	00H
	DB	00H
	DB	00H
	DB	00H
	DB	00H
	DB	00H
	DB	00H
	DB	028H
	DB	018H
	DB	0e8H
	DB	020H
	DB	020H
	DB	01cH
	DB	0f0H
	DB	0ffH
	DB	028H
	DB	01cH
	DB	0e8H
	DB	0ffH
	DB	028H
	DB	01cH
	DB	0f0H
	DB	0ffH
	DB	020H
	DB	01cH
	DB	0f0H
	DB	0ffH
	DB	020H
	DB	01cH
	DB	0e8H
	DB	0ffH
	DB	028H
	DB	01cH
	DB	0f0H
	DB	0ffH
	DB	020H
	DB	01cH
	DB	0f0H
	DB	0ffH
	DB	020H
	DB	01cH
	DB	0e8H
	DB	0ffH
	DB	028H
	DB	01cH
	DB	0e8H
	DB	0ffH
	DB	020H
	DB	01cH
	DB	0f0H
	DB	0ffH
	DB	028H
	DB	01cH
	DB	0f0H
	DB	0aeH
	DB	020H
	DB	020H
	DB	0e8H
	DB	020H
	DB	020H
	DB	020H
	DB	0e8H
	DB	020H
	DB	020H
	DB	020H
	DB	0f0H
	DB	0aeH
	DB	028H
	DB	01cH
	DB	0e8H
	DB	0ffH
	DB	028H
	DB	01cH
	DB	0f0H
	DB	0ffH
	DB	020H
	DB	01cH
	DB	0e8H
	DB	0ffH
	DB	028H
	DB	01cH
	DB	0f0H
	DB	0ffH
	DB	020H
	DB	01cH
	DB	0f0H
	DB	0ffH
	DB	020H
	DB	01cH
	DB	0e8H
	DB	0ffH
	DB	028H
	DB	01cH
	DB	0f0H
	DB	0ffH
	DB	020H
	DB	01cH
	DB	0f0H
	DB	0ffH
	DB	028H
	DB	01cH
	DB	0e8H
	DB	0ffH
	DB	028H
	DB	01cH
	DB	0f0H
	DB	0ffH
	DB	020H
	DB	018H
	DB	0e8H
	DB	020H
	DB	00H
	DB	00H
	DB	00H
	DB	00H
	DB	00H
	DB	00H
	DB	00H
	DB	00H
	DB	00H
	DB	00H
	DB	00H
	DB	00H
	DB	00H
	DB	00H
	DB	00H
	DB	00H
	DB	00H
	DB	00H
	DB	00H
	DB	00H
	DB	00H
	DB	00H
	DB	00H
	DB	00H
	DB	00H
	DB	00H
	DB	00H
	DB	00H
	DB	00H
	DB	00H
	DB	00H
	DB	00H
	DB	00H
	DB	00H
	DB	00H
	DB	00H
	DB	00H
	DB	00H
	DB	00H
	DB	00H
	DB	00H
	DB	00H
	DB	00H
	DB	00H
	DB	00H
	DB	00H
	DB	00H
	DB	00H
	DB	00H
	DB	00H
	DB	00H
	DB	00H
	DB	00H
	DB	00H
	DB	00H
	DB	00H
	DB	00H
	DB	00H
	DB	00H
	DB	00H
	DB	020H
	DB	01cH
	DB	0e8H
	DB	082H
	DB	028H
	DB	01cH
	DB	0f0H
	DB	0ffH
	DB	020H
	DB	01cH
	DB	0f0H
	DB	0ffH
	DB	028H
	DB	01cH
	DB	0e8H
	DB	0ffH
	DB	028H
	DB	01cH
	DB	0e8H
	DB	0ffH
	DB	020H
	DB	01cH
	DB	0f0H
	DB	0ffH
	DB	028H
	DB	01cH
	DB	0f0H
	DB	0ffH
	DB	028H
	DB	01cH
	DB	0f0H
	DB	0ffH
	DB	020H
	DB	01cH
	DB	0e8H
	DB	0ffH
	DB	020H
	DB	01cH
	DB	0f0H
	DB	0ffH
	DB	028H
	DB	01cH
	DB	0f0H
	DB	0ffH
	DB	028H
	DB	01cH
	DB	0e8H
	DB	0ffH
	DB	020H
	DB	01cH
	DB	0f0H
	DB	0ffH
	DB	028H
	DB	01cH
	DB	0f0H
	DB	0ffH
	DB	020H
	DB	01cH
	DB	0e8H
	DB	0ffH
	DB	020H
	DB	01cH
	DB	0f0H
	DB	0ffH
	DB	028H
	DB	01cH
	DB	0f0H
	DB	0ffH
	DB	028H
	DB	01cH
	DB	0e8H
	DB	0ffH
	DB	020H
	DB	01cH
	DB	0f0H
	DB	0ffH
	DB	028H
	DB	01cH
	DB	0f0H
	DB	0ffH
	DB	020H
	DB	01cH
	DB	0e8H
	DB	0ffH
	DB	020H
	DB	01cH
	DB	0f0H
	DB	0ffH
	DB	028H
	DB	01cH
	DB	0e8H
	DB	0ffH
	DB	020H
	DB	01cH
	DB	0f0H
	DB	082H
	DB	00H
	DB	00H
	DB	00H
	DB	00H
	DB	00H
	DB	00H
	DB	00H
	DB	00H
	DB	00H
	DB	00H
	DB	00H
	DB	00H
	DB	00H
	DB	00H
	DB	00H
	DB	00H
	DB	00H
	DB	00H
	DB	00H
	DB	00H
	DB	00H
	DB	00H
	DB	00H
	DB	00H
	DB	00H
	DB	00H
	DB	00H
	DB	00H
	DB	00H
	DB	00H
	DB	00H
	DB	00H
	DB	00H
	DB	00H
	DB	00H
	DB	00H
	DB	00H
	DB	00H
	DB	00H
	DB	00H
	DB	00H
	DB	00H
	DB	00H
	DB	00H
	DB	00H
	DB	00H
	DB	00H
	DB	00H
	DB	00H
	DB	00H
	DB	00H
	DB	00H
	DB	00H
	DB	00H
	DB	00H
	DB	00H
	DB	00H
	DB	00H
	DB	00H
	DB	00H
	DB	00H
	DB	00H
	DB	00H
	DB	00H
	DB	00H
	DB	00H
	DB	00H
	DB	00H
	DB	020H
	DB	01cH
	DB	0f0H
	DB	0cfH
	DB	028H
	DB	01cH
	DB	0f0H
	DB	0ffH
	DB	020H
	DB	01cH
	DB	0e8H
	DB	0ffH
	DB	028H
	DB	01cH
	DB	0f0H
	DB	0ffH
	DB	020H
	DB	01cH
	DB	0f0H
	DB	0ffH
	DB	028H
	DB	01cH
	DB	0e8H
	DB	0ffH
	DB	028H
	DB	01cH
	DB	0f0H
	DB	0ffH
	DB	020H
	DB	01cH
	DB	0f0H
	DB	0ffH
	DB	028H
	DB	01cH
	DB	0e8H
	DB	0ffH
	DB	020H
	DB	01cH
	DB	0f0H
	DB	0ffH
	DB	020H
	DB	01cH
	DB	0e8H
	DB	0ffH
	DB	028H
	DB	01cH
	DB	0e8H
	DB	0ffH
	DB	028H
	DB	01cH
	DB	0f0H
	DB	0ffH
	DB	020H
	DB	01cH
	DB	0f0H
	DB	0ffH
	DB	020H
	DB	01cH
	DB	0e8H
	DB	0ffH
	DB	028H
	DB	01cH
	DB	0f0H
	DB	0ffH
	DB	020H
	DB	01cH
	DB	0e8H
	DB	0ffH
	DB	028H
	DB	01cH
	DB	0f0H
	DB	0ffH
	DB	028H
	DB	01cH
	DB	0f0H
	DB	0ffH
	DB	020H
	DB	01cH
	DB	0e8H
	DB	0ffH
	DB	028H
	DB	01cH
	DB	0f0H
	DB	0ffH
	DB	020H
	DB	01cH
	DB	0f0H
	DB	0cfH
	DB	00H
	DB	00H
	DB	00H
	DB	00H
	DB	00H
	DB	00H
	DB	00H
	DB	00H
	DB	00H
	DB	00H
	DB	00H
	DB	00H
	DB	00H
	DB	00H
	DB	00H
	DB	00H
	DB	00H
	DB	00H
	DB	00H
	DB	00H
	DB	00H
	DB	00H
	DB	00H
	DB	00H
	DB	00H
	DB	00H
	DB	00H
	DB	00H
	DB	00H
	DB	00H
	DB	00H
	DB	00H
	DB	00H
	DB	00H
	DB	00H
	DB	00H
	DB	00H
	DB	00H
	DB	00H
	DB	00H
	DB	00H
	DB	00H
	DB	00H
	DB	00H
	DB	00H
	DB	00H
	DB	00H
	DB	00H
	DB	00H
	DB	00H
	DB	00H
	DB	00H
	DB	00H
	DB	00H
	DB	00H
	DB	00H
	DB	00H
	DB	00H
	DB	00H
	DB	00H
	DB	00H
	DB	00H
	DB	00H
	DB	00H
	DB	00H
	DB	00H
	DB	00H
	DB	00H
	DB	00H
	DB	00H
	DB	00H
	DB	00H
	DB	028H
	DB	018H
	DB	0e8H
	DB	020H
	DB	028H
	DB	01cH
	DB	0e8H
	DB	0dfH
	DB	020H
	DB	01cH
	DB	0f0H
	DB	0ffH
	DB	020H
	DB	01cH
	DB	0f0H
	DB	0ffH
	DB	028H
	DB	01cH
	DB	0e8H
	DB	0ffH
	DB	020H
	DB	01cH
	DB	0e8H
	DB	0ffH
	DB	020H
	DB	01cH
	DB	0f0H
	DB	0ffH
	DB	028H
	DB	01cH
	DB	0f0H
	DB	0ffH
	DB	028H
	DB	01cH
	DB	0e8H
	DB	0ffH
	DB	020H
	DB	01cH
	DB	0f0H
	DB	0ffH
	DB	020H
	DB	01cH
	DB	0f0H
	DB	0ffH
	DB	028H
	DB	01cH
	DB	0e8H
	DB	0ffH
	DB	020H
	DB	01cH
	DB	0f0H
	DB	0ffH
	DB	028H
	DB	01cH
	DB	0f0H
	DB	0ffH
	DB	028H
	DB	01cH
	DB	0e8H
	DB	0ffH
	DB	020H
	DB	01cH
	DB	0f0H
	DB	0ffH
	DB	020H
	DB	01cH
	DB	0f0H
	DB	0ffH
	DB	028H
	DB	01cH
	DB	0e8H
	DB	0ffH
	DB	020H
	DB	01cH
	DB	0f0H
	DB	0ffH
	DB	028H
	DB	01cH
	DB	0e8H
	DB	0ffH
	DB	020H
	DB	01cH
	DB	0f0H
	DB	0dfH
	DB	020H
	DB	018H
	DB	0e8H
	DB	020H
	DB	00H
	DB	00H
	DB	00H
	DB	00H
	DB	00H
	DB	00H
	DB	00H
	DB	00H
	DB	00H
	DB	00H
	DB	00H
	DB	00H
	DB	00H
	DB	00H
	DB	00H
	DB	00H
	DB	00H
	DB	00H
	DB	00H
	DB	00H
	DB	00H
	DB	00H
	DB	00H
	DB	00H
	DB	00H
	DB	00H
	DB	00H
	DB	00H
	DB	00H
	DB	00H
	DB	00H
	DB	00H
	DB	00H
	DB	00H
	DB	00H
	DB	00H
	DB	00H
	DB	00H
	DB	00H
	DB	00H
	DB	00H
	DB	00H
	DB	00H
	DB	00H
	DB	00H
	DB	00H
	DB	00H
	DB	00H
	DB	00H
	DB	00H
	DB	00H
	DB	00H
	DB	00H
	DB	00H
	DB	00H
	DB	00H
	DB	00H
	DB	00H
	DB	00H
	DB	00H
	DB	00H
	DB	00H
	DB	00H
	DB	00H
	DB	00H
	DB	00H
	DB	00H
	DB	00H
	DB	00H
	DB	00H
	DB	00H
	DB	00H
	DB	00H
	DB	00H
	DB	00H
	DB	00H
	DB	028H
	DB	018H
	DB	0e8H
	DB	020H
	DB	028H
	DB	01cH
	DB	0f0H
	DB	0cfH
	DB	020H
	DB	01cH
	DB	0f0H
	DB	0ffH
	DB	028H
	DB	01cH
	DB	0e8H
	DB	0ffH
	DB	020H
	DB	01cH
	DB	0f0H
	DB	0ffH
	DB	020H
	DB	01cH
	DB	0f0H
	DB	0ffH
	DB	028H
	DB	01cH
	DB	0e8H
	DB	0ffH
	DB	020H
	DB	01cH
	DB	0f0H
	DB	0ffH
	DB	028H
	DB	01cH
	DB	0f0H
	DB	0ffH
	DB	028H
	DB	01cH
	DB	0f0H
	DB	0ffH
	DB	020H
	DB	01cH
	DB	0e8H
	DB	0ffH
	DB	020H
	DB	01cH
	DB	0f0H
	DB	0ffH
	DB	028H
	DB	01cH
	DB	0f0H
	DB	0ffH
	DB	028H
	DB	01cH
	DB	0e8H
	DB	0ffH
	DB	020H
	DB	01cH
	DB	0f0H
	DB	0ffH
	DB	028H
	DB	01cH
	DB	0f0H
	DB	0ffH
	DB	020H
	DB	01cH
	DB	0e8H
	DB	0ffH
	DB	028H
	DB	01cH
	DB	0f0H
	DB	0ffH
	DB	020H
	DB	01cH
	DB	0f0H
	DB	0cfH
	DB	020H
	DB	018H
	DB	0e8H
	DB	020H
	DB	00H
	DB	00H
	DB	00H
	DB	00H
	DB	00H
	DB	00H
	DB	00H
	DB	00H
	DB	00H
	DB	00H
	DB	00H
	DB	00H
	DB	00H
	DB	00H
	DB	00H
	DB	00H
	DB	00H
	DB	00H
	DB	00H
	DB	00H
	DB	00H
	DB	00H
	DB	00H
	DB	00H
	DB	00H
	DB	00H
	DB	00H
	DB	00H
	DB	00H
	DB	00H
	DB	00H
	DB	00H
	DB	00H
	DB	00H
	DB	00H
	DB	00H
	DB	00H
	DB	00H
	DB	00H
	DB	00H
	DB	00H
	DB	00H
	DB	00H
	DB	00H
	DB	00H
	DB	00H
	DB	00H
	DB	00H
	DB	00H
	DB	00H
	DB	00H
	DB	00H
	DB	00H
	DB	00H
	DB	00H
	DB	00H
	DB	00H
	DB	00H
	DB	00H
	DB	00H
	DB	00H
	DB	00H
	DB	00H
	DB	00H
	DB	00H
	DB	00H
	DB	00H
	DB	00H
	DB	00H
	DB	00H
	DB	00H
	DB	00H
	DB	00H
	DB	00H
	DB	00H
	DB	00H
	DB	00H
	DB	00H
	DB	00H
	DB	00H
	DB	00H
	DB	00H
	DB	00H
	DB	00H
	DB	00H
	DB	00H
	DB	00H
	DB	00H
	DB	028H
	DB	01cH
	DB	0e8H
	DB	07dH
	DB	028H
	DB	01cH
	DB	0f0H
	DB	0ffH
	DB	020H
	DB	01cH
	DB	0f0H
	DB	0ffH
	DB	028H
	DB	01cH
	DB	0e8H
	DB	0ffH
	DB	028H
	DB	01cH
	DB	0f0H
	DB	0ffH
	DB	020H
	DB	01cH
	DB	0e8H
	DB	0ffH
	DB	020H
	DB	01cH
	DB	0e8H
	DB	0ffH
	DB	028H
	DB	01cH
	DB	0f0H
	DB	0ffH
	DB	028H
	DB	01cH
	DB	0f0H
	DB	0ffH
	DB	020H
	DB	01cH
	DB	0e8H
	DB	0ffH
	DB	020H
	DB	01cH
	DB	0f0H
	DB	0ffH
	DB	028H
	DB	01cH
	DB	0e8H
	DB	0ffH
	DB	020H
	DB	01cH
	DB	0f0H
	DB	0ffH
	DB	028H
	DB	01cH
	DB	0e8H
	DB	0ffH
	DB	028H
	DB	01cH
	DB	0f0H
	DB	0ffH
	DB	020H
	DB	01cH
	DB	0e8H
	DB	082H
	DB	00H
	DB	00H
	DB	00H
	DB	00H
	DB	00H
	DB	00H
	DB	00H
	DB	00H
	DB	00H
	DB	00H
	DB	00H
	DB	00H
	DB	00H
	DB	00H
	DB	00H
	DB	00H
	DB	00H
	DB	00H
	DB	00H
	DB	00H
	DB	00H
	DB	00H
	DB	00H
	DB	00H
	DB	00H
	DB	00H
	DB	00H
	DB	00H
	DB	00H
	DB	00H
	DB	00H
	DB	00H
	DB	00H
	DB	00H
	DB	00H
	DB	00H
	DB	00H
	DB	00H
	DB	00H
	DB	00H
	DB	00H
	DB	00H
	DB	00H
	DB	00H
	DB	00H
	DB	00H
	DB	00H
	DB	00H
	DB	00H
	DB	00H
	DB	00H
	DB	00H
	DB	00H
	DB	00H
	DB	00H
	DB	00H
	DB	00H
	DB	00H
	DB	00H
	DB	00H
	DB	00H
	DB	00H
	DB	00H
	DB	00H
	DB	00H
	DB	00H
	DB	00H
	DB	00H
	DB	00H
	DB	00H
	DB	00H
	DB	00H
	DB	00H
	DB	00H
	DB	00H
	DB	00H
	DB	00H
	DB	00H
	DB	00H
	DB	00H
	DB	00H
	DB	00H
	DB	00H
	DB	00H
	DB	00H
	DB	00H
	DB	00H
	DB	00H
	DB	00H
	DB	00H
	DB	00H
	DB	00H
	DB	00H
	DB	00H
	DB	00H
	DB	00H
	DB	00H
	DB	00H
	DB	00H
	DB	00H
	DB	028H
	DB	018H
	DB	0e8H
	DB	020H
	DB	028H
	DB	01cH
	DB	0f0H
	DB	09eH
	DB	020H
	DB	01cH
	DB	0e8H
	DB	0efH
	DB	028H
	DB	01cH
	DB	0f0H
	DB	0ffH
	DB	020H
	DB	01cH
	DB	0f0H
	DB	0ffH
	DB	020H
	DB	01cH
	DB	0e8H
	DB	0ffH
	DB	028H
	DB	01cH
	DB	0f0H
	DB	0ffH
	DB	028H
	DB	01cH
	DB	0f0H
	DB	0ffH
	DB	020H
	DB	01cH
	DB	0e8H
	DB	0ffH
	DB	028H
	DB	01cH
	DB	0f0H
	DB	0ffH
	DB	020H
	DB	01cH
	DB	0f0H
	DB	0ffH
	DB	020H
	DB	01cH
	DB	0e8H
	DB	0efH
	DB	028H
	DB	01cH
	DB	0f0H
	DB	08eH
	DB	020H
	DB	018H
	DB	0e8H
	DB	020H
	DB	00H
	DB	00H
	DB	00H
	DB	00H
	DB	00H
	DB	00H
	DB	00H
	DB	00H
	DB	00H
	DB	00H
	DB	00H
	DB	00H
	DB	00H
	DB	00H
	DB	00H
	DB	00H
	DB	00H
	DB	00H
	DB	00H
	DB	00H
	DB	00H
	DB	00H
	DB	00H
	DB	00H
	DB	00H
	DB	00H
	DB	00H
	DB	00H
	DB	00H
	DB	00H
	DB	00H
	DB	00H
	DB	00H
	DB	00H
	DB	00H
	DB	00H
	DB	00H
	DB	00H
	DB	00H
	DB	00H
	DB	00H
	DB	00H
	DB	00H
	DB	00H
	DB	00H
	DB	00H
	DB	00H
	DB	00H
	DB	00H
	DB	00H
	DB	00H
	DB	00H
	DB	00H
	DB	00H
	DB	00H
	DB	00H
	DB	00H
	DB	00H
	DB	00H
	DB	00H
	DB	00H
	DB	00H
	DB	00H
	DB	00H
	DB	00H
	DB	00H
	DB	00H
	DB	00H
	DB	00H
	DB	00H
	DB	00H
	DB	00H
	DB	00H
	DB	00H
	DB	00H
	DB	00H
	DB	00H
	DB	00H
	DB	00H
	DB	00H
	DB	00H
	DB	00H
	DB	00H
	DB	00H
	DB	00H
	DB	00H
	DB	00H
	DB	00H
	DB	00H
	DB	00H
	DB	00H
	DB	00H
	DB	00H
	DB	00H
	DB	00H
	DB	00H
	DB	00H
	DB	00H
	DB	00H
	DB	00H
	DB	00H
	DB	00H
	DB	00H
	DB	00H
	DB	00H
	DB	00H
	DB	00H
	DB	00H
	DB	00H
	DB	00H
	DB	00H
	DB	00H
	DB	00H
	DB	00H
	DB	00H
	DB	00H
	DB	020H
	DB	01cH
	DB	0f0H
	DB	051H
	DB	028H
	DB	01cH
	DB	0f0H
	DB	07dH
	DB	028H
	DB	01cH
	DB	0e8H
	DB	0aeH
	DB	020H
	DB	01cH
	DB	0e8H
	DB	0beH
	DB	020H
	DB	01cH
	DB	0e8H
	DB	0beH
	DB	020H
	DB	01cH
	DB	0f0H
	DB	09eH
	DB	028H
	DB	01cH
	DB	0f0H
	DB	092H
	DB	028H
	DB	01cH
	DB	0f0H
	DB	041H
	DB	020H
	DB	010H
	DB	0e0H
	DB	010H
	DB	00H
	DB	00H
	DB	00H
	DB	00H
	DB	00H
	DB	00H
	DB	00H
	DB	00H
	DB	00H
	DB	00H
	DB	00H
	DB	00H
	DB	00H
	DB	00H
	DB	00H
	DB	00H
	DB	00H
	DB	00H
	DB	00H
	DB	00H
	DB	00H
	DB	00H
	DB	00H
	DB	00H
	DB	00H
	DB	00H
	DB	00H
	DB	00H
	DB	00H
	DB	00H
	DB	00H
	DB	00H
	DB	00H
	DB	00H
	DB	00H
	DB	00H
	DB	00H
	DB	00H
	DB	00H
	DB	00H
	DB	00H
	DB	00H
	DB	00H
	DB	00H
	DB	00H
	DB	00H
	DB	00H
	DB	00H
	DB	00H
	DB	00H
	DB	00H
	DB	00H
	DB	00H
	DB	00H
	DB	00H
	DB	00H
	DB	00H
	DB	00H
	DB	00H
	DB	00H
	DB	00H
	DB	00H
	DB	00H
	DB	00H
	DB	00H
	DB	00H
	DB	00H
	DB	00H
	DB	00H
	DB	00H
	DB	00H
	DB	00H
	DB	00H
	DB	00H
	DB	00H
	DB	00H
	DB	00H
	DB	00H
	DB	00H
	DB	00H
	DB	00H
	DB	00H
	DB	00H
	DB	00H
	DB	00H
	DB	00H
	DB	00H
	DB	00H
	DB	00H
	DB	00H
	DB	00H
	DB	00H
	DB	00H
	DB	00H
	DB	00H
	DB	00H
	DB	00H
	DB	00H
	DB	00H
	DB	00H
	DB	00H
	DB	00H
	DB	00H
	DB	00H
	DB	00H
	DB	00H
	DB	00H
	DB	00H
	DB	00H
	DB	00H
	DB	00H
	DB	00H
	DB	00H
	DB	00H
	DB	00H
	DB	00H
	DB	00H
	DB	00H
	DB	00H
	DB	00H
	DB	00H
	DB	00H
	DB	00H
	DB	00H
	DB	00H
	DB	00H
	DB	00H
	DB	00H
	DB	00H
	DB	00H
	DB	00H
	DB	00H
	DB	00H
	DB	00H
	DB	00H
	DB	00H
	DB	00H
	DB	00H
	DB	00H
	DB	00H
	DB	00H
	DB	00H
	DB	00H
	DB	00H
	DB	00H
	DB	00H
	DB	00H
	DB	00H
	DB	00H
	DB	00H
	DB	00H
	DB	00H
	DB	00H
	DB	00H
	DB	00H
	DB	00H
	DB	00H
	DB	00H
	DB	00H
	DB	00H
	DB	00H
	DB	00H
	DB	00H
	DB	00H
	DB	00H
	DB	00H
	DB	00H
	DB	00H
	DB	00H
	DB	00H
	DB	00H
	DB	00H
	DB	00H
	DB	00H
	DB	00H
	DB	00H
	DB	00H
	DB	00H
	DB	00H
	DB	00H
	DB	00H
	DB	00H
	DB	00H
	DB	00H
	DB	00H
	DB	00H
	DB	00H
	DB	00H
	DB	00H
	DB	00H
	DB	00H
	DB	00H
	DB	00H
	DB	00H
	DB	00H
	DB	00H
	DB	00H
	DB	00H
	DB	00H
	DB	00H
	DB	00H
	DB	00H
	DB	00H
	DB	00H
	DB	00H
	DB	00H
	DB	00H
	DB	00H
	DB	00H
	DB	00H
	DB	00H
	DB	00H
	DB	00H
	DB	00H
	DB	00H
	DB	00H
	DB	00H
	DB	00H
	DB	00H
	DB	00H
	DB	00H
	DB	00H
	DB	00H
	DB	00H
	DB	00H
	DB	00H
	DB	00H
	DB	00H
	DB	00H
	DB	00H
	DB	00H
	DB	00H
	DB	00H
	DB	00H
	DB	00H
	DB	00H
	DB	00H
	DB	00H
	DB	00H
	DB	00H
	DB	00H
	DB	00H
	DB	00H
	DB	00H
	DB	00H
	DB	00H
	DB	00H
	DB	00H
	DB	00H
	DB	00H
	DB	00H
	DB	00H
	DB	00H
	DB	00H
	DB	00H
	DB	00H
	DB	00H
	DB	00H
	DB	00H
	DB	00H
	DB	00H
	DB	00H
	DB	00H
	DB	00H
	DB	00H
	DB	00H
	DB	00H
	DB	00H
	DB	00H
	DB	00H
	DB	00H
	DB	00H
	DB	00H
	DB	00H
	DB	00H
	DB	00H
	DB	00H
	DB	00H
	DB	00H
	DB	00H
	DB	00H
	DB	00H
	DB	00H
	DB	00H
	DB	00H
	DB	00H
	DB	00H
	DB	00H
	DB	00H
	DB	00H
	DB	00H
	DB	00H
	DB	00H
	DB	00H
	DB	00H
	DB	00H
	DB	00H
	DB	00H
	DB	00H
	DB	00H
	DB	00H
	DB	00H
	DB	00H
	DB	00H
	DB	00H
	DB	00H
	DB	00H
	DB	00H
	DB	00H
	DB	00H
	DB	00H
	DB	00H
	DB	00H
	DB	00H
	DB	00H
	DB	00H
	DB	00H
	DB	00H
	DB	00H
	DB	00H
	DB	00H
	DB	00H
	DB	00H
	DB	00H
	DB	00H
	DB	00H
	DB	00H
	DB	00H
	DB	00H
	DB	00H
	DB	00H
	DB	00H
	DB	00H
	DB	00H
	DB	00H
	DB	00H
	DB	00H
	DB	00H
	DB	00H
	DB	00H
	DB	00H
	DB	00H
	DB	00H
	DB	00H
	DB	00H
	DB	00H
	DB	00H
	DB	00H
	DB	00H
	DB	00H
	DB	00H
	DB	00H
	DB	00H
	DB	00H
	DB	00H
	DB	00H
	DB	00H
	DB	00H
	DB	00H
	DB	00H
	DB	00H
	DB	00H
	DB	00H
	DB	00H
	DB	00H
	DB	00H
	DB	00H
	DB	00H
	DB	00H
	DB	00H
	DB	00H
	DB	00H
	DB	00H
	DB	00H
	DB	00H
	DB	00H
	DB	00H
	DB	00H
	DB	00H
	DB	00H
	DB	00H
	DB	00H
	DB	00H
	DB	00H
	DB	00H
	DB	00H
	DB	00H
	DB	00H
	DB	00H
	DB	00H
	DB	00H
	DB	00H
	DB	00H
	DB	00H
	DB	00H
	DB	00H
	DB	00H
	DB	00H
	DB	00H
	DB	00H
	DB	00H
	DB	00H
	DB	00H
	DB	00H
	DB	00H
	DB	00H
	DB	00H
	DB	00H
	DB	00H
	DB	00H
	DB	00H
	DB	00H
	DB	00H
	DB	00H
	DB	00H
	DB	00H
	DB	00H
	DB	00H
	DB	00H
	DB	00H
	DB	00H
	DB	00H
	DB	00H
	DB	00H
	DB	00H
	DB	00H
	DB	00H
	DB	00H
	DB	00H
	DB	00H
	DB	00H
	DB	00H
	DB	00H
	DB	00H
	DB	00H
	DB	00H
	DB	00H
	DB	00H
	DB	00H
	DB	00H
	DB	00H
	DB	00H
	DB	00H
	DB	00H
	DB	00H
	DB	00H
	DB	00H
	DB	00H
	DB	00H
	DB	00H
	DB	00H
	DB	00H
	DB	00H
	DB	00H
	DB	00H
	DB	00H
	DB	00H
	DB	00H
	DB	00H
	DB	00H
	DB	00H
	DB	00H
	DB	00H
	DB	00H
	DB	00H
	DB	00H
	DB	00H
	DB	00H
	DB	00H
	DB	00H
	DB	00H
	DB	00H
	DB	00H
	DB	00H
	DB	00H
	DB	00H
	DB	00H
	DB	00H
	DB	00H
	DB	00H
	DB	00H
	DB	00H
	DB	00H
	DB	00H
	DB	00H
	DB	00H
	DB	00H
	DB	00H
	DB	00H
	DB	00H
	DB	00H
	DB	00H
	DB	00H
	DB	00H
	DB	00H
	DB	00H
	DB	00H
	DB	00H
	DB	00H
	DB	00H
	DB	00H
	DB	00H
	DB	00H
	DB	00H
	DB	00H
	DB	00H
	DB	00H
	DB	00H
	DB	00H
	DB	00H
	DB	00H
	DB	00H
	DB	00H
	DB	00H
	DB	00H
	DB	00H
	DB	00H
	DB	00H
	DB	00H
	DB	00H
	DB	00H
	DB	00H
	DB	00H
	DB	00H
	DB	00H
	DB	00H
	DB	00H
	DB	00H
	DB	00H
	DB	00H
	DB	00H
	DB	00H
	DB	00H
	DB	00H
	DB	00H
	DB	00H
	DB	00H
	DB	00H
	DB	00H
	DB	00H
	DB	00H
	DB	00H
	DB	00H
	DB	00H
	DB	00H
	DB	00H
	DB	00H
	DB	00H
	DB	00H
	DB	00H
	DB	00H
	DB	00H
	DB	00H
	DB	00H
	DB	00H
	DB	00H
	DB	00H
	DB	00H
	DB	00H
	DB	00H
	DB	00H
	DB	00H
	DB	00H
	DB	00H
	DB	00H
	DB	00H
	DB	00H
	DB	00H
	DB	00H
	DB	00H
	DB	00H
	DB	00H
	DB	00H
	DB	00H
	DB	00H
	DB	00H
	DB	00H
	DB	00H
	DB	00H
	DB	00H
	DB	00H
	DB	00H
	DB	00H
	DB	00H
	DB	00H
	DB	00H
	DB	00H
	DB	00H
	DB	00H
	DB	00H
	DB	00H
	DB	00H
	DB	00H
	DB	00H
	DB	00H
	DB	00H
	DB	00H
	DB	00H
	DB	00H
	DB	00H
	DB	00H
	DB	00H
	DB	00H
	DB	00H
	DB	00H
	DB	00H
	DB	00H
	DB	00H
	DB	00H
	DB	00H
	DB	00H
	DB	00H
	DB	00H
	DB	00H
	DB	00H
	DB	00H
	DB	00H
	DB	00H
	DB	00H
	DB	00H
	DB	00H
	DB	00H
	DB	00H
	DB	00H
	DB	00H
	DB	00H
	DB	00H
	DB	00H
	DB	00H
	DB	00H
	DB	00H
	DB	00H
	DB	00H
	DB	00H
	DB	00H
	DB	00H
	DB	00H
	DB	00H
	DB	00H
	DB	00H
	DB	00H
	DB	00H
	DB	00H
	DB	00H
	DB	00H
	DB	00H
	DB	00H
	DB	00H
	DB	00H
	DB	00H
	DB	00H
	DB	00H
	DB	00H
	DB	00H
	DB	00H
	DB	00H
	DB	00H
	DB	00H
	DB	00H
	DB	00H
	DB	00H
	DB	00H
	DB	00H
	DB	00H
	DB	00H
	DB	00H
	DB	00H
	DB	00H
	DB	00H
	DB	00H
	DB	00H
	DB	00H
	DB	00H
	DB	00H
	DB	00H
	DB	00H
	DB	00H
	DB	00H
	DB	00H
	DB	00H
	DB	00H
	DB	00H
	DB	00H
	DB	00H
	DB	00H
	DB	00H
	DB	00H
	DB	00H
	DB	00H
	DB	00H
	DB	00H
	DB	00H
	DB	00H
	DB	00H
	DB	00H
	DB	00H
	DB	00H
	DB	00H
	DB	00H
	DB	00H
	DB	00H
	DB	00H
	DB	00H
	DB	00H
	DB	00H
	DB	00H
	DB	00H
	DB	00H
	DB	00H
	DB	00H
	DB	00H
	DB	00H
	DB	00H
	DB	00H
	DB	00H
	DB	00H
	DB	00H
	DB	00H
	DB	00H
	DB	00H
	DB	00H
	DB	00H
	DB	00H
	DB	00H
	DB	00H
	DB	00H
	DB	00H
	DB	00H
	DB	00H
	DB	00H
	DB	00H
	DB	00H
	DB	00H
	DB	00H
	DB	00H
	DB	00H
	DB	00H
	DB	00H
	DB	00H
	DB	00H
	DB	00H
	DB	00H
	DB	00H
	DB	00H
	DB	00H
	DB	00H
	DB	00H
	DB	00H
	DB	00H
	DB	00H
	DB	00H
	DB	00H
	DB	00H
	DB	00H
	DB	00H
	DB	00H
	DB	00H
	DB	00H
	DB	00H
	DB	00H
	DB	00H
	DB	00H
	DB	00H
	DB	00H
	DB	00H
	DB	00H
	DB	00H
	DB	00H
	DB	00H
	DB	00H
	DB	00H
	DB	00H
	DB	00H
	DB	00H
	DB	00H
	DB	00H
	DB	00H
	DB	00H
	DB	00H
	DB	00H
	DB	00H
	DB	00H
	DB	00H
	DB	00H
	DB	00H
	DB	00H
	DB	00H
	DB	00H
	DB	00H
	DB	00H
	DB	00H
	DB	00H
	DB	00H
	DB	00H
	DB	00H
	DB	00H
	DB	00H
	DB	00H
	DB	00H
	DB	00H
	DB	00H
	DB	00H
	DB	00H
	DB	00H
	DB	00H
	DB	00H
	DB	00H
	DB	00H
	DB	00H
	DB	00H
	DB	00H
	DB	00H
	DB	00H
	DB	00H
	DB	00H
	DB	00H
	DB	00H
	DB	00H
	DB	00H
	DB	00H
	DB	00H
	DB	00H
	DB	00H
	DB	00H
	DB	00H
	DB	00H
	DB	00H
	DB	00H
	DB	00H
	DB	00H
	DB	00H
	DB	00H
	DB	00H
	DB	00H
	DB	00H
	DB	00H
	DB	00H
	DB	00H
	DB	00H
	DB	00H
	DB	00H
	DB	00H
	DB	00H
	DB	00H
	DB	00H
	DB	00H
	DB	00H
	DB	00H
	DB	00H
	DB	00H
	DB	00H
	DB	00H
	DB	00H
	DB	00H
	DB	00H
	DB	00H
	DB	00H
	DB	00H
	DB	00H
	DB	00H
	DB	00H
	DB	00H
	DB	00H
	DB	00H
	DB	00H
	DB	00H
	DB	00H
	DB	00H
	DB	00H
	DB	00H
	DB	00H
	DB	00H
	DB	00H
	DB	00H
	DB	00H
	DB	00H
	DB	00H
	DB	00H
	DB	00H
	DB	00H
	DB	00H
	DB	00H
	DB	00H
	DB	00H
	DB	00H
	DB	00H
	DB	00H
	DB	00H
	DB	00H
	DB	00H
	DB	00H
	DB	00H
	DB	00H
	DB	00H
	DB	00H
	DB	00H
	DB	00H
	DB	00H
	DB	00H
	DB	00H
	DB	00H
	DB	00H
	DB	00H
	DB	00H
	DB	00H
	DB	00H
	DB	00H
	DB	00H
	DB	00H
	DB	00H
	DB	00H
	DB	00H
	DB	00H
	DB	00H
	DB	00H
	DB	00H
	DB	00H
	DB	00H
	DB	00H
	DB	00H
	DB	00H
	DB	00H
	DB	00H
	DB	00H
	DB	00H
	DB	00H
	DB	00H
	DB	00H
	DB	00H
	DB	00H
	DB	00H
	DB	00H
	DB	00H
	DB	00H
	DB	00H
	DB	00H
	DB	00H
	DB	00H
	DB	00H
	DB	00H
	DB	00H
	DB	00H
	DB	00H
	DB	00H
	DB	00H
	DB	00H
	DB	00H
	DB	00H
	DB	00H
	DB	00H
	DB	00H
	DB	00H
	DB	00H
	DB	00H
	DB	00H
	DB	00H
	DB	00H
	DB	00H
	DB	00H
	DB	00H
	DB	00H
	DB	00H
	DB	00H
	DB	00H
	DB	00H
	DB	00H
	DB	00H
	DB	00H
	DB	00H
	DB	00H
	DB	00H
	DB	00H
	DB	00H
	DB	00H
	DB	00H
	DB	00H
	DB	00H
	DB	00H
	DB	00H
	DB	00H
	DB	00H
	DB	00H
	DB	00H
	DB	00H
	DB	00H
	DB	00H
	DB	00H
	DB	00H
	DB	00H
	DB	00H
	DB	00H
	DB	00H
	DB	00H
	DB	00H
	DB	00H
	DB	00H
	DB	00H
	DB	00H
	DB	00H
	DB	00H
	DB	00H
	DB	00H
	DB	00H
	DB	00H
	DB	00H
	DB	00H
	DB	00H
	DB	00H
	DB	00H
	DB	00H
	DB	00H
	DB	00H
	DB	00H
	DB	00H
	DB	00H
	DB	00H
	DB	00H
	DB	00H
	DB	00H
	DB	00H
CONST	ENDS
END
