; Listing generated by Microsoft (R) Optimizing Compiler Version 19.37.32822.0 

	TITLE	C:\TouchGFXProjects\KraftHeinz_DS3600\TouchGFX\build\Debug\obj\image_mdi-arrow-back-selected.obj
	.686P
	.XMM
	include listing.inc
	.model	flat

INCLUDELIB MSVCRTD
INCLUDELIB OLDNAMES

PUBLIC	?image_mdi_arrow_back_selected@@3QBEB		; image_mdi_arrow_back_selected
msvcjmc	SEGMENT
__38966392_Config@hpp DB 01H
__F6101F48_image_mdi-arrow-back-selected@cpp DB 01H
msvcjmc	ENDS
CONST	SEGMENT
?image_mdi_arrow_back_selected@@3QBEB DB 0d7H		; image_mdi_arrow_back_selected
	DB	03H
	DB	0d7H
	DB	03H
	DB	0f7H
	DB	03H
	DB	0d7H
	DB	03H
	DB	0d7H
	DB	03H
	DB	0f7H
	DB	03H
	DB	0d7H
	DB	03H
	DB	0d7H
	DB	03H
	DB	0f7H
	DB	03H
	DB	0d7H
	DB	03H
	DB	0d7H
	DB	03H
	DB	0f7H
	DB	03H
	DB	0d7H
	DB	03H
	DB	0d7H
	DB	03H
	DB	0f7H
	DB	03H
	DB	0d7H
	DB	03H
	DB	0d7H
	DB	03H
	DB	0f7H
	DB	03H
	DB	0d7H
	DB	03H
	DB	0d7H
	DB	03H
	DB	0f7H
	DB	03H
	DB	0d7H
	DB	03H
	DB	0d7H
	DB	03H
	DB	0f7H
	DB	03H
	DB	0d7H
	DB	03H
	DB	0d7H
	DB	03H
	DB	0f7H
	DB	03H
	DB	0d7H
	DB	03H
	DB	0d7H
	DB	03H
	DB	0f7H
	DB	03H
	DB	0d7H
	DB	03H
	DB	0d7H
	DB	03H
	DB	0d7H
	DB	03H
	DB	0f7H
	DB	03H
	DB	0f7H
	DB	03H
	DB	0d7H
	DB	03H
	DB	0f7H
	DB	03H
	DB	0d7H
	DB	03H
	DB	0f7H
	DB	03H
	DB	0d7H
	DB	03H
	DB	0f7H
	DB	03H
	DB	0d7H
	DB	03H
	DB	0f7H
	DB	03H
	DB	0f7H
	DB	03H
	DB	0d7H
	DB	03H
	DB	0f7H
	DB	03H
	DB	0d7H
	DB	03H
	DB	0f7H
	DB	03H
	DB	0d7H
	DB	03H
	DB	0f7H
	DB	03H
	DB	0d7H
	DB	03H
	DB	0f7H
	DB	03H
	DB	0f7H
	DB	03H
	DB	0d7H
	DB	03H
	DB	0f7H
	DB	03H
	DB	0d7H
	DB	03H
	DB	0f7H
	DB	03H
	DB	0d7H
	DB	03H
	DB	0f7H
	DB	03H
	DB	0d7H
	DB	03H
	DB	0f7H
	DB	03H
	DB	0f7H
	DB	03H
	DB	0d7H
	DB	03H
	DB	0f7H
	DB	03H
	DB	0d7H
	DB	03H
	DB	0f8H
	DB	03H
	DB	0d7H
	DB	03H
	DB	0f8H
	DB	03H
	DB	0d8H
	DB	03H
	DB	0f7H
	DB	03H
	DB	0d8H
	DB	03H
	DB	0f8H
	DB	03H
	DB	0d7H
	DB	03H
	DB	0f8H
	DB	03H
	DB	0d8H
	DB	03H
	DB	0d7H
	DB	03H
	DB	0f8H
	DB	03H
	DB	0d8H
	DB	03H
	DB	0f7H
	DB	03H
	DB	0d8H
	DB	03H
	DB	0f8H
	DB	03H
	DB	0d7H
	DB	03H
	DB	0f8H
	DB	03H
	DB	0d8H
	DB	03H
	DB	0d7H
	DB	03H
	DB	0f8H
	DB	03H
	DB	0d8H
	DB	03H
	DB	0f7H
	DB	03H
	DB	0d8H
	DB	03H
	DB	0f8H
	DB	03H
	DB	0d7H
	DB	03H
	DB	0f8H
	DB	03H
	DB	0d8H
	DB	03H
	DB	0d7H
	DB	03H
	DB	0f8H
	DB	03H
	DB	0d7H
	DB	03H
	DB	0f7H
	DB	03H
	DB	0d7H
	DB	03H
	DB	0d7H
	DB	03H
	DB	0f7H
	DB	03H
	DB	0f7H
	DB	03H
	DB	0d7H
	DB	03H
	DB	0f7H
	DB	03H
	DB	0d7H
	DB	03H
	DB	0f7H
	DB	03H
	DB	0f7H
	DB	03H
	DB	0d7H
	DB	03H
	DB	0f7H
	DB	03H
	DB	0d7H
	DB	03H
	DB	0f7H
	DB	03H
	DB	0d7H
	DB	03H
	DB	0f7H
	DB	03H
	DB	0d7H
	DB	03H
	DB	0f7H
	DB	03H
	DB	0f7H
	DB	03H
	DB	0d7H
	DB	03H
	DB	0f7H
	DB	03H
	DB	0d7H
	DB	03H
	DB	0f7H
	DB	03H
	DB	0d7H
	DB	03H
	DB	0f7H
	DB	03H
	DB	0d7H
	DB	03H
	DB	0f7H
	DB	03H
	DB	0f7H
	DB	03H
	DB	0d7H
	DB	03H
	DB	0f7H
	DB	03H
	DB	0d7H
	DB	03H
	DB	0f7H
	DB	03H
	DB	0d7H
	DB	03H
	DB	0f7H
	DB	03H
	DB	0d8H
	DB	03H
	DB	0d7H
	DB	03H
	DB	0f7H
	DB	03H
	DB	0d8H
	DB	03H
	DB	0d7H
	DB	03H
	DB	0f7H
	DB	03H
	DB	0d8H
	DB	03H
	DB	0d7H
	DB	03H
	DB	0f7H
	DB	03H
	DB	0f8H
	DB	03H
	DB	0d7H
	DB	03H
	DB	0f7H
	DB	03H
	DB	0f8H
	DB	03H
	DB	0d7H
	DB	03H
	DB	0d7H
	DB	03H
	DB	0f8H
	DB	03H
	DB	0d7H
	DB	03H
	DB	0f7H
	DB	03H
	DB	0d8H
	DB	03H
	DB	0f7H
	DB	03H
	DB	0d7H
	DB	03H
	DB	0f8H
	DB	03H
	DB	0d7H
	DB	03H
	DB	0f7H
	DB	03H
	DB	0d8H
	DB	03H
	DB	0d7H
	DB	03H
	DB	0f7H
	DB	03H
	DB	0f8H
	DB	03H
	DB	0d7H
	DB	03H
	DB	0d7H
	DB	03H
	DB	0d7H
	DB	03H
	DB	0f7H
	DB	03H
	DB	0f8H
	DB	03H
	DB	0d7H
	DB	03H
	DB	0f7H
	DB	03H
	DB	0f8H
	DB	03H
	DB	0d7H
	DB	03H
	DB	0f7H
	DB	03H
	DB	0f8H
	DB	03H
	DB	0d7H
	DB	03H
	DB	0d7H
	DB	03H
	DB	0f8H
	DB	03H
	DB	0d7H
	DB	03H
	DB	0d7H
	DB	03H
	DB	0f8H
	DB	03H
	DB	0b9H
	DB	034H
	DB	0b9H
	DB	034H
	DB	0d7H
	DB	03H
	DB	0f7H
	DB	03H
	DB	0d8H
	DB	03H
	DB	0f7H
	DB	03H
	DB	0d7H
	DB	03H
	DB	0f8H
	DB	03H
	DB	0d7H
	DB	03H
	DB	0f7H
	DB	03H
	DB	0f8H
	DB	03H
	DB	0d7H
	DB	03H
	DB	0d7H
	DB	03H
	DB	0f8H
	DB	03H
	DB	0d7H
	DB	03H
	DB	0f7H
	DB	03H
	DB	0d8H
	DB	03H
	DB	0d7H
	DB	03H
	DB	0f7H
	DB	03H
	DB	0d7H
	DB	03H
	DB	0f7H
	DB	03H
	DB	0d7H
	DB	03H
	DB	0f7H
	DB	03H
	DB	0d7H
	DB	03H
	DB	0d7H
	DB	03H
	DB	0f7H
	DB	03H
	DB	0f7H
	DB	03H
	DB	0d7H
	DB	03H
	DB	0f7H
	DB	03H
	DB	0d7H
	DB	03H
	DB	0d7H
	DB	03H
	DB	0b9H
	DB	034H
	DB	0dfH
	DB	0f7H
	DB	0dfH
	DB	0f7H
	DB	0b9H
	DB	034H
	DB	0d7H
	DB	03H
	DB	0f7H
	DB	03H
	DB	0d7H
	DB	03H
	DB	0f7H
	DB	03H
	DB	0d7H
	DB	03H
	DB	0d7H
	DB	03H
	DB	0f7H
	DB	03H
	DB	0d7H
	DB	03H
	DB	0f7H
	DB	03H
	DB	0f7H
	DB	03H
	DB	0d7H
	DB	03H
	DB	0f7H
	DB	03H
	DB	0d7H
	DB	03H
	DB	0f7H
	DB	03H
	DB	0f7H
	DB	03H
	DB	0d8H
	DB	03H
	DB	0f7H
	DB	03H
	DB	0d7H
	DB	03H
	DB	0d8H
	DB	03H
	DB	0f7H
	DB	03H
	DB	0f8H
	DB	03H
	DB	0d7H
	DB	03H
	DB	0d7H
	DB	03H
	DB	0f8H
	DB	03H
	DB	0d7H
	DB	03H
	DB	0f8H
	DB	03H
	DB	0f7H
	DB	03H
	DB	0b9H
	DB	034H
	DB	0dfH
	DB	0f7H
	DB	0ffH
	DB	0ffH
	DB	0ffH
	DB	0ffH
	DB	0fcH
	DB	085H
	DB	0d7H
	DB	03H
	DB	0f7H
	DB	03H
	DB	0d8H
	DB	03H
	DB	0f7H
	DB	03H
	DB	0f7H
	DB	03H
	DB	0d8H
	DB	03H
	DB	0f7H
	DB	03H
	DB	0d8H
	DB	03H
	DB	0d7H
	DB	03H
	DB	0f8H
	DB	03H
	DB	0d7H
	DB	03H
	DB	0f8H
	DB	03H
	DB	0d7H
	DB	03H
	DB	0d7H
	DB	03H
	DB	0d7H
	DB	03H
	DB	0f7H
	DB	03H
	DB	0d8H
	DB	03H
	DB	0f7H
	DB	03H
	DB	0f7H
	DB	03H
	DB	0d8H
	DB	03H
	DB	0f7H
	DB	03H
	DB	0f7H
	DB	03H
	DB	0d8H
	DB	03H
	DB	0d7H
	DB	03H
	DB	0f7H
	DB	03H
	DB	0d7H
	DB	03H
	DB	0b9H
	DB	034H
	DB	0dfH
	DB	0f7H
	DB	0ffH
	DB	0ffH
	DB	0ffH
	DB	0ffH
	DB	0fcH
	DB	085H
	DB	0d7H
	DB	03H
	DB	0f7H
	DB	03H
	DB	0d8H
	DB	03H
	DB	0d7H
	DB	03H
	DB	0f7H
	DB	03H
	DB	0d8H
	DB	03H
	DB	0f7H
	DB	03H
	DB	0f7H
	DB	03H
	DB	0d7H
	DB	03H
	DB	0f8H
	DB	03H
	DB	0d7H
	DB	03H
	DB	0f7H
	DB	03H
	DB	0f7H
	DB	03H
	DB	0d8H
	DB	03H
	DB	0f7H
	DB	03H
	DB	0d7H
	DB	03H
	DB	0f7H
	DB	03H
	DB	0d7H
	DB	03H
	DB	0d7H
	DB	03H
	DB	0f7H
	DB	03H
	DB	0d7H
	DB	03H
	DB	0d7H
	DB	03H
	DB	0f7H
	DB	03H
	DB	0f7H
	DB	03H
	DB	0d7H
	DB	03H
	DB	0f8H
	DB	03H
	DB	0b9H
	DB	034H
	DB	0dfH
	DB	0f7H
	DB	0ffH
	DB	0ffH
	DB	0ffH
	DB	0ffH
	DB	0fcH
	DB	085H
	DB	0d7H
	DB	03H
	DB	0f7H
	DB	03H
	DB	0f7H
	DB	03H
	DB	0d7H
	DB	03H
	DB	0f7H
	DB	03H
	DB	0d7H
	DB	03H
	DB	0d8H
	DB	03H
	DB	0f7H
	DB	03H
	DB	0d7H
	DB	03H
	DB	0f7H
	DB	03H
	DB	0d7H
	DB	03H
	DB	0f7H
	DB	03H
	DB	0d7H
	DB	03H
	DB	0d7H
	DB	03H
	DB	0f7H
	DB	03H
	DB	0d7H
	DB	03H
	DB	0f7H
	DB	03H
	DB	0d7H
	DB	03H
	DB	0f8H
	DB	03H
	DB	0f7H
	DB	03H
	DB	0d8H
	DB	03H
	DB	0f7H
	DB	03H
	DB	0d8H
	DB	03H
	DB	0d7H
	DB	03H
	DB	0f7H
	DB	03H
	DB	0d8H
	DB	03H
	DB	0b9H
	DB	034H
	DB	0dfH
	DB	0f7H
	DB	0ffH
	DB	0ffH
	DB	0ffH
	DB	0ffH
	DB	0fcH
	DB	085H
	DB	0d7H
	DB	03H
	DB	0d7H
	DB	03H
	DB	0f7H
	DB	03H
	DB	0d8H
	DB	03H
	DB	0f7H
	DB	03H
	DB	0f7H
	DB	03H
	DB	0d8H
	DB	03H
	DB	0f7H
	DB	03H
	DB	0d7H
	DB	03H
	DB	0d8H
	DB	03H
	DB	0f7H
	DB	03H
	DB	0f7H
	DB	03H
	DB	0d8H
	DB	03H
	DB	0f8H
	DB	03H
	DB	0d7H
	DB	03H
	DB	0f7H
	DB	03H
	DB	0d8H
	DB	03H
	DB	0d7H
	DB	03H
	DB	0d7H
	DB	03H
	DB	0f8H
	DB	03H
	DB	0d7H
	DB	03H
	DB	0f7H
	DB	03H
	DB	0f7H
	DB	03H
	DB	0d7H
	DB	03H
	DB	0f8H
	DB	03H
	DB	0d7H
	DB	03H
	DB	0b9H
	DB	034H
	DB	0dfH
	DB	0f7H
	DB	0ffH
	DB	0ffH
	DB	0ffH
	DB	0ffH
	DB	0fcH
	DB	085H
	DB	0d7H
	DB	03H
	DB	0d7H
	DB	03H
	DB	0f7H
	DB	03H
	DB	0d7H
	DB	03H
	DB	0d8H
	DB	03H
	DB	0f7H
	DB	03H
	DB	0d7H
	DB	03H
	DB	0f7H
	DB	03H
	DB	0f7H
	DB	03H
	DB	0d7H
	DB	03H
	DB	0f8H
	DB	03H
	DB	0d7H
	DB	03H
	DB	0d7H
	DB	03H
	DB	0f7H
	DB	03H
	DB	0d7H
	DB	03H
	DB	0f7H
	DB	03H
	DB	0f8H
	DB	03H
	DB	0d7H
	DB	03H
	DB	0d7H
	DB	03H
	DB	0f7H
	DB	03H
	DB	0d7H
	DB	03H
	DB	0d7H
	DB	03H
	DB	0f7H
	DB	03H
	DB	0d8H
	DB	03H
	DB	0f7H
	DB	03H
	DB	0f7H
	DB	03H
	DB	0b9H
	DB	034H
	DB	0dfH
	DB	0f7H
	DB	0ffH
	DB	0ffH
	DB	0ffH
	DB	0ffH
	DB	0fbH
	DB	085H
	DB	0d7H
	DB	03H
	DB	0f7H
	DB	03H
	DB	0f7H
	DB	03H
	DB	0f7H
	DB	03H
	DB	0d7H
	DB	03H
	DB	0f7H
	DB	03H
	DB	0d8H
	DB	03H
	DB	0d7H
	DB	03H
	DB	0f7H
	DB	03H
	DB	0d8H
	DB	03H
	DB	0f7H
	DB	03H
	DB	0f7H
	DB	03H
	DB	0d8H
	DB	03H
	DB	0f7H
	DB	03H
	DB	0f7H
	DB	03H
	DB	0d7H
	DB	03H
	DB	0d8H
	DB	03H
	DB	0f7H
	DB	03H
	DB	0d7H
	DB	03H
	DB	0f7H
	DB	03H
	DB	0f8H
	DB	03H
	DB	0d7H
	DB	03H
	DB	0f7H
	DB	03H
	DB	0d8H
	DB	03H
	DB	0d7H
	DB	03H
	DB	0d7H
	DB	03H
	DB	0b9H
	DB	034H
	DB	0dfH
	DB	0f7H
	DB	0ffH
	DB	0ffH
	DB	0ffH
	DB	0ffH
	DB	0fcH
	DB	085H
	DB	0d7H
	DB	03H
	DB	0d7H
	DB	03H
	DB	0d8H
	DB	03H
	DB	0f7H
	DB	03H
	DB	0d8H
	DB	03H
	DB	0f7H
	DB	03H
	DB	0f7H
	DB	03H
	DB	0d7H
	DB	03H
	DB	0f8H
	DB	03H
	DB	0d7H
	DB	03H
	DB	0d7H
	DB	03H
	DB	0f7H
	DB	03H
	DB	0d7H
	DB	03H
	DB	0d7H
	DB	03H
	DB	0f8H
	DB	03H
	DB	0d7H
	DB	03H
	DB	0f7H
	DB	03H
	DB	0d7H
	DB	03H
	DB	0f7H
	DB	03H
	DB	0f7H
	DB	03H
	DB	0d7H
	DB	03H
	DB	0d7H
	DB	03H
	DB	0f8H
	DB	03H
	DB	0f7H
	DB	03H
	DB	0f7H
	DB	03H
	DB	0d7H
	DB	03H
	DB	0b9H
	DB	034H
	DB	0dfH
	DB	0f7H
	DB	0ffH
	DB	0ffH
	DB	0ffH
	DB	0ffH
	DB	03eH
	DB	0d7H
	DB	07bH
	DB	065H
	DB	07bH
	DB	065H
	DB	07bH
	DB	065H
	DB	07aH
	DB	065H
	DB	07bH
	DB	065H
	DB	07bH
	DB	065H
	DB	07bH
	DB	065H
	DB	07bH
	DB	065H
	DB	07bH
	DB	065H
	DB	07bH
	DB	065H
	DB	07bH
	DB	065H
	DB	07bH
	DB	065H
	DB	07bH
	DB	065H
	DB	07bH
	DB	065H
	DB	07bH
	DB	065H
	DB	0f9H
	DB	044H
	DB	0d7H
	DB	03H
	DB	0f8H
	DB	03H
	DB	0d7H
	DB	03H
	DB	0d7H
	DB	03H
	DB	0f8H
	DB	03H
	DB	0d7H
	DB	03H
	DB	0f7H
	DB	03H
	DB	0d7H
	DB	03H
	DB	0d8H
	DB	03H
	DB	0f7H
	DB	03H
	DB	0b9H
	DB	034H
	DB	0dfH
	DB	0f7H
	DB	0ffH
	DB	0ffH
	DB	0ffH
	DB	0ffH
	DB	0ffH
	DB	0ffH
	DB	0ffH
	DB	0ffH
	DB	0ffH
	DB	0ffH
	DB	0ffH
	DB	0ffH
	DB	0ffH
	DB	0ffH
	DB	0ffH
	DB	0ffH
	DB	0ffH
	DB	0ffH
	DB	0ffH
	DB	0ffH
	DB	0ffH
	DB	0ffH
	DB	0ffH
	DB	0ffH
	DB	0ffH
	DB	0ffH
	DB	0ffH
	DB	0ffH
	DB	0ffH
	DB	0ffH
	DB	0ffH
	DB	0ffH
	DB	0ffH
	DB	0ffH
	DB	0ffH
	DB	0ffH
	DB	0ffH
	DB	0ffH
	DB	07dH
	DB	0a6H
	DB	0f7H
	DB	03H
	DB	0d7H
	DB	03H
	DB	0f8H
	DB	03H
	DB	0d7H
	DB	03H
	DB	0d7H
	DB	03H
	DB	0f7H
	DB	03H
	DB	0f7H
	DB	03H
	DB	0d7H
	DB	03H
	DB	0d7H
	DB	03H
	DB	0f8H
	DB	03H
	DB	0b9H
	DB	034H
	DB	0bfH
	DB	0f7H
	DB	0ffH
	DB	0ffH
	DB	0ffH
	DB	0ffH
	DB	0ffH
	DB	0ffH
	DB	0ffH
	DB	0ffH
	DB	0ffH
	DB	0ffH
	DB	0ffH
	DB	0ffH
	DB	0ffH
	DB	0ffH
	DB	0ffH
	DB	0ffH
	DB	0ffH
	DB	0ffH
	DB	0ffH
	DB	0ffH
	DB	0ffH
	DB	0ffH
	DB	0ffH
	DB	0ffH
	DB	0ffH
	DB	0ffH
	DB	0ffH
	DB	0ffH
	DB	0ffH
	DB	0ffH
	DB	0ffH
	DB	0ffH
	DB	0ffH
	DB	0ffH
	DB	0ffH
	DB	0ffH
	DB	0ffH
	DB	0ffH
	DB	07dH
	DB	0a6H
	DB	0d7H
	DB	03H
	DB	0f7H
	DB	03H
	DB	0f7H
	DB	03H
	DB	0f7H
	DB	03H
	DB	0d7H
	DB	03H
	DB	0d7H
	DB	03H
	DB	0f8H
	DB	03H
	DB	0f7H
	DB	03H
	DB	0d7H
	DB	03H
	DB	0d7H
	DB	03H
	DB	0f7H
	DB	03H
	DB	0b9H
	DB	034H
	DB	0dfH
	DB	0f7H
	DB	0ffH
	DB	0ffH
	DB	0ffH
	DB	0ffH
	DB	03eH
	DB	0d7H
	DB	07bH
	DB	065H
	DB	07aH
	DB	065H
	DB	07aH
	DB	065H
	DB	07bH
	DB	065H
	DB	07aH
	DB	065H
	DB	07aH
	DB	065H
	DB	07aH
	DB	065H
	DB	07aH
	DB	065H
	DB	07aH
	DB	065H
	DB	07aH
	DB	065H
	DB	07aH
	DB	065H
	DB	07aH
	DB	065H
	DB	07aH
	DB	065H
	DB	07aH
	DB	065H
	DB	07bH
	DB	065H
	DB	0f9H
	DB	044H
	DB	0d7H
	DB	03H
	DB	0d8H
	DB	03H
	DB	0f7H
	DB	03H
	DB	0d7H
	DB	03H
	DB	0f8H
	DB	03H
	DB	0d7H
	DB	03H
	DB	0d7H
	DB	03H
	DB	0f8H
	DB	03H
	DB	0f7H
	DB	03H
	DB	0d7H
	DB	03H
	DB	0d7H
	DB	03H
	DB	0d7H
	DB	03H
	DB	0b9H
	DB	034H
	DB	0dfH
	DB	0f7H
	DB	0ffH
	DB	0ffH
	DB	0ffH
	DB	0ffH
	DB	0fcH
	DB	085H
	DB	0f7H
	DB	03H
	DB	0d7H
	DB	03H
	DB	0f7H
	DB	03H
	DB	0d7H
	DB	03H
	DB	0f7H
	DB	03H
	DB	0d7H
	DB	03H
	DB	0d8H
	DB	03H
	DB	0f7H
	DB	03H
	DB	0d7H
	DB	03H
	DB	0f7H
	DB	03H
	DB	0f7H
	DB	03H
	DB	0d7H
	DB	03H
	DB	0f7H
	DB	03H
	DB	0f7H
	DB	03H
	DB	0d7H
	DB	03H
	DB	0f7H
	DB	03H
	DB	0f7H
	DB	03H
	DB	0d8H
	DB	03H
	DB	0d7H
	DB	03H
	DB	0f7H
	DB	03H
	DB	0f7H
	DB	03H
	DB	0d7H
	DB	03H
	DB	0d7H
	DB	03H
	DB	0f8H
	DB	03H
	DB	0f7H
	DB	03H
	DB	0d8H
	DB	03H
	DB	0f7H
	DB	03H
	DB	0d7H
	DB	03H
	DB	0b9H
	DB	034H
	DB	0dfH
	DB	0f7H
	DB	0ffH
	DB	0ffH
	DB	0ffH
	DB	0ffH
	DB	0fcH
	DB	085H
	DB	0f7H
	DB	03H
	DB	0d7H
	DB	03H
	DB	0f8H
	DB	03H
	DB	0d7H
	DB	03H
	DB	0f8H
	DB	03H
	DB	0f7H
	DB	03H
	DB	0d7H
	DB	03H
	DB	0d8H
	DB	03H
	DB	0f8H
	DB	03H
	DB	0d7H
	DB	03H
	DB	0d8H
	DB	03H
	DB	0f8H
	DB	03H
	DB	0d7H
	DB	03H
	DB	0d7H
	DB	03H
	DB	0f8H
	DB	03H
	DB	0f7H
	DB	03H
	DB	0d7H
	DB	03H
	DB	0f7H
	DB	03H
	DB	0d7H
	DB	03H
	DB	0d7H
	DB	03H
	DB	0f7H
	DB	03H
	DB	0d7H
	DB	03H
	DB	0d7H
	DB	03H
	DB	0f8H
	DB	03H
	DB	0f7H
	DB	03H
	DB	0d7H
	DB	03H
	DB	0d8H
	DB	03H
	DB	0d7H
	DB	03H
	DB	0b9H
	DB	034H
	DB	0dfH
	DB	0f7H
	DB	0ffH
	DB	0ffH
	DB	0ffH
	DB	0ffH
	DB	0fcH
	DB	085H
	DB	0f7H
	DB	03H
	DB	0d7H
	DB	03H
	DB	0d7H
	DB	03H
	DB	0f7H
	DB	03H
	DB	0f7H
	DB	03H
	DB	0d7H
	DB	03H
	DB	0f7H
	DB	03H
	DB	0f7H
	DB	03H
	DB	0d7H
	DB	03H
	DB	0f7H
	DB	03H
	DB	0d7H
	DB	03H
	DB	0f7H
	DB	03H
	DB	0d8H
	DB	03H
	DB	0d7H
	DB	03H
	DB	0f7H
	DB	03H
	DB	0d7H
	DB	03H
	DB	0f8H
	DB	03H
	DB	0d7H
	DB	03H
	DB	0d7H
	DB	03H
	DB	0f8H
	DB	03H
	DB	0f7H
	DB	03H
	DB	0d7H
	DB	03H
	DB	0d7H
	DB	03H
	DB	0f7H
	DB	03H
	DB	0f7H
	DB	03H
	DB	0d7H
	DB	03H
	DB	0f7H
	DB	03H
	DB	0d7H
	DB	03H
	DB	0b9H
	DB	034H
	DB	0dfH
	DB	0f7H
	DB	0ffH
	DB	0ffH
	DB	0ffH
	DB	0ffH
	DB	0fcH
	DB	085H
	DB	0f7H
	DB	03H
	DB	0d8H
	DB	03H
	DB	0d7H
	DB	03H
	DB	0f8H
	DB	03H
	DB	0d7H
	DB	03H
	DB	0d7H
	DB	03H
	DB	0f8H
	DB	03H
	DB	0d7H
	DB	03H
	DB	0f7H
	DB	03H
	DB	0f7H
	DB	03H
	DB	0d7H
	DB	03H
	DB	0f7H
	DB	03H
	DB	0f7H
	DB	03H
	DB	0d8H
	DB	03H
	DB	0d7H
	DB	03H
	DB	0f7H
	DB	03H
	DB	0f7H
	DB	03H
	DB	0d7H
	DB	03H
	DB	0f7H
	DB	03H
	DB	0f8H
	DB	03H
	DB	0d7H
	DB	03H
	DB	0f8H
	DB	03H
	DB	0d7H
	DB	03H
	DB	0d8H
	DB	03H
	DB	0f7H
	DB	03H
	DB	0f7H
	DB	03H
	DB	0d8H
	DB	03H
	DB	0d7H
	DB	03H
	DB	0b9H
	DB	034H
	DB	0dfH
	DB	0f7H
	DB	0ffH
	DB	0ffH
	DB	0ffH
	DB	0ffH
	DB	0fcH
	DB	085H
	DB	0f7H
	DB	03H
	DB	0f7H
	DB	03H
	DB	0d7H
	DB	03H
	DB	0f8H
	DB	03H
	DB	0f7H
	DB	03H
	DB	0d7H
	DB	03H
	DB	0d8H
	DB	03H
	DB	0f8H
	DB	03H
	DB	0d7H
	DB	03H
	DB	0d8H
	DB	03H
	DB	0f7H
	DB	03H
	DB	0f7H
	DB	03H
	DB	0d8H
	DB	03H
	DB	0f7H
	DB	03H
	DB	0d7H
	DB	03H
	DB	0d7H
	DB	03H
	DB	0d7H
	DB	03H
	DB	0d7H
	DB	03H
	DB	0f7H
	DB	03H
	DB	0d7H
	DB	03H
	DB	0f7H
	DB	03H
	DB	0f8H
	DB	03H
	DB	0d7H
	DB	03H
	DB	0f7H
	DB	03H
	DB	0d8H
	DB	03H
	DB	0f7H
	DB	03H
	DB	0d7H
	DB	03H
	DB	0d7H
	DB	03H
	DB	0b9H
	DB	034H
	DB	0dfH
	DB	0f7H
	DB	0ffH
	DB	0ffH
	DB	0ffH
	DB	0ffH
	DB	0fcH
	DB	085H
	DB	0f7H
	DB	03H
	DB	0d7H
	DB	03H
	DB	0d7H
	DB	03H
	DB	0f7H
	DB	03H
	DB	0f7H
	DB	03H
	DB	0d7H
	DB	03H
	DB	0f7H
	DB	03H
	DB	0d7H
	DB	03H
	DB	0f8H
	DB	03H
	DB	0d7H
	DB	03H
	DB	0d7H
	DB	03H
	DB	0f7H
	DB	03H
	DB	0f8H
	DB	03H
	DB	0d7H
	DB	03H
	DB	0d7H
	DB	03H
	DB	0f7H
	DB	03H
	DB	0d8H
	DB	03H
	DB	0f7H
	DB	03H
	DB	0d7H
	DB	03H
	DB	0d7H
	DB	03H
	DB	0f7H
	DB	03H
	DB	0d7H
	DB	03H
	DB	0d7H
	DB	03H
	DB	0f7H
	DB	03H
	DB	0f7H
	DB	03H
	DB	0d7H
	DB	03H
	DB	0f7H
	DB	03H
	DB	0d7H
	DB	03H
	DB	0b9H
	DB	034H
	DB	0dfH
	DB	0efH
	DB	0ffH
	DB	0ffH
	DB	0ffH
	DB	0ffH
	DB	0bbH
	DB	075H
	DB	0f7H
	DB	03H
	DB	0d8H
	DB	03H
	DB	0d7H
	DB	03H
	DB	0f8H
	DB	03H
	DB	0f7H
	DB	03H
	DB	0d7H
	DB	03H
	DB	0f7H
	DB	03H
	DB	0f7H
	DB	03H
	DB	0d8H
	DB	03H
	DB	0d7H
	DB	03H
	DB	0f7H
	DB	03H
	DB	0d7H
	DB	03H
	DB	0f8H
	DB	03H
	DB	0f7H
	DB	03H
	DB	0d7H
	DB	03H
	DB	0f7H
	DB	03H
	DB	0f8H
	DB	03H
	DB	0d7H
	DB	03H
	DB	0f8H
	DB	03H
	DB	0f7H
	DB	03H
	DB	0d8H
	DB	03H
	DB	0f7H
	DB	03H
	DB	0d7H
	DB	03H
	DB	0d8H
	DB	03H
	DB	0f8H
	DB	03H
	DB	0f7H
	DB	03H
	DB	0d7H
	DB	03H
	DB	0d7H
	DB	03H
	DB	0b9H
	DB	034H
	DB	0dfH
	DB	0f7H
	DB	0dfH
	DB	0f7H
	DB	0b9H
	DB	034H
	DB	0d7H
	DB	03H
	DB	0f7H
	DB	03H
	DB	0d8H
	DB	03H
	DB	0d7H
	DB	03H
	DB	0f7H
	DB	03H
	DB	0d8H
	DB	03H
	DB	0d7H
	DB	03H
	DB	0f7H
	DB	03H
	DB	0f7H
	DB	03H
	DB	0d8H
	DB	03H
	DB	0f7H
	DB	03H
	DB	0d7H
	DB	03H
	DB	0d7H
	DB	03H
	DB	0f7H
	DB	03H
	DB	0d7H
	DB	03H
	DB	0f7H
	DB	03H
	DB	0d7H
	DB	03H
	DB	0d7H
	DB	03H
	DB	0f7H
	DB	03H
	DB	0d8H
	DB	03H
	DB	0f7H
	DB	03H
	DB	0f7H
	DB	03H
	DB	0d7H
	DB	03H
	DB	0d7H
	DB	03H
	DB	0f7H
	DB	03H
	DB	0d8H
	DB	03H
	DB	0f7H
	DB	03H
	DB	0d7H
	DB	03H
	DB	0d7H
	DB	03H
	DB	0b9H
	DB	034H
	DB	0b9H
	DB	034H
	DB	0d7H
	DB	03H
	DB	0d7H
	DB	03H
	DB	0f7H
	DB	03H
	DB	0f7H
	DB	03H
	DB	0d7H
	DB	03H
	DB	0f7H
	DB	03H
	DB	0d8H
	DB	03H
	DB	0d7H
	DB	03H
	DB	0f7H
	DB	03H
	DB	0d7H
	DB	03H
	DB	0f7H
	DB	03H
	DB	0f8H
	DB	03H
	DB	0d7H
	DB	03H
	DB	0d7H
	DB	03H
	DB	0f7H
	DB	03H
	DB	0d7H
	DB	03H
	DB	0f7H
	DB	03H
	DB	0d8H
	DB	03H
	DB	0f7H
	DB	03H
	DB	0d7H
	DB	03H
	DB	0d7H
	DB	03H
	DB	0f7H
	DB	03H
	DB	0d8H
	DB	03H
	DB	0f7H
	DB	03H
	DB	0f7H
	DB	03H
	DB	0d7H
	DB	03H
	DB	0f7H
	DB	03H
	DB	0f8H
	DB	03H
	DB	0d7H
	DB	03H
	DB	0f7H
	DB	03H
	DB	0d7H
	DB	03H
	DB	0d7H
	DB	03H
	DB	0f8H
	DB	03H
	DB	0d7H
	DB	03H
	DB	0f8H
	DB	03H
	DB	0d7H
	DB	03H
	DB	0f7H
	DB	03H
	DB	0f8H
	DB	03H
	DB	0d7H
	DB	03H
	DB	0f7H
	DB	03H
	DB	0f8H
	DB	03H
	DB	0d7H
	DB	03H
	DB	0d7H
	DB	03H
	DB	0f7H
	DB	03H
	DB	0f8H
	DB	03H
	DB	0d7H
	DB	03H
	DB	0d7H
	DB	03H
	DB	0f7H
	DB	03H
	DB	0d7H
	DB	03H
	DB	0f8H
	DB	03H
	DB	0f7H
	DB	03H
	DB	0d7H
	DB	03H
	DB	0f8H
	DB	03H
	DB	0d7H
	DB	03H
	DB	0d7H
	DB	03H
	DB	0f8H
	DB	03H
	DB	0d8H
	DB	03H
	DB	0d7H
	DB	03H
	DB	0f7H
	DB	03H
	DB	0d8H
	DB	03H
	DB	0f7H
	DB	03H
	DB	0f8H
	DB	03H
	DB	0d7H
	DB	03H
	DB	0f7H
	DB	03H
	DB	0f7H
	DB	03H
	DB	0d8H
	DB	03H
	DB	0d7H
	DB	03H
	DB	0f7H
	DB	03H
	DB	0d8H
	DB	03H
	DB	0d7H
	DB	03H
	DB	0f7H
	DB	03H
	DB	0d7H
	DB	03H
	DB	0f8H
	DB	03H
	DB	0d7H
	DB	03H
	DB	0d7H
	DB	03H
	DB	0f8H
	DB	03H
	DB	0f7H
	DB	03H
	DB	0d7H
	DB	03H
	DB	0f8H
	DB	03H
	DB	0d7H
	DB	03H
	DB	0d7H
	DB	03H
	DB	0f7H
	DB	03H
	DB	0d7H
	DB	03H
	DB	0f8H
	DB	03H
	DB	0f7H
	DB	03H
	DB	0d7H
	DB	03H
	DB	0f7H
	DB	03H
	DB	0f7H
	DB	03H
	DB	0d7H
	DB	03H
	DB	0f7H
	DB	03H
	DB	0d7H
	DB	03H
	DB	0d7H
	DB	03H
	DB	0f7H
	DB	03H
	DB	0d7H
	DB	03H
	DB	0d8H
	DB	03H
	DB	0f7H
	DB	03H
	DB	0d7H
	DB	03H
	DB	0f7H
	DB	03H
	DB	0f7H
	DB	03H
	DB	0d7H
	DB	03H
	DB	0f7H
	DB	03H
	DB	0f7H
	DB	03H
	DB	0d7H
	DB	03H
	DB	0d8H
	DB	03H
	DB	0f7H
	DB	03H
	DB	0f7H
	DB	03H
	DB	0d7H
	DB	03H
	DB	0d7H
	DB	03H
	DB	0f7H
	DB	03H
	DB	0d7H
	DB	03H
	DB	0f7H
	DB	03H
	DB	0d7H
	DB	03H
	DB	0f8H
	DB	03H
	DB	0d7H
	DB	03H
	DB	0d7H
	DB	03H
	DB	0f7H
	DB	03H
	DB	0d7H
	DB	03H
	DB	0f8H
	DB	03H
	DB	0d7H
	DB	03H
	DB	0d7H
	DB	03H
	DB	0f8H
	DB	03H
	DB	0f7H
	DB	03H
	DB	0d8H
	DB	03H
	DB	0f7H
	DB	03H
	DB	0f7H
	DB	03H
	DB	0d7H
	DB	03H
	DB	0f8H
	DB	03H
	DB	0d7H
	DB	03H
	DB	0d7H
	DB	03H
	DB	0f8H
	DB	03H
	DB	0d7H
	DB	03H
	DB	0d8H
	DB	03H
	DB	0f7H
	DB	03H
	DB	0f7H
	DB	03H
	DB	0d8H
	DB	03H
	DB	0f7H
	DB	03H
	DB	0d7H
	DB	03H
	DB	0f8H
	DB	03H
	DB	0f7H
	DB	03H
	DB	0d8H
	DB	03H
	DB	0d7H
	DB	03H
	DB	0f7H
	DB	03H
	DB	0d7H
	DB	03H
	DB	0f7H
	DB	03H
	DB	0f7H
	DB	03H
	DB	0d8H
	DB	03H
	DB	0f7H
	DB	03H
	DB	0d7H
	DB	03H
	DB	0f8H
	DB	03H
	DB	0d7H
	DB	03H
	DB	0f7H
	DB	03H
	DB	0d8H
	DB	03H
	DB	0f7H
	DB	03H
	DB	0d7H
	DB	03H
	DB	0d7H
	DB	03H
	DB	0f8H
	DB	03H
	DB	0d7H
	DB	03H
	DB	0f7H
	DB	03H
	DB	0f7H
	DB	03H
	DB	0d7H
	DB	03H
	DB	0f8H
	DB	03H
	DB	0f7H
	DB	03H
	DB	0d7H
	DB	03H
	DB	0d8H
	DB	03H
	DB	0f7H
	DB	03H
	DB	0d7H
	DB	03H
	DB	0d7H
	DB	03H
	DB	0f7H
	DB	03H
	DB	0d7H
	DB	03H
	DB	0d7H
	DB	03H
	DB	0f8H
	DB	03H
	DB	0f7H
	DB	03H
	DB	0d8H
	DB	03H
	DB	0f7H
	DB	03H
	DB	0d7H
	DB	03H
CONST	ENDS
END
