; Listing generated by Microsoft (R) Optimizing Compiler Version 19.37.32822.0 

	TITLE	C:\TouchGFXProjects\KraftHeinz_DS3600\TouchGFX\build\Debug\obj\image_battery-med5x.obj
	.686P
	.XMM
	include listing.inc
	.model	flat

INCLUDELIB MSVCRTD
INCLUDELIB OLDNAMES

PUBLIC	?image_battery_med5x@@3QBEB			; image_battery_med5x
msvcjmc	SEGMENT
__38966392_Config@hpp DB 01H
__589AACF2_image_battery-med5x@cpp DB 01H
msvcjmc	ENDS
CONST	SEGMENT
?image_battery_med5x@@3QBEB DB 00H			; image_battery_med5x
	DB	00H
	DB	00H
	DB	00H
	DB	00H
	DB	00H
	DB	00H
	DB	00H
	DB	00H
	DB	00H
	DB	00H
	DB	00H
	DB	00H
	DB	00H
	DB	00H
	DB	00H
	DB	00H
	DB	00H
	DB	00H
	DB	00H
	DB	00H
	DB	00H
	DB	00H
	DB	00H
	DB	00H
	DB	00H
	DB	00H
	DB	00H
	DB	00H
	DB	00H
	DB	00H
	DB	00H
	DB	00H
	DB	00H
	DB	00H
	DB	00H
	DB	00H
	DB	00H
	DB	00H
	DB	00H
	DB	00H
	DB	00H
	DB	00H
	DB	00H
	DB	00H
	DB	00H
	DB	00H
	DB	00H
	DB	00H
	DB	00H
	DB	00H
	DB	00H
	DB	00H
	DB	00H
	DB	00H
	DB	00H
	DB	00H
	DB	00H
	DB	00H
	DB	00H
	DB	00H
	DB	00H
	DB	00H
	DB	00H
	DB	00H
	DB	00H
	DB	00H
	DB	00H
	DB	00H
	DB	00H
	DB	00H
	DB	00H
	DB	00H
	DB	00H
	DB	00H
	DB	00H
	DB	00H
	DB	00H
	DB	00H
	DB	00H
	DB	00H
	DB	00H
	DB	00H
	DB	00H
	DB	00H
	DB	00H
	DB	00H
	DB	00H
	DB	00H
	DB	00H
	DB	00H
	DB	00H
	DB	00H
	DB	00H
	DB	00H
	DB	00H
	DB	00H
	DB	00H
	DB	00H
	DB	00H
	DB	00H
	DB	00H
	DB	00H
	DB	00H
	DB	00H
	DB	00H
	DB	00H
	DB	00H
	DB	00H
	DB	00H
	DB	00H
	DB	00H
	DB	00H
	DB	00H
	DB	00H
	DB	00H
	DB	00H
	DB	00H
	DB	00H
	DB	00H
	DB	00H
	DB	00H
	DB	00H
	DB	00H
	DB	00H
	DB	00H
	DB	00H
	DB	00H
	DB	00H
	DB	00H
	DB	00H
	DB	00H
	DB	00H
	DB	00H
	DB	00H
	DB	00H
	DB	00H
	DB	00H
	DB	00H
	DB	00H
	DB	00H
	DB	00H
	DB	00H
	DB	00H
	DB	00H
	DB	00H
	DB	00H
	DB	00H
	DB	00H
	DB	00H
	DB	00H
	DB	00H
	DB	00H
	DB	00H
	DB	00H
	DB	00H
	DB	00H
	DB	00H
	DB	00H
	DB	00H
	DB	00H
	DB	00H
	DB	00H
	DB	00H
	DB	00H
	DB	00H
	DB	00H
	DB	00H
	DB	00H
	DB	00H
	DB	00H
	DB	00H
	DB	00H
	DB	00H
	DB	00H
	DB	00H
	DB	00H
	DB	00H
	DB	00H
	DB	00H
	DB	00H
	DB	00H
	DB	00H
	DB	00H
	DB	00H
	DB	00H
	DB	00H
	DB	00H
	DB	00H
	DB	00H
	DB	00H
	DB	00H
	DB	00H
	DB	00H
	DB	00H
	DB	00H
	DB	00H
	DB	00H
	DB	00H
	DB	00H
	DB	00H
	DB	00H
	DB	00H
	DB	00H
	DB	00H
	DB	00H
	DB	00H
	DB	00H
	DB	00H
	DB	00H
	DB	00H
	DB	00H
	DB	00H
	DB	00H
	DB	00H
	DB	00H
	DB	00H
	DB	00H
	DB	00H
	DB	00H
	DB	00H
	DB	00H
	DB	00H
	DB	00H
	DB	00H
	DB	00H
	DB	00H
	DB	00H
	DB	00H
	DB	00H
	DB	00H
	DB	00H
	DB	00H
	DB	00H
	DB	00H
	DB	00H
	DB	00H
	DB	00H
	DB	00H
	DB	00H
	DB	00H
	DB	00H
	DB	00H
	DB	00H
	DB	00H
	DB	00H
	DB	00H
	DB	00H
	DB	00H
	DB	00H
	DB	00H
	DB	00H
	DB	00H
	DB	00H
	DB	00H
	DB	00H
	DB	00H
	DB	00H
	DB	00H
	DB	00H
	DB	00H
	DB	00H
	DB	00H
	DB	00H
	DB	00H
	DB	00H
	DB	00H
	DB	00H
	DB	00H
	DB	00H
	DB	00H
	DB	00H
	DB	00H
	DB	00H
	DB	00H
	DB	00H
	DB	00H
	DB	00H
	DB	00H
	DB	00H
	DB	00H
	DB	00H
	DB	00H
	DB	00H
	DB	00H
	DB	00H
	DB	00H
	DB	00H
	DB	00H
	DB	00H
	DB	00H
	DB	00H
	DB	00H
	DB	00H
	DB	00H
	DB	00H
	DB	00H
	DB	00H
	DB	00H
	DB	00H
	DB	00H
	DB	00H
	DB	00H
	DB	00H
	DB	00H
	DB	00H
	DB	00H
	DB	00H
	DB	00H
	DB	00H
	DB	00H
	DB	00H
	DB	00H
	DB	00H
	DB	00H
	DB	00H
	DB	00H
	DB	00H
	DB	00H
	DB	00H
	DB	00H
	DB	00H
	DB	00H
	DB	00H
	DB	00H
	DB	00H
	DB	00H
	DB	00H
	DB	00H
	DB	00H
	DB	00H
	DB	00H
	DB	00H
	DB	00H
	DB	00H
	DB	00H
	DB	00H
	DB	00H
	DB	00H
	DB	00H
	DB	00H
	DB	00H
	DB	00H
	DB	00H
	DB	00H
	DB	00H
	DB	00H
	DB	00H
	DB	00H
	DB	00H
	DB	00H
	DB	00H
	DB	00H
	DB	00H
	DB	00H
	DB	00H
	DB	00H
	DB	00H
	DB	00H
	DB	00H
	DB	00H
	DB	00H
	DB	00H
	DB	00H
	DB	0c0H
	DB	0bcH
	DB	0c0H
	DB	0ffH
	DB	0c0H
	DB	0bcH
	DB	0c0H
	DB	0ffH
	DB	0b8H
	DB	0bcH
	DB	0b8H
	DB	0ffH
	DB	0c0H
	DB	0bcH
	DB	0c0H
	DB	0ffH
	DB	0c0H
	DB	0bcH
	DB	0c0H
	DB	0ffH
	DB	0b8H
	DB	0bcH
	DB	0b8H
	DB	0ffH
	DB	0c0H
	DB	0bcH
	DB	0c0H
	DB	0ffH
	DB	0c0H
	DB	0bcH
	DB	0c0H
	DB	0ffH
	DB	0b8H
	DB	0bcH
	DB	0b8H
	DB	0ffH
	DB	0c0H
	DB	0bcH
	DB	0c0H
	DB	0ffH
	DB	0c0H
	DB	0bcH
	DB	0c0H
	DB	0ffH
	DB	0b8H
	DB	0bcH
	DB	0b8H
	DB	0ffH
	DB	0c0H
	DB	0bcH
	DB	0c0H
	DB	0ffH
	DB	0c0H
	DB	0bcH
	DB	0c0H
	DB	0ffH
	DB	0b8H
	DB	0bcH
	DB	0b8H
	DB	0ffH
	DB	0c0H
	DB	0bcH
	DB	0c0H
	DB	0ffH
	DB	0c0H
	DB	0bcH
	DB	0c0H
	DB	0ffH
	DB	0b8H
	DB	0bcH
	DB	0b8H
	DB	0ffH
	DB	0c0H
	DB	0bcH
	DB	0c0H
	DB	0ffH
	DB	0c0H
	DB	0bcH
	DB	0c0H
	DB	0ffH
	DB	0b8H
	DB	0bcH
	DB	0b8H
	DB	0ffH
	DB	0c0H
	DB	0bcH
	DB	0c0H
	DB	0ffH
	DB	0c0H
	DB	0bcH
	DB	0c0H
	DB	0ffH
	DB	0b8H
	DB	0bcH
	DB	0b8H
	DB	0ffH
	DB	0c0H
	DB	0bcH
	DB	0c0H
	DB	0ffH
	DB	0c0H
	DB	0bcH
	DB	0c0H
	DB	0ffH
	DB	0b8H
	DB	0bcH
	DB	0b8H
	DB	0ffH
	DB	0c0H
	DB	0bcH
	DB	0c0H
	DB	0ffH
	DB	00H
	DB	00H
	DB	00H
	DB	00H
	DB	00H
	DB	00H
	DB	00H
	DB	00H
	DB	00H
	DB	00H
	DB	00H
	DB	00H
	DB	00H
	DB	00H
	DB	00H
	DB	00H
	DB	00H
	DB	00H
	DB	00H
	DB	00H
	DB	00H
	DB	00H
	DB	00H
	DB	00H
	DB	00H
	DB	00H
	DB	00H
	DB	00H
	DB	00H
	DB	00H
	DB	00H
	DB	00H
	DB	00H
	DB	00H
	DB	00H
	DB	00H
	DB	00H
	DB	00H
	DB	00H
	DB	00H
	DB	00H
	DB	00H
	DB	00H
	DB	00H
	DB	00H
	DB	00H
	DB	00H
	DB	00H
	DB	00H
	DB	00H
	DB	00H
	DB	00H
	DB	00H
	DB	00H
	DB	00H
	DB	00H
	DB	00H
	DB	00H
	DB	00H
	DB	00H
	DB	00H
	DB	00H
	DB	00H
	DB	00H
	DB	00H
	DB	00H
	DB	00H
	DB	00H
	DB	00H
	DB	00H
	DB	00H
	DB	00H
	DB	00H
	DB	00H
	DB	00H
	DB	00H
	DB	00H
	DB	00H
	DB	00H
	DB	00H
	DB	00H
	DB	00H
	DB	00H
	DB	00H
	DB	00H
	DB	00H
	DB	00H
	DB	00H
	DB	00H
	DB	00H
	DB	00H
	DB	00H
	DB	00H
	DB	00H
	DB	00H
	DB	00H
	DB	00H
	DB	00H
	DB	00H
	DB	00H
	DB	00H
	DB	00H
	DB	00H
	DB	00H
	DB	00H
	DB	00H
	DB	00H
	DB	00H
	DB	00H
	DB	00H
	DB	00H
	DB	00H
	DB	00H
	DB	00H
	DB	00H
	DB	00H
	DB	00H
	DB	00H
	DB	00H
	DB	00H
	DB	00H
	DB	00H
	DB	00H
	DB	00H
	DB	00H
	DB	00H
	DB	00H
	DB	00H
	DB	00H
	DB	00H
	DB	00H
	DB	00H
	DB	00H
	DB	00H
	DB	00H
	DB	00H
	DB	00H
	DB	00H
	DB	00H
	DB	00H
	DB	00H
	DB	00H
	DB	00H
	DB	00H
	DB	00H
	DB	00H
	DB	00H
	DB	00H
	DB	00H
	DB	00H
	DB	00H
	DB	00H
	DB	00H
	DB	00H
	DB	00H
	DB	00H
	DB	00H
	DB	00H
	DB	00H
	DB	00H
	DB	00H
	DB	00H
	DB	00H
	DB	00H
	DB	00H
	DB	00H
	DB	00H
	DB	00H
	DB	0b8H
	DB	0bcH
	DB	0b8H
	DB	0ffH
	DB	0c0H
	DB	0bcH
	DB	0c0H
	DB	0ffH
	DB	0c0H
	DB	0bcH
	DB	0c0H
	DB	0ffH
	DB	0b8H
	DB	0bcH
	DB	0b8H
	DB	0ffH
	DB	0c0H
	DB	0bcH
	DB	0c0H
	DB	0ffH
	DB	0c0H
	DB	0bcH
	DB	0c0H
	DB	0ffH
	DB	0b8H
	DB	0bcH
	DB	0b8H
	DB	0ffH
	DB	0c0H
	DB	0bcH
	DB	0c0H
	DB	0ffH
	DB	0c0H
	DB	0bcH
	DB	0c0H
	DB	0ffH
	DB	0b8H
	DB	0bcH
	DB	0b8H
	DB	0ffH
	DB	0c0H
	DB	0bcH
	DB	0c0H
	DB	0ffH
	DB	0c0H
	DB	0bcH
	DB	0c0H
	DB	0ffH
	DB	0b8H
	DB	0bcH
	DB	0b8H
	DB	0ffH
	DB	0c0H
	DB	0bcH
	DB	0c0H
	DB	0ffH
	DB	0c0H
	DB	0bcH
	DB	0c0H
	DB	0ffH
	DB	0b8H
	DB	0bcH
	DB	0b8H
	DB	0ffH
	DB	0c0H
	DB	0bcH
	DB	0c0H
	DB	0ffH
	DB	0c0H
	DB	0bcH
	DB	0c0H
	DB	0ffH
	DB	0b8H
	DB	0bcH
	DB	0b8H
	DB	0ffH
	DB	0c0H
	DB	0bcH
	DB	0c0H
	DB	0ffH
	DB	0c0H
	DB	0bcH
	DB	0c0H
	DB	0ffH
	DB	0b8H
	DB	0bcH
	DB	0b8H
	DB	0ffH
	DB	0c0H
	DB	0bcH
	DB	0c0H
	DB	0ffH
	DB	0c0H
	DB	0bcH
	DB	0c0H
	DB	0ffH
	DB	0b8H
	DB	0bcH
	DB	0b8H
	DB	0ffH
	DB	0c0H
	DB	0bcH
	DB	0c0H
	DB	0ffH
	DB	0c0H
	DB	0bcH
	DB	0c0H
	DB	0ffH
	DB	0b8H
	DB	0bcH
	DB	0b8H
	DB	0ffH
	DB	00H
	DB	00H
	DB	00H
	DB	00H
	DB	00H
	DB	00H
	DB	00H
	DB	00H
	DB	00H
	DB	00H
	DB	00H
	DB	00H
	DB	00H
	DB	00H
	DB	00H
	DB	00H
	DB	00H
	DB	00H
	DB	00H
	DB	00H
	DB	00H
	DB	00H
	DB	00H
	DB	00H
	DB	00H
	DB	00H
	DB	00H
	DB	00H
	DB	00H
	DB	00H
	DB	00H
	DB	00H
	DB	00H
	DB	00H
	DB	00H
	DB	00H
	DB	00H
	DB	00H
	DB	00H
	DB	00H
	DB	00H
	DB	00H
	DB	00H
	DB	00H
	DB	00H
	DB	00H
	DB	00H
	DB	00H
	DB	00H
	DB	00H
	DB	00H
	DB	00H
	DB	00H
	DB	00H
	DB	00H
	DB	00H
	DB	00H
	DB	00H
	DB	00H
	DB	00H
	DB	00H
	DB	00H
	DB	00H
	DB	00H
	DB	00H
	DB	00H
	DB	00H
	DB	00H
	DB	00H
	DB	00H
	DB	00H
	DB	00H
	DB	00H
	DB	00H
	DB	00H
	DB	00H
	DB	00H
	DB	00H
	DB	00H
	DB	00H
	DB	00H
	DB	00H
	DB	00H
	DB	00H
	DB	00H
	DB	00H
	DB	00H
	DB	00H
	DB	00H
	DB	00H
	DB	00H
	DB	00H
	DB	00H
	DB	00H
	DB	00H
	DB	00H
	DB	00H
	DB	00H
	DB	00H
	DB	00H
	DB	00H
	DB	00H
	DB	00H
	DB	00H
	DB	00H
	DB	00H
	DB	00H
	DB	00H
	DB	00H
	DB	00H
	DB	00H
	DB	00H
	DB	00H
	DB	00H
	DB	00H
	DB	00H
	DB	00H
	DB	00H
	DB	00H
	DB	00H
	DB	00H
	DB	00H
	DB	00H
	DB	00H
	DB	00H
	DB	00H
	DB	00H
	DB	00H
	DB	00H
	DB	00H
	DB	00H
	DB	00H
	DB	00H
	DB	00H
	DB	00H
	DB	00H
	DB	00H
	DB	00H
	DB	00H
	DB	00H
	DB	00H
	DB	00H
	DB	00H
	DB	00H
	DB	00H
	DB	00H
	DB	00H
	DB	00H
	DB	00H
	DB	00H
	DB	00H
	DB	00H
	DB	00H
	DB	00H
	DB	00H
	DB	00H
	DB	00H
	DB	00H
	DB	00H
	DB	00H
	DB	00H
	DB	00H
	DB	00H
	DB	00H
	DB	00H
	DB	00H
	DB	00H
	DB	00H
	DB	0c0H
	DB	0bcH
	DB	0c0H
	DB	0ffH
	DB	0b8H
	DB	0bcH
	DB	0b8H
	DB	0ffH
	DB	0c0H
	DB	0c0H
	DB	0c0H
	DB	0ffH
	DB	0b8H
	DB	0bcH
	DB	0b8H
	DB	0ffH
	DB	0c0H
	DB	0c0H
	DB	0c0H
	DB	0ffH
	DB	0c0H
	DB	0bcH
	DB	0c0H
	DB	0ffH
	DB	0b8H
	DB	0c0H
	DB	0b8H
	DB	0ffH
	DB	0c0H
	DB	0bcH
	DB	0c0H
	DB	0ffH
	DB	0c0H
	DB	0c0H
	DB	0c0H
	DB	0ffH
	DB	0b8H
	DB	0bcH
	DB	0b8H
	DB	0ffH
	DB	0c0H
	DB	0c0H
	DB	0c0H
	DB	0ffH
	DB	0c0H
	DB	0bcH
	DB	0c0H
	DB	0ffH
	DB	0b8H
	DB	0c0H
	DB	0b8H
	DB	0ffH
	DB	0c0H
	DB	0bcH
	DB	0c0H
	DB	0ffH
	DB	0c0H
	DB	0c0H
	DB	0c0H
	DB	0ffH
	DB	0b8H
	DB	0bcH
	DB	0b8H
	DB	0ffH
	DB	0c0H
	DB	0c0H
	DB	0c0H
	DB	0ffH
	DB	0c0H
	DB	0bcH
	DB	0c0H
	DB	0ffH
	DB	0b8H
	DB	0c0H
	DB	0b8H
	DB	0ffH
	DB	0c0H
	DB	0bcH
	DB	0c0H
	DB	0ffH
	DB	0c0H
	DB	0c0H
	DB	0c0H
	DB	0ffH
	DB	0b8H
	DB	0bcH
	DB	0b8H
	DB	0ffH
	DB	0c0H
	DB	0c0H
	DB	0c0H
	DB	0ffH
	DB	0c0H
	DB	0bcH
	DB	0c0H
	DB	0ffH
	DB	0b8H
	DB	0c0H
	DB	0b8H
	DB	0ffH
	DB	0c0H
	DB	0bcH
	DB	0c0H
	DB	0ffH
	DB	0c0H
	DB	0bcH
	DB	0c0H
	DB	0ffH
	DB	0b8H
	DB	0c0H
	DB	0b8H
	DB	0ffH
	DB	00H
	DB	00H
	DB	00H
	DB	00H
	DB	00H
	DB	00H
	DB	00H
	DB	00H
	DB	00H
	DB	00H
	DB	00H
	DB	00H
	DB	00H
	DB	00H
	DB	00H
	DB	00H
	DB	00H
	DB	00H
	DB	00H
	DB	00H
	DB	00H
	DB	00H
	DB	00H
	DB	00H
	DB	00H
	DB	00H
	DB	00H
	DB	00H
	DB	00H
	DB	00H
	DB	00H
	DB	00H
	DB	00H
	DB	00H
	DB	00H
	DB	00H
	DB	00H
	DB	00H
	DB	00H
	DB	00H
	DB	00H
	DB	00H
	DB	00H
	DB	00H
	DB	00H
	DB	00H
	DB	00H
	DB	00H
	DB	00H
	DB	00H
	DB	00H
	DB	00H
	DB	00H
	DB	00H
	DB	00H
	DB	00H
	DB	00H
	DB	00H
	DB	00H
	DB	00H
	DB	00H
	DB	00H
	DB	00H
	DB	00H
	DB	00H
	DB	00H
	DB	00H
	DB	00H
	DB	00H
	DB	00H
	DB	00H
	DB	00H
	DB	00H
	DB	00H
	DB	00H
	DB	00H
	DB	00H
	DB	00H
	DB	00H
	DB	00H
	DB	00H
	DB	00H
	DB	00H
	DB	00H
	DB	00H
	DB	00H
	DB	00H
	DB	00H
	DB	00H
	DB	00H
	DB	00H
	DB	00H
	DB	00H
	DB	00H
	DB	00H
	DB	00H
	DB	00H
	DB	00H
	DB	00H
	DB	00H
	DB	00H
	DB	00H
	DB	00H
	DB	00H
	DB	00H
	DB	00H
	DB	00H
	DB	00H
	DB	00H
	DB	00H
	DB	00H
	DB	00H
	DB	00H
	DB	00H
	DB	00H
	DB	00H
	DB	00H
	DB	00H
	DB	00H
	DB	00H
	DB	00H
	DB	00H
	DB	00H
	DB	00H
	DB	00H
	DB	00H
	DB	00H
	DB	00H
	DB	00H
	DB	00H
	DB	00H
	DB	00H
	DB	00H
	DB	00H
	DB	00H
	DB	00H
	DB	00H
	DB	00H
	DB	00H
	DB	00H
	DB	00H
	DB	00H
	DB	00H
	DB	00H
	DB	00H
	DB	00H
	DB	00H
	DB	00H
	DB	00H
	DB	00H
	DB	00H
	DB	00H
	DB	00H
	DB	00H
	DB	00H
	DB	00H
	DB	00H
	DB	00H
	DB	00H
	DB	00H
	DB	00H
	DB	00H
	DB	00H
	DB	00H
	DB	00H
	DB	00H
	DB	00H
	DB	00H
	DB	0c0H
	DB	0bcH
	DB	0c0H
	DB	0ffH
	DB	0c0H
	DB	0bcH
	DB	0c0H
	DB	0ffH
	DB	0b8H
	DB	0bcH
	DB	0b8H
	DB	0ffH
	DB	0c0H
	DB	0c0H
	DB	0c0H
	DB	0ffH
	DB	0b8H
	DB	0bcH
	DB	0b8H
	DB	0ffH
	DB	0c0H
	DB	0bcH
	DB	0c0H
	DB	0ffH
	DB	0b8H
	DB	0bcH
	DB	0b8H
	DB	0ffH
	DB	0c0H
	DB	0bcH
	DB	0c0H
	DB	0ffH
	DB	0b8H
	DB	0bcH
	DB	0b8H
	DB	0ffH
	DB	0c0H
	DB	0c0H
	DB	0c0H
	DB	0ffH
	DB	0b8H
	DB	0bcH
	DB	0b8H
	DB	0ffH
	DB	0c0H
	DB	0bcH
	DB	0c0H
	DB	0ffH
	DB	0b8H
	DB	0bcH
	DB	0b8H
	DB	0ffH
	DB	0c0H
	DB	0c0H
	DB	0c0H
	DB	0ffH
	DB	0b8H
	DB	0bcH
	DB	0b8H
	DB	0ffH
	DB	0c0H
	DB	0bcH
	DB	0c0H
	DB	0ffH
	DB	0b8H
	DB	0bcH
	DB	0b8H
	DB	0ffH
	DB	0c0H
	DB	0c0H
	DB	0c0H
	DB	0ffH
	DB	0b8H
	DB	0bcH
	DB	0b8H
	DB	0ffH
	DB	0c0H
	DB	0bcH
	DB	0c0H
	DB	0ffH
	DB	0b8H
	DB	0bcH
	DB	0b8H
	DB	0ffH
	DB	0c0H
	DB	0c0H
	DB	0c0H
	DB	0ffH
	DB	0b8H
	DB	0bcH
	DB	0b8H
	DB	0ffH
	DB	0c0H
	DB	0bcH
	DB	0c0H
	DB	0ffH
	DB	0b8H
	DB	0bcH
	DB	0b8H
	DB	0ffH
	DB	0c0H
	DB	0c0H
	DB	0c0H
	DB	0ffH
	DB	0c0H
	DB	0bcH
	DB	0c0H
	DB	0ffH
	DB	0c0H
	DB	0bcH
	DB	0c0H
	DB	0ffH
	DB	00H
	DB	00H
	DB	00H
	DB	00H
	DB	00H
	DB	00H
	DB	00H
	DB	00H
	DB	00H
	DB	00H
	DB	00H
	DB	00H
	DB	00H
	DB	00H
	DB	00H
	DB	00H
	DB	00H
	DB	00H
	DB	00H
	DB	00H
	DB	00H
	DB	00H
	DB	00H
	DB	00H
	DB	00H
	DB	00H
	DB	00H
	DB	00H
	DB	00H
	DB	00H
	DB	00H
	DB	00H
	DB	00H
	DB	00H
	DB	00H
	DB	00H
	DB	00H
	DB	00H
	DB	00H
	DB	00H
	DB	00H
	DB	00H
	DB	00H
	DB	00H
	DB	00H
	DB	00H
	DB	00H
	DB	00H
	DB	00H
	DB	00H
	DB	00H
	DB	00H
	DB	00H
	DB	00H
	DB	00H
	DB	00H
	DB	00H
	DB	00H
	DB	00H
	DB	00H
	DB	00H
	DB	00H
	DB	00H
	DB	00H
	DB	00H
	DB	00H
	DB	00H
	DB	00H
	DB	00H
	DB	00H
	DB	00H
	DB	00H
	DB	00H
	DB	00H
	DB	00H
	DB	00H
	DB	00H
	DB	00H
	DB	00H
	DB	00H
	DB	00H
	DB	00H
	DB	00H
	DB	00H
	DB	00H
	DB	00H
	DB	00H
	DB	00H
	DB	00H
	DB	00H
	DB	00H
	DB	00H
	DB	00H
	DB	00H
	DB	00H
	DB	00H
	DB	00H
	DB	00H
	DB	00H
	DB	00H
	DB	00H
	DB	00H
	DB	00H
	DB	00H
	DB	00H
	DB	00H
	DB	00H
	DB	00H
	DB	00H
	DB	00H
	DB	00H
	DB	00H
	DB	00H
	DB	00H
	DB	00H
	DB	00H
	DB	00H
	DB	00H
	DB	00H
	DB	00H
	DB	00H
	DB	00H
	DB	00H
	DB	00H
	DB	00H
	DB	00H
	DB	00H
	DB	00H
	DB	00H
	DB	00H
	DB	00H
	DB	00H
	DB	00H
	DB	00H
	DB	00H
	DB	00H
	DB	00H
	DB	00H
	DB	00H
	DB	00H
	DB	00H
	DB	00H
	DB	00H
	DB	00H
	DB	00H
	DB	00H
	DB	00H
	DB	00H
	DB	00H
	DB	00H
	DB	00H
	DB	00H
	DB	00H
	DB	00H
	DB	00H
	DB	00H
	DB	00H
	DB	00H
	DB	00H
	DB	00H
	DB	00H
	DB	00H
	DB	00H
	DB	00H
	DB	00H
	DB	00H
	DB	00H
	DB	00H
	DB	0b8H
	DB	0bcH
	DB	0b8H
	DB	0ffH
	DB	0c0H
	DB	0bcH
	DB	0c0H
	DB	0ffH
	DB	0c0H
	DB	0bcH
	DB	0c0H
	DB	0ffH
	DB	0b8H
	DB	0bcH
	DB	0b8H
	DB	0ffH
	DB	0c0H
	DB	0bcH
	DB	0c0H
	DB	0ffH
	DB	0c0H
	DB	0c0H
	DB	0c0H
	DB	0ffH
	DB	0c0H
	DB	0bcH
	DB	0c0H
	DB	0ffH
	DB	0b8H
	DB	0bcH
	DB	0b8H
	DB	0ffH
	DB	0c0H
	DB	0bcH
	DB	0c0H
	DB	0ffH
	DB	0c0H
	DB	0bcH
	DB	0c0H
	DB	0ffH
	DB	0b8H
	DB	0bcH
	DB	0b8H
	DB	0ffH
	DB	0c0H
	DB	0bcH
	DB	0c0H
	DB	0ffH
	DB	0c0H
	DB	0bcH
	DB	0c0H
	DB	0ffH
	DB	0b8H
	DB	0bcH
	DB	0b8H
	DB	0ffH
	DB	0c0H
	DB	0bcH
	DB	0c0H
	DB	0ffH
	DB	0c0H
	DB	0bcH
	DB	0c0H
	DB	0ffH
	DB	0b8H
	DB	0bcH
	DB	0b8H
	DB	0ffH
	DB	0c0H
	DB	0bcH
	DB	0c0H
	DB	0ffH
	DB	0c0H
	DB	0bcH
	DB	0c0H
	DB	0ffH
	DB	0b8H
	DB	0bcH
	DB	0b8H
	DB	0ffH
	DB	0c0H
	DB	0bcH
	DB	0c0H
	DB	0ffH
	DB	0c0H
	DB	0bcH
	DB	0c0H
	DB	0ffH
	DB	0b8H
	DB	0bcH
	DB	0b8H
	DB	0ffH
	DB	0c0H
	DB	0bcH
	DB	0c0H
	DB	0ffH
	DB	0c0H
	DB	0bcH
	DB	0c0H
	DB	0ffH
	DB	0b8H
	DB	0bcH
	DB	0b8H
	DB	0ffH
	DB	0b8H
	DB	0c0H
	DB	0b8H
	DB	0ffH
	DB	0c0H
	DB	0bcH
	DB	0c0H
	DB	0ffH
	DB	00H
	DB	00H
	DB	00H
	DB	00H
	DB	00H
	DB	00H
	DB	00H
	DB	00H
	DB	00H
	DB	00H
	DB	00H
	DB	00H
	DB	00H
	DB	00H
	DB	00H
	DB	00H
	DB	00H
	DB	00H
	DB	00H
	DB	00H
	DB	00H
	DB	00H
	DB	00H
	DB	00H
	DB	00H
	DB	00H
	DB	00H
	DB	00H
	DB	00H
	DB	00H
	DB	00H
	DB	00H
	DB	00H
	DB	00H
	DB	00H
	DB	00H
	DB	00H
	DB	00H
	DB	00H
	DB	00H
	DB	00H
	DB	00H
	DB	00H
	DB	00H
	DB	00H
	DB	00H
	DB	00H
	DB	00H
	DB	00H
	DB	00H
	DB	00H
	DB	00H
	DB	00H
	DB	00H
	DB	00H
	DB	00H
	DB	00H
	DB	00H
	DB	00H
	DB	00H
	DB	00H
	DB	00H
	DB	00H
	DB	00H
	DB	00H
	DB	00H
	DB	00H
	DB	00H
	DB	00H
	DB	00H
	DB	00H
	DB	00H
	DB	00H
	DB	00H
	DB	00H
	DB	00H
	DB	00H
	DB	00H
	DB	00H
	DB	00H
	DB	00H
	DB	00H
	DB	00H
	DB	00H
	DB	00H
	DB	00H
	DB	00H
	DB	00H
	DB	00H
	DB	00H
	DB	00H
	DB	00H
	DB	00H
	DB	00H
	DB	00H
	DB	00H
	DB	00H
	DB	00H
	DB	00H
	DB	00H
	DB	00H
	DB	00H
	DB	00H
	DB	00H
	DB	00H
	DB	00H
	DB	00H
	DB	00H
	DB	00H
	DB	00H
	DB	00H
	DB	00H
	DB	00H
	DB	00H
	DB	00H
	DB	00H
	DB	00H
	DB	00H
	DB	00H
	DB	00H
	DB	00H
	DB	00H
	DB	00H
	DB	00H
	DB	00H
	DB	00H
	DB	00H
	DB	00H
	DB	00H
	DB	00H
	DB	00H
	DB	00H
	DB	00H
	DB	00H
	DB	00H
	DB	00H
	DB	00H
	DB	00H
	DB	00H
	DB	00H
	DB	00H
	DB	00H
	DB	00H
	DB	00H
	DB	00H
	DB	00H
	DB	00H
	DB	00H
	DB	00H
	DB	00H
	DB	00H
	DB	00H
	DB	00H
	DB	00H
	DB	00H
	DB	00H
	DB	00H
	DB	00H
	DB	00H
	DB	00H
	DB	00H
	DB	00H
	DB	00H
	DB	00H
	DB	00H
	DB	00H
	DB	00H
	DB	00H
	DB	0c0H
	DB	0bcH
	DB	0c0H
	DB	0ffH
	DB	0b8H
	DB	0c0H
	DB	0b8H
	DB	0ffH
	DB	0c0H
	DB	0c0H
	DB	0c0H
	DB	0ffH
	DB	0c0H
	DB	0bcH
	DB	0c0H
	DB	0ffH
	DB	0b8H
	DB	0bcH
	DB	0b8H
	DB	0ffH
	DB	0c0H
	DB	0c0H
	DB	0c0H
	DB	0ffH
	DB	0b8H
	DB	0bcH
	DB	0b8H
	DB	0ffH
	DB	0c0H
	DB	0c0H
	DB	0c0H
	DB	0ffH
	DB	0c0H
	DB	0c0H
	DB	0c0H
	DB	0ffH
	DB	0b8H
	DB	0bcH
	DB	0b8H
	DB	0ffH
	DB	0c0H
	DB	0c0H
	DB	0c0H
	DB	0ffH
	DB	0c0H
	DB	0bcH
	DB	0c0H
	DB	0ffH
	DB	0b8H
	DB	0c0H
	DB	0b8H
	DB	0ffH
	DB	0c0H
	DB	0bcH
	DB	0c0H
	DB	0ffH
	DB	0c0H
	DB	0c0H
	DB	0c0H
	DB	0ffH
	DB	0b8H
	DB	0c0H
	DB	0b8H
	DB	0ffH
	DB	0c0H
	DB	0bcH
	DB	0c0H
	DB	0ffH
	DB	0c0H
	DB	0bcH
	DB	0c0H
	DB	0ffH
	DB	0b8H
	DB	0c0H
	DB	0b8H
	DB	0ffH
	DB	0c0H
	DB	0c0H
	DB	0c0H
	DB	0ffH
	DB	0c0H
	DB	0bcH
	DB	0c0H
	DB	0ffH
	DB	0b8H
	DB	0bcH
	DB	0b8H
	DB	0ffH
	DB	0c0H
	DB	0c0H
	DB	0c0H
	DB	0ffH
	DB	0c0H
	DB	0c0H
	DB	0c0H
	DB	0ffH
	DB	0b8H
	DB	0bcH
	DB	0b8H
	DB	0ffH
	DB	0c0H
	DB	0bcH
	DB	0c0H
	DB	0ffH
	DB	0c0H
	DB	0bcH
	DB	0c0H
	DB	0ffH
	DB	0b8H
	DB	0bcH
	DB	0b8H
	DB	0ffH
	DB	00H
	DB	00H
	DB	00H
	DB	00H
	DB	00H
	DB	00H
	DB	00H
	DB	00H
	DB	00H
	DB	00H
	DB	00H
	DB	00H
	DB	00H
	DB	00H
	DB	00H
	DB	00H
	DB	00H
	DB	00H
	DB	00H
	DB	00H
	DB	00H
	DB	00H
	DB	00H
	DB	00H
	DB	00H
	DB	00H
	DB	00H
	DB	00H
	DB	00H
	DB	00H
	DB	00H
	DB	00H
	DB	00H
	DB	00H
	DB	00H
	DB	00H
	DB	00H
	DB	00H
	DB	00H
	DB	00H
	DB	00H
	DB	00H
	DB	00H
	DB	00H
	DB	00H
	DB	00H
	DB	00H
	DB	00H
	DB	00H
	DB	00H
	DB	00H
	DB	00H
	DB	00H
	DB	00H
	DB	00H
	DB	00H
	DB	00H
	DB	00H
	DB	00H
	DB	00H
	DB	00H
	DB	00H
	DB	00H
	DB	00H
	DB	00H
	DB	00H
	DB	00H
	DB	00H
	DB	00H
	DB	00H
	DB	00H
	DB	00H
	DB	00H
	DB	00H
	DB	00H
	DB	00H
	DB	00H
	DB	00H
	DB	00H
	DB	00H
	DB	00H
	DB	00H
	DB	00H
	DB	00H
	DB	00H
	DB	00H
	DB	00H
	DB	00H
	DB	00H
	DB	00H
	DB	00H
	DB	00H
	DB	00H
	DB	00H
	DB	00H
	DB	00H
	DB	00H
	DB	00H
	DB	00H
	DB	00H
	DB	00H
	DB	00H
	DB	00H
	DB	00H
	DB	00H
	DB	00H
	DB	00H
	DB	00H
	DB	00H
	DB	00H
	DB	00H
	DB	00H
	DB	00H
	DB	00H
	DB	00H
	DB	00H
	DB	00H
	DB	00H
	DB	00H
	DB	00H
	DB	00H
	DB	00H
	DB	00H
	DB	00H
	DB	00H
	DB	00H
	DB	00H
	DB	00H
	DB	00H
	DB	00H
	DB	00H
	DB	00H
	DB	00H
	DB	00H
	DB	00H
	DB	00H
	DB	00H
	DB	00H
	DB	00H
	DB	00H
	DB	00H
	DB	00H
	DB	00H
	DB	00H
	DB	00H
	DB	00H
	DB	00H
	DB	00H
	DB	00H
	DB	00H
	DB	00H
	DB	00H
	DB	00H
	DB	00H
	DB	00H
	DB	00H
	DB	00H
	DB	00H
	DB	00H
	DB	00H
	DB	00H
	DB	00H
	DB	00H
	DB	00H
	DB	00H
	DB	00H
	DB	00H
	DB	00H
	DB	0c0H
	DB	0bcH
	DB	0c0H
	DB	0ffH
	DB	0b8H
	DB	0bcH
	DB	0b8H
	DB	0ffH
	DB	0c0H
	DB	0bcH
	DB	0c0H
	DB	0ffH
	DB	0c0H
	DB	0bcH
	DB	0c0H
	DB	0ffH
	DB	0b8H
	DB	0bcH
	DB	0b8H
	DB	0ffH
	DB	0c0H
	DB	0bcH
	DB	0c0H
	DB	0ffH
	DB	0b8H
	DB	0bcH
	DB	0b8H
	DB	0ffH
	DB	0c0H
	DB	0bcH
	DB	0c0H
	DB	0ffH
	DB	0c0H
	DB	0bcH
	DB	0c0H
	DB	0ffH
	DB	0b8H
	DB	0bcH
	DB	0b8H
	DB	0ffH
	DB	0c0H
	DB	0bcH
	DB	0c0H
	DB	0ffH
	DB	0b8H
	DB	0c0H
	DB	0b8H
	DB	0ffH
	DB	0c0H
	DB	0bcH
	DB	0c0H
	DB	0ffH
	DB	0c0H
	DB	0bcH
	DB	0c0H
	DB	0ffH
	DB	0b8H
	DB	0bcH
	DB	0b8H
	DB	0ffH
	DB	0c0H
	DB	0bcH
	DB	0c0H
	DB	0ffH
	DB	0c0H
	DB	0bcH
	DB	0c0H
	DB	0ffH
	DB	0b8H
	DB	0bcH
	DB	0b8H
	DB	0ffH
	DB	0c0H
	DB	0bcH
	DB	0c0H
	DB	0ffH
	DB	0c0H
	DB	0bcH
	DB	0c0H
	DB	0ffH
	DB	0b8H
	DB	0c0H
	DB	0b8H
	DB	0ffH
	DB	0c0H
	DB	0bcH
	DB	0c0H
	DB	0ffH
	DB	0c0H
	DB	0bcH
	DB	0c0H
	DB	0ffH
	DB	0b8H
	DB	0bcH
	DB	0b8H
	DB	0ffH
	DB	0c0H
	DB	0c0H
	DB	0c0H
	DB	0ffH
	DB	0c0H
	DB	0bcH
	DB	0c0H
	DB	0ffH
	DB	0b8H
	DB	0bcH
	DB	0b8H
	DB	0ffH
	DB	0c0H
	DB	0c0H
	DB	0c0H
	DB	0ffH
	DB	00H
	DB	00H
	DB	00H
	DB	00H
	DB	00H
	DB	00H
	DB	00H
	DB	00H
	DB	00H
	DB	00H
	DB	00H
	DB	00H
	DB	00H
	DB	00H
	DB	00H
	DB	00H
	DB	00H
	DB	00H
	DB	00H
	DB	00H
	DB	00H
	DB	00H
	DB	00H
	DB	00H
	DB	00H
	DB	00H
	DB	00H
	DB	00H
	DB	00H
	DB	00H
	DB	00H
	DB	00H
	DB	00H
	DB	00H
	DB	00H
	DB	00H
	DB	00H
	DB	00H
	DB	00H
	DB	00H
	DB	00H
	DB	00H
	DB	00H
	DB	00H
	DB	00H
	DB	00H
	DB	00H
	DB	00H
	DB	00H
	DB	00H
	DB	00H
	DB	00H
	DB	00H
	DB	00H
	DB	00H
	DB	00H
	DB	00H
	DB	00H
	DB	00H
	DB	00H
	DB	00H
	DB	00H
	DB	00H
	DB	00H
	DB	00H
	DB	00H
	DB	00H
	DB	00H
	DB	00H
	DB	00H
	DB	00H
	DB	00H
	DB	00H
	DB	00H
	DB	00H
	DB	00H
	DB	00H
	DB	00H
	DB	00H
	DB	00H
	DB	00H
	DB	00H
	DB	00H
	DB	00H
	DB	00H
	DB	00H
	DB	00H
	DB	00H
	DB	00H
	DB	00H
	DB	00H
	DB	00H
	DB	00H
	DB	00H
	DB	00H
	DB	00H
	DB	00H
	DB	00H
	DB	00H
	DB	00H
	DB	00H
	DB	00H
	DB	00H
	DB	00H
	DB	00H
	DB	00H
	DB	00H
	DB	00H
	DB	00H
	DB	00H
	DB	00H
	DB	00H
	DB	00H
	DB	00H
	DB	00H
	DB	00H
	DB	00H
	DB	00H
	DB	00H
	DB	00H
	DB	00H
	DB	00H
	DB	00H
	DB	00H
	DB	00H
	DB	00H
	DB	00H
	DB	00H
	DB	00H
	DB	00H
	DB	00H
	DB	00H
	DB	00H
	DB	00H
	DB	00H
	DB	00H
	DB	00H
	DB	00H
	DB	00H
	DB	00H
	DB	00H
	DB	00H
	DB	00H
	DB	00H
	DB	00H
	DB	00H
	DB	00H
	DB	00H
	DB	00H
	DB	00H
	DB	00H
	DB	00H
	DB	00H
	DB	00H
	DB	00H
	DB	00H
	DB	00H
	DB	00H
	DB	00H
	DB	00H
	DB	00H
	DB	00H
	DB	00H
	DB	00H
	DB	00H
	DB	00H
	DB	00H
	DB	00H
	DB	0b8H
	DB	0bcH
	DB	0b8H
	DB	0ffH
	DB	0c0H
	DB	0bcH
	DB	0c0H
	DB	0ffH
	DB	0b8H
	DB	0c0H
	DB	0b8H
	DB	0ffH
	DB	0c0H
	DB	0bcH
	DB	0c0H
	DB	0ffH
	DB	0c0H
	DB	0c0H
	DB	0c0H
	DB	0ffH
	DB	0b8H
	DB	0bcH
	DB	0b8H
	DB	0ffH
	DB	0c0H
	DB	0bcH
	DB	0c0H
	DB	0ffH
	DB	0b8H
	DB	0bcH
	DB	0b8H
	DB	0ffH
	DB	0c0H
	DB	0bcH
	DB	0c0H
	DB	0ffH
	DB	0c0H
	DB	0bcH
	DB	0c0H
	DB	0ffH
	DB	0b8H
	DB	0bcH
	DB	0b8H
	DB	0ffH
	DB	0c0H
	DB	0bcH
	DB	0c0H
	DB	0ffH
	DB	0c0H
	DB	0bcH
	DB	0c0H
	DB	0ffH
	DB	0b8H
	DB	0bcH
	DB	0b8H
	DB	0ffH
	DB	0b8H
	DB	0bcH
	DB	0b8H
	DB	0ffH
	DB	0c0H
	DB	0c0H
	DB	0c0H
	DB	0ffH
	DB	0b8H
	DB	0bcH
	DB	0b8H
	DB	0ffH
	DB	0c0H
	DB	0c0H
	DB	0c0H
	DB	0ffH
	DB	0b8H
	DB	0bcH
	DB	0b8H
	DB	0ffH
	DB	0c0H
	DB	0bcH
	DB	0c0H
	DB	0ffH
	DB	0b8H
	DB	0bcH
	DB	0b8H
	DB	0ffH
	DB	0c0H
	DB	0bcH
	DB	0c0H
	DB	0ffH
	DB	0b8H
	DB	0bcH
	DB	0b8H
	DB	0ffH
	DB	0b8H
	DB	0bcH
	DB	0b8H
	DB	0ffH
	DB	0c0H
	DB	0bcH
	DB	0c0H
	DB	0ffH
	DB	0c0H
	DB	0c0H
	DB	0c0H
	DB	0ffH
	DB	0b8H
	DB	0bcH
	DB	0b8H
	DB	0ffH
	DB	0c0H
	DB	0bcH
	DB	0c0H
	DB	0ffH
	DB	00H
	DB	00H
	DB	00H
	DB	00H
	DB	00H
	DB	00H
	DB	00H
	DB	00H
	DB	00H
	DB	00H
	DB	00H
	DB	00H
	DB	00H
	DB	00H
	DB	00H
	DB	00H
	DB	00H
	DB	00H
	DB	00H
	DB	00H
	DB	00H
	DB	00H
	DB	00H
	DB	00H
	DB	00H
	DB	00H
	DB	00H
	DB	00H
	DB	00H
	DB	00H
	DB	00H
	DB	00H
	DB	00H
	DB	00H
	DB	00H
	DB	00H
	DB	00H
	DB	00H
	DB	00H
	DB	00H
	DB	00H
	DB	00H
	DB	00H
	DB	00H
	DB	00H
	DB	00H
	DB	00H
	DB	00H
	DB	00H
	DB	00H
	DB	00H
	DB	00H
	DB	00H
	DB	00H
	DB	00H
	DB	00H
	DB	00H
	DB	00H
	DB	00H
	DB	00H
	DB	00H
	DB	00H
	DB	00H
	DB	00H
	DB	00H
	DB	00H
	DB	00H
	DB	00H
	DB	00H
	DB	00H
	DB	00H
	DB	00H
	DB	00H
	DB	00H
	DB	00H
	DB	00H
	DB	00H
	DB	00H
	DB	00H
	DB	00H
	DB	00H
	DB	00H
	DB	00H
	DB	00H
	DB	00H
	DB	00H
	DB	00H
	DB	00H
	DB	00H
	DB	00H
	DB	00H
	DB	00H
	DB	00H
	DB	00H
	DB	00H
	DB	00H
	DB	00H
	DB	00H
	DB	00H
	DB	00H
	DB	00H
	DB	00H
	DB	00H
	DB	00H
	DB	00H
	DB	00H
	DB	00H
	DB	00H
	DB	00H
	DB	00H
	DB	00H
	DB	00H
	DB	00H
	DB	00H
	DB	00H
	DB	00H
	DB	00H
	DB	00H
	DB	00H
	DB	00H
	DB	00H
	DB	00H
	DB	00H
	DB	00H
	DB	00H
	DB	00H
	DB	00H
	DB	00H
	DB	00H
	DB	00H
	DB	00H
	DB	00H
	DB	00H
	DB	00H
	DB	00H
	DB	00H
	DB	00H
	DB	00H
	DB	00H
	DB	00H
	DB	00H
	DB	00H
	DB	00H
	DB	00H
	DB	00H
	DB	00H
	DB	00H
	DB	00H
	DB	00H
	DB	00H
	DB	00H
	DB	00H
	DB	00H
	DB	00H
	DB	00H
	DB	00H
	DB	00H
	DB	00H
	DB	00H
	DB	00H
	DB	00H
	DB	00H
	DB	00H
	DB	00H
	DB	00H
	DB	00H
	DB	00H
	DB	00H
	DB	0c0H
	DB	0bcH
	DB	0c0H
	DB	0ffH
	DB	0c0H
	DB	0c0H
	DB	0c0H
	DB	0ffH
	DB	0b8H
	DB	0bcH
	DB	0b8H
	DB	0ffH
	DB	0c0H
	DB	0bcH
	DB	0c0H
	DB	0ffH
	DB	0c0H
	DB	0bcH
	DB	0c0H
	DB	0ffH
	DB	0b8H
	DB	0c0H
	DB	0b8H
	DB	0ffH
	DB	0c0H
	DB	0bcH
	DB	0c0H
	DB	0ffH
	DB	0c0H
	DB	0c0H
	DB	0c0H
	DB	0ffH
	DB	0b8H
	DB	0c0H
	DB	0b8H
	DB	0ffH
	DB	0c0H
	DB	0bcH
	DB	0c0H
	DB	0ffH
	DB	0b8H
	DB	0c0H
	DB	0b8H
	DB	0ffH
	DB	0c0H
	DB	0bcH
	DB	0c0H
	DB	0ffH
	DB	0c0H
	DB	0c0H
	DB	0c0H
	DB	0ffH
	DB	0b8H
	DB	0bcH
	DB	0b8H
	DB	0ffH
	DB	0c0H
	DB	0bcH
	DB	0c0H
	DB	0ffH
	DB	0c0H
	DB	0c0H
	DB	0c0H
	DB	0ffH
	DB	0c0H
	DB	0bcH
	DB	0c0H
	DB	0ffH
	DB	0b8H
	DB	0bcH
	DB	0b8H
	DB	0ffH
	DB	0c0H
	DB	0c0H
	DB	0c0H
	DB	0ffH
	DB	0c0H
	DB	0bcH
	DB	0c0H
	DB	0ffH
	DB	0b8H
	DB	0bcH
	DB	0b8H
	DB	0ffH
	DB	0c0H
	DB	0c0H
	DB	0c0H
	DB	0ffH
	DB	0c0H
	DB	0c0H
	DB	0c0H
	DB	0ffH
	DB	0c0H
	DB	0bcH
	DB	0c0H
	DB	0ffH
	DB	0b8H
	DB	0bcH
	DB	0b8H
	DB	0ffH
	DB	0c0H
	DB	0bcH
	DB	0c0H
	DB	0ffH
	DB	0c0H
	DB	0bcH
	DB	0c0H
	DB	0ffH
	DB	0b8H
	DB	0bcH
	DB	0b8H
	DB	0ffH
	DB	00H
	DB	00H
	DB	00H
	DB	00H
	DB	00H
	DB	00H
	DB	00H
	DB	00H
	DB	00H
	DB	00H
	DB	00H
	DB	00H
	DB	00H
	DB	00H
	DB	00H
	DB	00H
	DB	00H
	DB	00H
	DB	00H
	DB	00H
	DB	00H
	DB	00H
	DB	00H
	DB	00H
	DB	00H
	DB	00H
	DB	00H
	DB	00H
	DB	00H
	DB	00H
	DB	00H
	DB	00H
	DB	00H
	DB	00H
	DB	00H
	DB	00H
	DB	00H
	DB	00H
	DB	00H
	DB	00H
	DB	00H
	DB	00H
	DB	00H
	DB	00H
	DB	00H
	DB	00H
	DB	00H
	DB	00H
	DB	00H
	DB	00H
	DB	00H
	DB	00H
	DB	00H
	DB	00H
	DB	00H
	DB	00H
	DB	00H
	DB	00H
	DB	00H
	DB	00H
	DB	00H
	DB	00H
	DB	00H
	DB	00H
	DB	00H
	DB	00H
	DB	00H
	DB	00H
	DB	00H
	DB	00H
	DB	00H
	DB	00H
	DB	00H
	DB	00H
	DB	00H
	DB	00H
	DB	00H
	DB	00H
	DB	00H
	DB	00H
	DB	00H
	DB	00H
	DB	00H
	DB	00H
	DB	00H
	DB	00H
	DB	00H
	DB	00H
	DB	00H
	DB	00H
	DB	00H
	DB	00H
	DB	00H
	DB	00H
	DB	00H
	DB	00H
	DB	00H
	DB	00H
	DB	00H
	DB	00H
	DB	00H
	DB	00H
	DB	00H
	DB	00H
	DB	00H
	DB	00H
	DB	00H
	DB	00H
	DB	00H
	DB	00H
	DB	00H
	DB	00H
	DB	00H
	DB	00H
	DB	00H
	DB	00H
	DB	00H
	DB	00H
	DB	00H
	DB	00H
	DB	00H
	DB	00H
	DB	00H
	DB	00H
	DB	00H
	DB	00H
	DB	00H
	DB	00H
	DB	00H
	DB	00H
	DB	00H
	DB	00H
	DB	00H
	DB	00H
	DB	00H
	DB	00H
	DB	00H
	DB	00H
	DB	00H
	DB	00H
	DB	00H
	DB	00H
	DB	00H
	DB	00H
	DB	00H
	DB	00H
	DB	00H
	DB	00H
	DB	00H
	DB	00H
	DB	00H
	DB	00H
	DB	00H
	DB	00H
	DB	00H
	DB	00H
	DB	00H
	DB	00H
	DB	00H
	DB	00H
	DB	00H
	DB	00H
	DB	00H
	DB	00H
	DB	00H
	DB	00H
	DB	00H
	DB	00H
	DB	0c0H
	DB	0bcH
	DB	0c0H
	DB	0ffH
	DB	0b8H
	DB	0bcH
	DB	0b8H
	DB	0ffH
	DB	0c0H
	DB	0bcH
	DB	0c0H
	DB	0ffH
	DB	0b8H
	DB	0bcH
	DB	0b8H
	DB	0ffH
	DB	0c0H
	DB	0bcH
	DB	0c0H
	DB	0ffH
	DB	0c0H
	DB	0bcH
	DB	0c0H
	DB	0ffH
	DB	0b8H
	DB	0bcH
	DB	0b8H
	DB	0ffH
	DB	0c0H
	DB	0bcH
	DB	0c0H
	DB	0ffH
	DB	0c0H
	DB	0bcH
	DB	0c0H
	DB	0ffH
	DB	0b8H
	DB	0bcH
	DB	0b8H
	DB	0ffH
	DB	0c0H
	DB	0bcH
	DB	0c0H
	DB	0ffH
	DB	0b8H
	DB	0c0H
	DB	0b8H
	DB	0ffH
	DB	0c0H
	DB	0bcH
	DB	0c0H
	DB	0ffH
	DB	0c0H
	DB	0bcH
	DB	0c0H
	DB	0ffH
	DB	0b8H
	DB	0bcH
	DB	0b8H
	DB	0ffH
	DB	0c0H
	DB	0bcH
	DB	0c0H
	DB	0ffH
	DB	0c0H
	DB	0bcH
	DB	0c0H
	DB	0ffH
	DB	0b8H
	DB	0bcH
	DB	0b8H
	DB	0ffH
	DB	0c0H
	DB	0bcH
	DB	0c0H
	DB	0ffH
	DB	0c0H
	DB	0c0H
	DB	0c0H
	DB	0ffH
	DB	0b8H
	DB	0bcH
	DB	0b8H
	DB	0ffH
	DB	0c0H
	DB	0bcH
	DB	0c0H
	DB	0ffH
	DB	0c0H
	DB	0bcH
	DB	0c0H
	DB	0ffH
	DB	0b8H
	DB	0bcH
	DB	0b8H
	DB	0ffH
	DB	0c0H
	DB	0c0H
	DB	0c0H
	DB	0ffH
	DB	0b8H
	DB	0bcH
	DB	0b8H
	DB	0ffH
	DB	0c0H
	DB	0c0H
	DB	0c0H
	DB	0ffH
	DB	0c0H
	DB	0bcH
	DB	0c0H
	DB	0ffH
	DB	00H
	DB	00H
	DB	00H
	DB	00H
	DB	00H
	DB	00H
	DB	00H
	DB	00H
	DB	00H
	DB	00H
	DB	00H
	DB	00H
	DB	00H
	DB	00H
	DB	00H
	DB	00H
	DB	00H
	DB	00H
	DB	00H
	DB	00H
	DB	00H
	DB	00H
	DB	00H
	DB	00H
	DB	00H
	DB	00H
	DB	00H
	DB	00H
	DB	00H
	DB	00H
	DB	00H
	DB	00H
	DB	00H
	DB	00H
	DB	00H
	DB	00H
	DB	00H
	DB	00H
	DB	00H
	DB	00H
	DB	00H
	DB	00H
	DB	00H
	DB	00H
	DB	00H
	DB	00H
	DB	00H
	DB	00H
	DB	00H
	DB	00H
	DB	00H
	DB	00H
	DB	00H
	DB	00H
	DB	00H
	DB	00H
	DB	00H
	DB	00H
	DB	00H
	DB	00H
	DB	00H
	DB	00H
	DB	00H
	DB	00H
	DB	00H
	DB	00H
	DB	00H
	DB	00H
	DB	00H
	DB	00H
	DB	00H
	DB	00H
	DB	00H
	DB	00H
	DB	00H
	DB	00H
	DB	00H
	DB	00H
	DB	00H
	DB	00H
	DB	00H
	DB	00H
	DB	00H
	DB	00H
	DB	00H
	DB	00H
	DB	00H
	DB	00H
	DB	00H
	DB	00H
	DB	00H
	DB	00H
	DB	00H
	DB	00H
	DB	00H
	DB	00H
	DB	00H
	DB	00H
	DB	00H
	DB	00H
	DB	00H
	DB	00H
	DB	00H
	DB	00H
	DB	00H
	DB	00H
	DB	00H
	DB	00H
	DB	00H
	DB	00H
	DB	00H
	DB	00H
	DB	00H
	DB	00H
	DB	00H
	DB	00H
	DB	00H
	DB	00H
	DB	00H
	DB	00H
	DB	00H
	DB	00H
	DB	00H
	DB	00H
	DB	00H
	DB	00H
	DB	00H
	DB	00H
	DB	00H
	DB	00H
	DB	00H
	DB	00H
	DB	00H
	DB	00H
	DB	00H
	DB	00H
	DB	00H
	DB	00H
	DB	00H
	DB	00H
	DB	00H
	DB	00H
	DB	00H
	DB	00H
	DB	00H
	DB	00H
	DB	00H
	DB	00H
	DB	00H
	DB	00H
	DB	00H
	DB	00H
	DB	00H
	DB	00H
	DB	00H
	DB	00H
	DB	00H
	DB	00H
	DB	00H
	DB	00H
	DB	00H
	DB	00H
	DB	00H
	DB	00H
	DB	00H
	DB	00H
	DB	00H
	DB	00H
	DB	0b8H
	DB	0bcH
	DB	0b8H
	DB	0ffH
	DB	0c0H
	DB	0c0H
	DB	0c0H
	DB	0ffH
	DB	0c0H
	DB	0bcH
	DB	0c0H
	DB	0ffH
	DB	0b8H
	DB	0c0H
	DB	0b8H
	DB	0ffH
	DB	0c0H
	DB	0c0H
	DB	0c0H
	DB	0ffH
	DB	0c0H
	DB	0bcH
	DB	0c0H
	DB	0ffH
	DB	0b8H
	DB	0bcH
	DB	0b8H
	DB	0ffH
	DB	0c0H
	DB	0c0H
	DB	0c0H
	DB	0ffH
	DB	0c0H
	DB	0bcH
	DB	0c0H
	DB	0ffH
	DB	0b8H
	DB	0bcH
	DB	0b8H
	DB	0ffH
	DB	0c0H
	DB	0bcH
	DB	0c0H
	DB	0ffH
	DB	0c0H
	DB	0bcH
	DB	0c0H
	DB	0ffH
	DB	0b8H
	DB	0bcH
	DB	0b8H
	DB	0ffH
	DB	0c0H
	DB	0c0H
	DB	0c0H
	DB	0ffH
	DB	0b8H
	DB	0bcH
	DB	0b8H
	DB	0ffH
	DB	0c0H
	DB	0c0H
	DB	0c0H
	DB	0ffH
	DB	0b8H
	DB	0bcH
	DB	0b8H
	DB	0ffH
	DB	0c0H
	DB	0bcH
	DB	0c0H
	DB	0ffH
	DB	0b8H
	DB	0c0H
	DB	0b8H
	DB	0ffH
	DB	0c0H
	DB	0bcH
	DB	0c0H
	DB	0ffH
	DB	0c0H
	DB	0bcH
	DB	0c0H
	DB	0ffH
	DB	0b8H
	DB	0bcH
	DB	0b8H
	DB	0ffH
	DB	0b8H
	DB	0bcH
	DB	0b8H
	DB	0ffH
	DB	0c0H
	DB	0c0H
	DB	0c0H
	DB	0ffH
	DB	0c0H
	DB	0bcH
	DB	0c0H
	DB	0ffH
	DB	0b8H
	DB	0bcH
	DB	0b8H
	DB	0ffH
	DB	0c0H
	DB	0bcH
	DB	0c0H
	DB	0ffH
	DB	0c0H
	DB	0c0H
	DB	0c0H
	DB	0ffH
	DB	00H
	DB	00H
	DB	00H
	DB	00H
	DB	00H
	DB	00H
	DB	00H
	DB	00H
	DB	00H
	DB	00H
	DB	00H
	DB	00H
	DB	00H
	DB	00H
	DB	00H
	DB	00H
	DB	00H
	DB	00H
	DB	00H
	DB	00H
	DB	00H
	DB	00H
	DB	00H
	DB	00H
	DB	00H
	DB	00H
	DB	00H
	DB	00H
	DB	00H
	DB	00H
	DB	00H
	DB	00H
	DB	00H
	DB	00H
	DB	00H
	DB	00H
	DB	00H
	DB	00H
	DB	00H
	DB	00H
	DB	00H
	DB	00H
	DB	00H
	DB	00H
	DB	00H
	DB	00H
	DB	00H
	DB	00H
	DB	00H
	DB	00H
	DB	00H
	DB	00H
	DB	00H
	DB	00H
	DB	00H
	DB	00H
	DB	00H
	DB	00H
	DB	00H
	DB	00H
	DB	00H
	DB	00H
	DB	00H
	DB	00H
	DB	00H
	DB	00H
	DB	00H
	DB	00H
	DB	00H
	DB	00H
	DB	00H
	DB	00H
	DB	00H
	DB	00H
	DB	00H
	DB	00H
	DB	00H
	DB	00H
	DB	00H
	DB	00H
	DB	00H
	DB	00H
	DB	00H
	DB	00H
	DB	00H
	DB	00H
	DB	00H
	DB	00H
	DB	00H
	DB	00H
	DB	00H
	DB	00H
	DB	00H
	DB	00H
	DB	00H
	DB	00H
	DB	00H
	DB	00H
	DB	00H
	DB	00H
	DB	00H
	DB	00H
	DB	00H
	DB	00H
	DB	00H
	DB	00H
	DB	00H
	DB	00H
	DB	00H
	DB	00H
	DB	00H
	DB	00H
	DB	00H
	DB	00H
	DB	00H
	DB	00H
	DB	00H
	DB	00H
	DB	00H
	DB	00H
	DB	00H
	DB	00H
	DB	00H
	DB	00H
	DB	00H
	DB	00H
	DB	00H
	DB	00H
	DB	00H
	DB	00H
	DB	00H
	DB	00H
	DB	00H
	DB	00H
	DB	00H
	DB	00H
	DB	00H
	DB	00H
	DB	00H
	DB	00H
	DB	00H
	DB	00H
	DB	00H
	DB	00H
	DB	00H
	DB	00H
	DB	00H
	DB	00H
	DB	00H
	DB	00H
	DB	00H
	DB	00H
	DB	00H
	DB	00H
	DB	00H
	DB	00H
	DB	00H
	DB	00H
	DB	00H
	DB	00H
	DB	00H
	DB	00H
	DB	00H
	DB	00H
	DB	00H
	DB	00H
	DB	00H
	DB	00H
	DB	0c0H
	DB	0bcH
	DB	0c0H
	DB	0ffH
	DB	0c0H
	DB	0bcH
	DB	0c0H
	DB	0ffH
	DB	0b8H
	DB	0bcH
	DB	0b8H
	DB	0ffH
	DB	0c0H
	DB	0bcH
	DB	0c0H
	DB	0ffH
	DB	0b8H
	DB	0bcH
	DB	0b8H
	DB	0ffH
	DB	0c0H
	DB	0bcH
	DB	0c0H
	DB	0ffH
	DB	0b8H
	DB	0c0H
	DB	0b8H
	DB	0ffH
	DB	0c0H
	DB	0bcH
	DB	0c0H
	DB	0ffH
	DB	0b8H
	DB	0c0H
	DB	0b8H
	DB	0ffH
	DB	0c0H
	DB	0bcH
	DB	0c0H
	DB	0ffH
	DB	0c0H
	DB	0c0H
	DB	0c0H
	DB	0ffH
	DB	0b8H
	DB	0bcH
	DB	0b8H
	DB	0ffH
	DB	0c0H
	DB	0bcH
	DB	0c0H
	DB	0ffH
	DB	0c0H
	DB	0bcH
	DB	0c0H
	DB	0ffH
	DB	0c0H
	DB	0c0H
	DB	0c0H
	DB	0ffH
	DB	0b8H
	DB	0bcH
	DB	0b8H
	DB	0ffH
	DB	0c0H
	DB	0bcH
	DB	0c0H
	DB	0ffH
	DB	0c0H
	DB	0c0H
	DB	0c0H
	DB	0ffH
	DB	0b8H
	DB	0bcH
	DB	0b8H
	DB	0ffH
	DB	0c0H
	DB	0bcH
	DB	0c0H
	DB	0ffH
	DB	0c0H
	DB	0c0H
	DB	0c0H
	DB	0ffH
	DB	0b8H
	DB	0bcH
	DB	0b8H
	DB	0ffH
	DB	0c0H
	DB	0bcH
	DB	0c0H
	DB	0ffH
	DB	0c0H
	DB	0c0H
	DB	0c0H
	DB	0ffH
	DB	0b8H
	DB	0bcH
	DB	0b8H
	DB	0ffH
	DB	0c0H
	DB	0bcH
	DB	0c0H
	DB	0ffH
	DB	0b8H
	DB	0bcH
	DB	0b8H
	DB	0ffH
	DB	0b8H
	DB	0bcH
	DB	0b8H
	DB	0ffH
	DB	00H
	DB	00H
	DB	00H
	DB	00H
	DB	00H
	DB	00H
	DB	00H
	DB	00H
	DB	00H
	DB	00H
	DB	00H
	DB	00H
	DB	00H
	DB	00H
	DB	00H
	DB	00H
	DB	00H
	DB	00H
	DB	00H
	DB	00H
	DB	00H
	DB	00H
	DB	00H
	DB	00H
	DB	00H
	DB	00H
	DB	00H
	DB	00H
	DB	00H
	DB	00H
	DB	00H
	DB	00H
	DB	00H
	DB	00H
	DB	00H
	DB	00H
	DB	00H
	DB	00H
	DB	00H
	DB	00H
	DB	00H
	DB	00H
	DB	00H
	DB	00H
	DB	00H
	DB	00H
	DB	00H
	DB	00H
	DB	00H
	DB	00H
	DB	00H
	DB	00H
	DB	00H
	DB	00H
	DB	00H
	DB	00H
	DB	00H
	DB	00H
	DB	00H
	DB	00H
	DB	00H
	DB	00H
	DB	00H
	DB	00H
	DB	00H
	DB	00H
	DB	00H
	DB	00H
	DB	00H
	DB	00H
	DB	00H
	DB	00H
	DB	00H
	DB	00H
	DB	00H
	DB	00H
	DB	00H
	DB	00H
	DB	00H
	DB	00H
	DB	00H
	DB	00H
	DB	00H
	DB	00H
	DB	00H
	DB	00H
	DB	00H
	DB	00H
	DB	00H
	DB	00H
	DB	00H
	DB	00H
	DB	00H
	DB	00H
	DB	00H
	DB	00H
	DB	00H
	DB	00H
	DB	00H
	DB	00H
	DB	00H
	DB	00H
	DB	00H
	DB	00H
	DB	00H
	DB	00H
	DB	00H
	DB	00H
	DB	00H
	DB	00H
	DB	00H
	DB	00H
	DB	00H
	DB	00H
	DB	00H
	DB	00H
	DB	00H
	DB	00H
	DB	00H
	DB	00H
	DB	00H
	DB	00H
	DB	00H
	DB	00H
	DB	00H
	DB	00H
	DB	00H
	DB	00H
	DB	00H
	DB	00H
	DB	00H
	DB	00H
	DB	00H
	DB	00H
	DB	00H
	DB	00H
	DB	00H
	DB	00H
	DB	00H
	DB	00H
	DB	00H
	DB	00H
	DB	00H
	DB	00H
	DB	00H
	DB	00H
	DB	00H
	DB	00H
	DB	00H
	DB	00H
	DB	00H
	DB	00H
	DB	00H
	DB	00H
	DB	00H
	DB	00H
	DB	00H
	DB	00H
	DB	00H
	DB	00H
	DB	00H
	DB	00H
	DB	00H
	DB	00H
	DB	00H
	DB	00H
	DB	00H
	DB	00H
	DB	0c0H
	DB	0bcH
	DB	0c0H
	DB	0ffH
	DB	0b8H
	DB	0bcH
	DB	0b8H
	DB	0ffH
	DB	0c0H
	DB	0c0H
	DB	0c0H
	DB	0ffH
	DB	0c0H
	DB	0bcH
	DB	0c0H
	DB	0ffH
	DB	0b8H
	DB	0bcH
	DB	0b8H
	DB	0ffH
	DB	0c0H
	DB	0bcH
	DB	0c0H
	DB	0ffH
	DB	0c0H
	DB	0bcH
	DB	0c0H
	DB	0ffH
	DB	0b8H
	DB	0bcH
	DB	0b8H
	DB	0ffH
	DB	0c0H
	DB	0bcH
	DB	0c0H
	DB	0ffH
	DB	0c0H
	DB	0bcH
	DB	0c0H
	DB	0ffH
	DB	0b8H
	DB	0c0H
	DB	0b8H
	DB	0ffH
	DB	0c0H
	DB	0bcH
	DB	0c0H
	DB	0ffH
	DB	0b8H
	DB	0bcH
	DB	0b8H
	DB	0ffH
	DB	0c0H
	DB	0bcH
	DB	0c0H
	DB	0ffH
	DB	0b8H
	DB	0bcH
	DB	0b8H
	DB	0ffH
	DB	0c0H
	DB	0bcH
	DB	0c0H
	DB	0ffH
	DB	0c0H
	DB	0bcH
	DB	0c0H
	DB	0ffH
	DB	0b8H
	DB	0bcH
	DB	0b8H
	DB	0ffH
	DB	0c0H
	DB	0bcH
	DB	0c0H
	DB	0ffH
	DB	0b8H
	DB	0bcH
	DB	0b8H
	DB	0ffH
	DB	0c0H
	DB	0c0H
	DB	0c0H
	DB	0ffH
	DB	0c0H
	DB	0bcH
	DB	0c0H
	DB	0ffH
	DB	0c0H
	DB	0bcH
	DB	0c0H
	DB	0ffH
	DB	0b8H
	DB	0bcH
	DB	0b8H
	DB	0ffH
	DB	0c0H
	DB	0bcH
	DB	0c0H
	DB	0ffH
	DB	0c0H
	DB	0c0H
	DB	0c0H
	DB	0ffH
	DB	0c0H
	DB	0bcH
	DB	0c0H
	DB	0ffH
	DB	0b8H
	DB	0bcH
	DB	0b8H
	DB	0ffH
	DB	00H
	DB	00H
	DB	00H
	DB	00H
	DB	00H
	DB	00H
	DB	00H
	DB	00H
	DB	00H
	DB	00H
	DB	00H
	DB	00H
	DB	00H
	DB	00H
	DB	00H
	DB	00H
	DB	00H
	DB	00H
	DB	00H
	DB	00H
	DB	00H
	DB	00H
	DB	00H
	DB	00H
	DB	00H
	DB	00H
	DB	00H
	DB	00H
	DB	00H
	DB	00H
	DB	00H
	DB	00H
	DB	00H
	DB	00H
	DB	00H
	DB	00H
	DB	00H
	DB	00H
	DB	00H
	DB	00H
	DB	00H
	DB	00H
	DB	00H
	DB	00H
	DB	00H
	DB	00H
	DB	00H
	DB	00H
	DB	00H
	DB	00H
	DB	00H
	DB	00H
	DB	00H
	DB	00H
	DB	00H
	DB	00H
	DB	00H
	DB	00H
	DB	00H
	DB	00H
	DB	00H
	DB	00H
	DB	00H
	DB	00H
	DB	00H
	DB	00H
	DB	00H
	DB	00H
	DB	00H
	DB	00H
	DB	00H
	DB	00H
	DB	00H
	DB	00H
	DB	00H
	DB	00H
	DB	00H
	DB	00H
	DB	00H
	DB	00H
	DB	00H
	DB	00H
	DB	00H
	DB	00H
	DB	00H
	DB	00H
	DB	00H
	DB	00H
	DB	00H
	DB	00H
	DB	00H
	DB	00H
	DB	00H
	DB	00H
	DB	00H
	DB	00H
	DB	00H
	DB	00H
	DB	00H
	DB	00H
	DB	00H
	DB	00H
	DB	00H
	DB	00H
	DB	00H
	DB	00H
	DB	00H
	DB	00H
	DB	00H
	DB	00H
	DB	00H
	DB	00H
	DB	00H
	DB	00H
	DB	00H
	DB	00H
	DB	00H
	DB	00H
	DB	00H
	DB	00H
	DB	00H
	DB	00H
	DB	00H
	DB	00H
	DB	00H
	DB	00H
	DB	00H
	DB	00H
	DB	00H
	DB	00H
	DB	00H
	DB	00H
	DB	00H
	DB	00H
	DB	00H
	DB	00H
	DB	00H
	DB	00H
	DB	00H
	DB	00H
	DB	00H
	DB	00H
	DB	00H
	DB	00H
	DB	00H
	DB	00H
	DB	00H
	DB	00H
	DB	00H
	DB	00H
	DB	00H
	DB	00H
	DB	00H
	DB	00H
	DB	00H
	DB	00H
	DB	00H
	DB	00H
	DB	00H
	DB	00H
	DB	00H
	DB	00H
	DB	00H
	DB	00H
	DB	00H
	DB	00H
	DB	00H
	DB	00H
	DB	0b8H
	DB	0bcH
	DB	0b8H
	DB	0ffH
	DB	0c0H
	DB	0c0H
	DB	0c0H
	DB	0ffH
	DB	0c0H
	DB	0bcH
	DB	0c0H
	DB	0ffH
	DB	0b8H
	DB	0bcH
	DB	0b8H
	DB	0ffH
	DB	0c0H
	DB	0c0H
	DB	0c0H
	DB	0ffH
	DB	0c0H
	DB	0c0H
	DB	0c0H
	DB	0ffH
	DB	0b8H
	DB	0bcH
	DB	0b8H
	DB	0ffH
	DB	0c0H
	DB	0bcH
	DB	0c0H
	DB	0ffH
	DB	0c0H
	DB	0bcH
	DB	0c0H
	DB	0ffH
	DB	0b8H
	DB	0bcH
	DB	0b8H
	DB	0ffH
	DB	0c0H
	DB	0bcH
	DB	0c0H
	DB	0ffH
	DB	0c0H
	DB	0c0H
	DB	0c0H
	DB	0ffH
	DB	0b8H
	DB	0bcH
	DB	0b8H
	DB	0ffH
	DB	0c0H
	DB	0c0H
	DB	0c0H
	DB	0ffH
	DB	0c0H
	DB	0bcH
	DB	0c0H
	DB	0ffH
	DB	0b8H
	DB	0c0H
	DB	0b8H
	DB	0ffH
	DB	0c0H
	DB	0bcH
	DB	0c0H
	DB	0ffH
	DB	0c0H
	DB	0bcH
	DB	0c0H
	DB	0ffH
	DB	0b8H
	DB	0c0H
	DB	0b8H
	DB	0ffH
	DB	0c0H
	DB	0bcH
	DB	0c0H
	DB	0ffH
	DB	0b8H
	DB	0bcH
	DB	0b8H
	DB	0ffH
	DB	0c0H
	DB	0bcH
	DB	0c0H
	DB	0ffH
	DB	0b8H
	DB	0c0H
	DB	0b8H
	DB	0ffH
	DB	0c0H
	DB	0bcH
	DB	0c0H
	DB	0ffH
	DB	0b8H
	DB	0bcH
	DB	0b8H
	DB	0ffH
	DB	0c0H
	DB	0c0H
	DB	0c0H
	DB	0ffH
	DB	0c0H
	DB	0bcH
	DB	0c0H
	DB	0ffH
	DB	0c0H
	DB	0bcH
	DB	0c0H
	DB	0ffH
	DB	00H
	DB	00H
	DB	00H
	DB	00H
	DB	00H
	DB	00H
	DB	00H
	DB	00H
	DB	00H
	DB	00H
	DB	00H
	DB	00H
	DB	00H
	DB	00H
	DB	00H
	DB	00H
	DB	00H
	DB	00H
	DB	00H
	DB	00H
	DB	00H
	DB	00H
	DB	00H
	DB	00H
	DB	00H
	DB	00H
	DB	00H
	DB	00H
	DB	00H
	DB	00H
	DB	00H
	DB	00H
	DB	00H
	DB	00H
	DB	00H
	DB	00H
	DB	00H
	DB	00H
	DB	00H
	DB	00H
	DB	00H
	DB	00H
	DB	00H
	DB	00H
	DB	00H
	DB	00H
	DB	00H
	DB	00H
	DB	00H
	DB	00H
	DB	00H
	DB	00H
	DB	00H
	DB	00H
	DB	00H
	DB	00H
	DB	00H
	DB	00H
	DB	00H
	DB	00H
	DB	00H
	DB	00H
	DB	00H
	DB	00H
	DB	00H
	DB	00H
	DB	00H
	DB	00H
	DB	00H
	DB	00H
	DB	00H
	DB	00H
	DB	00H
	DB	00H
	DB	00H
	DB	00H
	DB	00H
	DB	00H
	DB	00H
	DB	00H
	DB	00H
	DB	00H
	DB	00H
	DB	00H
	DB	00H
	DB	00H
	DB	00H
	DB	00H
	DB	00H
	DB	00H
	DB	00H
	DB	00H
	DB	00H
	DB	00H
	DB	00H
	DB	00H
	DB	00H
	DB	00H
	DB	00H
	DB	00H
	DB	00H
	DB	00H
	DB	00H
	DB	00H
	DB	0b8H
	DB	0bcH
	DB	0b8H
	DB	041H
	DB	0c0H
	DB	0bcH
	DB	0c0H
	DB	08eH
	DB	0c0H
	DB	0bcH
	DB	0c0H
	DB	0cfH
	DB	0c0H
	DB	0bcH
	DB	0c0H
	DB	0efH
	DB	0b8H
	DB	0bcH
	DB	0b8H
	DB	0ffH
	DB	0c0H
	DB	0bcH
	DB	0c0H
	DB	0ffH
	DB	0c0H
	DB	0bcH
	DB	0c0H
	DB	0ffH
	DB	0b8H
	DB	0bcH
	DB	0b8H
	DB	0ffH
	DB	0c0H
	DB	0bcH
	DB	0c0H
	DB	0ffH
	DB	0c0H
	DB	0bcH
	DB	0c0H
	DB	0ffH
	DB	0b8H
	DB	0bcH
	DB	0b8H
	DB	0ffH
	DB	0c0H
	DB	0bcH
	DB	0c0H
	DB	0ffH
	DB	0c0H
	DB	0bcH
	DB	0c0H
	DB	0ffH
	DB	0b8H
	DB	0bcH
	DB	0b8H
	DB	0ffH
	DB	0c0H
	DB	0bcH
	DB	0c0H
	DB	0ffH
	DB	0c0H
	DB	0bcH
	DB	0c0H
	DB	0ffH
	DB	0b8H
	DB	0bcH
	DB	0b8H
	DB	0ffH
	DB	0c0H
	DB	0bcH
	DB	0c0H
	DB	0ffH
	DB	0b8H
	DB	0bcH
	DB	0b8H
	DB	0ffH
	DB	0c0H
	DB	0bcH
	DB	0c0H
	DB	0ffH
	DB	0c0H
	DB	0bcH
	DB	0c0H
	DB	0ffH
	DB	0b8H
	DB	0bcH
	DB	0b8H
	DB	0ffH
	DB	0c0H
	DB	0c0H
	DB	0c0H
	DB	0ffH
	DB	0c0H
	DB	0c0H
	DB	0c0H
	DB	0ffH
	DB	0b8H
	DB	0bcH
	DB	0b8H
	DB	0ffH
	DB	0b8H
	DB	0bcH
	DB	0b8H
	DB	0ffH
	DB	0c0H
	DB	0c0H
	DB	0c0H
	DB	0ffH
	DB	0c0H
	DB	0bcH
	DB	0c0H
	DB	0ffH
	DB	0b8H
	DB	0bcH
	DB	0b8H
	DB	0ffH
	DB	0c0H
	DB	0bcH
	DB	0c0H
	DB	0ffH
	DB	0c0H
	DB	0c0H
	DB	0c0H
	DB	0ffH
	DB	0b8H
	DB	0bcH
	DB	0b8H
	DB	0ffH
	DB	0c0H
	DB	0bcH
	DB	0c0H
	DB	0ffH
	DB	0c0H
	DB	0c0H
	DB	0c0H
	DB	0ffH
	DB	0b8H
	DB	0bcH
	DB	0b8H
	DB	0ffH
	DB	0c0H
	DB	0bcH
	DB	0c0H
	DB	0ffH
	DB	0c0H
	DB	0bcH
	DB	0c0H
	DB	0ffH
	DB	0b8H
	DB	0c0H
	DB	0b8H
	DB	0ffH
	DB	0c0H
	DB	0bcH
	DB	0c0H
	DB	0ffH
	DB	0c0H
	DB	0bcH
	DB	0c0H
	DB	0ffH
	DB	0b8H
	DB	0bcH
	DB	0b8H
	DB	0ffH
	DB	0b8H
	DB	0bcH
	DB	0b8H
	DB	0ffH
	DB	0c0H
	DB	0c0H
	DB	0c0H
	DB	0ffH
	DB	0b8H
	DB	0bcH
	DB	0b8H
	DB	0ffH
	DB	0c0H
	DB	0c0H
	DB	0c0H
	DB	0ffH
	DB	0c0H
	DB	0bcH
	DB	0c0H
	DB	0ffH
	DB	0b8H
	DB	0bcH
	DB	0b8H
	DB	0ffH
	DB	0c0H
	DB	0bcH
	DB	0c0H
	DB	0ffH
	DB	0c0H
	DB	0bcH
	DB	0c0H
	DB	0ffH
	DB	0b8H
	DB	0bcH
	DB	0b8H
	DB	0ffH
	DB	0c0H
	DB	0bcH
	DB	0c0H
	DB	0ffH
	DB	0c0H
	DB	0bcH
	DB	0c0H
	DB	0ffH
	DB	0b8H
	DB	0bcH
	DB	0b8H
	DB	0ffH
	DB	0c0H
	DB	0bcH
	DB	0c0H
	DB	0ffH
	DB	0c0H
	DB	0bcH
	DB	0c0H
	DB	0ffH
	DB	0b8H
	DB	0bcH
	DB	0b8H
	DB	0ffH
	DB	0c0H
	DB	0bcH
	DB	0c0H
	DB	0ffH
	DB	0c0H
	DB	0bcH
	DB	0c0H
	DB	0cfH
	DB	0b8H
	DB	0bcH
	DB	0b8H
	DB	09eH
	DB	0c0H
	DB	0c0H
	DB	0c0H
	DB	020H
	DB	00H
	DB	00H
	DB	00H
	DB	00H
	DB	00H
	DB	00H
	DB	00H
	DB	00H
	DB	00H
	DB	00H
	DB	00H
	DB	00H
	DB	00H
	DB	00H
	DB	00H
	DB	00H
	DB	00H
	DB	00H
	DB	00H
	DB	00H
	DB	00H
	DB	00H
	DB	00H
	DB	00H
	DB	00H
	DB	00H
	DB	00H
	DB	00H
	DB	00H
	DB	00H
	DB	00H
	DB	00H
	DB	0c0H
	DB	0c0H
	DB	0c0H
	DB	010H
	DB	0c0H
	DB	0bcH
	DB	0c0H
	DB	09eH
	DB	0c0H
	DB	0bcH
	DB	0c0H
	DB	0ffH
	DB	0b8H
	DB	0bcH
	DB	0b8H
	DB	0ffH
	DB	0c0H
	DB	0bcH
	DB	0c0H
	DB	0ffH
	DB	0b8H
	DB	0bcH
	DB	0b8H
	DB	0ffH
	DB	0c0H
	DB	0bcH
	DB	0c0H
	DB	0ffH
	DB	0c0H
	DB	0bcH
	DB	0c0H
	DB	0ffH
	DB	0b8H
	DB	0bcH
	DB	0b8H
	DB	0ffH
	DB	0c0H
	DB	0bcH
	DB	0c0H
	DB	0ffH
	DB	0c0H
	DB	0bcH
	DB	0c0H
	DB	0ffH
	DB	0b8H
	DB	0bcH
	DB	0b8H
	DB	0ffH
	DB	0c0H
	DB	0bcH
	DB	0c0H
	DB	0ffH
	DB	0c0H
	DB	0bcH
	DB	0c0H
	DB	0ffH
	DB	0b8H
	DB	0bcH
	DB	0b8H
	DB	0ffH
	DB	0c0H
	DB	0c0H
	DB	0c0H
	DB	0ffH
	DB	0c0H
	DB	0bcH
	DB	0c0H
	DB	0ffH
	DB	0b8H
	DB	0bcH
	DB	0b8H
	DB	0ffH
	DB	0c0H
	DB	0c0H
	DB	0c0H
	DB	0ffH
	DB	0c0H
	DB	0bcH
	DB	0c0H
	DB	0ffH
	DB	0b8H
	DB	0c0H
	DB	0b8H
	DB	0ffH
	DB	0c0H
	DB	0bcH
	DB	0c0H
	DB	0ffH
	DB	0b8H
	DB	0bcH
	DB	0b8H
	DB	0ffH
	DB	0c0H
	DB	0bcH
	DB	0c0H
	DB	0ffH
	DB	0b8H
	DB	0bcH
	DB	0b8H
	DB	0ffH
	DB	0c0H
	DB	0bcH
	DB	0c0H
	DB	0ffH
	DB	0c0H
	DB	0bcH
	DB	0c0H
	DB	0ffH
	DB	0b8H
	DB	0c0H
	DB	0b8H
	DB	0ffH
	DB	0c0H
	DB	0bcH
	DB	0c0H
	DB	0ffH
	DB	0c0H
	DB	0bcH
	DB	0c0H
	DB	0ffH
	DB	0b8H
	DB	0bcH
	DB	0b8H
	DB	0ffH
	DB	0c0H
	DB	0bcH
	DB	0c0H
	DB	0ffH
	DB	0b8H
	DB	0bcH
	DB	0b8H
	DB	0ffH
	DB	0c0H
	DB	0bcH
	DB	0c0H
	DB	0ffH
	DB	0b8H
	DB	0bcH
	DB	0b8H
	DB	0ffH
	DB	0c0H
	DB	0bcH
	DB	0c0H
	DB	0ffH
	DB	0c0H
	DB	0c0H
	DB	0c0H
	DB	0ffH
	DB	0b8H
	DB	0bcH
	DB	0b8H
	DB	0ffH
	DB	0c0H
	DB	0bcH
	DB	0c0H
	DB	0ffH
	DB	0c0H
	DB	0bcH
	DB	0c0H
	DB	0ffH
	DB	0b8H
	DB	0bcH
	DB	0b8H
	DB	0ffH
	DB	0c0H
	DB	0c0H
	DB	0c0H
	DB	0ffH
	DB	0c0H
	DB	0bcH
	DB	0c0H
	DB	0ffH
	DB	0c0H
	DB	0bcH
	DB	0c0H
	DB	0ffH
	DB	0b8H
	DB	0bcH
	DB	0b8H
	DB	0ffH
	DB	0c0H
	DB	0bcH
	DB	0c0H
	DB	0ffH
	DB	0c0H
	DB	0bcH
	DB	0c0H
	DB	0ffH
	DB	0b8H
	DB	0c0H
	DB	0b8H
	DB	0ffH
	DB	0c0H
	DB	0bcH
	DB	0c0H
	DB	0ffH
	DB	0c0H
	DB	0bcH
	DB	0c0H
	DB	0ffH
	DB	0b8H
	DB	0c0H
	DB	0b8H
	DB	0ffH
	DB	0c0H
	DB	0bcH
	DB	0c0H
	DB	0ffH
	DB	0c0H
	DB	0bcH
	DB	0c0H
	DB	0ffH
	DB	0b8H
	DB	0c0H
	DB	0b8H
	DB	0ffH
	DB	0c0H
	DB	0bcH
	DB	0c0H
	DB	0ffH
	DB	0c0H
	DB	0bcH
	DB	0c0H
	DB	0ffH
	DB	0b8H
	DB	0bcH
	DB	0b8H
	DB	0ffH
	DB	0c0H
	DB	0bcH
	DB	0c0H
	DB	0ffH
	DB	0c0H
	DB	0bcH
	DB	0c0H
	DB	0ffH
	DB	0b8H
	DB	0bcH
	DB	0b8H
	DB	0ffH
	DB	0c0H
	DB	0bcH
	DB	0c0H
	DB	0ffH
	DB	0c0H
	DB	0bcH
	DB	0c0H
	DB	0ffH
	DB	0c0H
	DB	0bcH
	DB	0c0H
	DB	09eH
	DB	0c0H
	DB	0c0H
	DB	0c0H
	DB	020H
	DB	00H
	DB	00H
	DB	00H
	DB	00H
	DB	00H
	DB	00H
	DB	00H
	DB	00H
	DB	00H
	DB	00H
	DB	00H
	DB	00H
	DB	00H
	DB	00H
	DB	00H
	DB	00H
	DB	00H
	DB	00H
	DB	00H
	DB	00H
	DB	0c0H
	DB	0c0H
	DB	0c0H
	DB	020H
	DB	0c0H
	DB	0bcH
	DB	0c0H
	DB	0dfH
	DB	0b8H
	DB	0bcH
	DB	0b8H
	DB	0ffH
	DB	0c0H
	DB	0bcH
	DB	0c0H
	DB	0ffH
	DB	0c0H
	DB	0bcH
	DB	0c0H
	DB	0ffH
	DB	0b8H
	DB	0c0H
	DB	0b8H
	DB	0ffH
	DB	0c0H
	DB	0c0H
	DB	0c0H
	DB	0ffH
	DB	0c0H
	DB	0bcH
	DB	0c0H
	DB	0ffH
	DB	0b8H
	DB	0c0H
	DB	0b8H
	DB	0ffH
	DB	0c0H
	DB	0c0H
	DB	0c0H
	DB	0ffH
	DB	0c0H
	DB	0bcH
	DB	0c0H
	DB	0ffH
	DB	0b8H
	DB	0c0H
	DB	0b8H
	DB	0ffH
	DB	0c0H
	DB	0bcH
	DB	0c0H
	DB	0ffH
	DB	0c0H
	DB	0c0H
	DB	0c0H
	DB	0ffH
	DB	0b8H
	DB	0bcH
	DB	0b8H
	DB	0ffH
	DB	0c0H
	DB	0bcH
	DB	0c0H
	DB	0ffH
	DB	0c0H
	DB	0c0H
	DB	0c0H
	DB	0ffH
	DB	0b8H
	DB	0bcH
	DB	0b8H
	DB	0ffH
	DB	0c0H
	DB	0bcH
	DB	0c0H
	DB	0ffH
	DB	0c0H
	DB	0c0H
	DB	0c0H
	DB	0ffH
	DB	0b8H
	DB	0bcH
	DB	0b8H
	DB	0ffH
	DB	0c0H
	DB	0bcH
	DB	0c0H
	DB	0ffH
	DB	0c0H
	DB	0c0H
	DB	0c0H
	DB	0ffH
	DB	0b8H
	DB	0bcH
	DB	0b8H
	DB	0ffH
	DB	0c0H
	DB	0c0H
	DB	0c0H
	DB	0ffH
	DB	0c0H
	DB	0bcH
	DB	0c0H
	DB	0ffH
	DB	0b8H
	DB	0bcH
	DB	0b8H
	DB	0ffH
	DB	0c0H
	DB	0bcH
	DB	0c0H
	DB	0ffH
	DB	0c0H
	DB	0bcH
	DB	0c0H
	DB	0ffH
	DB	0b8H
	DB	0bcH
	DB	0b8H
	DB	0ffH
	DB	0c0H
	DB	0c0H
	DB	0c0H
	DB	0ffH
	DB	0c0H
	DB	0c0H
	DB	0c0H
	DB	0ffH
	DB	0b8H
	DB	0bcH
	DB	0b8H
	DB	0ffH
	DB	0c0H
	DB	0bcH
	DB	0c0H
	DB	0ffH
	DB	0c0H
	DB	0c0H
	DB	0c0H
	DB	0ffH
	DB	0b8H
	DB	0bcH
	DB	0b8H
	DB	0ffH
	DB	0c0H
	DB	0bcH
	DB	0c0H
	DB	0ffH
	DB	0c0H
	DB	0bcH
	DB	0c0H
	DB	0ffH
	DB	0b8H
	DB	0c0H
	DB	0b8H
	DB	0ffH
	DB	0c0H
	DB	0bcH
	DB	0c0H
	DB	0ffH
	DB	0c0H
	DB	0bcH
	DB	0c0H
	DB	0ffH
	DB	0b8H
	DB	0c0H
	DB	0b8H
	DB	0ffH
	DB	0b8H
	DB	0bcH
	DB	0b8H
	DB	0ffH
	DB	0c0H
	DB	0bcH
	DB	0c0H
	DB	0ffH
	DB	0c0H
	DB	0c0H
	DB	0c0H
	DB	0ffH
	DB	0b8H
	DB	0bcH
	DB	0b8H
	DB	0ffH
	DB	0c0H
	DB	0bcH
	DB	0c0H
	DB	0ffH
	DB	0b8H
	DB	0bcH
	DB	0b8H
	DB	0ffH
	DB	0c0H
	DB	0c0H
	DB	0c0H
	DB	0ffH
	DB	0c0H
	DB	0bcH
	DB	0c0H
	DB	0ffH
	DB	0b8H
	DB	0bcH
	DB	0b8H
	DB	0ffH
	DB	0b8H
	DB	0c0H
	DB	0b8H
	DB	0ffH
	DB	0c0H
	DB	0bcH
	DB	0c0H
	DB	0ffH
	DB	0c0H
	DB	0bcH
	DB	0c0H
	DB	0ffH
	DB	0b8H
	DB	0c0H
	DB	0b8H
	DB	0ffH
	DB	0c0H
	DB	0bcH
	DB	0c0H
	DB	0ffH
	DB	0b8H
	DB	0bcH
	DB	0b8H
	DB	0ffH
	DB	0c0H
	DB	0c0H
	DB	0c0H
	DB	0ffH
	DB	0c0H
	DB	0c0H
	DB	0c0H
	DB	0ffH
	DB	0b8H
	DB	0bcH
	DB	0b8H
	DB	0ffH
	DB	0c0H
	DB	0c0H
	DB	0c0H
	DB	0ffH
	DB	0c0H
	DB	0bcH
	DB	0c0H
	DB	0ffH
	DB	0b8H
	DB	0bcH
	DB	0b8H
	DB	0ffH
	DB	0b8H
	DB	0bcH
	DB	0b8H
	DB	0ffH
	DB	0c0H
	DB	0c0H
	DB	0c0H
	DB	0dfH
	DB	0c0H
	DB	0c0H
	DB	0c0H
	DB	020H
	DB	00H
	DB	00H
	DB	00H
	DB	00H
	DB	00H
	DB	00H
	DB	00H
	DB	00H
	DB	00H
	DB	00H
	DB	00H
	DB	00H
	DB	0c0H
	DB	0c0H
	DB	0c0H
	DB	020H
	DB	0c0H
	DB	0bcH
	DB	0c0H
	DB	0dfH
	DB	0b8H
	DB	0bcH
	DB	0b8H
	DB	0ffH
	DB	0b8H
	DB	0bcH
	DB	0b8H
	DB	0ffH
	DB	0c0H
	DB	0bcH
	DB	0c0H
	DB	0ffH
	DB	0c0H
	DB	0bcH
	DB	0c0H
	DB	0ffH
	DB	0b8H
	DB	0bcH
	DB	0b8H
	DB	0ffH
	DB	0c0H
	DB	0bcH
	DB	0c0H
	DB	0ffH
	DB	0b8H
	DB	0bcH
	DB	0b8H
	DB	0ffH
	DB	0c0H
	DB	0bcH
	DB	0c0H
	DB	0ffH
	DB	0b8H
	DB	0bcH
	DB	0b8H
	DB	0ffH
	DB	0c0H
	DB	0bcH
	DB	0c0H
	DB	0ffH
	DB	0b8H
	DB	0bcH
	DB	0b8H
	DB	0ffH
	DB	0c0H
	DB	0c0H
	DB	0c0H
	DB	0ffH
	DB	0b8H
	DB	0bcH
	DB	0b8H
	DB	0ffH
	DB	0b8H
	DB	0bcH
	DB	0b8H
	DB	0ffH
	DB	0c0H
	DB	0bcH
	DB	0c0H
	DB	0ffH
	DB	0b8H
	DB	0bcH
	DB	0b8H
	DB	0ffH
	DB	0c0H
	DB	0bcH
	DB	0c0H
	DB	0ffH
	DB	0b8H
	DB	0bcH
	DB	0b8H
	DB	0ffH
	DB	0c0H
	DB	0bcH
	DB	0c0H
	DB	0ffH
	DB	0b8H
	DB	0bcH
	DB	0b8H
	DB	0ffH
	DB	0c0H
	DB	0bcH
	DB	0c0H
	DB	0ffH
	DB	0c0H
	DB	0bcH
	DB	0c0H
	DB	0ffH
	DB	0b8H
	DB	0bcH
	DB	0b8H
	DB	0ffH
	DB	0c0H
	DB	0c0H
	DB	0c0H
	DB	0ffH
	DB	0c0H
	DB	0bcH
	DB	0c0H
	DB	0ffH
	DB	0b8H
	DB	0c0H
	DB	0b8H
	DB	0ffH
	DB	0c0H
	DB	0c0H
	DB	0c0H
	DB	0ffH
	DB	0c0H
	DB	0bcH
	DB	0c0H
	DB	0ffH
	DB	0b8H
	DB	0bcH
	DB	0b8H
	DB	0ffH
	DB	0c0H
	DB	0bcH
	DB	0c0H
	DB	0ffH
	DB	0c0H
	DB	0bcH
	DB	0c0H
	DB	0ffH
	DB	0b8H
	DB	0bcH
	DB	0b8H
	DB	0ffH
	DB	0c0H
	DB	0c0H
	DB	0c0H
	DB	0ffH
	DB	0c0H
	DB	0bcH
	DB	0c0H
	DB	0ffH
	DB	0b8H
	DB	0c0H
	DB	0b8H
	DB	0ffH
	DB	0b8H
	DB	0bcH
	DB	0b8H
	DB	0ffH
	DB	0c0H
	DB	0bcH
	DB	0c0H
	DB	0ffH
	DB	0b8H
	DB	0bcH
	DB	0b8H
	DB	0ffH
	DB	0c0H
	DB	0c0H
	DB	0c0H
	DB	0ffH
	DB	0c0H
	DB	0bcH
	DB	0c0H
	DB	0ffH
	DB	0b8H
	DB	0bcH
	DB	0b8H
	DB	0ffH
	DB	0c0H
	DB	0bcH
	DB	0c0H
	DB	0ffH
	DB	0c0H
	DB	0bcH
	DB	0c0H
	DB	0ffH
	DB	0b8H
	DB	0c0H
	DB	0b8H
	DB	0ffH
	DB	0c0H
	DB	0bcH
	DB	0c0H
	DB	0ffH
	DB	0c0H
	DB	0bcH
	DB	0c0H
	DB	0ffH
	DB	0b8H
	DB	0c0H
	DB	0b8H
	DB	0ffH
	DB	0c0H
	DB	0bcH
	DB	0c0H
	DB	0ffH
	DB	0c0H
	DB	0bcH
	DB	0c0H
	DB	0ffH
	DB	0b8H
	DB	0bcH
	DB	0b8H
	DB	0ffH
	DB	0c0H
	DB	0bcH
	DB	0c0H
	DB	0ffH
	DB	0c0H
	DB	0bcH
	DB	0c0H
	DB	0ffH
	DB	0b8H
	DB	0bcH
	DB	0b8H
	DB	0ffH
	DB	0c0H
	DB	0bcH
	DB	0c0H
	DB	0ffH
	DB	0c0H
	DB	0bcH
	DB	0c0H
	DB	0ffH
	DB	0b8H
	DB	0bcH
	DB	0b8H
	DB	0ffH
	DB	0c0H
	DB	0bcH
	DB	0c0H
	DB	0ffH
	DB	0b8H
	DB	0bcH
	DB	0b8H
	DB	0ffH
	DB	0c0H
	DB	0bcH
	DB	0c0H
	DB	0ffH
	DB	0c0H
	DB	0c0H
	DB	0c0H
	DB	0ffH
	DB	0b8H
	DB	0bcH
	DB	0b8H
	DB	0ffH
	DB	0c0H
	DB	0bcH
	DB	0c0H
	DB	0ffH
	DB	0c0H
	DB	0bcH
	DB	0c0H
	DB	0ffH
	DB	0b8H
	DB	0bcH
	DB	0b8H
	DB	0ffH
	DB	0c0H
	DB	0bcH
	DB	0c0H
	DB	0dfH
	DB	0c0H
	DB	0c0H
	DB	0c0H
	DB	010H
	DB	00H
	DB	00H
	DB	00H
	DB	00H
	DB	00H
	DB	00H
	DB	00H
	DB	00H
	DB	0c0H
	DB	0bcH
	DB	0c0H
	DB	09eH
	DB	0b8H
	DB	0bcH
	DB	0b8H
	DB	0ffH
	DB	0c0H
	DB	0bcH
	DB	0c0H
	DB	0ffH
	DB	0c0H
	DB	0c0H
	DB	0c0H
	DB	0ffH
	DB	0b8H
	DB	0c0H
	DB	0b8H
	DB	0ffH
	DB	0c0H
	DB	0bcH
	DB	0c0H
	DB	0ffH
	DB	0c0H
	DB	0bcH
	DB	0c0H
	DB	0ffH
	DB	0b8H
	DB	0c0H
	DB	0b8H
	DB	0ffH
	DB	0c0H
	DB	0bcH
	DB	0c0H
	DB	0ffH
	DB	0c0H
	DB	0bcH
	DB	0c0H
	DB	0ffH
	DB	0b8H
	DB	0bcH
	DB	0b8H
	DB	0ffH
	DB	0c0H
	DB	0bcH
	DB	0c0H
	DB	0ffH
	DB	0c0H
	DB	0bcH
	DB	0c0H
	DB	0ffH
	DB	0b8H
	DB	0bcH
	DB	0b8H
	DB	0ffH
	DB	0c0H
	DB	0bcH
	DB	0c0H
	DB	0ffH
	DB	0c0H
	DB	0c0H
	DB	0c0H
	DB	0ffH
	DB	0c0H
	DB	0bcH
	DB	0c0H
	DB	0ffH
	DB	0c0H
	DB	0c0H
	DB	0c0H
	DB	0ffH
	DB	0b8H
	DB	0bcH
	DB	0b8H
	DB	0ffH
	DB	0c0H
	DB	0c0H
	DB	0c0H
	DB	0ffH
	DB	0c0H
	DB	0bcH
	DB	0c0H
	DB	0ffH
	DB	0b8H
	DB	0c0H
	DB	0b8H
	DB	0ffH
	DB	0c0H
	DB	0bcH
	DB	0c0H
	DB	0ffH
	DB	0c0H
	DB	0bcH
	DB	0c0H
	DB	0ffH
	DB	0b8H
	DB	0c0H
	DB	0b8H
	DB	0ffH
	DB	0c0H
	DB	0bcH
	DB	0c0H
	DB	0ffH
	DB	0b8H
	DB	0bcH
	DB	0b8H
	DB	0ffH
	DB	0c0H
	DB	0bcH
	DB	0c0H
	DB	0ffH
	DB	0b8H
	DB	0bcH
	DB	0b8H
	DB	0ffH
	DB	0c0H
	DB	0bcH
	DB	0c0H
	DB	0ffH
	DB	0b8H
	DB	0c0H
	DB	0b8H
	DB	0ffH
	DB	0c0H
	DB	0bcH
	DB	0c0H
	DB	0ffH
	DB	0b8H
	DB	0bcH
	DB	0b8H
	DB	0ffH
	DB	0c0H
	DB	0bcH
	DB	0c0H
	DB	0ffH
	DB	0b8H
	DB	0bcH
	DB	0b8H
	DB	0ffH
	DB	0c0H
	DB	0bcH
	DB	0c0H
	DB	0ffH
	DB	0c0H
	DB	0bcH
	DB	0c0H
	DB	0ffH
	DB	0c0H
	DB	0c0H
	DB	0c0H
	DB	0ffH
	DB	0b8H
	DB	0bcH
	DB	0b8H
	DB	0ffH
	DB	0c0H
	DB	0bcH
	DB	0c0H
	DB	0ffH
	DB	0b8H
	DB	0bcH
	DB	0b8H
	DB	0ffH
	DB	0c0H
	DB	0c0H
	DB	0c0H
	DB	0ffH
	DB	0c0H
	DB	0bcH
	DB	0c0H
	DB	0ffH
	DB	0b8H
	DB	0bcH
	DB	0b8H
	DB	0ffH
	DB	0c0H
	DB	0c0H
	DB	0c0H
	DB	0ffH
	DB	0c0H
	DB	0bcH
	DB	0c0H
	DB	0ffH
	DB	0b8H
	DB	0bcH
	DB	0b8H
	DB	0ffH
	DB	0c0H
	DB	0c0H
	DB	0c0H
	DB	0ffH
	DB	0c0H
	DB	0bcH
	DB	0c0H
	DB	0ffH
	DB	0b8H
	DB	0bcH
	DB	0b8H
	DB	0ffH
	DB	0c0H
	DB	0c0H
	DB	0c0H
	DB	0ffH
	DB	0c0H
	DB	0bcH
	DB	0c0H
	DB	0ffH
	DB	0b8H
	DB	0bcH
	DB	0b8H
	DB	0ffH
	DB	0c0H
	DB	0c0H
	DB	0c0H
	DB	0ffH
	DB	0b8H
	DB	0bcH
	DB	0b8H
	DB	0ffH
	DB	0c0H
	DB	0c0H
	DB	0c0H
	DB	0ffH
	DB	0c0H
	DB	0bcH
	DB	0c0H
	DB	0ffH
	DB	0b8H
	DB	0c0H
	DB	0b8H
	DB	0ffH
	DB	0c0H
	DB	0bcH
	DB	0c0H
	DB	0ffH
	DB	0c0H
	DB	0bcH
	DB	0c0H
	DB	0ffH
	DB	0b8H
	DB	0bcH
	DB	0b8H
	DB	0ffH
	DB	0c0H
	DB	0bcH
	DB	0c0H
	DB	0ffH
	DB	0b8H
	DB	0c0H
	DB	0b8H
	DB	0ffH
	DB	0c0H
	DB	0bcH
	DB	0c0H
	DB	0ffH
	DB	0c0H
	DB	0c0H
	DB	0c0H
	DB	0ffH
	DB	0b8H
	DB	0bcH
	DB	0b8H
	DB	0ffH
	DB	0c0H
	DB	0bcH
	DB	0c0H
	DB	0ffH
	DB	0b8H
	DB	0bcH
	DB	0b8H
	DB	09eH
	DB	00H
	DB	00H
	DB	00H
	DB	00H
	DB	0c0H
	DB	0c0H
	DB	0c0H
	DB	020H
	DB	0b8H
	DB	0bcH
	DB	0b8H
	DB	0ffH
	DB	0c0H
	DB	0bcH
	DB	0c0H
	DB	0ffH
	DB	0c0H
	DB	0bcH
	DB	0c0H
	DB	0ffH
	DB	0c0H
	DB	0bcH
	DB	0c0H
	DB	0ffH
	DB	0b8H
	DB	0bcH
	DB	0b8H
	DB	0ffH
	DB	0c0H
	DB	0bcH
	DB	0c0H
	DB	0ffH
	DB	0c0H
	DB	0c0H
	DB	0c0H
	DB	0ffH
	DB	0b8H
	DB	0bcH
	DB	0b8H
	DB	0ffH
	DB	0c0H
	DB	0bcH
	DB	0c0H
	DB	0ffH
	DB	0c0H
	DB	0c0H
	DB	0c0H
	DB	0ffH
	DB	0b8H
	DB	0c0H
	DB	0b8H
	DB	0ffH
	DB	0c0H
	DB	0bcH
	DB	0c0H
	DB	0ffH
	DB	0c0H
	DB	0c0H
	DB	0c0H
	DB	0ffH
	DB	0b8H
	DB	0bcH
	DB	0b8H
	DB	0ffH
	DB	0c0H
	DB	0bcH
	DB	0c0H
	DB	0ffH
	DB	0c0H
	DB	0bcH
	DB	0c0H
	DB	0ffH
	DB	0b8H
	DB	0c0H
	DB	0b8H
	DB	0ffH
	DB	0c0H
	DB	0bcH
	DB	0c0H
	DB	0ffH
	DB	0c0H
	DB	0bcH
	DB	0c0H
	DB	0ffH
	DB	0b8H
	DB	0bcH
	DB	0b8H
	DB	0ffH
	DB	0c0H
	DB	0c0H
	DB	0c0H
	DB	0ffH
	DB	0c0H
	DB	0bcH
	DB	0c0H
	DB	0ffH
	DB	0b8H
	DB	0bcH
	DB	0b8H
	DB	0ffH
	DB	0c0H
	DB	0c0H
	DB	0c0H
	DB	0ffH
	DB	0c0H
	DB	0bcH
	DB	0c0H
	DB	0ffH
	DB	0b8H
	DB	0bcH
	DB	0b8H
	DB	0ffH
	DB	0c0H
	DB	0bcH
	DB	0c0H
	DB	0ffH
	DB	0c0H
	DB	0bcH
	DB	0c0H
	DB	0ffH
	DB	0b8H
	DB	0bcH
	DB	0b8H
	DB	0ffH
	DB	0c0H
	DB	0bcH
	DB	0c0H
	DB	0ffH
	DB	0c0H
	DB	0c0H
	DB	0c0H
	DB	0ffH
	DB	0b8H
	DB	0bcH
	DB	0b8H
	DB	0ffH
	DB	0c0H
	DB	0c0H
	DB	0c0H
	DB	0ffH
	DB	0c0H
	DB	0c0H
	DB	0c0H
	DB	0ffH
	DB	0b8H
	DB	0bcH
	DB	0b8H
	DB	0ffH
	DB	0b8H
	DB	0bcH
	DB	0b8H
	DB	0ffH
	DB	0c0H
	DB	0bcH
	DB	0c0H
	DB	0ffH
	DB	0c0H
	DB	0bcH
	DB	0c0H
	DB	0ffH
	DB	0c0H
	DB	0c0H
	DB	0c0H
	DB	0ffH
	DB	0b8H
	DB	0bcH
	DB	0b8H
	DB	0ffH
	DB	0c0H
	DB	0bcH
	DB	0c0H
	DB	0ffH
	DB	0c0H
	DB	0bcH
	DB	0c0H
	DB	0ffH
	DB	0b8H
	DB	0c0H
	DB	0b8H
	DB	0ffH
	DB	0c0H
	DB	0bcH
	DB	0c0H
	DB	0ffH
	DB	0c0H
	DB	0bcH
	DB	0c0H
	DB	0ffH
	DB	0b8H
	DB	0bcH
	DB	0b8H
	DB	0ffH
	DB	0c0H
	DB	0bcH
	DB	0c0H
	DB	0ffH
	DB	0b8H
	DB	0bcH
	DB	0b8H
	DB	0ffH
	DB	0c0H
	DB	0bcH
	DB	0c0H
	DB	0ffH
	DB	0b8H
	DB	0bcH
	DB	0b8H
	DB	0ffH
	DB	0c0H
	DB	0c0H
	DB	0c0H
	DB	0ffH
	DB	0c0H
	DB	0bcH
	DB	0c0H
	DB	0ffH
	DB	0b8H
	DB	0bcH
	DB	0b8H
	DB	0ffH
	DB	0c0H
	DB	0c0H
	DB	0c0H
	DB	0ffH
	DB	0c0H
	DB	0bcH
	DB	0c0H
	DB	0ffH
	DB	0b8H
	DB	0bcH
	DB	0b8H
	DB	0ffH
	DB	0c0H
	DB	0bcH
	DB	0c0H
	DB	0ffH
	DB	0c0H
	DB	0c0H
	DB	0c0H
	DB	0ffH
	DB	0b8H
	DB	0bcH
	DB	0b8H
	DB	0ffH
	DB	0c0H
	DB	0c0H
	DB	0c0H
	DB	0ffH
	DB	0c0H
	DB	0bcH
	DB	0c0H
	DB	0ffH
	DB	0b8H
	DB	0bcH
	DB	0b8H
	DB	0ffH
	DB	0c0H
	DB	0bcH
	DB	0c0H
	DB	0ffH
	DB	0b8H
	DB	0bcH
	DB	0b8H
	DB	0ffH
	DB	0c0H
	DB	0bcH
	DB	0c0H
	DB	0ffH
	DB	0c0H
	DB	0c0H
	DB	0c0H
	DB	0ffH
	DB	0b8H
	DB	0bcH
	DB	0b8H
	DB	0ffH
	DB	0c0H
	DB	0bcH
	DB	0c0H
	DB	0ffH
	DB	0b8H
	DB	0bcH
	DB	0b8H
	DB	041H
	DB	0c0H
	DB	0bcH
	DB	0c0H
	DB	09eH
	DB	0b8H
	DB	0bcH
	DB	0b8H
	DB	0ffH
	DB	0c0H
	DB	0c0H
	DB	0c0H
	DB	0ffH
	DB	0b8H
	DB	0bcH
	DB	0b8H
	DB	0ffH
	DB	0b8H
	DB	0bcH
	DB	0b8H
	DB	0ffH
	DB	0c0H
	DB	0bcH
	DB	0c0H
	DB	0ffH
	DB	0b8H
	DB	0c0H
	DB	0b8H
	DB	0ffH
	DB	0c0H
	DB	0bcH
	DB	0c0H
	DB	0ffH
	DB	0b8H
	DB	0bcH
	DB	0b8H
	DB	0ffH
	DB	0c0H
	DB	0bcH
	DB	0c0H
	DB	0ffH
	DB	0c0H
	DB	0bcH
	DB	0c0H
	DB	0ffH
	DB	0b8H
	DB	0bcH
	DB	0b8H
	DB	0ffH
	DB	0c0H
	DB	0bcH
	DB	0c0H
	DB	0ffH
	DB	0c0H
	DB	0c0H
	DB	0c0H
	DB	0ffH
	DB	0b8H
	DB	0bcH
	DB	0b8H
	DB	0ffH
	DB	0c0H
	DB	0bcH
	DB	0c0H
	DB	0ffH
	DB	0b8H
	DB	0bcH
	DB	0b8H
	DB	0ffH
	DB	0b8H
	DB	0bcH
	DB	0b8H
	DB	0ffH
	DB	0c0H
	DB	0bcH
	DB	0c0H
	DB	0ffH
	DB	0c0H
	DB	0bcH
	DB	0c0H
	DB	0ffH
	DB	0b8H
	DB	0bcH
	DB	0b8H
	DB	0ffH
	DB	0c0H
	DB	0bcH
	DB	0c0H
	DB	0ffH
	DB	0b8H
	DB	0bcH
	DB	0b8H
	DB	0ffH
	DB	0b8H
	DB	0bcH
	DB	0b8H
	DB	0ffH
	DB	0c0H
	DB	0bcH
	DB	0c0H
	DB	0ffH
	DB	0c0H
	DB	0bcH
	DB	0c0H
	DB	0ffH
	DB	0b8H
	DB	0c0H
	DB	0b8H
	DB	0ffH
	DB	0c0H
	DB	0bcH
	DB	0c0H
	DB	0ffH
	DB	0c0H
	DB	0c0H
	DB	0c0H
	DB	0ffH
	DB	0b8H
	DB	0bcH
	DB	0b8H
	DB	0ffH
	DB	0c0H
	DB	0bcH
	DB	0c0H
	DB	0ffH
	DB	0c0H
	DB	0bcH
	DB	0c0H
	DB	0ffH
	DB	0b8H
	DB	0bcH
	DB	0b8H
	DB	0ffH
	DB	0c0H
	DB	0bcH
	DB	0c0H
	DB	0ffH
	DB	0c0H
	DB	0bcH
	DB	0c0H
	DB	0ffH
	DB	0c0H
	DB	0c0H
	DB	0c0H
	DB	0ffH
	DB	0b8H
	DB	0bcH
	DB	0b8H
	DB	0ffH
	DB	0c0H
	DB	0bcH
	DB	0c0H
	DB	0ffH
	DB	0b8H
	DB	0c0H
	DB	0b8H
	DB	0ffH
	DB	0c0H
	DB	0bcH
	DB	0c0H
	DB	0ffH
	DB	0c0H
	DB	0bcH
	DB	0c0H
	DB	0ffH
	DB	0b8H
	DB	0c0H
	DB	0b8H
	DB	0ffH
	DB	0c0H
	DB	0bcH
	DB	0c0H
	DB	0ffH
	DB	0b8H
	DB	0bcH
	DB	0b8H
	DB	0ffH
	DB	0c0H
	DB	0bcH
	DB	0c0H
	DB	0ffH
	DB	0b8H
	DB	0c0H
	DB	0b8H
	DB	0ffH
	DB	0c0H
	DB	0bcH
	DB	0c0H
	DB	0ffH
	DB	0c0H
	DB	0c0H
	DB	0c0H
	DB	0ffH
	DB	0b8H
	DB	0bcH
	DB	0b8H
	DB	0ffH
	DB	0c0H
	DB	0bcH
	DB	0c0H
	DB	0ffH
	DB	0c0H
	DB	0c0H
	DB	0c0H
	DB	0ffH
	DB	0b8H
	DB	0bcH
	DB	0b8H
	DB	0ffH
	DB	0c0H
	DB	0bcH
	DB	0c0H
	DB	0ffH
	DB	0c0H
	DB	0bcH
	DB	0c0H
	DB	0ffH
	DB	0b8H
	DB	0bcH
	DB	0b8H
	DB	0ffH
	DB	0c0H
	DB	0bcH
	DB	0c0H
	DB	0ffH
	DB	0b8H
	DB	0bcH
	DB	0b8H
	DB	0ffH
	DB	0c0H
	DB	0bcH
	DB	0c0H
	DB	0ffH
	DB	0b8H
	DB	0bcH
	DB	0b8H
	DB	0ffH
	DB	0c0H
	DB	0bcH
	DB	0c0H
	DB	0ffH
	DB	0b8H
	DB	0bcH
	DB	0b8H
	DB	0ffH
	DB	0c0H
	DB	0c0H
	DB	0c0H
	DB	0ffH
	DB	0c0H
	DB	0bcH
	DB	0c0H
	DB	0ffH
	DB	0b8H
	DB	0bcH
	DB	0b8H
	DB	0ffH
	DB	0c0H
	DB	0c0H
	DB	0c0H
	DB	0ffH
	DB	0c0H
	DB	0bcH
	DB	0c0H
	DB	0ffH
	DB	0b8H
	DB	0bcH
	DB	0b8H
	DB	0ffH
	DB	0c0H
	DB	0bcH
	DB	0c0H
	DB	0ffH
	DB	0c0H
	DB	0bcH
	DB	0c0H
	DB	0ffH
	DB	0c0H
	DB	0bcH
	DB	0c0H
	DB	08eH
	DB	0c0H
	DB	0bcH
	DB	0c0H
	DB	0cfH
	DB	0c0H
	DB	0bcH
	DB	0c0H
	DB	0ffH
	DB	0c0H
	DB	0bcH
	DB	0c0H
	DB	0ffH
	DB	0c0H
	DB	0c0H
	DB	0c0H
	DB	0ffH
	DB	0c0H
	DB	0bcH
	DB	0c0H
	DB	0ffH
	DB	0c0H
	DB	0bcH
	DB	0c0H
	DB	0ffH
	DB	0b8H
	DB	0c0H
	DB	0b8H
	DB	0ffH
	DB	0c0H
	DB	0bcH
	DB	0c0H
	DB	0ffH
	DB	0c0H
	DB	0bcH
	DB	0c0H
	DB	0ffH
	DB	0b8H
	DB	0c0H
	DB	0b8H
	DB	0ffH
	DB	0c0H
	DB	0bcH
	DB	0c0H
	DB	0ffH
	DB	0b8H
	DB	0bcH
	DB	0b8H
	DB	0ffH
	DB	0c0H
	DB	0bcH
	DB	0c0H
	DB	0ffH
	DB	0b8H
	DB	0bcH
	DB	0b8H
	DB	0ffH
	DB	0c0H
	DB	0c0H
	DB	0c0H
	DB	0ffH
	DB	0c0H
	DB	0bcH
	DB	0c0H
	DB	0ffH
	DB	0c0H
	DB	0c0H
	DB	0c0H
	DB	0ffH
	DB	0b8H
	DB	0bcH
	DB	0b8H
	DB	0ffH
	DB	0c0H
	DB	0c0H
	DB	0c0H
	DB	0ffH
	DB	0b8H
	DB	0c0H
	DB	0b8H
	DB	0ffH
	DB	0c0H
	DB	0bcH
	DB	0c0H
	DB	0ffH
	DB	0c0H
	DB	0bcH
	DB	0c0H
	DB	0ffH
	DB	0c0H
	DB	0c0H
	DB	0c0H
	DB	0ffH
	DB	0c0H
	DB	0bcH
	DB	0c0H
	DB	0ffH
	DB	0b8H
	DB	0bcH
	DB	0b8H
	DB	0ffH
	DB	0c0H
	DB	0c0H
	DB	0c0H
	DB	0ffH
	DB	0b8H
	DB	0bcH
	DB	0b8H
	DB	0ffH
	DB	0c0H
	DB	0bcH
	DB	0c0H
	DB	0ffH
	DB	0c0H
	DB	0bcH
	DB	0c0H
	DB	0ffH
	DB	0b8H
	DB	0c0H
	DB	0b8H
	DB	0ffH
	DB	0c0H
	DB	0bcH
	DB	0c0H
	DB	0ffH
	DB	0c0H
	DB	0bcH
	DB	0c0H
	DB	0ffH
	DB	0b8H
	DB	0c0H
	DB	0b8H
	DB	0ffH
	DB	0b8H
	DB	0bcH
	DB	0b8H
	DB	0ffH
	DB	0c0H
	DB	0bcH
	DB	0c0H
	DB	0ffH
	DB	0c0H
	DB	0bcH
	DB	0c0H
	DB	0ffH
	DB	0c0H
	DB	0bcH
	DB	0c0H
	DB	0ffH
	DB	0b8H
	DB	0c0H
	DB	0b8H
	DB	0ffH
	DB	0c0H
	DB	0bcH
	DB	0c0H
	DB	0ffH
	DB	0b8H
	DB	0bcH
	DB	0b8H
	DB	0ffH
	DB	0c0H
	DB	0bcH
	DB	0c0H
	DB	0ffH
	DB	0c0H
	DB	0bcH
	DB	0c0H
	DB	0ffH
	DB	0b8H
	DB	0c0H
	DB	0b8H
	DB	0ffH
	DB	0c0H
	DB	0bcH
	DB	0c0H
	DB	0ffH
	DB	0c0H
	DB	0bcH
	DB	0c0H
	DB	0ffH
	DB	0b8H
	DB	0bcH
	DB	0b8H
	DB	0ffH
	DB	0c0H
	DB	0c0H
	DB	0c0H
	DB	0ffH
	DB	0c0H
	DB	0bcH
	DB	0c0H
	DB	0ffH
	DB	0b8H
	DB	0bcH
	DB	0b8H
	DB	0ffH
	DB	0c0H
	DB	0c0H
	DB	0c0H
	DB	0ffH
	DB	0c0H
	DB	0bcH
	DB	0c0H
	DB	0ffH
	DB	0b8H
	DB	0bcH
	DB	0b8H
	DB	0ffH
	DB	0b8H
	DB	0c0H
	DB	0b8H
	DB	0ffH
	DB	0c0H
	DB	0bcH
	DB	0c0H
	DB	0ffH
	DB	0c0H
	DB	0bcH
	DB	0c0H
	DB	0ffH
	DB	0b8H
	DB	0c0H
	DB	0b8H
	DB	0ffH
	DB	0c0H
	DB	0c0H
	DB	0c0H
	DB	0ffH
	DB	0c0H
	DB	0bcH
	DB	0c0H
	DB	0ffH
	DB	0b8H
	DB	0bcH
	DB	0b8H
	DB	0ffH
	DB	0c0H
	DB	0c0H
	DB	0c0H
	DB	0ffH
	DB	0c0H
	DB	0bcH
	DB	0c0H
	DB	0ffH
	DB	0b8H
	DB	0bcH
	DB	0b8H
	DB	0ffH
	DB	0c0H
	DB	0c0H
	DB	0c0H
	DB	0ffH
	DB	0c0H
	DB	0bcH
	DB	0c0H
	DB	0ffH
	DB	0b8H
	DB	0bcH
	DB	0b8H
	DB	0ffH
	DB	0c0H
	DB	0c0H
	DB	0c0H
	DB	0ffH
	DB	0b8H
	DB	0bcH
	DB	0b8H
	DB	0ffH
	DB	0c0H
	DB	0bcH
	DB	0c0H
	DB	0ffH
	DB	0c0H
	DB	0c0H
	DB	0c0H
	DB	0ffH
	DB	0b8H
	DB	0bcH
	DB	0b8H
	DB	0cfH
	DB	0b8H
	DB	0bcH
	DB	0b8H
	DB	0ffH
	DB	0c0H
	DB	0bcH
	DB	0c0H
	DB	0ffH
	DB	0b8H
	DB	0bcH
	DB	0b8H
	DB	0ffH
	DB	0b8H
	DB	0c0H
	DB	0b8H
	DB	0ffH
	DB	0c0H
	DB	0bcH
	DB	0c0H
	DB	0ffH
	DB	0c0H
	DB	0bcH
	DB	0c0H
	DB	0ffH
	DB	0b8H
	DB	0bcH
	DB	0b8H
	DB	0ffH
	DB	0c0H
	DB	0bcH
	DB	0c0H
	DB	0ffH
	DB	0c0H
	DB	0bcH
	DB	0c0H
	DB	0ffH
	DB	0b8H
	DB	0c0H
	DB	0b8H
	DB	0ffH
	DB	0c0H
	DB	0bcH
	DB	0c0H
	DB	0ffH
	DB	0c0H
	DB	0c0H
	DB	0c0H
	DB	0ffH
	DB	0b8H
	DB	0bcH
	DB	0b8H
	DB	0ffH
	DB	0c0H
	DB	0bcH
	DB	0c0H
	DB	0ffH
	DB	0b8H
	DB	0bcH
	DB	0b8H
	DB	0ffH
	DB	0c0H
	DB	0bcH
	DB	0c0H
	DB	0ffH
	DB	0c0H
	DB	0bcH
	DB	0c0H
	DB	0ffH
	DB	0c0H
	DB	0bcH
	DB	0c0H
	DB	0ffH
	DB	0b8H
	DB	0bcH
	DB	0b8H
	DB	0ffH
	DB	0c0H
	DB	0bcH
	DB	0c0H
	DB	0ffH
	DB	0b8H
	DB	0bcH
	DB	0b8H
	DB	0ffH
	DB	0c0H
	DB	0c0H
	DB	0c0H
	DB	0ffH
	DB	0b8H
	DB	0bcH
	DB	0b8H
	DB	0ffH
	DB	0c0H
	DB	0bcH
	DB	0c0H
	DB	0ffH
	DB	0c0H
	DB	0c0H
	DB	0c0H
	DB	0ffH
	DB	0b8H
	DB	0bcH
	DB	0b8H
	DB	0ffH
	DB	0c0H
	DB	0bcH
	DB	0c0H
	DB	0ffH
	DB	0b8H
	DB	0bcH
	DB	0b8H
	DB	0ffH
	DB	0c0H
	DB	0bcH
	DB	0c0H
	DB	0ffH
	DB	0b8H
	DB	0c0H
	DB	0b8H
	DB	0ffH
	DB	0c0H
	DB	0bcH
	DB	0c0H
	DB	0ffH
	DB	0c0H
	DB	0bcH
	DB	0c0H
	DB	0ffH
	DB	0b8H
	DB	0c0H
	DB	0b8H
	DB	0ffH
	DB	0c0H
	DB	0bcH
	DB	0c0H
	DB	0ffH
	DB	0b8H
	DB	0bcH
	DB	0b8H
	DB	0ffH
	DB	0b8H
	DB	0c0H
	DB	0b8H
	DB	0ffH
	DB	0c0H
	DB	0bcH
	DB	0c0H
	DB	0ffH
	DB	0c0H
	DB	0bcH
	DB	0c0H
	DB	0ffH
	DB	0b8H
	DB	0bcH
	DB	0b8H
	DB	0ffH
	DB	0c0H
	DB	0c0H
	DB	0c0H
	DB	0ffH
	DB	0b8H
	DB	0bcH
	DB	0b8H
	DB	0ffH
	DB	0c0H
	DB	0bcH
	DB	0c0H
	DB	0ffH
	DB	0c0H
	DB	0bcH
	DB	0c0H
	DB	0ffH
	DB	0b8H
	DB	0c0H
	DB	0b8H
	DB	0ffH
	DB	0c0H
	DB	0bcH
	DB	0c0H
	DB	0ffH
	DB	0c0H
	DB	0bcH
	DB	0c0H
	DB	0ffH
	DB	0b8H
	DB	0bcH
	DB	0b8H
	DB	0ffH
	DB	0c0H
	DB	0bcH
	DB	0c0H
	DB	0ffH
	DB	0b8H
	DB	0bcH
	DB	0b8H
	DB	0ffH
	DB	0c0H
	DB	0bcH
	DB	0c0H
	DB	0ffH
	DB	0c0H
	DB	0bcH
	DB	0c0H
	DB	0ffH
	DB	0b8H
	DB	0bcH
	DB	0b8H
	DB	0ffH
	DB	0c0H
	DB	0bcH
	DB	0c0H
	DB	0ffH
	DB	0c0H
	DB	0c0H
	DB	0c0H
	DB	0ffH
	DB	0b8H
	DB	0bcH
	DB	0b8H
	DB	0ffH
	DB	0c0H
	DB	0bcH
	DB	0c0H
	DB	0ffH
	DB	0c0H
	DB	0bcH
	DB	0c0H
	DB	0ffH
	DB	0b8H
	DB	0bcH
	DB	0b8H
	DB	0ffH
	DB	0c0H
	DB	0c0H
	DB	0c0H
	DB	0ffH
	DB	0c0H
	DB	0bcH
	DB	0c0H
	DB	0ffH
	DB	0b8H
	DB	0bcH
	DB	0b8H
	DB	0ffH
	DB	0c0H
	DB	0bcH
	DB	0c0H
	DB	0ffH
	DB	0b8H
	DB	0bcH
	DB	0b8H
	DB	0ffH
	DB	0c0H
	DB	0bcH
	DB	0c0H
	DB	0ffH
	DB	0c0H
	DB	0bcH
	DB	0c0H
	DB	0ffH
	DB	0b8H
	DB	0bcH
	DB	0b8H
	DB	0ffH
	DB	0c0H
	DB	0c0H
	DB	0c0H
	DB	0ffH
	DB	0b8H
	DB	0bcH
	DB	0b8H
	DB	0ffH
	DB	0c0H
	DB	0bcH
	DB	0c0H
	DB	0ffH
	DB	0b8H
	DB	0bcH
	DB	0b8H
	DB	0efH
	DB	0c0H
	DB	0bcH
	DB	0c0H
	DB	0ffH
	DB	0b8H
	DB	0bcH
	DB	0b8H
	DB	0ffH
	DB	0c0H
	DB	0c0H
	DB	0c0H
	DB	0ffH
	DB	0b8H
	DB	0bcH
	DB	0b8H
	DB	0ffH
	DB	0c0H
	DB	0bcH
	DB	0c0H
	DB	0ffH
	DB	0b8H
	DB	0c0H
	DB	0b8H
	DB	0ffH
	DB	0c0H
	DB	0bcH
	DB	0c0H
	DB	0ffH
	DB	0c0H
	DB	0bcH
	DB	0c0H
	DB	0ffH
	DB	0b8H
	DB	0c0H
	DB	0b8H
	DB	0ffH
	DB	0c0H
	DB	0bcH
	DB	0c0H
	DB	0ffH
	DB	0c0H
	DB	0bcH
	DB	0c0H
	DB	0ffH
	DB	0b8H
	DB	0bcH
	DB	0b8H
	DB	0ffH
	DB	0c0H
	DB	0c0H
	DB	0c0H
	DB	0ffH
	DB	0c0H
	DB	0bcH
	DB	0c0H
	DB	0ffH
	DB	0b8H
	DB	0bcH
	DB	0b8H
	DB	0ffH
	DB	0b8H
	DB	0c0H
	DB	0b8H
	DB	0ffH
	DB	0c0H
	DB	0bcH
	DB	0c0H
	DB	0ffH
	DB	0b8H
	DB	0bcH
	DB	0b8H
	DB	0ffH
	DB	0c0H
	DB	0c0H
	DB	0c0H
	DB	0ffH
	DB	0c0H
	DB	0bcH
	DB	0c0H
	DB	0ffH
	DB	0c0H
	DB	0bcH
	DB	0c0H
	DB	0ffH
	DB	0b8H
	DB	0bcH
	DB	0b8H
	DB	0ffH
	DB	0c0H
	DB	0bcH
	DB	0c0H
	DB	0ffH
	DB	0b8H
	DB	0bcH
	DB	0b8H
	DB	0ffH
	DB	0c0H
	DB	0bcH
	DB	0c0H
	DB	0ffH
	DB	0c0H
	DB	0bcH
	DB	0c0H
	DB	0ffH
	DB	0b8H
	DB	0c0H
	DB	0b8H
	DB	0ffH
	DB	0c0H
	DB	0bcH
	DB	0c0H
	DB	0ffH
	DB	0c0H
	DB	0bcH
	DB	0c0H
	DB	0ffH
	DB	0b8H
	DB	0bcH
	DB	0b8H
	DB	0ffH
	DB	0c0H
	DB	0bcH
	DB	0c0H
	DB	0ffH
	DB	0c0H
	DB	0bcH
	DB	0c0H
	DB	0ffH
	DB	0c0H
	DB	0bcH
	DB	0c0H
	DB	0ffH
	DB	0c0H
	DB	0bcH
	DB	0c0H
	DB	0ffH
	DB	0c0H
	DB	0bcH
	DB	0c0H
	DB	0ffH
	DB	0b8H
	DB	0c0H
	DB	0b8H
	DB	0ffH
	DB	0c0H
	DB	0bcH
	DB	0c0H
	DB	0ffH
	DB	0c0H
	DB	0bcH
	DB	0c0H
	DB	0ffH
	DB	0c0H
	DB	0bcH
	DB	0c0H
	DB	0ffH
	DB	0b8H
	DB	0c0H
	DB	0b8H
	DB	0ffH
	DB	0c0H
	DB	0bcH
	DB	0c0H
	DB	0ffH
	DB	0c0H
	DB	0bcH
	DB	0c0H
	DB	0ffH
	DB	0b8H
	DB	0bcH
	DB	0b8H
	DB	0ffH
	DB	0c0H
	DB	0bcH
	DB	0c0H
	DB	0ffH
	DB	0b8H
	DB	0c0H
	DB	0b8H
	DB	0ffH
	DB	0c0H
	DB	0bcH
	DB	0c0H
	DB	0ffH
	DB	0c0H
	DB	0bcH
	DB	0c0H
	DB	0ffH
	DB	0b8H
	DB	0c0H
	DB	0b8H
	DB	0ffH
	DB	0c0H
	DB	0bcH
	DB	0c0H
	DB	0ffH
	DB	0b8H
	DB	0bcH
	DB	0b8H
	DB	0ffH
	DB	0c0H
	DB	0c0H
	DB	0c0H
	DB	0ffH
	DB	0c0H
	DB	0bcH
	DB	0c0H
	DB	0ffH
	DB	0b8H
	DB	0bcH
	DB	0b8H
	DB	0ffH
	DB	0c0H
	DB	0bcH
	DB	0c0H
	DB	0ffH
	DB	0b8H
	DB	0c0H
	DB	0b8H
	DB	0ffH
	DB	0c0H
	DB	0bcH
	DB	0c0H
	DB	0ffH
	DB	0c0H
	DB	0bcH
	DB	0c0H
	DB	0ffH
	DB	0b8H
	DB	0bcH
	DB	0b8H
	DB	0ffH
	DB	0c0H
	DB	0bcH
	DB	0c0H
	DB	0ffH
	DB	0b8H
	DB	0c0H
	DB	0b8H
	DB	0ffH
	DB	0c0H
	DB	0bcH
	DB	0c0H
	DB	0ffH
	DB	0c0H
	DB	0bcH
	DB	0c0H
	DB	0ffH
	DB	0b8H
	DB	0c0H
	DB	0b8H
	DB	0ffH
	DB	0c0H
	DB	0bcH
	DB	0c0H
	DB	0ffH
	DB	0c0H
	DB	0bcH
	DB	0c0H
	DB	0ffH
	DB	0b8H
	DB	0c0H
	DB	0b8H
	DB	0ffH
	DB	0c0H
	DB	0bcH
	DB	0c0H
	DB	0ffH
	DB	0c0H
	DB	0bcH
	DB	0c0H
	DB	0ffH
	DB	0b8H
	DB	0bcH
	DB	0b8H
	DB	0ffH
	DB	0c0H
	DB	0bcH
	DB	0c0H
	DB	0ffH
	DB	0c0H
	DB	0bcH
	DB	0c0H
	DB	0ffH
	DB	0c0H
	DB	0bcH
	DB	0c0H
	DB	0ffH
	DB	0c0H
	DB	0bcH
	DB	0c0H
	DB	0ffH
	DB	0c0H
	DB	0bcH
	DB	0c0H
	DB	0ffH
	DB	0b8H
	DB	0bcH
	DB	0b8H
	DB	0ffH
	DB	0c0H
	DB	0c0H
	DB	0c0H
	DB	0ffH
	DB	0c0H
	DB	0bcH
	DB	0c0H
	DB	0ffH
	DB	0b8H
	DB	0bcH
	DB	0b8H
	DB	0ffH
	DB	0b8H
	DB	0bcH
	DB	0b8H
	DB	0ffH
	DB	0c0H
	DB	0bcH
	DB	0c0H
	DB	0ffH
	DB	0c0H
	DB	0bcH
	DB	0c0H
	DB	0ffH
	DB	0b8H
	DB	0bcH
	DB	0b8H
	DB	0ffH
	DB	0c0H
	DB	0c0H
	DB	0c0H
	DB	0ffH
	DB	0c0H
	DB	0bcH
	DB	0c0H
	DB	0ffH
	DB	0c0H
	DB	0bcH
	DB	0c0H
	DB	0ffH
	DB	0c0H
	DB	0c0H
	DB	0c0H
	DB	0ffH
	DB	0b8H
	DB	0bcH
	DB	0b8H
	DB	0ffH
	DB	0c0H
	DB	0bcH
	DB	0c0H
	DB	0ffH
	DB	0c0H
	DB	0c0H
	DB	0c0H
	DB	0ffH
	DB	0b8H
	DB	0bcH
	DB	0b8H
	DB	0ffH
	DB	0c0H
	DB	0bcH
	DB	0c0H
	DB	0ffH
	DB	0c0H
	DB	0c0H
	DB	0c0H
	DB	0ffH
	DB	0b8H
	DB	0c0H
	DB	0b8H
	DB	0ffH
	DB	0c0H
	DB	0bcH
	DB	0c0H
	DB	0ffH
	DB	0c0H
	DB	0bcH
	DB	0c0H
	DB	0ffH
	DB	0b8H
	DB	0c0H
	DB	0b8H
	DB	0ffH
	DB	0c0H
	DB	0bcH
	DB	0c0H
	DB	0ffH
	DB	0c0H
	DB	0bcH
	DB	0c0H
	DB	0ffH
	DB	0b8H
	DB	0c0H
	DB	0b8H
	DB	0ffH
	DB	0c0H
	DB	0bcH
	DB	0c0H
	DB	0ffH
	DB	0b8H
	DB	0c0H
	DB	0b8H
	DB	0ffH
	DB	0b8H
	DB	0c0H
	DB	0b8H
	DB	0ffH
	DB	0c0H
	DB	0bcH
	DB	0c0H
	DB	0ffH
	DB	0b8H
	DB	0bcH
	DB	0b8H
	DB	0ffH
	DB	0c0H
	DB	0c0H
	DB	0c0H
	DB	0ffH
	DB	0c0H
	DB	0bcH
	DB	0c0H
	DB	0ffH
	DB	0b8H
	DB	0bcH
	DB	0b8H
	DB	0ffH
	DB	0c0H
	DB	0bcH
	DB	0c0H
	DB	0ffH
	DB	0b8H
	DB	0c0H
	DB	0b8H
	DB	0ffH
	DB	0c0H
	DB	0bcH
	DB	0c0H
	DB	0ffH
	DB	0c0H
	DB	0bcH
	DB	0c0H
	DB	0ffH
	DB	0b8H
	DB	0c0H
	DB	0b8H
	DB	0ffH
	DB	0c0H
	DB	0bcH
	DB	0c0H
	DB	0ffH
	DB	0c0H
	DB	0bcH
	DB	0c0H
	DB	0ffH
	DB	0b8H
	DB	0bcH
	DB	0b8H
	DB	0ffH
	DB	0c0H
	DB	0c0H
	DB	0c0H
	DB	0ffH
	DB	0c0H
	DB	0bcH
	DB	0c0H
	DB	0ffH
	DB	0b8H
	DB	0bcH
	DB	0b8H
	DB	0ffH
	DB	0c0H
	DB	0c0H
	DB	0c0H
	DB	0ffH
	DB	0c0H
	DB	0bcH
	DB	0c0H
	DB	0ffH
	DB	0b8H
	DB	0bcH
	DB	0b8H
	DB	0ffH
	DB	0c0H
	DB	0c0H
	DB	0c0H
	DB	0ffH
	DB	0c0H
	DB	0bcH
	DB	0c0H
	DB	0ffH
	DB	0b8H
	DB	0bcH
	DB	0b8H
	DB	0ffH
	DB	0c0H
	DB	0bcH
	DB	0c0H
	DB	0ffH
	DB	0c0H
	DB	0c0H
	DB	0c0H
	DB	0ffH
	DB	0b8H
	DB	0bcH
	DB	0b8H
	DB	0ffH
	DB	0c0H
	DB	0bcH
	DB	0c0H
	DB	0ffH
	DB	0c0H
	DB	0c0H
	DB	0c0H
	DB	0ffH
	DB	0b8H
	DB	0bcH
	DB	0b8H
	DB	0ffH
	DB	0c0H
	DB	0bcH
	DB	0c0H
	DB	0ffH
	DB	0c0H
	DB	0c0H
	DB	0c0H
	DB	0ffH
	DB	0b8H
	DB	0bcH
	DB	0b8H
	DB	0ffH
	DB	0c0H
	DB	0bcH
	DB	0c0H
	DB	0ffH
	DB	0b8H
	DB	0c0H
	DB	0b8H
	DB	0ffH
	DB	0c0H
	DB	0bcH
	DB	0c0H
	DB	0ffH
	DB	0c0H
	DB	0bcH
	DB	0c0H
	DB	0ffH
	DB	0b8H
	DB	0c0H
	DB	0b8H
	DB	0ffH
	DB	0c0H
	DB	0bcH
	DB	0c0H
	DB	0ffH
	DB	0c0H
	DB	0bcH
	DB	0c0H
	DB	0ffH
	DB	0b8H
	DB	0bcH
	DB	0b8H
	DB	0ffH
	DB	0c0H
	DB	0c0H
	DB	0c0H
	DB	0ffH
	DB	0b8H
	DB	0bcH
	DB	0b8H
	DB	0ffH
	DB	0c0H
	DB	0bcH
	DB	0c0H
	DB	0ffH
	DB	0c0H
	DB	0c0H
	DB	0c0H
	DB	0ffH
	DB	0b8H
	DB	0bcH
	DB	0b8H
	DB	0ffH
	DB	0c0H
	DB	0bcH
	DB	0c0H
	DB	0ffH
	DB	0c0H
	DB	0c0H
	DB	0c0H
	DB	0ffH
	DB	0b8H
	DB	0bcH
	DB	0b8H
	DB	0ffH
	DB	0c0H
	DB	0c0H
	DB	0c0H
	DB	0ffH
	DB	0b8H
	DB	0bcH
	DB	0b8H
	DB	0ffH
	DB	0c0H
	DB	0bcH
	DB	0c0H
	DB	0ffH
	DB	0b8H
	DB	0bcH
	DB	0b8H
	DB	0ffH
	DB	0b8H
	DB	0bcH
	DB	0b8H
	DB	0ffH
	DB	0c0H
	DB	0bcH
	DB	0c0H
	DB	0ffH
	DB	0c0H
	DB	0bcH
	DB	0c0H
	DB	0ffH
	DB	0b8H
	DB	0c0H
	DB	0b8H
	DB	0ffH
	DB	0c0H
	DB	0bcH
	DB	0c0H
	DB	0ffH
	DB	0b8H
	DB	0bcH
	DB	0b8H
	DB	0ffH
	DB	0b8H
	DB	0bcH
	DB	0b8H
	DB	0ffH
	DB	0c0H
	DB	0bcH
	DB	0c0H
	DB	0ffH
	DB	0c0H
	DB	0bcH
	DB	0c0H
	DB	0ffH
	DB	0b8H
	DB	0bcH
	DB	0b8H
	DB	0ffH
	DB	0c0H
	DB	0c0H
	DB	0c0H
	DB	0ffH
	DB	0b8H
	DB	0bcH
	DB	0b8H
	DB	0ffH
	DB	0c0H
	DB	0bcH
	DB	0c0H
	DB	0ffH
	DB	0c0H
	DB	0bcH
	DB	0c0H
	DB	0ffH
	DB	0b8H
	DB	0c0H
	DB	0b8H
	DB	0ffH
	DB	0c0H
	DB	0bcH
	DB	0c0H
	DB	0ffH
	DB	0c0H
	DB	0bcH
	DB	0c0H
	DB	0ffH
	DB	0c0H
	DB	0bcH
	DB	0c0H
	DB	0ffH
	DB	0b8H
	DB	0bcH
	DB	0b8H
	DB	0ffH
	DB	0c0H
	DB	0bcH
	DB	0c0H
	DB	0ffH
	DB	0b8H
	DB	0c0H
	DB	0b8H
	DB	0ffH
	DB	0c0H
	DB	0bcH
	DB	0c0H
	DB	0ffH
	DB	0c0H
	DB	0bcH
	DB	0c0H
	DB	0ffH
	DB	0b8H
	DB	0bcH
	DB	0b8H
	DB	0ffH
	DB	0c0H
	DB	0c0H
	DB	0c0H
	DB	0ffH
	DB	0b8H
	DB	0bcH
	DB	0b8H
	DB	0ffH
	DB	0c0H
	DB	0bcH
	DB	0c0H
	DB	0ffH
	DB	0b8H
	DB	0bcH
	DB	0b8H
	DB	0ffH
	DB	0c0H
	DB	0c0H
	DB	0c0H
	DB	0ffH
	DB	0c0H
	DB	0bcH
	DB	0c0H
	DB	0ffH
	DB	0b8H
	DB	0bcH
	DB	0b8H
	DB	0ffH
	DB	0c0H
	DB	0c0H
	DB	0c0H
	DB	0ffH
	DB	0b8H
	DB	0bcH
	DB	0b8H
	DB	0ffH
	DB	0c0H
	DB	0bcH
	DB	0c0H
	DB	0ffH
	DB	0c0H
	DB	0bcH
	DB	0c0H
	DB	0ffH
	DB	0b8H
	DB	0bcH
	DB	0b8H
	DB	0ffH
	DB	0c0H
	DB	0bcH
	DB	0c0H
	DB	0ffH
	DB	0b8H
	DB	0bcH
	DB	0b8H
	DB	0ffH
	DB	0c0H
	DB	0c0H
	DB	0c0H
	DB	0ffH
	DB	0c0H
	DB	0bcH
	DB	0c0H
	DB	0ffH
	DB	0b8H
	DB	0bcH
	DB	0b8H
	DB	0ffH
	DB	0c0H
	DB	0bcH
	DB	0c0H
	DB	0ffH
	DB	0b8H
	DB	0c0H
	DB	0b8H
	DB	0ffH
	DB	0c0H
	DB	0bcH
	DB	0c0H
	DB	0ffH
	DB	0c0H
	DB	0bcH
	DB	0c0H
	DB	0ffH
	DB	0b8H
	DB	0bcH
	DB	0b8H
	DB	0ffH
	DB	0c0H
	DB	0bcH
	DB	0c0H
	DB	0ffH
	DB	0b8H
	DB	0bcH
	DB	0b8H
	DB	0ffH
	DB	0c0H
	DB	0bcH
	DB	0c0H
	DB	0ffH
	DB	0c0H
	DB	0bcH
	DB	0c0H
	DB	0ffH
	DB	0b8H
	DB	0bcH
	DB	0b8H
	DB	0ffH
	DB	0c0H
	DB	0bcH
	DB	0c0H
	DB	0ffH
	DB	0c0H
	DB	0bcH
	DB	0c0H
	DB	0ffH
	DB	0b8H
	DB	0bcH
	DB	0b8H
	DB	0ffH
	DB	0c0H
	DB	0c0H
	DB	0c0H
	DB	0ffH
	DB	0c0H
	DB	0bcH
	DB	0c0H
	DB	0ffH
	DB	0b8H
	DB	0bcH
	DB	0b8H
	DB	0ffH
	DB	0c0H
	DB	0bcH
	DB	0c0H
	DB	0ffH
	DB	0b8H
	DB	0bcH
	DB	0b8H
	DB	0ffH
	DB	0c0H
	DB	0c0H
	DB	0c0H
	DB	0ffH
	DB	0b8H
	DB	0bcH
	DB	0b8H
	DB	0ffH
	DB	0c0H
	DB	0bcH
	DB	0c0H
	DB	0ffH
	DB	0b8H
	DB	0bcH
	DB	0b8H
	DB	0ffH
	DB	0c0H
	DB	0bcH
	DB	0c0H
	DB	0ffH
	DB	0c0H
	DB	0bcH
	DB	0c0H
	DB	0ffH
	DB	0c0H
	DB	0c0H
	DB	0c0H
	DB	0ffH
	DB	0b8H
	DB	0bcH
	DB	0b8H
	DB	0ffH
	DB	0c0H
	DB	0bcH
	DB	0c0H
	DB	0ffH
	DB	0c0H
	DB	0c0H
	DB	0c0H
	DB	0ffH
	DB	0c0H
	DB	0bcH
	DB	0c0H
	DB	0ffH
	DB	0b8H
	DB	0c0H
	DB	0b8H
	DB	0ffH
	DB	0c0H
	DB	0bcH
	DB	0c0H
	DB	0ffH
	DB	0b8H
	DB	0bcH
	DB	0b8H
	DB	0ffH
	DB	0c0H
	DB	0bcH
	DB	0c0H
	DB	0ffH
	DB	0c0H
	DB	0c0H
	DB	0c0H
	DB	0ffH
	DB	0c0H
	DB	0bcH
	DB	0c0H
	DB	0ffH
	DB	0c0H
	DB	0c0H
	DB	0c0H
	DB	0ffH
	DB	0b8H
	DB	0bcH
	DB	0b8H
	DB	0ffH
	DB	0c0H
	DB	0bcH
	DB	0c0H
	DB	0ffH
	DB	0c0H
	DB	0bcH
	DB	0c0H
	DB	0ffH
	DB	0b8H
	DB	0bcH
	DB	0b8H
	DB	0ffH
	DB	0c0H
	DB	0c0H
	DB	0c0H
	DB	0ffH
	DB	0c0H
	DB	0bcH
	DB	0c0H
	DB	0ffH
	DB	0b8H
	DB	0bcH
	DB	0b8H
	DB	0ffH
	DB	0c0H
	DB	0bcH
	DB	0c0H
	DB	0ffH
	DB	0b8H
	DB	0bcH
	DB	0b8H
	DB	0ffH
	DB	0c0H
	DB	0bcH
	DB	0c0H
	DB	0ffH
	DB	0c0H
	DB	0c0H
	DB	0c0H
	DB	0ffH
	DB	0c0H
	DB	0bcH
	DB	0c0H
	DB	0ffH
	DB	0b8H
	DB	0bcH
	DB	0b8H
	DB	0ffH
	DB	0c0H
	DB	0bcH
	DB	0c0H
	DB	0ffH
	DB	0b8H
	DB	0bcH
	DB	0b8H
	DB	0ffH
	DB	0c0H
	DB	0bcH
	DB	0c0H
	DB	0ffH
	DB	0c0H
	DB	0c0H
	DB	0c0H
	DB	0ffH
	DB	0b8H
	DB	0bcH
	DB	0b8H
	DB	0ffH
	DB	0c0H
	DB	0bcH
	DB	0c0H
	DB	0ffH
	DB	0c0H
	DB	0bcH
	DB	0c0H
	DB	0ffH
	DB	0b8H
	DB	0bcH
	DB	0b8H
	DB	0ffH
	DB	0c0H
	DB	0bcH
	DB	0c0H
	DB	0ffH
	DB	0b8H
	DB	0bcH
	DB	0b8H
	DB	0ffH
	DB	0c0H
	DB	0c0H
	DB	0c0H
	DB	0ffH
	DB	0c0H
	DB	0bcH
	DB	0c0H
	DB	0ffH
	DB	0b8H
	DB	0bcH
	DB	0b8H
	DB	0ffH
	DB	0c0H
	DB	0c0H
	DB	0c0H
	DB	0ffH
	DB	0c0H
	DB	0bcH
	DB	0c0H
	DB	0ffH
	DB	0b8H
	DB	0c0H
	DB	0b8H
	DB	0ffH
	DB	0c0H
	DB	0bcH
	DB	0c0H
	DB	0ffH
	DB	0c0H
	DB	0bcH
	DB	0c0H
	DB	0ffH
	DB	0b8H
	DB	0bcH
	DB	0b8H
	DB	0ffH
	DB	0c0H
	DB	0c0H
	DB	0c0H
	DB	0ffH
	DB	0c0H
	DB	0bcH
	DB	0c0H
	DB	0ffH
	DB	0b8H
	DB	0bcH
	DB	0b8H
	DB	0ffH
	DB	0c0H
	DB	0bcH
	DB	0c0H
	DB	0ffH
	DB	0c0H
	DB	0c0H
	DB	0c0H
	DB	0ffH
	DB	0b8H
	DB	0bcH
	DB	0b8H
	DB	0ffH
	DB	0c0H
	DB	0c0H
	DB	0c0H
	DB	0ffH
	DB	0c0H
	DB	0bcH
	DB	0c0H
	DB	0ffH
	DB	0b8H
	DB	0c0H
	DB	0b8H
	DB	0ffH
	DB	0c0H
	DB	0bcH
	DB	0c0H
	DB	0ffH
	DB	0c0H
	DB	0c0H
	DB	0c0H
	DB	0ffH
	DB	0b8H
	DB	0c0H
	DB	0b8H
	DB	0ffH
	DB	0c0H
	DB	0bcH
	DB	0c0H
	DB	0ffH
	DB	0b8H
	DB	0bcH
	DB	0b8H
	DB	0ffH
	DB	0c0H
	DB	0bcH
	DB	0c0H
	DB	0ffH
	DB	0c0H
	DB	0bcH
	DB	0c0H
	DB	0ffH
	DB	0b8H
	DB	0bcH
	DB	0b8H
	DB	0ffH
	DB	0c0H
	DB	0bcH
	DB	0c0H
	DB	0ffH
	DB	0c0H
	DB	0bcH
	DB	0c0H
	DB	0ffH
	DB	0c0H
	DB	0bcH
	DB	0c0H
	DB	0ffH
	DB	0b8H
	DB	0bcH
	DB	0b8H
	DB	0ffH
	DB	0c0H
	DB	0bcH
	DB	0c0H
	DB	0ffH
	DB	0c0H
	DB	0c0H
	DB	0c0H
	DB	0ffH
	DB	0b8H
	DB	0bcH
	DB	0b8H
	DB	0ffH
	DB	0b8H
	DB	0bcH
	DB	0b8H
	DB	0ffH
	DB	0c0H
	DB	0bcH
	DB	0c0H
	DB	0ffH
	DB	0c0H
	DB	0bcH
	DB	0c0H
	DB	0ffH
	DB	0b8H
	DB	0bcH
	DB	0b8H
	DB	0ffH
	DB	0c0H
	DB	0bcH
	DB	0c0H
	DB	0ffH
	DB	0c0H
	DB	0c0H
	DB	0c0H
	DB	0ffH
	DB	0b8H
	DB	0bcH
	DB	0b8H
	DB	0ffH
	DB	0c0H
	DB	0bcH
	DB	0c0H
	DB	0ffH
	DB	0c0H
	DB	0c0H
	DB	0c0H
	DB	0ffH
	DB	0b8H
	DB	0bcH
	DB	0b8H
	DB	0ffH
	DB	0c0H
	DB	0bcH
	DB	0c0H
	DB	0ffH
	DB	0b8H
	DB	0bcH
	DB	0b8H
	DB	0ffH
	DB	0c0H
	DB	0bcH
	DB	0c0H
	DB	0ffH
	DB	0c0H
	DB	0bcH
	DB	0c0H
	DB	0ffH
	DB	0b8H
	DB	0c0H
	DB	0b8H
	DB	0ffH
	DB	0c0H
	DB	0c0H
	DB	0c0H
	DB	0ffH
	DB	0c0H
	DB	0bcH
	DB	0c0H
	DB	0ffH
	DB	0b8H
	DB	0bcH
	DB	0b8H
	DB	0ffH
	DB	0c0H
	DB	0bcH
	DB	0c0H
	DB	0ffH
	DB	0b8H
	DB	0c0H
	DB	0b8H
	DB	0ffH
	DB	0c0H
	DB	0bcH
	DB	0c0H
	DB	0ffH
	DB	0c0H
	DB	0bcH
	DB	0c0H
	DB	0ffH
	DB	0b8H
	DB	0c0H
	DB	0b8H
	DB	0ffH
	DB	0b8H
	DB	0bcH
	DB	0b8H
	DB	0ffH
	DB	0c0H
	DB	0bcH
	DB	0c0H
	DB	0ffH
	DB	0b8H
	DB	0c0H
	DB	0b8H
	DB	0ffH
	DB	0c0H
	DB	0bcH
	DB	0c0H
	DB	0ffH
	DB	0c0H
	DB	0bcH
	DB	0c0H
	DB	0ffH
	DB	0b8H
	DB	0c0H
	DB	0b8H
	DB	0ffH
	DB	0c0H
	DB	0bcH
	DB	0c0H
	DB	0ffH
	DB	0c0H
	DB	0bcH
	DB	0c0H
	DB	0ffH
	DB	0b8H
	DB	0bcH
	DB	0b8H
	DB	0ffH
	DB	0c0H
	DB	0c0H
	DB	0c0H
	DB	0ffH
	DB	0c0H
	DB	0c0H
	DB	0c0H
	DB	0ffH
	DB	0b8H
	DB	0bcH
	DB	0b8H
	DB	0ffH
	DB	0c0H
	DB	0bcH
	DB	0c0H
	DB	0ffH
	DB	0c0H
	DB	0c0H
	DB	0c0H
	DB	0ffH
	DB	0b8H
	DB	0bcH
	DB	0b8H
	DB	0ffH
	DB	0c0H
	DB	0bcH
	DB	0c0H
	DB	0ffH
	DB	0c0H
	DB	0bcH
	DB	0c0H
	DB	0ffH
	DB	0b8H
	DB	0bcH
	DB	0b8H
	DB	0ffH
	DB	0b8H
	DB	0bcH
	DB	0b8H
	DB	0ffH
	DB	0c0H
	DB	0c0H
	DB	0c0H
	DB	0ffH
	DB	0c0H
	DB	0bcH
	DB	0c0H
	DB	0ffH
	DB	0b8H
	DB	0bcH
	DB	0b8H
	DB	0ffH
	DB	0c0H
	DB	0c0H
	DB	0c0H
	DB	0ffH
	DB	0b8H
	DB	0bcH
	DB	0b8H
	DB	0ffH
	DB	0c0H
	DB	0bcH
	DB	0c0H
	DB	0ffH
	DB	0c0H
	DB	0c0H
	DB	0c0H
	DB	0ffH
	DB	0b8H
	DB	0bcH
	DB	0b8H
	DB	0ffH
	DB	0c0H
	DB	0bcH
	DB	0c0H
	DB	0ffH
	DB	0b8H
	DB	0bcH
	DB	0b8H
	DB	0ffH
	DB	0c0H
	DB	0bcH
	DB	0c0H
	DB	0ffH
	DB	0c0H
	DB	0c0H
	DB	0c0H
	DB	0ffH
	DB	0b8H
	DB	0bcH
	DB	0b8H
	DB	0ffH
	DB	0c0H
	DB	0bcH
	DB	0c0H
	DB	0ffH
	DB	0b8H
	DB	0bcH
	DB	0b8H
	DB	0ffH
	DB	0c0H
	DB	0bcH
	DB	0c0H
	DB	0ffH
	DB	0c0H
	DB	0c0H
	DB	0c0H
	DB	0ffH
	DB	0b8H
	DB	0bcH
	DB	0b8H
	DB	0ffH
	DB	0c0H
	DB	0c0H
	DB	0c0H
	DB	0ffH
	DB	0b8H
	DB	0bcH
	DB	0b8H
	DB	0ffH
	DB	0c0H
	DB	0c0H
	DB	0c0H
	DB	0ffH
	DB	0c0H
	DB	0bcH
	DB	0c0H
	DB	0ffH
	DB	0b8H
	DB	0bcH
	DB	0b8H
	DB	0ffH
	DB	0c0H
	DB	0bcH
	DB	0c0H
	DB	0ffH
	DB	0c0H
	DB	0c0H
	DB	0c0H
	DB	0ffH
	DB	0b8H
	DB	0bcH
	DB	0b8H
	DB	0ffH
	DB	0c0H
	DB	0bcH
	DB	0c0H
	DB	0ffH
	DB	0c0H
	DB	0c0H
	DB	0c0H
	DB	0ffH
	DB	0b8H
	DB	0bcH
	DB	0b8H
	DB	0ffH
	DB	0c0H
	DB	0c0H
	DB	0c0H
	DB	0ffH
	DB	0b8H
	DB	0bcH
	DB	0b8H
	DB	0ffH
	DB	0c0H
	DB	0bcH
	DB	0c0H
	DB	0ffH
	DB	0b8H
	DB	0c0H
	DB	0b8H
	DB	0ffH
	DB	0c0H
	DB	0bcH
	DB	0c0H
	DB	0ffH
	DB	0b8H
	DB	0bcH
	DB	0b8H
	DB	0ffH
	DB	0c0H
	DB	0bcH
	DB	0c0H
	DB	0ffH
	DB	0c0H
	DB	0bcH
	DB	0c0H
	DB	0ffH
	DB	0b8H
	DB	0c0H
	DB	0b8H
	DB	0ffH
	DB	0c0H
	DB	0bcH
	DB	0c0H
	DB	0ffH
	DB	0b8H
	DB	0bcH
	DB	0b8H
	DB	0ffH
	DB	0b8H
	DB	0c0H
	DB	0b8H
	DB	0ffH
	DB	0c0H
	DB	0bcH
	DB	0c0H
	DB	0ffH
	DB	0b8H
	DB	0bcH
	DB	0b8H
	DB	0ffH
	DB	0c0H
	DB	0bcH
	DB	0c0H
	DB	0ffH
	DB	0b8H
	DB	0bcH
	DB	0b8H
	DB	0ffH
	DB	0c0H
	DB	0c0H
	DB	0c0H
	DB	0ffH
	DB	0c0H
	DB	0bcH
	DB	0c0H
	DB	0ffH
	DB	0b8H
	DB	0bcH
	DB	0b8H
	DB	0ffH
	DB	0c0H
	DB	0c0H
	DB	0c0H
	DB	0ffH
	DB	0c0H
	DB	0bcH
	DB	0c0H
	DB	0ffH
	DB	0c0H
	DB	0bcH
	DB	0c0H
	DB	0ffH
	DB	0c0H
	DB	0bcH
	DB	0c0H
	DB	0ffH
	DB	0b8H
	DB	0bcH
	DB	0b8H
	DB	0ffH
	DB	0c0H
	DB	0c0H
	DB	0c0H
	DB	0ffH
	DB	0c0H
	DB	0bcH
	DB	0c0H
	DB	0ffH
	DB	0b8H
	DB	0bcH
	DB	0b8H
	DB	0ffH
	DB	0c0H
	DB	0c0H
	DB	0c0H
	DB	0ffH
	DB	0b8H
	DB	0bcH
	DB	0b8H
	DB	0ffH
	DB	0c0H
	DB	0bcH
	DB	0c0H
	DB	0ffH
	DB	0c0H
	DB	0bcH
	DB	0c0H
	DB	0ffH
	DB	0b8H
	DB	0bcH
	DB	0b8H
	DB	0ffH
	DB	0c0H
	DB	0bcH
	DB	0c0H
	DB	0ffH
	DB	0c0H
	DB	0bcH
	DB	0c0H
	DB	0ffH
	DB	0b8H
	DB	0c0H
	DB	0b8H
	DB	0ffH
	DB	0c0H
	DB	0bcH
	DB	0c0H
	DB	0ffH
	DB	0b8H
	DB	0bcH
	DB	0b8H
	DB	0ffH
	DB	0c0H
	DB	0bcH
	DB	0c0H
	DB	0ffH
	DB	0c0H
	DB	0c0H
	DB	0c0H
	DB	0ffH
	DB	0b8H
	DB	0bcH
	DB	0b8H
	DB	0ffH
	DB	0c0H
	DB	0bcH
	DB	0c0H
	DB	0ffH
	DB	0c0H
	DB	0bcH
	DB	0c0H
	DB	0ffH
	DB	0b8H
	DB	0bcH
	DB	0b8H
	DB	0ffH
	DB	0c0H
	DB	0c0H
	DB	0c0H
	DB	0ffH
	DB	0c0H
	DB	0bcH
	DB	0c0H
	DB	0ffH
	DB	0b8H
	DB	0bcH
	DB	0b8H
	DB	0ffH
	DB	0c0H
	DB	0bcH
	DB	0c0H
	DB	0ffH
	DB	0b8H
	DB	0bcH
	DB	0b8H
	DB	0ffH
	DB	0c0H
	DB	0c0H
	DB	0c0H
	DB	0ffH
	DB	0c0H
	DB	0bcH
	DB	0c0H
	DB	0ffH
	DB	0b8H
	DB	0bcH
	DB	0b8H
	DB	0ffH
	DB	0c0H
	DB	0bcH
	DB	0c0H
	DB	0ffH
	DB	0b8H
	DB	0bcH
	DB	0b8H
	DB	0ffH
	DB	0c0H
	DB	0bcH
	DB	0c0H
	DB	0ffH
	DB	0c0H
	DB	0bcH
	DB	0c0H
	DB	0ffH
	DB	0b8H
	DB	0bcH
	DB	0b8H
	DB	0ffH
	DB	0c0H
	DB	0bcH
	DB	0c0H
	DB	0ffH
	DB	0c0H
	DB	0bcH
	DB	0c0H
	DB	0ffH
	DB	0b8H
	DB	0bcH
	DB	0b8H
	DB	0ffH
	DB	0c0H
	DB	0bcH
	DB	0c0H
	DB	0ffH
	DB	0c0H
	DB	0c0H
	DB	0c0H
	DB	0ffH
	DB	0b8H
	DB	0bcH
	DB	0b8H
	DB	0ffH
	DB	0b8H
	DB	0bcH
	DB	0b8H
	DB	0ffH
	DB	0c0H
	DB	0bcH
	DB	0c0H
	DB	0ffH
	DB	0b8H
	DB	0bcH
	DB	0b8H
	DB	0ffH
	DB	0c0H
	DB	0c0H
	DB	0c0H
	DB	0ffH
	DB	0c0H
	DB	0bcH
	DB	0c0H
	DB	0ffH
	DB	0b8H
	DB	0bcH
	DB	0b8H
	DB	0ffH
	DB	0c0H
	DB	0bcH
	DB	0c0H
	DB	0ffH
	DB	0c0H
	DB	0bcH
	DB	0c0H
	DB	0ffH
	DB	0c0H
	DB	0c0H
	DB	0c0H
	DB	0ffH
	DB	0c0H
	DB	0bcH
	DB	0c0H
	DB	0ffH
	DB	0b8H
	DB	0bcH
	DB	0b8H
	DB	0ffH
	DB	0c0H
	DB	0bcH
	DB	0c0H
	DB	0ffH
	DB	0c0H
	DB	0bcH
	DB	0c0H
	DB	0ffH
	DB	0b8H
	DB	0c0H
	DB	0b8H
	DB	0ffH
	DB	0c0H
	DB	0bcH
	DB	0c0H
	DB	0ffH
	DB	0c0H
	DB	0bcH
	DB	0c0H
	DB	0ffH
	DB	0b8H
	DB	0bcH
	DB	0b8H
	DB	0ffH
	DB	0c0H
	DB	0c0H
	DB	0c0H
	DB	0ffH
	DB	0c0H
	DB	0bcH
	DB	0c0H
	DB	0ffH
	DB	0c0H
	DB	0bcH
	DB	0c0H
	DB	0ffH
	DB	0c0H
	DB	0bcH
	DB	0c0H
	DB	0ffH
	DB	0c0H
	DB	0bcH
	DB	0c0H
	DB	0ffH
	DB	0b8H
	DB	0bcH
	DB	0b8H
	DB	0ffH
	DB	0c0H
	DB	0c0H
	DB	0c0H
	DB	0ffH
	DB	0c0H
	DB	0bcH
	DB	0c0H
	DB	0ffH
	DB	0b8H
	DB	0bcH
	DB	0b8H
	DB	0ffH
	DB	0c0H
	DB	0bcH
	DB	0c0H
	DB	0ffH
	DB	0b8H
	DB	0bcH
	DB	0b8H
	DB	0ffH
	DB	0b8H
	DB	0c0H
	DB	0b8H
	DB	0ffH
	DB	0c0H
	DB	0bcH
	DB	0c0H
	DB	0ffH
	DB	0c0H
	DB	0bcH
	DB	0c0H
	DB	0ffH
	DB	0b8H
	DB	0c0H
	DB	0b8H
	DB	0ffH
	DB	0c0H
	DB	0bcH
	DB	0c0H
	DB	0ffH
	DB	0c0H
	DB	0bcH
	DB	0c0H
	DB	0ffH
	DB	0b8H
	DB	0bcH
	DB	0b8H
	DB	0ffH
	DB	0c0H
	DB	0bcH
	DB	0c0H
	DB	0ffH
	DB	0c0H
	DB	0c0H
	DB	0c0H
	DB	0ffH
	DB	0b8H
	DB	0bcH
	DB	0b8H
	DB	0ffH
	DB	0c0H
	DB	0c0H
	DB	0c0H
	DB	0ffH
	DB	0b8H
	DB	0bcH
	DB	0b8H
	DB	0ffH
	DB	0c0H
	DB	0bcH
	DB	0c0H
	DB	0ffH
	DB	0c0H
	DB	0bcH
	DB	0c0H
	DB	0ffH
	DB	0b8H
	DB	0bcH
	DB	0b8H
	DB	0ffH
	DB	0c0H
	DB	0bcH
	DB	0c0H
	DB	0ffH
	DB	0c0H
	DB	0bcH
	DB	0c0H
	DB	0ffH
	DB	0b8H
	DB	0c0H
	DB	0b8H
	DB	0ffH
	DB	0c0H
	DB	0bcH
	DB	0c0H
	DB	0ffH
	DB	0c0H
	DB	0bcH
	DB	0c0H
	DB	0ffH
	DB	0b8H
	DB	0c0H
	DB	0b8H
	DB	0ffH
	DB	0c0H
	DB	0bcH
	DB	0c0H
	DB	0ffH
	DB	0b8H
	DB	0bcH
	DB	0b8H
	DB	0ffH
	DB	0c0H
	DB	0bcH
	DB	0c0H
	DB	0ffH
	DB	0c0H
	DB	0bcH
	DB	0c0H
	DB	0ffH
	DB	0b8H
	DB	0c0H
	DB	0b8H
	DB	0ffH
	DB	0c0H
	DB	0bcH
	DB	0c0H
	DB	0ffH
	DB	0c0H
	DB	0bcH
	DB	0c0H
	DB	0ffH
	DB	0b8H
	DB	0bcH
	DB	0b8H
	DB	0ffH
	DB	0c0H
	DB	0c0H
	DB	0c0H
	DB	0ffH
	DB	0c0H
	DB	0bcH
	DB	0c0H
	DB	0ffH
	DB	0b8H
	DB	0c0H
	DB	0b8H
	DB	0ffH
	DB	0c0H
	DB	0bcH
	DB	0c0H
	DB	0ffH
	DB	0c0H
	DB	0c0H
	DB	0c0H
	DB	0ffH
	DB	0b8H
	DB	0c0H
	DB	0b8H
	DB	0ffH
	DB	0c0H
	DB	0bcH
	DB	0c0H
	DB	0ffH
	DB	0b8H
	DB	0c0H
	DB	0b8H
	DB	0ffH
	DB	0c0H
	DB	0bcH
	DB	0c0H
	DB	0ffH
	DB	0c0H
	DB	0bcH
	DB	0c0H
	DB	0ffH
	DB	0b8H
	DB	0bcH
	DB	0b8H
	DB	0ffH
	DB	0c0H
	DB	0bcH
	DB	0c0H
	DB	0ffH
	DB	0c0H
	DB	0bcH
	DB	0c0H
	DB	0ffH
	DB	0c0H
	DB	0bcH
	DB	0c0H
	DB	0ffH
	DB	0c0H
	DB	0bcH
	DB	0c0H
	DB	0ffH
	DB	0b8H
	DB	0bcH
	DB	0b8H
	DB	0ffH
	DB	0c0H
	DB	0bcH
	DB	0c0H
	DB	0ffH
	DB	0c0H
	DB	0bcH
	DB	0c0H
	DB	0ffH
	DB	0b8H
	DB	0c0H
	DB	0b8H
	DB	0ffH
	DB	0c0H
	DB	0bcH
	DB	0c0H
	DB	0ffH
	DB	0b8H
	DB	0bcH
	DB	0b8H
	DB	0ffH
	DB	0b8H
	DB	0bcH
	DB	0b8H
	DB	0ffH
	DB	0c0H
	DB	0c0H
	DB	0c0H
	DB	0ffH
	DB	0c0H
	DB	0bcH
	DB	0c0H
	DB	0ffH
	DB	0b8H
	DB	0bcH
	DB	0b8H
	DB	0ffH
	DB	0c0H
	DB	0c0H
	DB	0c0H
	DB	0ffH
	DB	0c0H
	DB	0bcH
	DB	0c0H
	DB	0ffH
	DB	0b8H
	DB	0bcH
	DB	0b8H
	DB	0ffH
	DB	0c0H
	DB	0c0H
	DB	0c0H
	DB	0ffH
	DB	0c0H
	DB	0bcH
	DB	0c0H
	DB	0ffH
	DB	0b8H
	DB	0bcH
	DB	0b8H
	DB	0ffH
	DB	0c0H
	DB	0c0H
	DB	0c0H
	DB	0ffH
	DB	0b8H
	DB	0bcH
	DB	0b8H
	DB	0ffH
	DB	0c0H
	DB	0c0H
	DB	0c0H
	DB	0ffH
	DB	0b8H
	DB	0bcH
	DB	0b8H
	DB	0ffH
	DB	0c0H
	DB	0bcH
	DB	0c0H
	DB	0ffH
	DB	0c0H
	DB	0bcH
	DB	0c0H
	DB	0ffH
	DB	0b8H
	DB	0bcH
	DB	0b8H
	DB	0ffH
	DB	0c0H
	DB	0c0H
	DB	0c0H
	DB	0ffH
	DB	0c0H
	DB	0bcH
	DB	0c0H
	DB	0ffH
	DB	0c0H
	DB	0bcH
	DB	0c0H
	DB	0ffH
	DB	0b8H
	DB	0bcH
	DB	0b8H
	DB	0ffH
	DB	0c0H
	DB	0c0H
	DB	0c0H
	DB	0ffH
	DB	0b8H
	DB	0bcH
	DB	0b8H
	DB	0ffH
	DB	0c0H
	DB	0bcH
	DB	0c0H
	DB	0ffH
	DB	0b8H
	DB	0bcH
	DB	0b8H
	DB	0ffH
	DB	0c0H
	DB	0c0H
	DB	0c0H
	DB	0ffH
	DB	0c0H
	DB	0bcH
	DB	0c0H
	DB	0ffH
	DB	0b8H
	DB	0bcH
	DB	0b8H
	DB	0ffH
	DB	0c0H
	DB	0bcH
	DB	0c0H
	DB	0ffH
	DB	0c0H
	DB	0bcH
	DB	0c0H
	DB	0ffH
	DB	0b8H
	DB	0c0H
	DB	0b8H
	DB	0ffH
	DB	0c0H
	DB	0bcH
	DB	0c0H
	DB	0ffH
	DB	0b8H
	DB	0c0H
	DB	0b8H
	DB	0ffH
	DB	0c0H
	DB	0c0H
	DB	0c0H
	DB	0ffH
	DB	0c0H
	DB	0bcH
	DB	0c0H
	DB	0ffH
	DB	0b8H
	DB	0bcH
	DB	0b8H
	DB	0ffH
	DB	0c0H
	DB	0c0H
	DB	0c0H
	DB	0ffH
	DB	0b8H
	DB	0bcH
	DB	0b8H
	DB	0ffH
	DB	0c0H
	DB	0bcH
	DB	0c0H
	DB	0ffH
	DB	0c0H
	DB	0bcH
	DB	0c0H
	DB	0ffH
	DB	0b8H
	DB	0c0H
	DB	0b8H
	DB	0ffH
	DB	0c0H
	DB	0bcH
	DB	0c0H
	DB	0ffH
	DB	0c0H
	DB	0bcH
	DB	0c0H
	DB	0ffH
	DB	0b8H
	DB	0c0H
	DB	0b8H
	DB	0ffH
	DB	0c0H
	DB	0bcH
	DB	0c0H
	DB	0ffH
	DB	0c0H
	DB	0bcH
	DB	0c0H
	DB	0ffH
	DB	0b8H
	DB	0c0H
	DB	0b8H
	DB	0ffH
	DB	0c0H
	DB	0bcH
	DB	0c0H
	DB	0ffH
	DB	0b8H
	DB	0bcH
	DB	0b8H
	DB	0ffH
	DB	0c0H
	DB	0bcH
	DB	0c0H
	DB	0ffH
	DB	0c0H
	DB	0bcH
	DB	0c0H
	DB	0ffH
	DB	0b8H
	DB	0bcH
	DB	0b8H
	DB	0ffH
	DB	0c0H
	DB	0bcH
	DB	0c0H
	DB	0ffH
	DB	0b8H
	DB	0bcH
	DB	0b8H
	DB	0ffH
	DB	0c0H
	DB	0bcH
	DB	0c0H
	DB	0ffH
	DB	0c0H
	DB	0bcH
	DB	0c0H
	DB	0ffH
	DB	0b8H
	DB	0bcH
	DB	0b8H
	DB	0ffH
	DB	0c0H
	DB	0c0H
	DB	0c0H
	DB	0ffH
	DB	0c0H
	DB	0c0H
	DB	0c0H
	DB	0ffH
	DB	0b8H
	DB	0bcH
	DB	0b8H
	DB	0ffH
	DB	0b8H
	DB	0bcH
	DB	0b8H
	DB	0ffH
	DB	0c0H
	DB	0c0H
	DB	0c0H
	DB	0ffH
	DB	0c0H
	DB	0bcH
	DB	0c0H
	DB	0ffH
	DB	0c0H
	DB	0bcH
	DB	0c0H
	DB	0ffH
	DB	0b8H
	DB	0bcH
	DB	0b8H
	DB	0ffH
	DB	0c0H
	DB	0c0H
	DB	0c0H
	DB	0ffH
	DB	0b8H
	DB	0bcH
	DB	0b8H
	DB	0ffH
	DB	0c0H
	DB	0bcH
	DB	0c0H
	DB	0ffH
	DB	0c0H
	DB	0c0H
	DB	0c0H
	DB	0ffH
	DB	0b8H
	DB	0bcH
	DB	0b8H
	DB	0ffH
	DB	0c0H
	DB	0bcH
	DB	0c0H
	DB	0ffH
	DB	0c0H
	DB	0bcH
	DB	0c0H
	DB	0ffH
	DB	0b8H
	DB	0c0H
	DB	0b8H
	DB	0ffH
	DB	0c0H
	DB	0bcH
	DB	0c0H
	DB	0ffH
	DB	0b8H
	DB	0bcH
	DB	0b8H
	DB	0ffH
	DB	0c0H
	DB	0bcH
	DB	0c0H
	DB	0ffH
	DB	0b8H
	DB	0bcH
	DB	0b8H
	DB	0ffH
	DB	0c0H
	DB	0bcH
	DB	0c0H
	DB	0ffH
	DB	0c0H
	DB	0bcH
	DB	0c0H
	DB	0ffH
	DB	0b8H
	DB	0bcH
	DB	0b8H
	DB	0ffH
	DB	0c0H
	DB	0bcH
	DB	0c0H
	DB	0ffH
	DB	0c0H
	DB	0bcH
	DB	0c0H
	DB	0ffH
	DB	0b8H
	DB	0c0H
	DB	0b8H
	DB	0ffH
	DB	0c0H
	DB	0bcH
	DB	0c0H
	DB	0ffH
	DB	0b8H
	DB	0bcH
	DB	0b8H
	DB	0ffH
	DB	0c0H
	DB	0c0H
	DB	0c0H
	DB	0ffH
	DB	0b8H
	DB	0bcH
	DB	0b8H
	DB	0ffH
	DB	0b8H
	DB	0bcH
	DB	0b8H
	DB	0ffH
	DB	0c0H
	DB	0c0H
	DB	0c0H
	DB	0ffH
	DB	0c0H
	DB	0bcH
	DB	0c0H
	DB	0ffH
	DB	0c0H
	DB	0bcH
	DB	0c0H
	DB	0ffH
	DB	0b8H
	DB	0bcH
	DB	0b8H
	DB	0ffH
	DB	0c0H
	DB	0c0H
	DB	0c0H
	DB	0ffH
	DB	0c0H
	DB	0bcH
	DB	0c0H
	DB	0ffH
	DB	0b8H
	DB	0bcH
	DB	0b8H
	DB	0ffH
	DB	0c0H
	DB	0bcH
	DB	0c0H
	DB	0ffH
	DB	0c0H
	DB	0c0H
	DB	0c0H
	DB	0ffH
	DB	0b8H
	DB	0bcH
	DB	0b8H
	DB	0ffH
	DB	0c0H
	DB	0bcH
	DB	0c0H
	DB	0ffH
	DB	0c0H
	DB	0bcH
	DB	0c0H
	DB	0ffH
	DB	0b8H
	DB	0bcH
	DB	0b8H
	DB	0ffH
	DB	0c0H
	DB	0bcH
	DB	0c0H
	DB	0ffH
	DB	0c0H
	DB	0bcH
	DB	0c0H
	DB	0ffH
	DB	0b8H
	DB	0bcH
	DB	0b8H
	DB	0ffH
	DB	0c0H
	DB	0bcH
	DB	0c0H
	DB	0ffH
	DB	0c0H
	DB	0c0H
	DB	0c0H
	DB	0ffH
	DB	0b8H
	DB	0bcH
	DB	0b8H
	DB	0ffH
	DB	0c0H
	DB	0bcH
	DB	0c0H
	DB	0ffH
	DB	0b8H
	DB	0bcH
	DB	0b8H
	DB	0ffH
	DB	0c0H
	DB	0c0H
	DB	0c0H
	DB	0ffH
	DB	0c0H
	DB	0bcH
	DB	0c0H
	DB	0ffH
	DB	0b8H
	DB	0bcH
	DB	0b8H
	DB	0ffH
	DB	0c0H
	DB	0c0H
	DB	0c0H
	DB	0ffH
	DB	0b8H
	DB	0bcH
	DB	0b8H
	DB	0ffH
	DB	0c0H
	DB	0bcH
	DB	0c0H
	DB	0ffH
	DB	0c0H
	DB	0bcH
	DB	0c0H
	DB	0ffH
	DB	0b8H
	DB	0bcH
	DB	0b8H
	DB	0ffH
	DB	0c0H
	DB	0c0H
	DB	0c0H
	DB	0ffH
	DB	0c0H
	DB	0bcH
	DB	0c0H
	DB	0ffH
	DB	0b8H
	DB	0bcH
	DB	0b8H
	DB	0ffH
	DB	0c0H
	DB	0c0H
	DB	0c0H
	DB	0ffH
	DB	0c0H
	DB	0bcH
	DB	0c0H
	DB	0ffH
	DB	0b8H
	DB	0bcH
	DB	0b8H
	DB	0ffH
	DB	0c0H
	DB	0c0H
	DB	0c0H
	DB	0ffH
	DB	0c0H
	DB	0bcH
	DB	0c0H
	DB	0ffH
	DB	0b8H
	DB	0bcH
	DB	0b8H
	DB	0ffH
	DB	0c0H
	DB	0bcH
	DB	0c0H
	DB	0ffH
	DB	0b8H
	DB	0bcH
	DB	0b8H
	DB	0ffH
	DB	0c0H
	DB	0bcH
	DB	0c0H
	DB	0ffH
	DB	0c0H
	DB	0bcH
	DB	0c0H
	DB	0ffH
	DB	0b8H
	DB	0c0H
	DB	0b8H
	DB	0ffH
	DB	0c0H
	DB	0bcH
	DB	0c0H
	DB	0ffH
	DB	0b8H
	DB	0bcH
	DB	0b8H
	DB	0ffH
	DB	0c0H
	DB	0bcH
	DB	0c0H
	DB	0ffH
	DB	0c0H
	DB	0bcH
	DB	0c0H
	DB	0ffH
	DB	0b8H
	DB	0c0H
	DB	0b8H
	DB	0ffH
	DB	0c0H
	DB	0bcH
	DB	0c0H
	DB	0ffH
	DB	0c0H
	DB	0bcH
	DB	0c0H
	DB	0ffH
	DB	0b8H
	DB	0bcH
	DB	0b8H
	DB	0ffH
	DB	0c0H
	DB	0c0H
	DB	0c0H
	DB	0ffH
	DB	0c0H
	DB	0bcH
	DB	0c0H
	DB	0ffH
	DB	0b8H
	DB	0bcH
	DB	0b8H
	DB	0ffH
	DB	0c0H
	DB	0bcH
	DB	0c0H
	DB	0ffH
	DB	0c0H
	DB	0c0H
	DB	0c0H
	DB	0ffH
	DB	0c0H
	DB	0bcH
	DB	0c0H
	DB	0ffH
	DB	0b8H
	DB	0bcH
	DB	0b8H
	DB	0ffH
	DB	0c0H
	DB	0c0H
	DB	0c0H
	DB	0ffH
	DB	0b8H
	DB	0bcH
	DB	0b8H
	DB	0ffH
	DB	0c0H
	DB	0c0H
	DB	0c0H
	DB	0ffH
	DB	0c0H
	DB	0bcH
	DB	0c0H
	DB	0ffH
	DB	0b8H
	DB	0bcH
	DB	0b8H
	DB	0ffH
	DB	0c0H
	DB	0bcH
	DB	0c0H
	DB	0ffH
	DB	0c0H
	DB	0bcH
	DB	0c0H
	DB	0ffH
	DB	0b8H
	DB	0bcH
	DB	0b8H
	DB	0ffH
	DB	0c0H
	DB	0c0H
	DB	0c0H
	DB	0ffH
	DB	0c0H
	DB	0bcH
	DB	0c0H
	DB	0ffH
	DB	0c0H
	DB	0bcH
	DB	0c0H
	DB	0ffH
	DB	0b8H
	DB	0bcH
	DB	0b8H
	DB	0ffH
	DB	0c0H
	DB	0bcH
	DB	0c0H
	DB	0ffH
	DB	0b8H
	DB	0c0H
	DB	0b8H
	DB	0ffH
	DB	0c0H
	DB	0bcH
	DB	0c0H
	DB	0ffH
	DB	0b8H
	DB	0bcH
	DB	0b8H
	DB	0ffH
	DB	0c0H
	DB	0bcH
	DB	0c0H
	DB	0ffH
	DB	0c0H
	DB	0c0H
	DB	0c0H
	DB	0ffH
	DB	0b8H
	DB	0bcH
	DB	0b8H
	DB	0ffH
	DB	0c0H
	DB	0bcH
	DB	0c0H
	DB	0ffH
	DB	0b8H
	DB	0bcH
	DB	0b8H
	DB	0ffH
	DB	0b8H
	DB	0c0H
	DB	0b8H
	DB	0ffH
	DB	0c0H
	DB	0bcH
	DB	0c0H
	DB	0ffH
	DB	0b8H
	DB	0c0H
	DB	0b8H
	DB	0ffH
	DB	0c0H
	DB	0bcH
	DB	0c0H
	DB	0ffH
	DB	0c0H
	DB	0bcH
	DB	0c0H
	DB	0ffH
	DB	0b8H
	DB	0bcH
	DB	0b8H
	DB	0ffH
	DB	0b8H
	DB	0bcH
	DB	0b8H
	DB	0ffH
	DB	0c0H
	DB	0c0H
	DB	0c0H
	DB	0ffH
	DB	0c0H
	DB	0bcH
	DB	0c0H
	DB	0ffH
	DB	0b8H
	DB	0bcH
	DB	0b8H
	DB	0ffH
	DB	0c0H
	DB	0bcH
	DB	0c0H
	DB	0ffH
	DB	0c0H
	DB	0c0H
	DB	0c0H
	DB	0ffH
	DB	0b8H
	DB	0bcH
	DB	0b8H
	DB	0ffH
	DB	0c0H
	DB	0bcH
	DB	0c0H
	DB	0ffH
	DB	0c0H
	DB	0bcH
	DB	0c0H
	DB	0ffH
	DB	0b8H
	DB	0bcH
	DB	0b8H
	DB	0ffH
	DB	0c0H
	DB	0bcH
	DB	0c0H
	DB	0ffH
	DB	0b8H
	DB	0c0H
	DB	0b8H
	DB	0ffH
	DB	0c0H
	DB	0bcH
	DB	0c0H
	DB	0ffH
	DB	0b8H
	DB	0bcH
	DB	0b8H
	DB	0ffH
	DB	0c0H
	DB	0bcH
	DB	0c0H
	DB	0ffH
	DB	0c0H
	DB	0c0H
	DB	0c0H
	DB	0ffH
	DB	0b8H
	DB	0bcH
	DB	0b8H
	DB	0ffH
	DB	0b8H
	DB	0bcH
	DB	0b8H
	DB	0ffH
	DB	0c0H
	DB	0c0H
	DB	0c0H
	DB	0ffH
	DB	0c0H
	DB	0bcH
	DB	0c0H
	DB	0ffH
	DB	0b8H
	DB	0bcH
	DB	0b8H
	DB	0ffH
	DB	0c0H
	DB	0c0H
	DB	0c0H
	DB	0ffH
	DB	0c0H
	DB	0bcH
	DB	0c0H
	DB	0ffH
	DB	0b8H
	DB	0c0H
	DB	0b8H
	DB	0ffH
	DB	0c0H
	DB	0bcH
	DB	0c0H
	DB	0ffH
	DB	0c0H
	DB	0bcH
	DB	0c0H
	DB	0ffH
	DB	0b8H
	DB	0bcH
	DB	0b8H
	DB	0ffH
	DB	0c0H
	DB	0bcH
	DB	0c0H
	DB	0ffH
	DB	0c0H
	DB	0bcH
	DB	0c0H
	DB	0ffH
	DB	0b8H
	DB	0bcH
	DB	0b8H
	DB	0ffH
	DB	0b8H
	DB	0bcH
	DB	0b8H
	DB	0ffH
	DB	0c0H
	DB	0bcH
	DB	0c0H
	DB	0ffH
	DB	0c0H
	DB	0bcH
	DB	0c0H
	DB	0ffH
	DB	0b8H
	DB	0bcH
	DB	0b8H
	DB	0ffH
	DB	0c0H
	DB	0bcH
	DB	0c0H
	DB	0ffH
	DB	0b8H
	DB	0bcH
	DB	0b8H
	DB	0ffH
	DB	0c0H
	DB	0bcH
	DB	0c0H
	DB	0ffH
	DB	0c0H
	DB	0c0H
	DB	0c0H
	DB	0ffH
	DB	0b8H
	DB	0bcH
	DB	0b8H
	DB	0ffH
	DB	0c0H
	DB	0bcH
	DB	0c0H
	DB	0ffH
	DB	0b8H
	DB	0bcH
	DB	0b8H
	DB	0ffH
	DB	0c0H
	DB	0c0H
	DB	0c0H
	DB	0ffH
	DB	0c0H
	DB	0bcH
	DB	0c0H
	DB	0ffH
	DB	0b8H
	DB	0bcH
	DB	0b8H
	DB	0ffH
	DB	0c0H
	DB	0c0H
	DB	0c0H
	DB	0ffH
	DB	0b8H
	DB	0bcH
	DB	0b8H
	DB	0ffH
	DB	0c0H
	DB	0c0H
	DB	0c0H
	DB	0ffH
	DB	0b8H
	DB	0bcH
	DB	0b8H
	DB	0ffH
	DB	0c0H
	DB	0c0H
	DB	0c0H
	DB	0ffH
	DB	0c0H
	DB	0bcH
	DB	0c0H
	DB	0ffH
	DB	0b8H
	DB	0bcH
	DB	0b8H
	DB	0ffH
	DB	0c0H
	DB	0bcH
	DB	0c0H
	DB	0ffH
	DB	0c0H
	DB	0c0H
	DB	0c0H
	DB	0ffH
	DB	0b8H
	DB	0bcH
	DB	0b8H
	DB	0ffH
	DB	0c0H
	DB	0bcH
	DB	0c0H
	DB	0ffH
	DB	0c0H
	DB	0bcH
	DB	0c0H
	DB	0ffH
	DB	0b8H
	DB	0bcH
	DB	0b8H
	DB	0ffH
	DB	0c0H
	DB	0c0H
	DB	0c0H
	DB	0ffH
	DB	0c0H
	DB	0bcH
	DB	0c0H
	DB	0ffH
	DB	0b8H
	DB	0bcH
	DB	0b8H
	DB	0ffH
	DB	0c0H
	DB	0bcH
	DB	0c0H
	DB	0ffH
	DB	0c0H
	DB	0c0H
	DB	0c0H
	DB	0ffH
	DB	0b8H
	DB	0bcH
	DB	0b8H
	DB	0ffH
	DB	0c0H
	DB	0bcH
	DB	0c0H
	DB	0ffH
	DB	0c0H
	DB	0bcH
	DB	0c0H
	DB	0ffH
	DB	0c0H
	DB	0c0H
	DB	0c0H
	DB	0ffH
	DB	0b8H
	DB	0bcH
	DB	0b8H
	DB	0ffH
	DB	0c0H
	DB	0bcH
	DB	0c0H
	DB	0ffH
	DB	0c0H
	DB	0c0H
	DB	0c0H
	DB	0ffH
	DB	0b8H
	DB	0c0H
	DB	0b8H
	DB	0ffH
	DB	0c0H
	DB	0bcH
	DB	0c0H
	DB	0ffH
	DB	0c0H
	DB	0bcH
	DB	0c0H
	DB	0ffH
	DB	0b8H
	DB	0bcH
	DB	0b8H
	DB	0ffH
	DB	0c0H
	DB	0bcH
	DB	0c0H
	DB	0ffH
	DB	0c0H
	DB	0c0H
	DB	0c0H
	DB	0ffH
	DB	0b8H
	DB	0bcH
	DB	0b8H
	DB	0ffH
	DB	0b8H
	DB	0bcH
	DB	0b8H
	DB	0ffH
	DB	0c0H
	DB	0bcH
	DB	0c0H
	DB	0ffH
	DB	0c0H
	DB	0c0H
	DB	0c0H
	DB	0ffH
	DB	0b8H
	DB	0bcH
	DB	0b8H
	DB	0ffH
	DB	0c0H
	DB	0bcH
	DB	0c0H
	DB	0ffH
	DB	0c0H
	DB	0c0H
	DB	0c0H
	DB	0ffH
	DB	0b8H
	DB	0bcH
	DB	0b8H
	DB	0ffH
	DB	0c0H
	DB	0bcH
	DB	0c0H
	DB	0ffH
	DB	0b8H
	DB	0c0H
	DB	0b8H
	DB	0ffH
	DB	0c0H
	DB	0bcH
	DB	0c0H
	DB	0ffH
	DB	0c0H
	DB	0bcH
	DB	0c0H
	DB	0ffH
	DB	0b8H
	DB	0bcH
	DB	0b8H
	DB	0ffH
	DB	0c0H
	DB	0bcH
	DB	0c0H
	DB	0ffH
	DB	0c0H
	DB	0bcH
	DB	0c0H
	DB	0ffH
	DB	0b8H
	DB	0bcH
	DB	0b8H
	DB	0ffH
	DB	0c0H
	DB	0bcH
	DB	0c0H
	DB	0ffH
	DB	0c0H
	DB	0bcH
	DB	0c0H
	DB	0ffH
	DB	0b8H
	DB	0bcH
	DB	0b8H
	DB	0ffH
	DB	0c0H
	DB	0c0H
	DB	0c0H
	DB	0ffH
	DB	0b8H
	DB	0bcH
	DB	0b8H
	DB	0ffH
	DB	0c0H
	DB	0c0H
	DB	0c0H
	DB	0ffH
	DB	0c0H
	DB	0bcH
	DB	0c0H
	DB	0ffH
	DB	0b8H
	DB	0c0H
	DB	0b8H
	DB	0ffH
	DB	0c0H
	DB	0bcH
	DB	0c0H
	DB	0ffH
	DB	0c0H
	DB	0bcH
	DB	0c0H
	DB	0ffH
	DB	0b8H
	DB	0bcH
	DB	0b8H
	DB	0ffH
	DB	0c0H
	DB	0c0H
	DB	0c0H
	DB	0ffH
	DB	0c0H
	DB	0bcH
	DB	0c0H
	DB	0ffH
	DB	0b8H
	DB	0c0H
	DB	0b8H
	DB	0ffH
	DB	0c0H
	DB	0bcH
	DB	0c0H
	DB	0ffH
	DB	0c0H
	DB	0bcH
	DB	0c0H
	DB	0ffH
	DB	0b8H
	DB	0bcH
	DB	0b8H
	DB	0ffH
	DB	0c0H
	DB	0c0H
	DB	0c0H
	DB	0ffH
	DB	0c0H
	DB	0bcH
	DB	0c0H
	DB	0ffH
	DB	0b8H
	DB	0bcH
	DB	0b8H
	DB	0ffH
	DB	0b8H
	DB	0bcH
	DB	0b8H
	DB	0ffH
	DB	0c0H
	DB	0bcH
	DB	0c0H
	DB	0ffH
	DB	0c0H
	DB	0bcH
	DB	0c0H
	DB	0ffH
	DB	0c0H
	DB	0bcH
	DB	0c0H
	DB	0ffH
	DB	0c0H
	DB	0bcH
	DB	0c0H
	DB	0ffH
	DB	0b8H
	DB	0bcH
	DB	0b8H
	DB	0ffH
	DB	0c0H
	DB	0bcH
	DB	0c0H
	DB	0ffH
	DB	0b8H
	DB	0c0H
	DB	0b8H
	DB	0ffH
	DB	0c0H
	DB	0bcH
	DB	0c0H
	DB	0ffH
	DB	0b8H
	DB	0bcH
	DB	0b8H
	DB	0ffH
	DB	0c0H
	DB	0c0H
	DB	0c0H
	DB	0ffH
	DB	0b8H
	DB	0bcH
	DB	0b8H
	DB	0ffH
	DB	0c0H
	DB	0bcH
	DB	0c0H
	DB	0ffH
	DB	0c0H
	DB	0c0H
	DB	0c0H
	DB	0ffH
	DB	0b8H
	DB	0bcH
	DB	0b8H
	DB	0ffH
	DB	0c0H
	DB	0bcH
	DB	0c0H
	DB	0ffH
	DB	0c0H
	DB	0bcH
	DB	0c0H
	DB	0ffH
	DB	0b8H
	DB	0c0H
	DB	0b8H
	DB	0ffH
	DB	0c0H
	DB	0bcH
	DB	0c0H
	DB	0ffH
	DB	0b8H
	DB	0bcH
	DB	0b8H
	DB	0ffH
	DB	0c0H
	DB	0bcH
	DB	0c0H
	DB	0ffH
	DB	0c0H
	DB	0c0H
	DB	0c0H
	DB	0ffH
	DB	0b8H
	DB	0bcH
	DB	0b8H
	DB	0ffH
	DB	0c0H
	DB	0bcH
	DB	0c0H
	DB	0ffH
	DB	0c0H
	DB	0bcH
	DB	0c0H
	DB	0ffH
	DB	0b8H
	DB	0bcH
	DB	0b8H
	DB	0ffH
	DB	0c0H
	DB	0bcH
	DB	0c0H
	DB	0ffH
	DB	0c0H
	DB	0bcH
	DB	0c0H
	DB	0ffH
	DB	0b8H
	DB	0bcH
	DB	0b8H
	DB	0ffH
	DB	0c0H
	DB	0bcH
	DB	0c0H
	DB	0ffH
	DB	0c0H
	DB	0c0H
	DB	0c0H
	DB	0ffH
	DB	0b8H
	DB	0bcH
	DB	0b8H
	DB	0ffH
	DB	0c0H
	DB	0bcH
	DB	0c0H
	DB	0ffH
	DB	0c0H
	DB	0bcH
	DB	0c0H
	DB	0ffH
	DB	0b8H
	DB	0bcH
	DB	0b8H
	DB	0ffH
	DB	0c0H
	DB	0c0H
	DB	0c0H
	DB	0ffH
	DB	0c0H
	DB	0bcH
	DB	0c0H
	DB	0ffH
	DB	0b8H
	DB	0bcH
	DB	0b8H
	DB	0ffH
	DB	0c0H
	DB	0c0H
	DB	0c0H
	DB	0ffH
	DB	0c0H
	DB	0bcH
	DB	0c0H
	DB	0ffH
	DB	0b8H
	DB	0bcH
	DB	0b8H
	DB	0ffH
	DB	0c0H
	DB	0bcH
	DB	0c0H
	DB	0ffH
	DB	0c0H
	DB	0bcH
	DB	0c0H
	DB	0ffH
	DB	0b8H
	DB	0bcH
	DB	0b8H
	DB	0ffH
	DB	0c0H
	DB	0bcH
	DB	0c0H
	DB	0ffH
	DB	0c0H
	DB	0c0H
	DB	0c0H
	DB	0ffH
	DB	0b8H
	DB	0bcH
	DB	0b8H
	DB	0ffH
	DB	0c0H
	DB	0c0H
	DB	0c0H
	DB	0ffH
	DB	0b8H
	DB	0bcH
	DB	0b8H
	DB	0ffH
	DB	0c0H
	DB	0c0H
	DB	0c0H
	DB	0ffH
	DB	0b8H
	DB	0bcH
	DB	0b8H
	DB	0ffH
	DB	0c0H
	DB	0bcH
	DB	0c0H
	DB	0ffH
	DB	0c0H
	DB	0c0H
	DB	0c0H
	DB	0ffH
	DB	0b8H
	DB	0bcH
	DB	0b8H
	DB	0ffH
	DB	0c0H
	DB	0bcH
	DB	0c0H
	DB	0ffH
	DB	0c0H
	DB	0bcH
	DB	0c0H
	DB	0ffH
	DB	0b8H
	DB	0c0H
	DB	0b8H
	DB	0ffH
	DB	0c0H
	DB	0bcH
	DB	0c0H
	DB	0ffH
	DB	0c0H
	DB	0bcH
	DB	0c0H
	DB	0ffH
	DB	0c0H
	DB	0bcH
	DB	0c0H
	DB	0ffH
	DB	0b8H
	DB	0bcH
	DB	0b8H
	DB	0ffH
	DB	0c0H
	DB	0bcH
	DB	0c0H
	DB	0ffH
	DB	0c0H
	DB	0c0H
	DB	0c0H
	DB	0ffH
	DB	0b8H
	DB	0bcH
	DB	0b8H
	DB	0ffH
	DB	0c0H
	DB	0bcH
	DB	0c0H
	DB	0ffH
	DB	0b8H
	DB	0c0H
	DB	0b8H
	DB	0ffH
	DB	0c0H
	DB	0bcH
	DB	0c0H
	DB	0ffH
	DB	0c0H
	DB	0bcH
	DB	0c0H
	DB	0ffH
	DB	0b8H
	DB	0c0H
	DB	0b8H
	DB	0ffH
	DB	0c0H
	DB	0bcH
	DB	0c0H
	DB	0ffH
	DB	0c0H
	DB	0bcH
	DB	0c0H
	DB	0ffH
	DB	0b8H
	DB	0c0H
	DB	0b8H
	DB	0ffH
	DB	0c0H
	DB	0bcH
	DB	0c0H
	DB	0ffH
	DB	0b8H
	DB	0bcH
	DB	0b8H
	DB	0ffH
	DB	0c0H
	DB	0c0H
	DB	0c0H
	DB	0ffH
	DB	0c0H
	DB	0bcH
	DB	0c0H
	DB	0ffH
	DB	0b8H
	DB	0bcH
	DB	0b8H
	DB	0ffH
	DB	0c0H
	DB	0bcH
	DB	0c0H
	DB	0ffH
	DB	0c0H
	DB	0bcH
	DB	0c0H
	DB	0ffH
	DB	0c0H
	DB	0bcH
	DB	0c0H
	DB	0ffH
	DB	0b8H
	DB	0c0H
	DB	0b8H
	DB	0ffH
	DB	0c0H
	DB	0bcH
	DB	0c0H
	DB	0ffH
	DB	0c0H
	DB	0bcH
	DB	0c0H
	DB	0ffH
	DB	0b8H
	DB	0c0H
	DB	0b8H
	DB	0ffH
	DB	0c0H
	DB	0bcH
	DB	0c0H
	DB	0ffH
	DB	0c0H
	DB	0bcH
	DB	0c0H
	DB	0ffH
	DB	0b8H
	DB	0c0H
	DB	0b8H
	DB	0ffH
	DB	0c0H
	DB	0bcH
	DB	0c0H
	DB	0ffH
	DB	0c0H
	DB	0bcH
	DB	0c0H
	DB	0ffH
	DB	0b8H
	DB	0bcH
	DB	0b8H
	DB	0ffH
	DB	0c0H
	DB	0bcH
	DB	0c0H
	DB	0ffH
	DB	0c0H
	DB	0c0H
	DB	0c0H
	DB	0ffH
	DB	0b8H
	DB	0bcH
	DB	0b8H
	DB	0ffH
	DB	0c0H
	DB	0bcH
	DB	0c0H
	DB	0ffH
	DB	0b8H
	DB	0c0H
	DB	0b8H
	DB	0ffH
	DB	0c0H
	DB	0bcH
	DB	0c0H
	DB	0ffH
	DB	0b8H
	DB	0c0H
	DB	0b8H
	DB	0ffH
	DB	0c0H
	DB	0bcH
	DB	0c0H
	DB	0ffH
	DB	0c0H
	DB	0bcH
	DB	0c0H
	DB	0ffH
	DB	0b8H
	DB	0c0H
	DB	0b8H
	DB	0ffH
	DB	0c0H
	DB	0bcH
	DB	0c0H
	DB	0ffH
	DB	0b8H
	DB	0bcH
	DB	0b8H
	DB	0ffH
	DB	0c0H
	DB	0c0H
	DB	0c0H
	DB	0ffH
	DB	0c0H
	DB	0bcH
	DB	0c0H
	DB	0ffH
	DB	0b8H
	DB	0bcH
	DB	0b8H
	DB	0ffH
	DB	0c0H
	DB	0c0H
	DB	0c0H
	DB	0ffH
	DB	0c0H
	DB	0bcH
	DB	0c0H
	DB	0ffH
	DB	0b8H
	DB	0bcH
	DB	0b8H
	DB	0ffH
	DB	0c0H
	DB	0bcH
	DB	0c0H
	DB	0ffH
	DB	0c0H
	DB	0bcH
	DB	0c0H
	DB	0ffH
	DB	0b8H
	DB	0c0H
	DB	0b8H
	DB	0ffH
	DB	0c0H
	DB	0bcH
	DB	0c0H
	DB	0ffH
	DB	0c0H
	DB	0c0H
	DB	0c0H
	DB	0ffH
	DB	0b8H
	DB	0bcH
	DB	0b8H
	DB	0ffH
	DB	0c0H
	DB	0bcH
	DB	0c0H
	DB	0ffH
	DB	0c0H
	DB	0bcH
	DB	0c0H
	DB	0ffH
	DB	0b8H
	DB	0c0H
	DB	0b8H
	DB	0ffH
	DB	0c0H
	DB	0bcH
	DB	0c0H
	DB	0ffH
	DB	0c0H
	DB	0bcH
	DB	0c0H
	DB	0ffH
	DB	0b8H
	DB	0c0H
	DB	0b8H
	DB	0ffH
	DB	0c0H
	DB	0bcH
	DB	0c0H
	DB	0ffH
	DB	0b8H
	DB	0bcH
	DB	0b8H
	DB	0ffH
	DB	0c0H
	DB	0bcH
	DB	0c0H
	DB	0ffH
	DB	0c0H
	DB	0bcH
	DB	0c0H
	DB	0ffH
	DB	0b8H
	DB	0bcH
	DB	0b8H
	DB	0ffH
	DB	0c0H
	DB	0bcH
	DB	0c0H
	DB	0ffH
	DB	0b8H
	DB	0bcH
	DB	0b8H
	DB	0ffH
	DB	0c0H
	DB	0bcH
	DB	0c0H
	DB	0ffH
	DB	0b8H
	DB	0bcH
	DB	0b8H
	DB	0ffH
	DB	0c0H
	DB	0bcH
	DB	0c0H
	DB	0ffH
	DB	0b8H
	DB	0bcH
	DB	0b8H
	DB	0ffH
	DB	0c0H
	DB	0bcH
	DB	0c0H
	DB	0ffH
	DB	0b8H
	DB	0bcH
	DB	0b8H
	DB	0ffH
	DB	0c0H
	DB	0bcH
	DB	0c0H
	DB	0ffH
	DB	0c0H
	DB	0bcH
	DB	0c0H
	DB	0ffH
	DB	0b8H
	DB	0c0H
	DB	0b8H
	DB	0ffH
	DB	0c0H
	DB	0bcH
	DB	0c0H
	DB	0ffH
	DB	0b8H
	DB	0bcH
	DB	0b8H
	DB	0ffH
	DB	0c0H
	DB	0bcH
	DB	0c0H
	DB	0ffH
	DB	0c0H
	DB	0c0H
	DB	0c0H
	DB	0ffH
	DB	0c0H
	DB	0bcH
	DB	0c0H
	DB	0ffH
	DB	0b8H
	DB	0bcH
	DB	0b8H
	DB	0ffH
	DB	0c0H
	DB	0c0H
	DB	0c0H
	DB	0ffH
	DB	0b8H
	DB	0bcH
	DB	0b8H
	DB	0ffH
	DB	0b8H
	DB	0bcH
	DB	0b8H
	DB	0ffH
	DB	0c0H
	DB	0c0H
	DB	0c0H
	DB	0ffH
	DB	0c0H
	DB	0bcH
	DB	0c0H
	DB	0ffH
	DB	0b8H
	DB	0bcH
	DB	0b8H
	DB	0ffH
	DB	0c0H
	DB	0c0H
	DB	0c0H
	DB	0ffH
	DB	0b8H
	DB	0bcH
	DB	0b8H
	DB	0ffH
	DB	0c0H
	DB	0bcH
	DB	0c0H
	DB	0ffH
	DB	0c0H
	DB	0bcH
	DB	0c0H
	DB	0ffH
	DB	0b8H
	DB	0bcH
	DB	0b8H
	DB	0ffH
	DB	0b8H
	DB	0bcH
	DB	0b8H
	DB	0ffH
	DB	0c0H
	DB	0bcH
	DB	0c0H
	DB	0ffH
	DB	0b8H
	DB	0c0H
	DB	0b8H
	DB	0ffH
	DB	0c0H
	DB	0bcH
	DB	0c0H
	DB	0ffH
	DB	0c0H
	DB	0bcH
	DB	0c0H
	DB	0ffH
	DB	0b8H
	DB	0c0H
	DB	0b8H
	DB	0ffH
	DB	0c0H
	DB	0bcH
	DB	0c0H
	DB	0ffH
	DB	0b8H
	DB	0bcH
	DB	0b8H
	DB	0ffH
	DB	0c0H
	DB	0bcH
	DB	0c0H
	DB	0ffH
	DB	0c0H
	DB	0bcH
	DB	0c0H
	DB	0ffH
	DB	0b8H
	DB	0c0H
	DB	0b8H
	DB	0ffH
	DB	0c0H
	DB	0bcH
	DB	0c0H
	DB	0ffH
	DB	0c0H
	DB	0bcH
	DB	0c0H
	DB	0ffH
	DB	0b8H
	DB	0bcH
	DB	0b8H
	DB	0ffH
	DB	0c0H
	DB	0c0H
	DB	0c0H
	DB	0ffH
	DB	0c0H
	DB	0bcH
	DB	0c0H
	DB	0ffH
	DB	0b8H
	DB	0bcH
	DB	0b8H
	DB	0ffH
	DB	0c0H
	DB	0bcH
	DB	0c0H
	DB	0ffH
	DB	0c0H
	DB	0bcH
	DB	0c0H
	DB	0ffH
	DB	0b8H
	DB	0c0H
	DB	0b8H
	DB	0ffH
	DB	0c0H
	DB	0bcH
	DB	0c0H
	DB	0ffH
	DB	0b8H
	DB	0bcH
	DB	0b8H
	DB	0ffH
	DB	0c0H
	DB	0bcH
	DB	0c0H
	DB	0ffH
	DB	0c0H
	DB	0bcH
	DB	0c0H
	DB	0ffH
	DB	0b8H
	DB	0c0H
	DB	0b8H
	DB	0ffH
	DB	0c0H
	DB	0bcH
	DB	0c0H
	DB	0ffH
	DB	0b8H
	DB	0bcH
	DB	0b8H
	DB	0ffH
	DB	0c0H
	DB	0bcH
	DB	0c0H
	DB	0ffH
	DB	0c0H
	DB	0c0H
	DB	0c0H
	DB	0ffH
	DB	0b8H
	DB	0bcH
	DB	0b8H
	DB	0ffH
	DB	0c0H
	DB	0bcH
	DB	0c0H
	DB	0ffH
	DB	0b8H
	DB	0c0H
	DB	0b8H
	DB	0ffH
	DB	0c0H
	DB	0bcH
	DB	0c0H
	DB	0ffH
	DB	0c0H
	DB	0bcH
	DB	0c0H
	DB	0ffH
	DB	0b8H
	DB	0bcH
	DB	0b8H
	DB	0ffH
	DB	0c0H
	DB	0bcH
	DB	0c0H
	DB	0ffH
	DB	0c0H
	DB	0bcH
	DB	0c0H
	DB	0ffH
	DB	0b8H
	DB	0c0H
	DB	0b8H
	DB	0ffH
	DB	0c0H
	DB	0bcH
	DB	0c0H
	DB	0ffH
	DB	0b8H
	DB	0bcH
	DB	0b8H
	DB	0ffH
	DB	0c0H
	DB	0c0H
	DB	0c0H
	DB	0ffH
	DB	0c0H
	DB	0c0H
	DB	0c0H
	DB	0ffH
	DB	0b8H
	DB	0bcH
	DB	0b8H
	DB	0ffH
	DB	0c0H
	DB	0bcH
	DB	0c0H
	DB	0ffH
	DB	0c0H
	DB	0c0H
	DB	0c0H
	DB	0ffH
	DB	0b8H
	DB	0bcH
	DB	0b8H
	DB	0ffH
	DB	0c0H
	DB	0bcH
	DB	0c0H
	DB	0ffH
	DB	0c0H
	DB	0c0H
	DB	0c0H
	DB	0ffH
	DB	0b8H
	DB	0c0H
	DB	0b8H
	DB	0ffH
	DB	0c0H
	DB	0bcH
	DB	0c0H
	DB	0ffH
	DB	0c0H
	DB	0bcH
	DB	0c0H
	DB	0ffH
	DB	0b8H
	DB	0c0H
	DB	0b8H
	DB	0ffH
	DB	0c0H
	DB	0bcH
	DB	0c0H
	DB	0ffH
	DB	0c0H
	DB	0bcH
	DB	0c0H
	DB	0ffH
	DB	0b8H
	DB	0bcH
	DB	0b8H
	DB	0ffH
	DB	0b8H
	DB	0bcH
	DB	0b8H
	DB	0ffH
	DB	0c0H
	DB	0bcH
	DB	0c0H
	DB	0ffH
	DB	0b8H
	DB	0bcH
	DB	0b8H
	DB	0ffH
	DB	0c0H
	DB	0bcH
	DB	0c0H
	DB	0ffH
	DB	0c0H
	DB	0c0H
	DB	0c0H
	DB	0ffH
	DB	0c0H
	DB	0bcH
	DB	0c0H
	DB	0ffH
	DB	0c0H
	DB	0bcH
	DB	0c0H
	DB	0ffH
	DB	0b8H
	DB	0bcH
	DB	0b8H
	DB	0ffH
	DB	0c0H
	DB	0c0H
	DB	0c0H
	DB	0ffH
	DB	0c0H
	DB	0bcH
	DB	0c0H
	DB	0ffH
	DB	0b8H
	DB	0bcH
	DB	0b8H
	DB	0ffH
	DB	0c0H
	DB	0c0H
	DB	0c0H
	DB	0ffH
	DB	0b8H
	DB	0bcH
	DB	0b8H
	DB	0ffH
	DB	0c0H
	DB	0bcH
	DB	0c0H
	DB	0ffH
	DB	0c0H
	DB	0c0H
	DB	0c0H
	DB	0ffH
	DB	0c0H
	DB	0bcH
	DB	0c0H
	DB	0ffH
	DB	0b8H
	DB	0bcH
	DB	0b8H
	DB	0ffH
	DB	0c0H
	DB	0bcH
	DB	0c0H
	DB	0ffH
	DB	0c0H
	DB	0bcH
	DB	0c0H
	DB	0ffH
	DB	0b8H
	DB	0bcH
	DB	0b8H
	DB	0ffH
	DB	0c0H
	DB	0c0H
	DB	0c0H
	DB	0ffH
	DB	0c0H
	DB	0bcH
	DB	0c0H
	DB	0ffH
	DB	0b8H
	DB	0c0H
	DB	0b8H
	DB	0ffH
	DB	0c0H
	DB	0bcH
	DB	0c0H
	DB	0ffH
	DB	0c0H
	DB	0bcH
	DB	0c0H
	DB	0ffH
	DB	0b8H
	DB	0bcH
	DB	0b8H
	DB	0ffH
	DB	0c0H
	DB	0bcH
	DB	0c0H
	DB	0ffH
	DB	0c0H
	DB	0bcH
	DB	0c0H
	DB	0ffH
	DB	0b8H
	DB	0bcH
	DB	0b8H
	DB	0ffH
	DB	0c0H
	DB	0bcH
	DB	0c0H
	DB	0ffH
	DB	0b8H
	DB	0c0H
	DB	0b8H
	DB	0ffH
	DB	0c0H
	DB	0bcH
	DB	0c0H
	DB	0ffH
	DB	0c0H
	DB	0bcH
	DB	0c0H
	DB	0ffH
	DB	0b8H
	DB	0c0H
	DB	0b8H
	DB	0ffH
	DB	0c0H
	DB	0bcH
	DB	0c0H
	DB	0ffH
	DB	0c0H
	DB	0bcH
	DB	0c0H
	DB	0ffH
	DB	0b8H
	DB	0c0H
	DB	0b8H
	DB	0ffH
	DB	0c0H
	DB	0bcH
	DB	0c0H
	DB	0ffH
	DB	0b8H
	DB	0bcH
	DB	0b8H
	DB	0ffH
	DB	0c0H
	DB	0c0H
	DB	0c0H
	DB	0ffH
	DB	0c0H
	DB	0bcH
	DB	0c0H
	DB	0ffH
	DB	0b8H
	DB	0bcH
	DB	0b8H
	DB	0ffH
	DB	0c0H
	DB	0bcH
	DB	0c0H
	DB	0ffH
	DB	0b8H
	DB	0bcH
	DB	0b8H
	DB	0ffH
	DB	0c0H
	DB	0bcH
	DB	0c0H
	DB	0ffH
	DB	0c0H
	DB	0bcH
	DB	0c0H
	DB	0ffH
	DB	0b8H
	DB	0c0H
	DB	0b8H
	DB	0ffH
	DB	0c0H
	DB	0bcH
	DB	0c0H
	DB	0ffH
	DB	0c0H
	DB	0bcH
	DB	0c0H
	DB	0ffH
	DB	0b8H
	DB	0c0H
	DB	0b8H
	DB	0ffH
	DB	0c0H
	DB	0bcH
	DB	0c0H
	DB	0ffH
	DB	0c0H
	DB	0bcH
	DB	0c0H
	DB	0ffH
	DB	0b8H
	DB	0bcH
	DB	0b8H
	DB	0ffH
	DB	0c0H
	DB	0c0H
	DB	0c0H
	DB	0ffH
	DB	0c0H
	DB	0bcH
	DB	0c0H
	DB	0ffH
	DB	0b8H
	DB	0bcH
	DB	0b8H
	DB	0ffH
	DB	0c0H
	DB	0bcH
	DB	0c0H
	DB	0ffH
	DB	0c0H
	DB	0bcH
	DB	0c0H
	DB	0ffH
	DB	0b8H
	DB	0c0H
	DB	0b8H
	DB	0ffH
	DB	0c0H
	DB	0bcH
	DB	0c0H
	DB	0ffH
	DB	0c0H
	DB	0bcH
	DB	0c0H
	DB	0ffH
	DB	0b8H
	DB	0bcH
	DB	0b8H
	DB	0ffH
	DB	0c0H
	DB	0bcH
	DB	0c0H
	DB	0ffH
	DB	0c0H
	DB	0bcH
	DB	0c0H
	DB	0ffH
	DB	0b8H
	DB	0bcH
	DB	0b8H
	DB	0ffH
	DB	0c0H
	DB	0c0H
	DB	0c0H
	DB	0ffH
	DB	0b8H
	DB	0bcH
	DB	0b8H
	DB	0ffH
	DB	0c0H
	DB	0bcH
	DB	0c0H
	DB	0ffH
	DB	0c0H
	DB	0c0H
	DB	0c0H
	DB	0ffH
	DB	0c0H
	DB	0bcH
	DB	0c0H
	DB	0ffH
	DB	0c0H
	DB	0c0H
	DB	0c0H
	DB	0ffH
	DB	0b8H
	DB	0bcH
	DB	0b8H
	DB	0ffH
	DB	0c0H
	DB	0bcH
	DB	0c0H
	DB	0ffH
	DB	0b8H
	DB	0c0H
	DB	0b8H
	DB	0ffH
	DB	0c0H
	DB	0bcH
	DB	0c0H
	DB	0ffH
	DB	0c0H
	DB	0bcH
	DB	0c0H
	DB	0ffH
	DB	0b8H
	DB	0bcH
	DB	0b8H
	DB	0ffH
	DB	0c0H
	DB	0bcH
	DB	0c0H
	DB	0ffH
	DB	0b8H
	DB	0bcH
	DB	0b8H
	DB	0ffH
	DB	0c0H
	DB	0bcH
	DB	0c0H
	DB	0ffH
	DB	0c0H
	DB	0bcH
	DB	0c0H
	DB	0ffH
	DB	0b8H
	DB	0bcH
	DB	0b8H
	DB	0ffH
	DB	0c0H
	DB	0c0H
	DB	0c0H
	DB	0ffH
	DB	0b8H
	DB	0bcH
	DB	0b8H
	DB	0ffH
	DB	0c0H
	DB	0bcH
	DB	0c0H
	DB	0ffH
	DB	0c0H
	DB	0c0H
	DB	0c0H
	DB	0ffH
	DB	0b8H
	DB	0bcH
	DB	0b8H
	DB	0ffH
	DB	0c0H
	DB	0c0H
	DB	0c0H
	DB	0ffH
	DB	0b8H
	DB	0bcH
	DB	0b8H
	DB	0ffH
	DB	0b8H
	DB	0bcH
	DB	0b8H
	DB	0ffH
	DB	0c0H
	DB	0bcH
	DB	0c0H
	DB	0ffH
	DB	0c0H
	DB	0bcH
	DB	0c0H
	DB	0ffH
	DB	0b8H
	DB	0bcH
	DB	0b8H
	DB	0ffH
	DB	0c0H
	DB	0c0H
	DB	0c0H
	DB	0ffH
	DB	0b8H
	DB	0bcH
	DB	0b8H
	DB	0ffH
	DB	0c0H
	DB	0c0H
	DB	0c0H
	DB	0ffH
	DB	0b8H
	DB	0c0H
	DB	0b8H
	DB	0ffH
	DB	0c0H
	DB	0bcH
	DB	0c0H
	DB	0ffH
	DB	0c0H
	DB	0bcH
	DB	0c0H
	DB	0ffH
	DB	0b8H
	DB	0c0H
	DB	0b8H
	DB	0ffH
	DB	0c0H
	DB	0bcH
	DB	0c0H
	DB	0ffH
	DB	0b8H
	DB	0bcH
	DB	0b8H
	DB	0ffH
	DB	0c0H
	DB	0bcH
	DB	0c0H
	DB	0ffH
	DB	0b8H
	DB	0bcH
	DB	0b8H
	DB	0ffH
	DB	0c0H
	DB	0bcH
	DB	0c0H
	DB	0ffH
	DB	0c0H
	DB	0bcH
	DB	0c0H
	DB	0ffH
	DB	0b8H
	DB	0c0H
	DB	0b8H
	DB	0ffH
	DB	0c0H
	DB	0bcH
	DB	0c0H
	DB	0ffH
	DB	0c0H
	DB	0bcH
	DB	0c0H
	DB	0ffH
	DB	0b8H
	DB	0bcH
	DB	0b8H
	DB	0ffH
	DB	0c0H
	DB	0c0H
	DB	0c0H
	DB	0ffH
	DB	0c0H
	DB	0bcH
	DB	0c0H
	DB	0ffH
	DB	0b8H
	DB	0c0H
	DB	0b8H
	DB	0ffH
	DB	0c0H
	DB	0bcH
	DB	0c0H
	DB	0ffH
	DB	0c0H
	DB	0bcH
	DB	0c0H
	DB	0ffH
	DB	0b8H
	DB	0c0H
	DB	0b8H
	DB	0ffH
	DB	0c0H
	DB	0bcH
	DB	0c0H
	DB	0ffH
	DB	0b8H
	DB	0bcH
	DB	0b8H
	DB	0ffH
	DB	0c0H
	DB	0bcH
	DB	0c0H
	DB	0ffH
	DB	0b8H
	DB	0c0H
	DB	0b8H
	DB	0ffH
	DB	0c0H
	DB	0bcH
	DB	0c0H
	DB	0ffH
	DB	0c0H
	DB	0bcH
	DB	0c0H
	DB	0ffH
	DB	0b8H
	DB	0bcH
	DB	0b8H
	DB	0ffH
	DB	0c0H
	DB	0bcH
	DB	0c0H
	DB	0ffH
	DB	0c0H
	DB	0c0H
	DB	0c0H
	DB	0ffH
	DB	0b8H
	DB	0bcH
	DB	0b8H
	DB	0ffH
	DB	0c0H
	DB	0bcH
	DB	0c0H
	DB	0ffH
	DB	0b8H
	DB	0bcH
	DB	0b8H
	DB	0ffH
	DB	0c0H
	DB	0bcH
	DB	0c0H
	DB	0ffH
	DB	0b8H
	DB	0bcH
	DB	0b8H
	DB	0ffH
	DB	0c0H
	DB	0bcH
	DB	0c0H
	DB	0ffH
	DB	0c0H
	DB	0bcH
	DB	0c0H
	DB	0ffH
	DB	0b8H
	DB	0bcH
	DB	0b8H
	DB	0ffH
	DB	0c0H
	DB	0bcH
	DB	0c0H
	DB	0ffH
	DB	0c0H
	DB	0bcH
	DB	0c0H
	DB	0ffH
	DB	0b8H
	DB	0bcH
	DB	0b8H
	DB	0ffH
	DB	0c0H
	DB	0bcH
	DB	0c0H
	DB	0ffH
	DB	0b8H
	DB	0bcH
	DB	0b8H
	DB	0ffH
	DB	0b8H
	DB	0bcH
	DB	0b8H
	DB	0ffH
	DB	0c0H
	DB	0c0H
	DB	0c0H
	DB	0ffH
	DB	0c0H
	DB	0bcH
	DB	0c0H
	DB	0ffH
	DB	0c0H
	DB	0bcH
	DB	0c0H
	DB	0ffH
	DB	0b8H
	DB	0c0H
	DB	0b8H
	DB	0ffH
	DB	0c0H
	DB	0bcH
	DB	0c0H
	DB	0ffH
	DB	0b8H
	DB	0bcH
	DB	0b8H
	DB	0ffH
	DB	0b8H
	DB	0c0H
	DB	0b8H
	DB	0ffH
	DB	0c0H
	DB	0bcH
	DB	0c0H
	DB	0ffH
	DB	0c0H
	DB	0c0H
	DB	0c0H
	DB	0ffH
	DB	0b8H
	DB	0bcH
	DB	0b8H
	DB	0ffH
	DB	0c0H
	DB	0c0H
	DB	0c0H
	DB	0ffH
	DB	0c0H
	DB	0bcH
	DB	0c0H
	DB	0ffH
	DB	0b8H
	DB	0bcH
	DB	0b8H
	DB	0ffH
	DB	0c0H
	DB	0bcH
	DB	0c0H
	DB	0ffH
	DB	0c0H
	DB	0bcH
	DB	0c0H
	DB	0ffH
	DB	0b8H
	DB	0bcH
	DB	0b8H
	DB	0ffH
	DB	0c0H
	DB	0bcH
	DB	0c0H
	DB	0ffH
	DB	0c0H
	DB	0bcH
	DB	0c0H
	DB	0ffH
	DB	0b8H
	DB	0c0H
	DB	0b8H
	DB	0ffH
	DB	0c0H
	DB	0bcH
	DB	0c0H
	DB	0ffH
	DB	0c0H
	DB	0bcH
	DB	0c0H
	DB	0ffH
	DB	0b8H
	DB	0c0H
	DB	0b8H
	DB	0ffH
	DB	0c0H
	DB	0bcH
	DB	0c0H
	DB	0ffH
	DB	0c0H
	DB	0bcH
	DB	0c0H
	DB	0ffH
	DB	0b8H
	DB	0bcH
	DB	0b8H
	DB	0ffH
	DB	0c0H
	DB	0bcH
	DB	0c0H
	DB	0ffH
	DB	0c0H
	DB	0bcH
	DB	0c0H
	DB	0ffH
	DB	0b8H
	DB	0bcH
	DB	0b8H
	DB	0ffH
	DB	0c0H
	DB	0bcH
	DB	0c0H
	DB	0ffH
	DB	0c0H
	DB	0c0H
	DB	0c0H
	DB	0ffH
	DB	0b8H
	DB	0bcH
	DB	0b8H
	DB	0ffH
	DB	0c0H
	DB	0bcH
	DB	0c0H
	DB	0ffH
	DB	0c0H
	DB	0c0H
	DB	0c0H
	DB	0ffH
	DB	0b8H
	DB	0bcH
	DB	0b8H
	DB	0ffH
	DB	0c0H
	DB	0c0H
	DB	0c0H
	DB	0ffH
	DB	0b8H
	DB	0bcH
	DB	0b8H
	DB	0ffH
	DB	0c0H
	DB	0bcH
	DB	0c0H
	DB	0ffH
	DB	0c0H
	DB	0bcH
	DB	0c0H
	DB	0ffH
	DB	0b8H
	DB	0bcH
	DB	0b8H
	DB	0ffH
	DB	0c0H
	DB	0bcH
	DB	0c0H
	DB	0ffH
	DB	0b8H
	DB	0bcH
	DB	0b8H
	DB	0ffH
	DB	0c0H
	DB	0bcH
	DB	0c0H
	DB	0ffH
	DB	0c0H
	DB	0bcH
	DB	0c0H
	DB	0ffH
	DB	0b8H
	DB	0c0H
	DB	0b8H
	DB	0ffH
	DB	0c0H
	DB	0bcH
	DB	0c0H
	DB	0ffH
	DB	0b8H
	DB	0bcH
	DB	0b8H
	DB	0ffH
	DB	0c0H
	DB	0bcH
	DB	0c0H
	DB	0ffH
	DB	0c0H
	DB	0bcH
	DB	0c0H
	DB	0ffH
	DB	0b8H
	DB	0bcH
	DB	0b8H
	DB	0ffH
	DB	0c0H
	DB	0bcH
	DB	0c0H
	DB	0ffH
	DB	0c0H
	DB	0bcH
	DB	0c0H
	DB	0ffH
	DB	0b8H
	DB	0c0H
	DB	0b8H
	DB	0ffH
	DB	0c0H
	DB	0bcH
	DB	0c0H
	DB	0ffH
	DB	0b8H
	DB	0bcH
	DB	0b8H
	DB	0ffH
	DB	0c0H
	DB	0c0H
	DB	0c0H
	DB	0ffH
	DB	0b8H
	DB	0bcH
	DB	0b8H
	DB	0ffH
	DB	0c0H
	DB	0bcH
	DB	0c0H
	DB	0ffH
	DB	0c0H
	DB	0c0H
	DB	0c0H
	DB	0ffH
	DB	0b8H
	DB	0c0H
	DB	0b8H
	DB	0ffH
	DB	0c0H
	DB	0bcH
	DB	0c0H
	DB	0ffH
	DB	0c0H
	DB	0bcH
	DB	0c0H
	DB	0ffH
	DB	0b8H
	DB	0c0H
	DB	0b8H
	DB	0ffH
	DB	0c0H
	DB	0bcH
	DB	0c0H
	DB	0ffH
	DB	0b8H
	DB	0c0H
	DB	0b8H
	DB	0ffH
	DB	0c0H
	DB	0c0H
	DB	0c0H
	DB	0ffH
	DB	0c0H
	DB	0bcH
	DB	0c0H
	DB	0ffH
	DB	0b8H
	DB	0bcH
	DB	0b8H
	DB	0ffH
	DB	0c0H
	DB	0c0H
	DB	0c0H
	DB	0ffH
	DB	0c0H
	DB	0bcH
	DB	0c0H
	DB	0ffH
	DB	0b8H
	DB	0bcH
	DB	0b8H
	DB	0ffH
	DB	0b8H
	DB	0bcH
	DB	0b8H
	DB	0ffH
	DB	0c0H
	DB	0bcH
	DB	0c0H
	DB	0ffH
	DB	0b8H
	DB	0bcH
	DB	0b8H
	DB	0ffH
	DB	0c0H
	DB	0bcH
	DB	0c0H
	DB	0ffH
	DB	0c0H
	DB	0bcH
	DB	0c0H
	DB	0ffH
	DB	0c0H
	DB	0bcH
	DB	0c0H
	DB	0ffH
	DB	0b8H
	DB	0bcH
	DB	0b8H
	DB	0ffH
	DB	0c0H
	DB	0c0H
	DB	0c0H
	DB	0ffH
	DB	0c0H
	DB	0bcH
	DB	0c0H
	DB	0ffH
	DB	0b8H
	DB	0bcH
	DB	0b8H
	DB	0ffH
	DB	0c0H
	DB	0bcH
	DB	0c0H
	DB	0ffH
	DB	0c0H
	DB	0c0H
	DB	0c0H
	DB	0ffH
	DB	0b8H
	DB	0bcH
	DB	0b8H
	DB	0ffH
	DB	0c0H
	DB	0c0H
	DB	0c0H
	DB	0ffH
	DB	0c0H
	DB	0bcH
	DB	0c0H
	DB	0ffH
	DB	0b8H
	DB	0c0H
	DB	0b8H
	DB	0ffH
	DB	0c0H
	DB	0bcH
	DB	0c0H
	DB	0ffH
	DB	0c0H
	DB	0bcH
	DB	0c0H
	DB	0ffH
	DB	0b8H
	DB	0bcH
	DB	0b8H
	DB	0ffH
	DB	0c0H
	DB	0bcH
	DB	0c0H
	DB	0ffH
	DB	0c0H
	DB	0c0H
	DB	0c0H
	DB	0ffH
	DB	0b8H
	DB	0bcH
	DB	0b8H
	DB	0ffH
	DB	0c0H
	DB	0bcH
	DB	0c0H
	DB	0ffH
	DB	0c0H
	DB	0c0H
	DB	0c0H
	DB	0ffH
	DB	0b8H
	DB	0bcH
	DB	0b8H
	DB	0ffH
	DB	0c0H
	DB	0bcH
	DB	0c0H
	DB	0ffH
	DB	0c0H
	DB	0c0H
	DB	0c0H
	DB	0ffH
	DB	0b8H
	DB	0bcH
	DB	0b8H
	DB	0ffH
	DB	0c0H
	DB	0bcH
	DB	0c0H
	DB	0ffH
	DB	0b8H
	DB	0bcH
	DB	0b8H
	DB	0ffH
	DB	0c0H
	DB	0bcH
	DB	0c0H
	DB	0ffH
	DB	0c0H
	DB	0bcH
	DB	0c0H
	DB	0ffH
	DB	0b8H
	DB	0bcH
	DB	0b8H
	DB	0ffH
	DB	0c0H
	DB	0c0H
	DB	0c0H
	DB	0ffH
	DB	0c0H
	DB	0bcH
	DB	0c0H
	DB	0ffH
	DB	0b8H
	DB	0bcH
	DB	0b8H
	DB	0ffH
	DB	0c0H
	DB	0c0H
	DB	0c0H
	DB	0ffH
	DB	0c0H
	DB	0bcH
	DB	0c0H
	DB	0ffH
	DB	0b8H
	DB	0c0H
	DB	0b8H
	DB	0ffH
	DB	0c0H
	DB	0c0H
	DB	0c0H
	DB	0ffH
	DB	0c0H
	DB	0bcH
	DB	0c0H
	DB	0ffH
	DB	0b8H
	DB	0bcH
	DB	0b8H
	DB	0ffH
	DB	0c0H
	DB	0bcH
	DB	0c0H
	DB	0ffH
	DB	0c0H
	DB	0bcH
	DB	0c0H
	DB	0ffH
	DB	0b8H
	DB	0c0H
	DB	0b8H
	DB	0ffH
	DB	0c0H
	DB	0bcH
	DB	0c0H
	DB	0ffH
	DB	0c0H
	DB	0bcH
	DB	0c0H
	DB	0ffH
	DB	0b8H
	DB	0c0H
	DB	0b8H
	DB	0ffH
	DB	0c0H
	DB	0c0H
	DB	0c0H
	DB	0ffH
	DB	0c0H
	DB	0bcH
	DB	0c0H
	DB	0ffH
	DB	0b8H
	DB	0bcH
	DB	0b8H
	DB	0ffH
	DB	0c0H
	DB	0bcH
	DB	0c0H
	DB	0ffH
	DB	0c0H
	DB	0c0H
	DB	0c0H
	DB	0ffH
	DB	0c0H
	DB	0bcH
	DB	0c0H
	DB	0ffH
	DB	0b8H
	DB	0bcH
	DB	0b8H
	DB	0ffH
	DB	0c0H
	DB	0bcH
	DB	0c0H
	DB	0ffH
	DB	0c0H
	DB	0bcH
	DB	0c0H
	DB	0ffH
	DB	0b8H
	DB	0bcH
	DB	0b8H
	DB	0ffH
	DB	0c0H
	DB	0bcH
	DB	0c0H
	DB	0ffH
	DB	0c0H
	DB	0bcH
	DB	0c0H
	DB	0ffH
	DB	0b8H
	DB	0c0H
	DB	0b8H
	DB	0ffH
	DB	0c0H
	DB	0bcH
	DB	0c0H
	DB	0ffH
	DB	0c0H
	DB	0bcH
	DB	0c0H
	DB	0ffH
	DB	0b8H
	DB	0bcH
	DB	0b8H
	DB	0ffH
	DB	0c0H
	DB	0bcH
	DB	0c0H
	DB	0ffH
	DB	0b8H
	DB	0bcH
	DB	0b8H
	DB	0ffH
	DB	0c0H
	DB	0c0H
	DB	0c0H
	DB	0ffH
	DB	0c0H
	DB	0bcH
	DB	0c0H
	DB	0ffH
	DB	0c0H
	DB	0bcH
	DB	0c0H
	DB	0ffH
	DB	0c0H
	DB	0c0H
	DB	0c0H
	DB	0ffH
	DB	0c0H
	DB	0bcH
	DB	0c0H
	DB	0ffH
	DB	0b8H
	DB	0c0H
	DB	0b8H
	DB	0ffH
	DB	0c0H
	DB	0bcH
	DB	0c0H
	DB	0ffH
	DB	0c0H
	DB	0c0H
	DB	0c0H
	DB	0ffH
	DB	0b8H
	DB	0bcH
	DB	0b8H
	DB	0ffH
	DB	0c0H
	DB	0bcH
	DB	0c0H
	DB	0ffH
	DB	0c0H
	DB	0bcH
	DB	0c0H
	DB	0ffH
	DB	0b8H
	DB	0bcH
	DB	0b8H
	DB	0ffH
	DB	0c0H
	DB	0bcH
	DB	0c0H
	DB	0ffH
	DB	0c0H
	DB	0bcH
	DB	0c0H
	DB	0ffH
	DB	0b8H
	DB	0bcH
	DB	0b8H
	DB	0ffH
	DB	0c0H
	DB	0bcH
	DB	0c0H
	DB	0ffH
	DB	0b8H
	DB	0c0H
	DB	0b8H
	DB	0ffH
	DB	0c0H
	DB	0bcH
	DB	0c0H
	DB	0ffH
	DB	0b8H
	DB	0bcH
	DB	0b8H
	DB	0ffH
	DB	0c0H
	DB	0bcH
	DB	0c0H
	DB	0ffH
	DB	0b8H
	DB	0c0H
	DB	0b8H
	DB	0ffH
	DB	0c0H
	DB	0bcH
	DB	0c0H
	DB	0ffH
	DB	0c0H
	DB	0bcH
	DB	0c0H
	DB	0ffH
	DB	0b8H
	DB	0c0H
	DB	0b8H
	DB	0ffH
	DB	0c0H
	DB	0bcH
	DB	0c0H
	DB	0ffH
	DB	0c0H
	DB	0bcH
	DB	0c0H
	DB	0ffH
	DB	0b8H
	DB	0bcH
	DB	0b8H
	DB	0ffH
	DB	0c0H
	DB	0c0H
	DB	0c0H
	DB	0ffH
	DB	0b8H
	DB	0bcH
	DB	0b8H
	DB	0ffH
	DB	0c0H
	DB	0bcH
	DB	0c0H
	DB	0ffH
	DB	0b8H
	DB	0c0H
	DB	0b8H
	DB	0ffH
	DB	0c0H
	DB	0bcH
	DB	0c0H
	DB	0ffH
	DB	0c0H
	DB	0bcH
	DB	0c0H
	DB	0ffH
	DB	0b8H
	DB	0c0H
	DB	0b8H
	DB	0ffH
	DB	0c0H
	DB	0bcH
	DB	0c0H
	DB	0ffH
	DB	0c0H
	DB	0bcH
	DB	0c0H
	DB	0ffH
	DB	0b8H
	DB	0bcH
	DB	0b8H
	DB	0ffH
	DB	0c0H
	DB	0bcH
	DB	0c0H
	DB	0ffH
	DB	0c0H
	DB	0bcH
	DB	0c0H
	DB	0ffH
	DB	0b8H
	DB	0bcH
	DB	0b8H
	DB	0ffH
	DB	0c0H
	DB	0bcH
	DB	0c0H
	DB	0ffH
	DB	0b8H
	DB	0bcH
	DB	0b8H
	DB	0ffH
	DB	0c0H
	DB	0bcH
	DB	0c0H
	DB	0ffH
	DB	0c0H
	DB	0bcH
	DB	0c0H
	DB	0ffH
	DB	0b8H
	DB	0c0H
	DB	0b8H
	DB	0ffH
	DB	0b8H
	DB	0c0H
	DB	0b8H
	DB	0ffH
	DB	0c0H
	DB	0bcH
	DB	0c0H
	DB	0ffH
	DB	0c0H
	DB	0bcH
	DB	0c0H
	DB	0ffH
	DB	0b8H
	DB	0bcH
	DB	0b8H
	DB	0ffH
	DB	0c0H
	DB	0c0H
	DB	0c0H
	DB	0ffH
	DB	0b8H
	DB	0bcH
	DB	0b8H
	DB	0ffH
	DB	0c0H
	DB	0bcH
	DB	0c0H
	DB	0ffH
	DB	0c0H
	DB	0bcH
	DB	0c0H
	DB	0ffH
	DB	0b8H
	DB	0c0H
	DB	0b8H
	DB	0ffH
	DB	0b8H
	DB	0bcH
	DB	0b8H
	DB	0ffH
	DB	0c0H
	DB	0bcH
	DB	0c0H
	DB	0ffH
	DB	0b8H
	DB	0bcH
	DB	0b8H
	DB	0ffH
	DB	0c0H
	DB	0c0H
	DB	0c0H
	DB	0ffH
	DB	0c0H
	DB	0bcH
	DB	0c0H
	DB	0ffH
	DB	0b8H
	DB	0bcH
	DB	0b8H
	DB	0ffH
	DB	0c0H
	DB	0c0H
	DB	0c0H
	DB	0ffH
	DB	0b8H
	DB	0bcH
	DB	0b8H
	DB	0ffH
	DB	0c0H
	DB	0bcH
	DB	0c0H
	DB	0ffH
	DB	0c0H
	DB	0bcH
	DB	0c0H
	DB	0ffH
	DB	0b8H
	DB	0bcH
	DB	0b8H
	DB	0ffH
	DB	0c0H
	DB	0bcH
	DB	0c0H
	DB	0ffH
	DB	0c0H
	DB	0bcH
	DB	0c0H
	DB	0ffH
	DB	0c0H
	DB	0bcH
	DB	0c0H
	DB	0ffH
	DB	0b8H
	DB	0bcH
	DB	0b8H
	DB	0ffH
	DB	0c0H
	DB	0bcH
	DB	0c0H
	DB	0ffH
	DB	0b8H
	DB	0bcH
	DB	0b8H
	DB	0ffH
	DB	0b8H
	DB	0bcH
	DB	0b8H
	DB	0ffH
	DB	0c0H
	DB	0c0H
	DB	0c0H
	DB	0ffH
	DB	0b8H
	DB	0bcH
	DB	0b8H
	DB	0ffH
	DB	0c0H
	DB	0bcH
	DB	0c0H
	DB	0ffH
	DB	0c0H
	DB	0bcH
	DB	0c0H
	DB	0ffH
	DB	0b8H
	DB	0c0H
	DB	0b8H
	DB	0ffH
	DB	0c0H
	DB	0bcH
	DB	0c0H
	DB	0ffH
	DB	0b8H
	DB	0bcH
	DB	0b8H
	DB	0ffH
	DB	0c0H
	DB	0c0H
	DB	0c0H
	DB	0ffH
	DB	0c0H
	DB	0c0H
	DB	0c0H
	DB	0ffH
	DB	0b8H
	DB	0bcH
	DB	0b8H
	DB	0ffH
	DB	0c0H
	DB	0c0H
	DB	0c0H
	DB	0ffH
	DB	0b8H
	DB	0c0H
	DB	0b8H
	DB	0ffH
	DB	0c0H
	DB	0bcH
	DB	0c0H
	DB	0ffH
	DB	0c0H
	DB	0bcH
	DB	0c0H
	DB	0ffH
	DB	0c0H
	DB	0bcH
	DB	0c0H
	DB	0ffH
	DB	0b8H
	DB	0bcH
	DB	0b8H
	DB	0ffH
	DB	0c0H
	DB	0bcH
	DB	0c0H
	DB	0ffH
	DB	0c0H
	DB	0bcH
	DB	0c0H
	DB	0ffH
	DB	0b8H
	DB	0c0H
	DB	0b8H
	DB	0ffH
	DB	0c0H
	DB	0bcH
	DB	0c0H
	DB	0ffH
	DB	0c0H
	DB	0bcH
	DB	0c0H
	DB	0ffH
	DB	0b8H
	DB	0bcH
	DB	0b8H
	DB	0ffH
	DB	0c0H
	DB	0bcH
	DB	0c0H
	DB	0ffH
	DB	0b8H
	DB	0bcH
	DB	0b8H
	DB	0ffH
	DB	0c0H
	DB	0c0H
	DB	0c0H
	DB	0ffH
	DB	0c0H
	DB	0bcH
	DB	0c0H
	DB	0ffH
	DB	0c0H
	DB	0bcH
	DB	0c0H
	DB	0ffH
	DB	0b8H
	DB	0bcH
	DB	0b8H
	DB	0ffH
	DB	0c0H
	DB	0bcH
	DB	0c0H
	DB	0ffH
	DB	0c0H
	DB	0bcH
	DB	0c0H
	DB	0ffH
	DB	0b8H
	DB	0c0H
	DB	0b8H
	DB	0ffH
	DB	0c0H
	DB	0bcH
	DB	0c0H
	DB	0ffH
	DB	0b8H
	DB	0c0H
	DB	0b8H
	DB	0ffH
	DB	0c0H
	DB	0c0H
	DB	0c0H
	DB	0ffH
	DB	0b8H
	DB	0bcH
	DB	0b8H
	DB	0ffH
	DB	0c0H
	DB	0bcH
	DB	0c0H
	DB	0ffH
	DB	0b8H
	DB	0c0H
	DB	0b8H
	DB	0ffH
	DB	0c0H
	DB	0c0H
	DB	0c0H
	DB	0ffH
	DB	0c0H
	DB	0bcH
	DB	0c0H
	DB	0ffH
	DB	0b8H
	DB	0bcH
	DB	0b8H
	DB	0ffH
	DB	0c0H
	DB	0bcH
	DB	0c0H
	DB	0ffH
	DB	0c0H
	DB	0bcH
	DB	0c0H
	DB	0ffH
	DB	0b8H
	DB	0bcH
	DB	0b8H
	DB	0ffH
	DB	0c0H
	DB	0bcH
	DB	0c0H
	DB	0ffH
	DB	0c0H
	DB	0c0H
	DB	0c0H
	DB	0ffH
	DB	0b8H
	DB	0bcH
	DB	0b8H
	DB	0ffH
	DB	0c0H
	DB	0bcH
	DB	0c0H
	DB	0ffH
	DB	0c0H
	DB	0bcH
	DB	0c0H
	DB	0ffH
	DB	0b8H
	DB	0c0H
	DB	0b8H
	DB	0ffH
	DB	0c0H
	DB	0bcH
	DB	0c0H
	DB	0ffH
	DB	0c0H
	DB	0bcH
	DB	0c0H
	DB	0ffH
	DB	0b8H
	DB	0bcH
	DB	0b8H
	DB	0ffH
	DB	0c0H
	DB	0c0H
	DB	0c0H
	DB	0ffH
	DB	0c0H
	DB	0bcH
	DB	0c0H
	DB	0ffH
	DB	0b8H
	DB	0bcH
	DB	0b8H
	DB	0ffH
	DB	0c0H
	DB	0bcH
	DB	0c0H
	DB	0ffH
	DB	0b8H
	DB	0c0H
	DB	0b8H
	DB	0ffH
	DB	0c0H
	DB	0bcH
	DB	0c0H
	DB	0ffH
	DB	0c0H
	DB	0bcH
	DB	0c0H
	DB	0ffH
	DB	0b8H
	DB	0c0H
	DB	0b8H
	DB	0ffH
	DB	0c0H
	DB	0bcH
	DB	0c0H
	DB	0ffH
	DB	0b8H
	DB	0c0H
	DB	0b8H
	DB	0ffH
	DB	0c0H
	DB	0bcH
	DB	0c0H
	DB	0ffH
	DB	0c0H
	DB	0bcH
	DB	0c0H
	DB	0ffH
	DB	0b8H
	DB	0bcH
	DB	0b8H
	DB	0ffH
	DB	0c0H
	DB	0c0H
	DB	0c0H
	DB	0ffH
	DB	0c0H
	DB	0bcH
	DB	0c0H
	DB	0ffH
	DB	0c0H
	DB	0c0H
	DB	0c0H
	DB	0ffH
	DB	0c0H
	DB	0bcH
	DB	0c0H
	DB	0ffH
	DB	0b8H
	DB	0bcH
	DB	0b8H
	DB	0ffH
	DB	0c0H
	DB	0bcH
	DB	0c0H
	DB	0ffH
	DB	0c0H
	DB	0bcH
	DB	0c0H
	DB	0ffH
	DB	0b8H
	DB	0bcH
	DB	0b8H
	DB	0ffH
	DB	0c0H
	DB	0bcH
	DB	0c0H
	DB	0ffH
	DB	0c0H
	DB	0bcH
	DB	0c0H
	DB	0ffH
	DB	0b8H
	DB	0bcH
	DB	0b8H
	DB	0ffH
	DB	0c0H
	DB	0bcH
	DB	0c0H
	DB	0ffH
	DB	0b8H
	DB	0bcH
	DB	0b8H
	DB	0ffH
	DB	0c0H
	DB	0bcH
	DB	0c0H
	DB	0ffH
	DB	0c0H
	DB	0bcH
	DB	0c0H
	DB	0ffH
	DB	0b8H
	DB	0bcH
	DB	0b8H
	DB	0ffH
	DB	0c0H
	DB	0bcH
	DB	0c0H
	DB	0ffH
	DB	0b8H
	DB	0c0H
	DB	0b8H
	DB	0ffH
	DB	0c0H
	DB	0bcH
	DB	0c0H
	DB	0ffH
	DB	0b8H
	DB	0bcH
	DB	0b8H
	DB	0ffH
	DB	0c0H
	DB	0c0H
	DB	0c0H
	DB	0ffH
	DB	0c0H
	DB	0bcH
	DB	0c0H
	DB	0ffH
	DB	0b8H
	DB	0bcH
	DB	0b8H
	DB	0ffH
	DB	0c0H
	DB	0bcH
	DB	0c0H
	DB	0ffH
	DB	0b8H
	DB	0c0H
	DB	0b8H
	DB	0ffH
	DB	0c0H
	DB	0bcH
	DB	0c0H
	DB	0ffH
	DB	0c0H
	DB	0c0H
	DB	0c0H
	DB	0ffH
	DB	0b8H
	DB	0bcH
	DB	0b8H
	DB	0ffH
	DB	0c0H
	DB	0bcH
	DB	0c0H
	DB	0ffH
	DB	0b8H
	DB	0bcH
	DB	0b8H
	DB	0ffH
	DB	0c0H
	DB	0bcH
	DB	0c0H
	DB	0ffH
	DB	0b8H
	DB	0c0H
	DB	0b8H
	DB	0ffH
	DB	0c0H
	DB	0bcH
	DB	0c0H
	DB	0ffH
	DB	0c0H
	DB	0bcH
	DB	0c0H
	DB	0ffH
	DB	0b8H
	DB	0c0H
	DB	0b8H
	DB	0ffH
	DB	0c0H
	DB	0bcH
	DB	0c0H
	DB	0ffH
	DB	0c0H
	DB	0bcH
	DB	0c0H
	DB	0ffH
	DB	0b8H
	DB	0bcH
	DB	0b8H
	DB	0ffH
	DB	0c0H
	DB	0bcH
	DB	0c0H
	DB	0ffH
	DB	0c0H
	DB	0bcH
	DB	0c0H
	DB	0ffH
	DB	0b8H
	DB	0c0H
	DB	0b8H
	DB	0ffH
	DB	0c0H
	DB	0bcH
	DB	0c0H
	DB	0ffH
	DB	0c0H
	DB	0bcH
	DB	0c0H
	DB	0ffH
	DB	0b8H
	DB	0c0H
	DB	0b8H
	DB	0ffH
	DB	0c0H
	DB	0bcH
	DB	0c0H
	DB	0ffH
	DB	0b8H
	DB	0c0H
	DB	0b8H
	DB	0ffH
	DB	0c0H
	DB	0bcH
	DB	0c0H
	DB	0ffH
	DB	0c0H
	DB	0bcH
	DB	0c0H
	DB	0ffH
	DB	0b8H
	DB	0bcH
	DB	0b8H
	DB	0ffH
	DB	0c0H
	DB	0bcH
	DB	0c0H
	DB	0ffH
	DB	0b8H
	DB	0c0H
	DB	0b8H
	DB	0ffH
	DB	0c0H
	DB	0bcH
	DB	0c0H
	DB	0ffH
	DB	0c0H
	DB	0bcH
	DB	0c0H
	DB	0ffH
	DB	0b8H
	DB	0bcH
	DB	0b8H
	DB	0ffH
	DB	0c0H
	DB	0c0H
	DB	0c0H
	DB	0ffH
	DB	0c0H
	DB	0bcH
	DB	0c0H
	DB	0ffH
	DB	0b8H
	DB	0bcH
	DB	0b8H
	DB	0ffH
	DB	0c0H
	DB	0bcH
	DB	0c0H
	DB	0ffH
	DB	0c0H
	DB	0c0H
	DB	0c0H
	DB	0ffH
	DB	0c0H
	DB	0bcH
	DB	0c0H
	DB	0ffH
	DB	0b8H
	DB	0bcH
	DB	0b8H
	DB	0ffH
	DB	0c0H
	DB	0bcH
	DB	0c0H
	DB	0ffH
	DB	0c0H
	DB	0bcH
	DB	0c0H
	DB	0ffH
	DB	0b8H
	DB	0bcH
	DB	0b8H
	DB	0ffH
	DB	0c0H
	DB	0bcH
	DB	0c0H
	DB	0ffH
	DB	0c0H
	DB	0bcH
	DB	0c0H
	DB	0ffH
	DB	0b8H
	DB	0c0H
	DB	0b8H
	DB	0ffH
	DB	0c0H
	DB	0bcH
	DB	0c0H
	DB	0ffH
	DB	0b8H
	DB	0bcH
	DB	0b8H
	DB	0ffH
	DB	0c0H
	DB	0bcH
	DB	0c0H
	DB	0ffH
	DB	0b8H
	DB	0bcH
	DB	0b8H
	DB	0ffH
	DB	0b8H
	DB	0bcH
	DB	0b8H
	DB	0ffH
	DB	0c0H
	DB	0c0H
	DB	0c0H
	DB	0ffH
	DB	0c0H
	DB	0bcH
	DB	0c0H
	DB	0ffH
	DB	0b8H
	DB	0bcH
	DB	0b8H
	DB	0ffH
	DB	0c0H
	DB	0c0H
	DB	0c0H
	DB	0ffH
	DB	0c0H
	DB	0c0H
	DB	0c0H
	DB	0ffH
	DB	0b8H
	DB	0bcH
	DB	0b8H
	DB	0ffH
	DB	0c0H
	DB	0c0H
	DB	0c0H
	DB	0ffH
	DB	0c0H
	DB	0bcH
	DB	0c0H
	DB	0ffH
	DB	0b8H
	DB	0c0H
	DB	0b8H
	DB	0ffH
	DB	0c0H
	DB	0bcH
	DB	0c0H
	DB	0ffH
	DB	0c0H
	DB	0bcH
	DB	0c0H
	DB	0ffH
	DB	0b8H
	DB	0c0H
	DB	0b8H
	DB	0ffH
	DB	0c0H
	DB	0bcH
	DB	0c0H
	DB	0ffH
	DB	0c0H
	DB	0bcH
	DB	0c0H
	DB	0ffH
	DB	0b8H
	DB	0bcH
	DB	0b8H
	DB	0ffH
	DB	0c0H
	DB	0bcH
	DB	0c0H
	DB	0ffH
	DB	0b8H
	DB	0c0H
	DB	0b8H
	DB	0ffH
	DB	0c0H
	DB	0bcH
	DB	0c0H
	DB	0ffH
	DB	0c0H
	DB	0bcH
	DB	0c0H
	DB	0ffH
	DB	0b8H
	DB	0c0H
	DB	0b8H
	DB	0ffH
	DB	0c0H
	DB	0bcH
	DB	0c0H
	DB	0ffH
	DB	0c0H
	DB	0bcH
	DB	0c0H
	DB	0ffH
	DB	0b8H
	DB	0bcH
	DB	0b8H
	DB	0ffH
	DB	0c0H
	DB	0bcH
	DB	0c0H
	DB	0ffH
	DB	0c0H
	DB	0c0H
	DB	0c0H
	DB	0ffH
	DB	0b8H
	DB	0bcH
	DB	0b8H
	DB	0ffH
	DB	0c0H
	DB	0bcH
	DB	0c0H
	DB	0ffH
	DB	0c0H
	DB	0c0H
	DB	0c0H
	DB	0ffH
	DB	0b8H
	DB	0bcH
	DB	0b8H
	DB	0ffH
	DB	0c0H
	DB	0bcH
	DB	0c0H
	DB	0ffH
	DB	0b8H
	DB	0c0H
	DB	0b8H
	DB	0ffH
	DB	0c0H
	DB	0bcH
	DB	0c0H
	DB	0ffH
	DB	0b8H
	DB	0bcH
	DB	0b8H
	DB	0ffH
	DB	0c0H
	DB	0bcH
	DB	0c0H
	DB	0ffH
	DB	0c0H
	DB	0bcH
	DB	0c0H
	DB	0ffH
	DB	0b8H
	DB	0bcH
	DB	0b8H
	DB	0ffH
	DB	0c0H
	DB	0bcH
	DB	0c0H
	DB	0ffH
	DB	0c0H
	DB	0bcH
	DB	0c0H
	DB	0ffH
	DB	0b8H
	DB	0bcH
	DB	0b8H
	DB	0ffH
	DB	0c0H
	DB	0bcH
	DB	0c0H
	DB	0ffH
	DB	0c0H
	DB	0bcH
	DB	0c0H
	DB	0ffH
	DB	0b8H
	DB	0bcH
	DB	0b8H
	DB	0ffH
	DB	0c0H
	DB	0bcH
	DB	0c0H
	DB	0ffH
	DB	0c0H
	DB	0c0H
	DB	0c0H
	DB	0ffH
	DB	0b8H
	DB	0bcH
	DB	0b8H
	DB	0ffH
	DB	0c0H
	DB	0c0H
	DB	0c0H
	DB	0ffH
	DB	0c0H
	DB	0bcH
	DB	0c0H
	DB	0ffH
	DB	0b8H
	DB	0bcH
	DB	0b8H
	DB	0ffH
	DB	0c0H
	DB	0bcH
	DB	0c0H
	DB	0ffH
	DB	0c0H
	DB	0c0H
	DB	0c0H
	DB	0ffH
	DB	0b8H
	DB	0bcH
	DB	0b8H
	DB	0ffH
	DB	0c0H
	DB	0bcH
	DB	0c0H
	DB	0ffH
	DB	0b8H
	DB	0bcH
	DB	0b8H
	DB	0ffH
	DB	0c0H
	DB	0c0H
	DB	0c0H
	DB	0ffH
	DB	0c0H
	DB	0bcH
	DB	0c0H
	DB	0ffH
	DB	0b8H
	DB	0bcH
	DB	0b8H
	DB	0ffH
	DB	0b8H
	DB	0bcH
	DB	0b8H
	DB	0ffH
	DB	0c0H
	DB	0c0H
	DB	0c0H
	DB	0ffH
	DB	0c0H
	DB	0bcH
	DB	0c0H
	DB	0ffH
	DB	0b8H
	DB	0bcH
	DB	0b8H
	DB	0ffH
	DB	0c0H
	DB	0c0H
	DB	0c0H
	DB	0ffH
	DB	0b8H
	DB	0c0H
	DB	0b8H
	DB	0ffH
	DB	0c0H
	DB	0bcH
	DB	0c0H
	DB	0ffH
	DB	0c0H
	DB	0bcH
	DB	0c0H
	DB	0ffH
	DB	0b8H
	DB	0bcH
	DB	0b8H
	DB	0ffH
	DB	0c0H
	DB	0bcH
	DB	0c0H
	DB	0ffH
	DB	0c0H
	DB	0bcH
	DB	0c0H
	DB	0ffH
	DB	0c0H
	DB	0bcH
	DB	0c0H
	DB	0ffH
	DB	0c0H
	DB	0bcH
	DB	0c0H
	DB	0ffH
	DB	0b8H
	DB	0bcH
	DB	0b8H
	DB	0ffH
	DB	0c0H
	DB	0bcH
	DB	0c0H
	DB	0ffH
	DB	0b8H
	DB	0bcH
	DB	0b8H
	DB	0ffH
	DB	0c0H
	DB	0bcH
	DB	0c0H
	DB	0ffH
	DB	0b8H
	DB	0bcH
	DB	0b8H
	DB	0ffH
	DB	0c0H
	DB	0bcH
	DB	0c0H
	DB	0ffH
	DB	0b8H
	DB	0bcH
	DB	0b8H
	DB	0ffH
	DB	0c0H
	DB	0bcH
	DB	0c0H
	DB	0ffH
	DB	0b8H
	DB	0c0H
	DB	0b8H
	DB	0ffH
	DB	0c0H
	DB	0bcH
	DB	0c0H
	DB	0ffH
	DB	0c0H
	DB	0bcH
	DB	0c0H
	DB	0ffH
	DB	0b8H
	DB	0c0H
	DB	0b8H
	DB	0ffH
	DB	0c0H
	DB	0bcH
	DB	0c0H
	DB	0ffH
	DB	0b8H
	DB	0bcH
	DB	0b8H
	DB	0ffH
	DB	0c0H
	DB	0c0H
	DB	0c0H
	DB	0ffH
	DB	0c0H
	DB	0bcH
	DB	0c0H
	DB	0ffH
	DB	0c0H
	DB	0bcH
	DB	0c0H
	DB	0ffH
	DB	0b8H
	DB	0bcH
	DB	0b8H
	DB	0ffH
	DB	0c0H
	DB	0bcH
	DB	0c0H
	DB	0ffH
	DB	0b8H
	DB	0bcH
	DB	0b8H
	DB	0ffH
	DB	0c0H
	DB	0c0H
	DB	0c0H
	DB	0ffH
	DB	0c0H
	DB	0bcH
	DB	0c0H
	DB	0ffH
	DB	0b8H
	DB	0bcH
	DB	0b8H
	DB	0ffH
	DB	0c0H
	DB	0c0H
	DB	0c0H
	DB	0ffH
	DB	0b8H
	DB	0bcH
	DB	0b8H
	DB	0ffH
	DB	0c0H
	DB	0bcH
	DB	0c0H
	DB	0ffH
	DB	0c0H
	DB	0bcH
	DB	0c0H
	DB	0ffH
	DB	0b8H
	DB	0c0H
	DB	0b8H
	DB	0ffH
	DB	0c0H
	DB	0bcH
	DB	0c0H
	DB	0ffH
	DB	0c0H
	DB	0bcH
	DB	0c0H
	DB	0ffH
	DB	0b8H
	DB	0bcH
	DB	0b8H
	DB	0ffH
	DB	0c0H
	DB	0bcH
	DB	0c0H
	DB	0ffH
	DB	0c0H
	DB	0c0H
	DB	0c0H
	DB	0ffH
	DB	0b8H
	DB	0bcH
	DB	0b8H
	DB	0ffH
	DB	0c0H
	DB	0bcH
	DB	0c0H
	DB	0ffH
	DB	0b8H
	DB	0c0H
	DB	0b8H
	DB	0ffH
	DB	0c0H
	DB	0c0H
	DB	0c0H
	DB	0ffH
	DB	0c0H
	DB	0bcH
	DB	0c0H
	DB	0ffH
	DB	0b8H
	DB	0c0H
	DB	0b8H
	DB	0ffH
	DB	0c0H
	DB	0bcH
	DB	0c0H
	DB	0ffH
	DB	0b8H
	DB	0bcH
	DB	0b8H
	DB	0ffH
	DB	0c0H
	DB	0c0H
	DB	0c0H
	DB	0ffH
	DB	0c0H
	DB	0bcH
	DB	0c0H
	DB	0ffH
	DB	0b8H
	DB	0bcH
	DB	0b8H
	DB	0ffH
	DB	0c0H
	DB	0bcH
	DB	0c0H
	DB	0ffH
	DB	0b8H
	DB	0bcH
	DB	0b8H
	DB	0ffH
	DB	0c0H
	DB	0bcH
	DB	0c0H
	DB	0ffH
	DB	0c0H
	DB	0c0H
	DB	0c0H
	DB	0ffH
	DB	0b8H
	DB	0bcH
	DB	0b8H
	DB	0ffH
	DB	0c0H
	DB	0bcH
	DB	0c0H
	DB	0ffH
	DB	0b8H
	DB	0bcH
	DB	0b8H
	DB	0ffH
	DB	0c0H
	DB	0c0H
	DB	0c0H
	DB	0ffH
	DB	0c0H
	DB	0bcH
	DB	0c0H
	DB	0ffH
	DB	0b8H
	DB	0bcH
	DB	0b8H
	DB	0ffH
	DB	0c0H
	DB	0bcH
	DB	0c0H
	DB	0ffH
	DB	0c0H
	DB	0c0H
	DB	0c0H
	DB	0ffH
	DB	0b8H
	DB	0bcH
	DB	0b8H
	DB	0ffH
	DB	0c0H
	DB	0bcH
	DB	0c0H
	DB	0ffH
	DB	0c0H
	DB	0bcH
	DB	0c0H
	DB	0ffH
	DB	0b8H
	DB	0c0H
	DB	0b8H
	DB	0ffH
	DB	0c0H
	DB	0bcH
	DB	0c0H
	DB	0ffH
	DB	0c0H
	DB	0bcH
	DB	0c0H
	DB	0ffH
	DB	0b8H
	DB	0bcH
	DB	0b8H
	DB	0ffH
	DB	0c0H
	DB	0c0H
	DB	0c0H
	DB	0ffH
	DB	0c0H
	DB	0bcH
	DB	0c0H
	DB	0ffH
	DB	0b8H
	DB	0bcH
	DB	0b8H
	DB	0ffH
	DB	0c0H
	DB	0c0H
	DB	0c0H
	DB	0ffH
	DB	0c0H
	DB	0bcH
	DB	0c0H
	DB	0ffH
	DB	0b8H
	DB	0bcH
	DB	0b8H
	DB	0ffH
	DB	0c0H
	DB	0c0H
	DB	0c0H
	DB	0ffH
	DB	0c0H
	DB	0bcH
	DB	0c0H
	DB	0ffH
	DB	0b8H
	DB	0c0H
	DB	0b8H
	DB	0ffH
	DB	0c0H
	DB	0c0H
	DB	0c0H
	DB	0ffH
	DB	0c0H
	DB	0bcH
	DB	0c0H
	DB	0ffH
	DB	0c0H
	DB	0bcH
	DB	0c0H
	DB	0ffH
	DB	0b8H
	DB	0c0H
	DB	0b8H
	DB	0ffH
	DB	0c0H
	DB	0bcH
	DB	0c0H
	DB	0ffH
	DB	0c0H
	DB	0bcH
	DB	0c0H
	DB	0ffH
	DB	0b8H
	DB	0bcH
	DB	0b8H
	DB	0ffH
	DB	0c0H
	DB	0bcH
	DB	0c0H
	DB	0ffH
	DB	0b8H
	DB	0bcH
	DB	0b8H
	DB	0ffH
	DB	0c0H
	DB	0bcH
	DB	0c0H
	DB	0ffH
	DB	0c0H
	DB	0bcH
	DB	0c0H
	DB	0ffH
	DB	0b8H
	DB	0bcH
	DB	0b8H
	DB	0ffH
	DB	0b8H
	DB	0c0H
	DB	0b8H
	DB	0ffH
	DB	0c0H
	DB	0bcH
	DB	0c0H
	DB	0ffH
	DB	0c0H
	DB	0bcH
	DB	0c0H
	DB	0ffH
	DB	0b8H
	DB	0c0H
	DB	0b8H
	DB	0ffH
	DB	0c0H
	DB	0bcH
	DB	0c0H
	DB	0ffH
	DB	0c0H
	DB	0bcH
	DB	0c0H
	DB	0ffH
	DB	0b8H
	DB	0bcH
	DB	0b8H
	DB	0ffH
	DB	0c0H
	DB	0bcH
	DB	0c0H
	DB	0ffH
	DB	0c0H
	DB	0c0H
	DB	0c0H
	DB	0ffH
	DB	0b8H
	DB	0bcH
	DB	0b8H
	DB	0ffH
	DB	0c0H
	DB	0bcH
	DB	0c0H
	DB	0ffH
	DB	0b8H
	DB	0bcH
	DB	0b8H
	DB	0ffH
	DB	0c0H
	DB	0c0H
	DB	0c0H
	DB	0ffH
	DB	0b8H
	DB	0bcH
	DB	0b8H
	DB	0ffH
	DB	0c0H
	DB	0bcH
	DB	0c0H
	DB	0ffH
	DB	0c0H
	DB	0c0H
	DB	0c0H
	DB	0ffH
	DB	0b8H
	DB	0bcH
	DB	0b8H
	DB	0ffH
	DB	0c0H
	DB	0bcH
	DB	0c0H
	DB	0ffH
	DB	0c0H
	DB	0bcH
	DB	0c0H
	DB	0ffH
	DB	0b8H
	DB	0c0H
	DB	0b8H
	DB	0ffH
	DB	0c0H
	DB	0bcH
	DB	0c0H
	DB	0ffH
	DB	0c0H
	DB	0bcH
	DB	0c0H
	DB	0ffH
	DB	0b8H
	DB	0bcH
	DB	0b8H
	DB	0ffH
	DB	0c0H
	DB	0bcH
	DB	0c0H
	DB	0ffH
	DB	0c0H
	DB	0c0H
	DB	0c0H
	DB	0ffH
	DB	0b8H
	DB	0bcH
	DB	0b8H
	DB	0ffH
	DB	0c0H
	DB	0bcH
	DB	0c0H
	DB	0ffH
	DB	0b8H
	DB	0c0H
	DB	0b8H
	DB	0ffH
	DB	0c0H
	DB	0bcH
	DB	0c0H
	DB	0ffH
	DB	0c0H
	DB	0bcH
	DB	0c0H
	DB	0ffH
	DB	0b8H
	DB	0c0H
	DB	0b8H
	DB	0ffH
	DB	0c0H
	DB	0bcH
	DB	0c0H
	DB	0ffH
	DB	0b8H
	DB	0bcH
	DB	0b8H
	DB	0ffH
	DB	0c0H
	DB	0bcH
	DB	0c0H
	DB	0ffH
	DB	0c0H
	DB	0c0H
	DB	0c0H
	DB	0ffH
	DB	0b8H
	DB	0bcH
	DB	0b8H
	DB	0ffH
	DB	0c0H
	DB	0bcH
	DB	0c0H
	DB	0ffH
	DB	0c0H
	DB	0bcH
	DB	0c0H
	DB	0ffH
	DB	0b8H
	DB	0c0H
	DB	0b8H
	DB	0ffH
	DB	0c0H
	DB	0bcH
	DB	0c0H
	DB	0ffH
	DB	0b8H
	DB	0bcH
	DB	0b8H
	DB	0ffH
	DB	0c0H
	DB	0bcH
	DB	0c0H
	DB	0ffH
	DB	0c0H
	DB	0c0H
	DB	0c0H
	DB	0ffH
	DB	0b8H
	DB	0bcH
	DB	0b8H
	DB	0ffH
	DB	0c0H
	DB	0bcH
	DB	0c0H
	DB	0ffH
	DB	0b8H
	DB	0bcH
	DB	0b8H
	DB	0ffH
	DB	0c0H
	DB	0bcH
	DB	0c0H
	DB	0ffH
	DB	0c0H
	DB	0bcH
	DB	0c0H
	DB	0ffH
	DB	0b8H
	DB	0bcH
	DB	0b8H
	DB	0ffH
	DB	0c0H
	DB	0bcH
	DB	0c0H
	DB	0ffH
	DB	0b8H
	DB	0c0H
	DB	0b8H
	DB	0ffH
	DB	0c0H
	DB	0bcH
	DB	0c0H
	DB	0ffH
	DB	0b8H
	DB	0bcH
	DB	0b8H
	DB	0ffH
	DB	0b8H
	DB	0bcH
	DB	0b8H
	DB	0ffH
	DB	0c0H
	DB	0bcH
	DB	0c0H
	DB	0ffH
	DB	0b8H
	DB	0bcH
	DB	0b8H
	DB	0ffH
	DB	0c0H
	DB	0bcH
	DB	0c0H
	DB	0ffH
	DB	0c0H
	DB	0bcH
	DB	0c0H
	DB	0ffH
	DB	0b8H
	DB	0bcH
	DB	0b8H
	DB	0ffH
	DB	0c0H
	DB	0bcH
	DB	0c0H
	DB	0ffH
	DB	0b8H
	DB	0c0H
	DB	0b8H
	DB	0ffH
	DB	0c0H
	DB	0bcH
	DB	0c0H
	DB	0ffH
	DB	0c0H
	DB	0bcH
	DB	0c0H
	DB	0ffH
	DB	0b8H
	DB	0c0H
	DB	0b8H
	DB	0ffH
	DB	0c0H
	DB	0bcH
	DB	0c0H
	DB	0ffH
	DB	0c0H
	DB	0c0H
	DB	0c0H
	DB	0ffH
	DB	0b8H
	DB	0bcH
	DB	0b8H
	DB	0ffH
	DB	0c0H
	DB	0c0H
	DB	0c0H
	DB	0ffH
	DB	0c0H
	DB	0bcH
	DB	0c0H
	DB	0ffH
	DB	0c0H
	DB	0bcH
	DB	0c0H
	DB	0ffH
	DB	0b8H
	DB	0bcH
	DB	0b8H
	DB	0ffH
	DB	0c0H
	DB	0bcH
	DB	0c0H
	DB	0ffH
	DB	0b8H
	DB	0c0H
	DB	0b8H
	DB	0ffH
	DB	0c0H
	DB	0bcH
	DB	0c0H
	DB	0ffH
	DB	0c0H
	DB	0c0H
	DB	0c0H
	DB	0ffH
	DB	0b8H
	DB	0bcH
	DB	0b8H
	DB	0ffH
	DB	0b8H
	DB	0bcH
	DB	0b8H
	DB	0ffH
	DB	0c0H
	DB	0c0H
	DB	0c0H
	DB	0ffH
	DB	0c0H
	DB	0bcH
	DB	0c0H
	DB	0ffH
	DB	0b8H
	DB	0bcH
	DB	0b8H
	DB	0ffH
	DB	0c0H
	DB	0bcH
	DB	0c0H
	DB	0ffH
	DB	0c0H
	DB	0c0H
	DB	0c0H
	DB	0ffH
	DB	0b8H
	DB	0bcH
	DB	0b8H
	DB	0ffH
	DB	0c0H
	DB	0bcH
	DB	0c0H
	DB	0ffH
	DB	0c0H
	DB	0bcH
	DB	0c0H
	DB	0ffH
	DB	0b8H
	DB	0c0H
	DB	0b8H
	DB	0ffH
	DB	0c0H
	DB	0bcH
	DB	0c0H
	DB	0ffH
	DB	0c0H
	DB	0bcH
	DB	0c0H
	DB	0ffH
	DB	0b8H
	DB	0bcH
	DB	0b8H
	DB	0ffH
	DB	0c0H
	DB	0bcH
	DB	0c0H
	DB	0ffH
	DB	0c0H
	DB	0bcH
	DB	0c0H
	DB	0ffH
	DB	0b8H
	DB	0bcH
	DB	0b8H
	DB	0ffH
	DB	0b8H
	DB	0bcH
	DB	0b8H
	DB	0ffH
	DB	0c0H
	DB	0bcH
	DB	0c0H
	DB	0ffH
	DB	0c0H
	DB	0bcH
	DB	0c0H
	DB	0ffH
	DB	0b8H
	DB	0bcH
	DB	0b8H
	DB	0ffH
	DB	0c0H
	DB	0bcH
	DB	0c0H
	DB	0ffH
	DB	0c0H
	DB	0bcH
	DB	0c0H
	DB	0ffH
	DB	0b8H
	DB	0bcH
	DB	0b8H
	DB	0ffH
	DB	0c0H
	DB	0c0H
	DB	0c0H
	DB	0ffH
	DB	0c0H
	DB	0bcH
	DB	0c0H
	DB	0ffH
	DB	0b8H
	DB	0bcH
	DB	0b8H
	DB	0ffH
	DB	0c0H
	DB	0c0H
	DB	0c0H
	DB	0ffH
	DB	0c0H
	DB	0bcH
	DB	0c0H
	DB	0ffH
	DB	0b8H
	DB	0bcH
	DB	0b8H
	DB	0ffH
	DB	0c0H
	DB	0c0H
	DB	0c0H
	DB	0ffH
	DB	0c0H
	DB	0bcH
	DB	0c0H
	DB	0ffH
	DB	0b8H
	DB	0bcH
	DB	0b8H
	DB	0ffH
	DB	0c0H
	DB	0bcH
	DB	0c0H
	DB	0ffH
	DB	0c0H
	DB	0c0H
	DB	0c0H
	DB	0ffH
	DB	0b8H
	DB	0bcH
	DB	0b8H
	DB	0ffH
	DB	0c0H
	DB	0bcH
	DB	0c0H
	DB	0ffH
	DB	0c0H
	DB	0bcH
	DB	0c0H
	DB	0ffH
	DB	0b8H
	DB	0c0H
	DB	0b8H
	DB	0ffH
	DB	0c0H
	DB	0bcH
	DB	0c0H
	DB	0ffH
	DB	0c0H
	DB	0bcH
	DB	0c0H
	DB	0ffH
	DB	0b8H
	DB	0c0H
	DB	0b8H
	DB	0ffH
	DB	0c0H
	DB	0c0H
	DB	0c0H
	DB	0ffH
	DB	0c0H
	DB	0bcH
	DB	0c0H
	DB	0ffH
	DB	0b8H
	DB	0bcH
	DB	0b8H
	DB	0ffH
	DB	0c0H
	DB	0bcH
	DB	0c0H
	DB	0ffH
	DB	0c0H
	DB	0c0H
	DB	0c0H
	DB	0ffH
	DB	0c0H
	DB	0bcH
	DB	0c0H
	DB	0ffH
	DB	0c0H
	DB	0bcH
	DB	0c0H
	DB	0ffH
	DB	0c0H
	DB	0bcH
	DB	0c0H
	DB	0ffH
	DB	0b8H
	DB	0bcH
	DB	0b8H
	DB	0ffH
	DB	0c0H
	DB	0c0H
	DB	0c0H
	DB	0ffH
	DB	0c0H
	DB	0bcH
	DB	0c0H
	DB	0ffH
	DB	0b8H
	DB	0bcH
	DB	0b8H
	DB	0ffH
	DB	0c0H
	DB	0bcH
	DB	0c0H
	DB	0ffH
	DB	0c0H
	DB	0bcH
	DB	0c0H
	DB	0ffH
	DB	0b8H
	DB	0bcH
	DB	0b8H
	DB	0ffH
	DB	0c0H
	DB	0bcH
	DB	0c0H
	DB	0ffH
	DB	0b8H
	DB	0bcH
	DB	0b8H
	DB	0ffH
	DB	0c0H
	DB	0c0H
	DB	0c0H
	DB	0ffH
	DB	0c0H
	DB	0bcH
	DB	0c0H
	DB	0ffH
	DB	0b8H
	DB	0bcH
	DB	0b8H
	DB	0ffH
	DB	0b8H
	DB	0bcH
	DB	0b8H
	DB	0ffH
	DB	0c0H
	DB	0c0H
	DB	0c0H
	DB	0ffH
	DB	0c0H
	DB	0bcH
	DB	0c0H
	DB	0ffH
	DB	0c0H
	DB	0bcH
	DB	0c0H
	DB	0ffH
	DB	0b8H
	DB	0c0H
	DB	0b8H
	DB	0ffH
	DB	0c0H
	DB	0bcH
	DB	0c0H
	DB	0ffH
	DB	0c0H
	DB	0bcH
	DB	0c0H
	DB	0ffH
	DB	0b8H
	DB	0bcH
	DB	0b8H
	DB	0ffH
	DB	0c0H
	DB	0c0H
	DB	0c0H
	DB	0ffH
	DB	0c0H
	DB	0bcH
	DB	0c0H
	DB	0ffH
	DB	0b8H
	DB	0bcH
	DB	0b8H
	DB	0ffH
	DB	0c0H
	DB	0bcH
	DB	0c0H
	DB	0ffH
	DB	0c0H
	DB	0c0H
	DB	0c0H
	DB	0ffH
	DB	0b8H
	DB	0bcH
	DB	0b8H
	DB	0ffH
	DB	0c0H
	DB	0bcH
	DB	0c0H
	DB	0ffH
	DB	0c0H
	DB	0bcH
	DB	0c0H
	DB	0ffH
	DB	0b8H
	DB	0bcH
	DB	0b8H
	DB	0ffH
	DB	0c0H
	DB	0bcH
	DB	0c0H
	DB	0ffH
	DB	0b8H
	DB	0bcH
	DB	0b8H
	DB	0ffH
	DB	0c0H
	DB	0c0H
	DB	0c0H
	DB	0ffH
	DB	0b8H
	DB	0bcH
	DB	0b8H
	DB	0ffH
	DB	0c0H
	DB	0c0H
	DB	0c0H
	DB	0ffH
	DB	0c0H
	DB	0bcH
	DB	0c0H
	DB	0ffH
	DB	0b8H
	DB	0c0H
	DB	0b8H
	DB	0ffH
	DB	0c0H
	DB	0c0H
	DB	0c0H
	DB	0ffH
	DB	0c0H
	DB	0bcH
	DB	0c0H
	DB	0ffH
	DB	0b8H
	DB	0c0H
	DB	0b8H
	DB	0ffH
	DB	0c0H
	DB	0bcH
	DB	0c0H
	DB	0ffH
	DB	0c0H
	DB	0c0H
	DB	0c0H
	DB	0ffH
	DB	0b8H
	DB	0c0H
	DB	0b8H
	DB	0ffH
	DB	0c0H
	DB	0bcH
	DB	0c0H
	DB	0ffH
	DB	0b8H
	DB	0bcH
	DB	0b8H
	DB	0ffH
	DB	0c0H
	DB	0bcH
	DB	0c0H
	DB	0ffH
	DB	0c0H
	DB	0bcH
	DB	0c0H
	DB	0ffH
	DB	0b8H
	DB	0bcH
	DB	0b8H
	DB	0ffH
	DB	0c0H
	DB	0c0H
	DB	0c0H
	DB	0ffH
	DB	0b8H
	DB	0bcH
	DB	0b8H
	DB	0ffH
	DB	0c0H
	DB	0bcH
	DB	0c0H
	DB	0ffH
	DB	0b8H
	DB	0bcH
	DB	0b8H
	DB	0ffH
	DB	0c0H
	DB	0c0H
	DB	0c0H
	DB	0ffH
	DB	0b8H
	DB	0bcH
	DB	0b8H
	DB	0ffH
	DB	0c0H
	DB	0bcH
	DB	0c0H
	DB	0ffH
	DB	0c0H
	DB	0bcH
	DB	0c0H
	DB	0ffH
	DB	0b8H
	DB	0c0H
	DB	0b8H
	DB	0ffH
	DB	0c0H
	DB	0bcH
	DB	0c0H
	DB	0ffH
	DB	0b8H
	DB	0bcH
	DB	0b8H
	DB	0ffH
	DB	0c0H
	DB	0bcH
	DB	0c0H
	DB	0ffH
	DB	0c0H
	DB	0c0H
	DB	0c0H
	DB	0ffH
	DB	0b8H
	DB	0bcH
	DB	0b8H
	DB	0ffH
	DB	0b8H
	DB	0bcH
	DB	0b8H
	DB	0ffH
	DB	0c0H
	DB	0bcH
	DB	0c0H
	DB	0ffH
	DB	0c0H
	DB	0c0H
	DB	0c0H
	DB	0ffH
	DB	0b8H
	DB	0bcH
	DB	0b8H
	DB	0ffH
	DB	0c0H
	DB	0bcH
	DB	0c0H
	DB	0ffH
	DB	0b8H
	DB	0bcH
	DB	0b8H
	DB	0ffH
	DB	0c0H
	DB	0c0H
	DB	0c0H
	DB	0ffH
	DB	0c0H
	DB	0bcH
	DB	0c0H
	DB	0ffH
	DB	0c0H
	DB	0bcH
	DB	0c0H
	DB	0ffH
	DB	0b8H
	DB	0bcH
	DB	0b8H
	DB	0ffH
	DB	0c0H
	DB	0bcH
	DB	0c0H
	DB	0ffH
	DB	0b8H
	DB	0c0H
	DB	0b8H
	DB	0ffH
	DB	0c0H
	DB	0bcH
	DB	0c0H
	DB	0ffH
	DB	0c0H
	DB	0c0H
	DB	0c0H
	DB	0ffH
	DB	0b8H
	DB	0bcH
	DB	0b8H
	DB	0ffH
	DB	0c0H
	DB	0c0H
	DB	0c0H
	DB	0ffH
	DB	0c0H
	DB	0bcH
	DB	0c0H
	DB	0ffH
	DB	0b8H
	DB	0bcH
	DB	0b8H
	DB	0ffH
	DB	0c0H
	DB	0bcH
	DB	0c0H
	DB	0ffH
	DB	0c0H
	DB	0bcH
	DB	0c0H
	DB	0ffH
	DB	0c0H
	DB	0bcH
	DB	0c0H
	DB	0ffH
	DB	0b8H
	DB	0bcH
	DB	0b8H
	DB	0ffH
	DB	0c0H
	DB	0c0H
	DB	0c0H
	DB	0ffH
	DB	0b8H
	DB	0bcH
	DB	0b8H
	DB	0ffH
	DB	0c0H
	DB	0bcH
	DB	0c0H
	DB	0ffH
	DB	0c0H
	DB	0bcH
	DB	0c0H
	DB	0ffH
	DB	0b8H
	DB	0bcH
	DB	0b8H
	DB	0ffH
	DB	0c0H
	DB	0bcH
	DB	0c0H
	DB	0ffH
	DB	0c0H
	DB	0bcH
	DB	0c0H
	DB	0ffH
	DB	0b8H
	DB	0bcH
	DB	0b8H
	DB	0ffH
	DB	0c0H
	DB	0c0H
	DB	0c0H
	DB	0ffH
	DB	0c0H
	DB	0bcH
	DB	0c0H
	DB	0ffH
	DB	0b8H
	DB	0bcH
	DB	0b8H
	DB	0ffH
	DB	0c0H
	DB	0bcH
	DB	0c0H
	DB	0ffH
	DB	0b8H
	DB	0c0H
	DB	0b8H
	DB	0ffH
	DB	0c0H
	DB	0bcH
	DB	0c0H
	DB	0ffH
	DB	0c0H
	DB	0c0H
	DB	0c0H
	DB	0ffH
	DB	0b8H
	DB	0bcH
	DB	0b8H
	DB	0ffH
	DB	0c0H
	DB	0bcH
	DB	0c0H
	DB	0ffH
	DB	0c0H
	DB	0c0H
	DB	0c0H
	DB	0ffH
	DB	0b8H
	DB	0bcH
	DB	0b8H
	DB	0ffH
	DB	0c0H
	DB	0bcH
	DB	0c0H
	DB	0ffH
	DB	0b8H
	DB	0bcH
	DB	0b8H
	DB	0ffH
	DB	0c0H
	DB	0bcH
	DB	0c0H
	DB	0ffH
	DB	0b8H
	DB	0bcH
	DB	0b8H
	DB	0ffH
	DB	0c0H
	DB	0bcH
	DB	0c0H
	DB	0ffH
	DB	0c0H
	DB	0bcH
	DB	0c0H
	DB	0ffH
	DB	0b8H
	DB	0bcH
	DB	0b8H
	DB	0ffH
	DB	0c0H
	DB	0bcH
	DB	0c0H
	DB	0ffH
	DB	0c0H
	DB	0bcH
	DB	0c0H
	DB	0ffH
	DB	0b8H
	DB	0bcH
	DB	0b8H
	DB	0ffH
	DB	0c0H
	DB	0c0H
	DB	0c0H
	DB	0ffH
	DB	0c0H
	DB	0bcH
	DB	0c0H
	DB	0ffH
	DB	0b8H
	DB	0c0H
	DB	0b8H
	DB	0ffH
	DB	0c0H
	DB	0bcH
	DB	0c0H
	DB	0ffH
	DB	0c0H
	DB	0bcH
	DB	0c0H
	DB	0ffH
	DB	0b8H
	DB	0bcH
	DB	0b8H
	DB	0ffH
	DB	0c0H
	DB	0bcH
	DB	0c0H
	DB	0ffH
	DB	0c0H
	DB	0bcH
	DB	0c0H
	DB	0ffH
	DB	0c0H
	DB	0bcH
	DB	0c0H
	DB	0ffH
	DB	0b8H
	DB	0bcH
	DB	0b8H
	DB	0ffH
	DB	0c0H
	DB	0c0H
	DB	0c0H
	DB	0ffH
	DB	0b8H
	DB	0bcH
	DB	0b8H
	DB	0ffH
	DB	0c0H
	DB	0bcH
	DB	0c0H
	DB	0ffH
	DB	0c0H
	DB	0bcH
	DB	0c0H
	DB	0ffH
	DB	0b8H
	DB	0c0H
	DB	0b8H
	DB	0ffH
	DB	0c0H
	DB	0bcH
	DB	0c0H
	DB	0ffH
	DB	0c0H
	DB	0bcH
	DB	0c0H
	DB	0ffH
	DB	0b8H
	DB	0bcH
	DB	0b8H
	DB	0ffH
	DB	0c0H
	DB	0bcH
	DB	0c0H
	DB	0ffH
	DB	0c0H
	DB	0bcH
	DB	0c0H
	DB	0ffH
	DB	0b8H
	DB	0bcH
	DB	0b8H
	DB	0ffH
	DB	0c0H
	DB	0bcH
	DB	0c0H
	DB	0ffH
	DB	0c0H
	DB	0c0H
	DB	0c0H
	DB	0ffH
	DB	0b8H
	DB	0bcH
	DB	0b8H
	DB	0ffH
	DB	0c0H
	DB	0bcH
	DB	0c0H
	DB	0ffH
	DB	0b8H
	DB	0bcH
	DB	0b8H
	DB	0ffH
	DB	0b8H
	DB	0bcH
	DB	0b8H
	DB	0ffH
	DB	0c0H
	DB	0bcH
	DB	0c0H
	DB	0ffH
	DB	0c0H
	DB	0bcH
	DB	0c0H
	DB	0ffH
	DB	0b8H
	DB	0bcH
	DB	0b8H
	DB	0ffH
	DB	0c0H
	DB	0bcH
	DB	0c0H
	DB	0ffH
	DB	0c0H
	DB	0bcH
	DB	0c0H
	DB	0ffH
	DB	0b8H
	DB	0bcH
	DB	0b8H
	DB	0ffH
	DB	0b8H
	DB	0c0H
	DB	0b8H
	DB	0ffH
	DB	0c0H
	DB	0bcH
	DB	0c0H
	DB	0ffH
	DB	0c0H
	DB	0bcH
	DB	0c0H
	DB	0ffH
	DB	0b8H
	DB	0c0H
	DB	0b8H
	DB	0ffH
	DB	0b8H
	DB	0bcH
	DB	0b8H
	DB	0ffH
	DB	0c0H
	DB	0c0H
	DB	0c0H
	DB	0ffH
	DB	0c0H
	DB	0bcH
	DB	0c0H
	DB	0ffH
	DB	0c0H
	DB	0bcH
	DB	0c0H
	DB	0ffH
	DB	0b8H
	DB	0bcH
	DB	0b8H
	DB	0ffH
	DB	0c0H
	DB	0c0H
	DB	0c0H
	DB	0ffH
	DB	0b8H
	DB	0bcH
	DB	0b8H
	DB	0ffH
	DB	0c0H
	DB	0bcH
	DB	0c0H
	DB	0ffH
	DB	0b8H
	DB	0c0H
	DB	0b8H
	DB	0ffH
	DB	0c0H
	DB	0c0H
	DB	0c0H
	DB	0ffH
	DB	0c0H
	DB	0bcH
	DB	0c0H
	DB	0ffH
	DB	0b8H
	DB	0bcH
	DB	0b8H
	DB	0ffH
	DB	0c0H
	DB	0bcH
	DB	0c0H
	DB	0ffH
	DB	0c0H
	DB	0c0H
	DB	0c0H
	DB	0ffH
	DB	0b8H
	DB	0bcH
	DB	0b8H
	DB	0ffH
	DB	0c0H
	DB	0bcH
	DB	0c0H
	DB	0ffH
	DB	0c0H
	DB	0bcH
	DB	0c0H
	DB	0ffH
	DB	0b8H
	DB	0bcH
	DB	0b8H
	DB	0ffH
	DB	0c0H
	DB	0c0H
	DB	0c0H
	DB	0ffH
	DB	0b8H
	DB	0bcH
	DB	0b8H
	DB	0ffH
	DB	0c0H
	DB	0bcH
	DB	0c0H
	DB	0ffH
	DB	0c0H
	DB	0bcH
	DB	0c0H
	DB	0ffH
	DB	0b8H
	DB	0bcH
	DB	0b8H
	DB	0ffH
	DB	0c0H
	DB	0c0H
	DB	0c0H
	DB	0ffH
	DB	0c0H
	DB	0bcH
	DB	0c0H
	DB	0ffH
	DB	0b8H
	DB	0bcH
	DB	0b8H
	DB	0ffH
	DB	0c0H
	DB	0c0H
	DB	0c0H
	DB	0ffH
	DB	0c0H
	DB	0bcH
	DB	0c0H
	DB	0ffH
	DB	0b8H
	DB	0bcH
	DB	0b8H
	DB	0ffH
	DB	0c0H
	DB	0c0H
	DB	0c0H
	DB	0ffH
	DB	0b8H
	DB	0bcH
	DB	0b8H
	DB	0ffH
	DB	0c0H
	DB	0bcH
	DB	0c0H
	DB	0ffH
	DB	0c0H
	DB	0bcH
	DB	0c0H
	DB	0ffH
	DB	0b8H
	DB	0bcH
	DB	0b8H
	DB	0ffH
	DB	0c0H
	DB	0bcH
	DB	0c0H
	DB	0ffH
	DB	0b8H
	DB	0bcH
	DB	0b8H
	DB	0ffH
	DB	0c0H
	DB	0c0H
	DB	0c0H
	DB	0ffH
	DB	0c0H
	DB	0bcH
	DB	0c0H
	DB	0ffH
	DB	0b8H
	DB	0c0H
	DB	0b8H
	DB	0ffH
	DB	0c0H
	DB	0bcH
	DB	0c0H
	DB	0ffH
	DB	0b8H
	DB	0c0H
	DB	0b8H
	DB	0ffH
	DB	0c0H
	DB	0bcH
	DB	0c0H
	DB	0ffH
	DB	0c0H
	DB	0bcH
	DB	0c0H
	DB	0ffH
	DB	0b8H
	DB	0bcH
	DB	0b8H
	DB	0ffH
	DB	0c0H
	DB	0c0H
	DB	0c0H
	DB	0ffH
	DB	0b8H
	DB	0bcH
	DB	0b8H
	DB	0ffH
	DB	0c0H
	DB	0bcH
	DB	0c0H
	DB	0ffH
	DB	0b8H
	DB	0bcH
	DB	0b8H
	DB	0ffH
	DB	0c0H
	DB	0c0H
	DB	0c0H
	DB	0ffH
	DB	0b8H
	DB	0bcH
	DB	0b8H
	DB	0ffH
	DB	0c0H
	DB	0bcH
	DB	0c0H
	DB	0ffH
	DB	0c0H
	DB	0c0H
	DB	0c0H
	DB	0ffH
	DB	0b8H
	DB	0c0H
	DB	0b8H
	DB	0ffH
	DB	0c0H
	DB	0bcH
	DB	0c0H
	DB	0ffH
	DB	0b8H
	DB	0bcH
	DB	0b8H
	DB	0ffH
	DB	0c0H
	DB	0bcH
	DB	0c0H
	DB	0ffH
	DB	0c0H
	DB	0c0H
	DB	0c0H
	DB	0ffH
	DB	0c0H
	DB	0bcH
	DB	0c0H
	DB	0ffH
	DB	0c0H
	DB	0bcH
	DB	0c0H
	DB	0ffH
	DB	0b8H
	DB	0bcH
	DB	0b8H
	DB	0ffH
	DB	0b8H
	DB	0bcH
	DB	0b8H
	DB	0ffH
	DB	0c0H
	DB	0c0H
	DB	0c0H
	DB	0ffH
	DB	0c0H
	DB	0c0H
	DB	0c0H
	DB	0ffH
	DB	0b8H
	DB	0bcH
	DB	0b8H
	DB	0ffH
	DB	0c0H
	DB	0bcH
	DB	0c0H
	DB	0ffH
	DB	0c0H
	DB	0bcH
	DB	0c0H
	DB	0ffH
	DB	0b8H
	DB	0bcH
	DB	0b8H
	DB	0ffH
	DB	0c0H
	DB	0bcH
	DB	0c0H
	DB	0ffH
	DB	0c0H
	DB	0bcH
	DB	0c0H
	DB	0ffH
	DB	0c0H
	DB	0bcH
	DB	0c0H
	DB	0ffH
	DB	0b8H
	DB	0c0H
	DB	0b8H
	DB	0ffH
	DB	0b8H
	DB	0bcH
	DB	0b8H
	DB	0ffH
	DB	0c0H
	DB	0bcH
	DB	0c0H
	DB	0ffH
	DB	0b8H
	DB	0c0H
	DB	0b8H
	DB	0ffH
	DB	0c0H
	DB	0bcH
	DB	0c0H
	DB	0ffH
	DB	0c0H
	DB	0bcH
	DB	0c0H
	DB	0ffH
	DB	0b8H
	DB	0c0H
	DB	0b8H
	DB	0ffH
	DB	0c0H
	DB	0bcH
	DB	0c0H
	DB	0ffH
	DB	0c0H
	DB	0bcH
	DB	0c0H
	DB	0ffH
	DB	0b8H
	DB	0bcH
	DB	0b8H
	DB	0ffH
	DB	0c0H
	DB	0c0H
	DB	0c0H
	DB	0ffH
	DB	0b8H
	DB	0bcH
	DB	0b8H
	DB	0ffH
	DB	0c0H
	DB	0bcH
	DB	0c0H
	DB	0ffH
	DB	0b8H
	DB	0bcH
	DB	0b8H
	DB	0ffH
	DB	0c0H
	DB	0c0H
	DB	0c0H
	DB	0ffH
	DB	0c0H
	DB	0bcH
	DB	0c0H
	DB	0ffH
	DB	0b8H
	DB	0bcH
	DB	0b8H
	DB	0ffH
	DB	0c0H
	DB	0bcH
	DB	0c0H
	DB	0ffH
	DB	0c0H
	DB	0bcH
	DB	0c0H
	DB	0ffH
	DB	0b8H
	DB	0c0H
	DB	0b8H
	DB	0ffH
	DB	0c0H
	DB	0bcH
	DB	0c0H
	DB	0ffH
	DB	0c0H
	DB	0bcH
	DB	0c0H
	DB	0ffH
	DB	0b8H
	DB	0c0H
	DB	0b8H
	DB	0ffH
	DB	0c0H
	DB	0bcH
	DB	0c0H
	DB	0ffH
	DB	0c0H
	DB	0bcH
	DB	0c0H
	DB	0ffH
	DB	0b8H
	DB	0c0H
	DB	0b8H
	DB	0ffH
	DB	0c0H
	DB	0bcH
	DB	0c0H
	DB	0ffH
	DB	0c0H
	DB	0bcH
	DB	0c0H
	DB	0ffH
	DB	0b8H
	DB	0c0H
	DB	0b8H
	DB	0ffH
	DB	0c0H
	DB	0bcH
	DB	0c0H
	DB	0ffH
	DB	0c0H
	DB	0c0H
	DB	0c0H
	DB	0ffH
	DB	0b8H
	DB	0bcH
	DB	0b8H
	DB	0ffH
	DB	0c0H
	DB	0c0H
	DB	0c0H
	DB	0ffH
	DB	0c0H
	DB	0bcH
	DB	0c0H
	DB	0ffH
	DB	0b8H
	DB	0bcH
	DB	0b8H
	DB	0ffH
	DB	0c0H
	DB	0bcH
	DB	0c0H
	DB	0ffH
	DB	0b8H
	DB	0bcH
	DB	0b8H
	DB	0ffH
	DB	0c0H
	DB	0bcH
	DB	0c0H
	DB	0ffH
	DB	0c0H
	DB	0bcH
	DB	0c0H
	DB	0ffH
	DB	0b8H
	DB	0c0H
	DB	0b8H
	DB	0ffH
	DB	0c0H
	DB	0bcH
	DB	0c0H
	DB	0ffH
	DB	0b8H
	DB	0bcH
	DB	0b8H
	DB	0ffH
	DB	0c0H
	DB	0c0H
	DB	0c0H
	DB	0ffH
	DB	0c0H
	DB	0bcH
	DB	0c0H
	DB	0ffH
	DB	0b8H
	DB	0bcH
	DB	0b8H
	DB	0ffH
	DB	0c0H
	DB	0c0H
	DB	0c0H
	DB	0ffH
	DB	0c0H
	DB	0bcH
	DB	0c0H
	DB	0ffH
	DB	0c0H
	DB	0bcH
	DB	0c0H
	DB	0ffH
	DB	0b8H
	DB	0bcH
	DB	0b8H
	DB	0ffH
	DB	0c0H
	DB	0c0H
	DB	0c0H
	DB	0ffH
	DB	0c0H
	DB	0bcH
	DB	0c0H
	DB	0ffH
	DB	0b8H
	DB	0bcH
	DB	0b8H
	DB	0ffH
	DB	0c0H
	DB	0bcH
	DB	0c0H
	DB	0ffH
	DB	0c0H
	DB	0bcH
	DB	0c0H
	DB	0ffH
	DB	0b8H
	DB	0c0H
	DB	0b8H
	DB	0ffH
	DB	0b8H
	DB	0bcH
	DB	0b8H
	DB	0ffH
	DB	0c0H
	DB	0bcH
	DB	0c0H
	DB	0ffH
	DB	0b8H
	DB	0c0H
	DB	0b8H
	DB	0ffH
	DB	0c0H
	DB	0bcH
	DB	0c0H
	DB	0ffH
	DB	0c0H
	DB	0bcH
	DB	0c0H
	DB	0ffH
	DB	0c0H
	DB	0bcH
	DB	0c0H
	DB	0ffH
	DB	0b8H
	DB	0bcH
	DB	0b8H
	DB	0ffH
	DB	0c0H
	DB	0bcH
	DB	0c0H
	DB	0ffH
	DB	0b8H
	DB	0c0H
	DB	0b8H
	DB	0ffH
	DB	0c0H
	DB	0bcH
	DB	0c0H
	DB	0ffH
	DB	0c0H
	DB	0c0H
	DB	0c0H
	DB	0ffH
	DB	0b8H
	DB	0bcH
	DB	0b8H
	DB	0ffH
	DB	0c0H
	DB	0c0H
	DB	0c0H
	DB	0ffH
	DB	0b8H
	DB	0bcH
	DB	0b8H
	DB	0ffH
	DB	0c0H
	DB	0bcH
	DB	0c0H
	DB	0ffH
	DB	0c0H
	DB	0bcH
	DB	0c0H
	DB	0ffH
	DB	0c0H
	DB	0bcH
	DB	0c0H
	DB	0ffH
	DB	0b8H
	DB	0bcH
	DB	0b8H
	DB	0ffH
	DB	0c0H
	DB	0c0H
	DB	0c0H
	DB	0ffH
	DB	0c0H
	DB	0bcH
	DB	0c0H
	DB	0ffH
	DB	0b8H
	DB	0bcH
	DB	0b8H
	DB	0ffH
	DB	0c0H
	DB	0bcH
	DB	0c0H
	DB	0ffH
	DB	0c0H
	DB	0bcH
	DB	0c0H
	DB	0ffH
	DB	0b8H
	DB	0bcH
	DB	0b8H
	DB	0ffH
	DB	0c0H
	DB	0bcH
	DB	0c0H
	DB	0ffH
	DB	0c0H
	DB	0bcH
	DB	0c0H
	DB	0ffH
	DB	0b8H
	DB	0c0H
	DB	0b8H
	DB	0ffH
	DB	0c0H
	DB	0bcH
	DB	0c0H
	DB	0ffH
	DB	0c0H
	DB	0bcH
	DB	0c0H
	DB	0ffH
	DB	0b8H
	DB	0bcH
	DB	0b8H
	DB	0ffH
	DB	0c0H
	DB	0c0H
	DB	0c0H
	DB	0ffH
	DB	0b8H
	DB	0bcH
	DB	0b8H
	DB	0ffH
	DB	0c0H
	DB	0bcH
	DB	0c0H
	DB	0ffH
	DB	0c0H
	DB	0c0H
	DB	0c0H
	DB	0ffH
	DB	0b8H
	DB	0bcH
	DB	0b8H
	DB	0ffH
	DB	0c0H
	DB	0bcH
	DB	0c0H
	DB	0ffH
	DB	0b8H
	DB	0c0H
	DB	0b8H
	DB	0ffH
	DB	0c0H
	DB	0bcH
	DB	0c0H
	DB	0ffH
	DB	0c0H
	DB	0bcH
	DB	0c0H
	DB	0ffH
	DB	0b8H
	DB	0bcH
	DB	0b8H
	DB	0ffH
	DB	0c0H
	DB	0bcH
	DB	0c0H
	DB	0ffH
	DB	0b8H
	DB	0bcH
	DB	0b8H
	DB	0ffH
	DB	0c0H
	DB	0bcH
	DB	0c0H
	DB	0ffH
	DB	0c0H
	DB	0bcH
	DB	0c0H
	DB	0ffH
	DB	0b8H
	DB	0bcH
	DB	0b8H
	DB	0ffH
	DB	0c0H
	DB	0bcH
	DB	0c0H
	DB	0ffH
	DB	0b8H
	DB	0bcH
	DB	0b8H
	DB	0ffH
	DB	0c0H
	DB	0bcH
	DB	0c0H
	DB	0ffH
	DB	0c0H
	DB	0c0H
	DB	0c0H
	DB	0ffH
	DB	0b8H
	DB	0c0H
	DB	0b8H
	DB	0ffH
	DB	0c0H
	DB	0bcH
	DB	0c0H
	DB	0ffH
	DB	0c0H
	DB	0c0H
	DB	0c0H
	DB	0ffH
	DB	0b8H
	DB	0bcH
	DB	0b8H
	DB	0ffH
	DB	0c0H
	DB	0bcH
	DB	0c0H
	DB	0ffH
	DB	0c0H
	DB	0bcH
	DB	0c0H
	DB	0ffH
	DB	0b8H
	DB	0bcH
	DB	0b8H
	DB	0ffH
	DB	0c0H
	DB	0bcH
	DB	0c0H
	DB	0ffH
	DB	0c0H
	DB	0c0H
	DB	0c0H
	DB	0ffH
	DB	0b8H
	DB	0bcH
	DB	0b8H
	DB	0ffH
	DB	0c0H
	DB	0bcH
	DB	0c0H
	DB	0ffH
	DB	0c0H
	DB	0bcH
	DB	0c0H
	DB	0ffH
	DB	0b8H
	DB	0c0H
	DB	0b8H
	DB	0ffH
	DB	0c0H
	DB	0bcH
	DB	0c0H
	DB	0ffH
	DB	0c0H
	DB	0bcH
	DB	0c0H
	DB	0ffH
	DB	0b8H
	DB	0bcH
	DB	0b8H
	DB	0ffH
	DB	0c0H
	DB	0bcH
	DB	0c0H
	DB	0ffH
	DB	0b8H
	DB	0bcH
	DB	0b8H
	DB	0ffH
	DB	0c0H
	DB	0bcH
	DB	0c0H
	DB	0ffH
	DB	0c0H
	DB	0c0H
	DB	0c0H
	DB	0ffH
	DB	0c0H
	DB	0bcH
	DB	0c0H
	DB	0ffH
	DB	0c0H
	DB	0bcH
	DB	0c0H
	DB	0ffH
	DB	0b8H
	DB	0bcH
	DB	0b8H
	DB	0ffH
	DB	0c0H
	DB	0bcH
	DB	0c0H
	DB	0ffH
	DB	0b8H
	DB	0c0H
	DB	0b8H
	DB	0ffH
	DB	0c0H
	DB	0bcH
	DB	0c0H
	DB	0ffH
	DB	0c0H
	DB	0bcH
	DB	0c0H
	DB	0ffH
	DB	0c0H
	DB	0bcH
	DB	0c0H
	DB	0ffH
	DB	0b8H
	DB	0bcH
	DB	0b8H
	DB	0ffH
	DB	0c0H
	DB	0bcH
	DB	0c0H
	DB	0ffH
	DB	0c0H
	DB	0bcH
	DB	0c0H
	DB	0ffH
	DB	0b8H
	DB	0bcH
	DB	0b8H
	DB	0ffH
	DB	0c0H
	DB	0c0H
	DB	0c0H
	DB	0ffH
	DB	0c0H
	DB	0bcH
	DB	0c0H
	DB	0ffH
	DB	0b8H
	DB	0bcH
	DB	0b8H
	DB	0ffH
	DB	0b8H
	DB	0c0H
	DB	0b8H
	DB	0ffH
	DB	0c0H
	DB	0bcH
	DB	0c0H
	DB	0ffH
	DB	0c0H
	DB	0bcH
	DB	0c0H
	DB	0ffH
	DB	0b8H
	DB	0c0H
	DB	0b8H
	DB	0ffH
	DB	0c0H
	DB	0bcH
	DB	0c0H
	DB	0ffH
	DB	0c0H
	DB	0bcH
	DB	0c0H
	DB	0ffH
	DB	0b8H
	DB	0bcH
	DB	0b8H
	DB	0ffH
	DB	0c0H
	DB	0c0H
	DB	0c0H
	DB	0ffH
	DB	0b8H
	DB	0bcH
	DB	0b8H
	DB	0ffH
	DB	0c0H
	DB	0c0H
	DB	0c0H
	DB	0ffH
	DB	0c0H
	DB	0bcH
	DB	0c0H
	DB	0ffH
	DB	0b8H
	DB	0bcH
	DB	0b8H
	DB	0ffH
	DB	0c0H
	DB	0bcH
	DB	0c0H
	DB	0ffH
	DB	0c0H
	DB	0c0H
	DB	0c0H
	DB	0ffH
	DB	0b8H
	DB	0bcH
	DB	0b8H
	DB	0ffH
	DB	0c0H
	DB	0bcH
	DB	0c0H
	DB	0ffH
	DB	0c0H
	DB	0bcH
	DB	0c0H
	DB	0ffH
	DB	0b8H
	DB	0c0H
	DB	0b8H
	DB	0ffH
	DB	0c0H
	DB	0bcH
	DB	0c0H
	DB	0ffH
	DB	0b8H
	DB	0bcH
	DB	0b8H
	DB	0ffH
	DB	0c0H
	DB	0bcH
	DB	0c0H
	DB	0ffH
	DB	0c0H
	DB	0bcH
	DB	0c0H
	DB	0ffH
	DB	0b8H
	DB	0bcH
	DB	0b8H
	DB	0ffH
	DB	0c0H
	DB	0bcH
	DB	0c0H
	DB	0ffH
	DB	0b8H
	DB	0c0H
	DB	0b8H
	DB	0ffH
	DB	0c0H
	DB	0bcH
	DB	0c0H
	DB	0ffH
	DB	0c0H
	DB	0bcH
	DB	0c0H
	DB	0ffH
	DB	0b8H
	DB	0c0H
	DB	0b8H
	DB	0ffH
	DB	0c0H
	DB	0c0H
	DB	0c0H
	DB	0ffH
	DB	0c0H
	DB	0bcH
	DB	0c0H
	DB	0ffH
	DB	0b8H
	DB	0bcH
	DB	0b8H
	DB	0ffH
	DB	0c0H
	DB	0c0H
	DB	0c0H
	DB	0ffH
	DB	0c0H
	DB	0bcH
	DB	0c0H
	DB	0ffH
	DB	0b8H
	DB	0bcH
	DB	0b8H
	DB	0ffH
	DB	0c0H
	DB	0bcH
	DB	0c0H
	DB	0ffH
	DB	0b8H
	DB	0bcH
	DB	0b8H
	DB	0ffH
	DB	0c0H
	DB	0bcH
	DB	0c0H
	DB	0ffH
	DB	0c0H
	DB	0bcH
	DB	0c0H
	DB	0ffH
	DB	0b8H
	DB	0c0H
	DB	0b8H
	DB	0ffH
	DB	0c0H
	DB	0bcH
	DB	0c0H
	DB	0ffH
	DB	0c0H
	DB	0bcH
	DB	0c0H
	DB	0ffH
	DB	0b8H
	DB	0c0H
	DB	0b8H
	DB	0ffH
	DB	0c0H
	DB	0bcH
	DB	0c0H
	DB	0ffH
	DB	0b8H
	DB	0bcH
	DB	0b8H
	DB	0ffH
	DB	0c0H
	DB	0bcH
	DB	0c0H
	DB	0ffH
	DB	0c0H
	DB	0bcH
	DB	0c0H
	DB	0ffH
	DB	0b8H
	DB	0bcH
	DB	0b8H
	DB	0ffH
	DB	0b8H
	DB	0bcH
	DB	0b8H
	DB	0ffH
	DB	0c0H
	DB	0c0H
	DB	0c0H
	DB	0ffH
	DB	0c0H
	DB	0bcH
	DB	0c0H
	DB	0ffH
	DB	0b8H
	DB	0bcH
	DB	0b8H
	DB	0ffH
	DB	0c0H
	DB	0c0H
	DB	0c0H
	DB	0ffH
	DB	0c0H
	DB	0c0H
	DB	0c0H
	DB	0ffH
	DB	0b8H
	DB	0bcH
	DB	0b8H
	DB	0ffH
	DB	0b8H
	DB	0bcH
	DB	0b8H
	DB	0ffH
	DB	0c0H
	DB	0bcH
	DB	0c0H
	DB	0ffH
	DB	0c0H
	DB	0c0H
	DB	0c0H
	DB	0ffH
	DB	0b8H
	DB	0bcH
	DB	0b8H
	DB	0ffH
	DB	0c0H
	DB	0bcH
	DB	0c0H
	DB	0ffH
	DB	0c0H
	DB	0bcH
	DB	0c0H
	DB	0ffH
	DB	0b8H
	DB	0bcH
	DB	0b8H
	DB	0ffH
	DB	0b8H
	DB	0bcH
	DB	0b8H
	DB	0ffH
	DB	0c0H
	DB	0bcH
	DB	0c0H
	DB	0ffH
	DB	0c0H
	DB	0c0H
	DB	0c0H
	DB	0ffH
	DB	0b8H
	DB	0bcH
	DB	0b8H
	DB	0ffH
	DB	0c0H
	DB	0bcH
	DB	0c0H
	DB	0ffH
	DB	0b8H
	DB	0bcH
	DB	0b8H
	DB	0ffH
	DB	0c0H
	DB	0bcH
	DB	0c0H
	DB	0ffH
	DB	0c0H
	DB	0bcH
	DB	0c0H
	DB	0ffH
	DB	0c0H
	DB	0bcH
	DB	0c0H
	DB	0ffH
	DB	0b8H
	DB	0c0H
	DB	0b8H
	DB	0ffH
	DB	0c0H
	DB	0bcH
	DB	0c0H
	DB	0ffH
	DB	0c0H
	DB	0bcH
	DB	0c0H
	DB	0ffH
	DB	0b8H
	DB	0bcH
	DB	0b8H
	DB	0ffH
	DB	0c0H
	DB	0bcH
	DB	0c0H
	DB	0ffH
	DB	0b8H
	DB	0bcH
	DB	0b8H
	DB	0ffH
	DB	0c0H
	DB	0c0H
	DB	0c0H
	DB	0ffH
	DB	0c0H
	DB	0bcH
	DB	0c0H
	DB	0ffH
	DB	0b8H
	DB	0bcH
	DB	0b8H
	DB	0ffH
	DB	0c0H
	DB	0c0H
	DB	0c0H
	DB	0ffH
	DB	0b8H
	DB	0bcH
	DB	0b8H
	DB	0ffH
	DB	0c0H
	DB	0bcH
	DB	0c0H
	DB	0ffH
	DB	0c0H
	DB	0bcH
	DB	0c0H
	DB	0ffH
	DB	0b8H
	DB	0bcH
	DB	0b8H
	DB	0ffH
	DB	0b8H
	DB	0c0H
	DB	0b8H
	DB	0ffH
	DB	0c0H
	DB	0bcH
	DB	0c0H
	DB	0ffH
	DB	0c0H
	DB	0bcH
	DB	0c0H
	DB	0ffH
	DB	0b8H
	DB	0bcH
	DB	0b8H
	DB	0ffH
	DB	0c0H
	DB	0c0H
	DB	0c0H
	DB	0ffH
	DB	0c0H
	DB	0bcH
	DB	0c0H
	DB	0ffH
	DB	0b8H
	DB	0bcH
	DB	0b8H
	DB	0ffH
	DB	0c0H
	DB	0c0H
	DB	0c0H
	DB	0ffH
	DB	0c0H
	DB	0bcH
	DB	0c0H
	DB	0ffH
	DB	0b8H
	DB	0bcH
	DB	0b8H
	DB	0ffH
	DB	0c0H
	DB	0c0H
	DB	0c0H
	DB	0ffH
	DB	0c0H
	DB	0bcH
	DB	0c0H
	DB	0ffH
	DB	0b8H
	DB	0bcH
	DB	0b8H
	DB	0ffH
	DB	0c0H
	DB	0bcH
	DB	0c0H
	DB	0ffH
	DB	0b8H
	DB	0bcH
	DB	0b8H
	DB	0ffH
	DB	0c0H
	DB	0bcH
	DB	0c0H
	DB	0ffH
	DB	0b8H
	DB	0c0H
	DB	0b8H
	DB	0ffH
	DB	0c0H
	DB	0bcH
	DB	0c0H
	DB	0ffH
	DB	0c0H
	DB	0bcH
	DB	0c0H
	DB	0ffH
	DB	0b8H
	DB	0c0H
	DB	0b8H
	DB	0ffH
	DB	0c0H
	DB	0bcH
	DB	0c0H
	DB	0ffH
	DB	0c0H
	DB	0bcH
	DB	0c0H
	DB	0ffH
	DB	0b8H
	DB	0bcH
	DB	0b8H
	DB	0ffH
	DB	0c0H
	DB	0bcH
	DB	0c0H
	DB	0ffH
	DB	0b8H
	DB	0c0H
	DB	0b8H
	DB	0ffH
	DB	0c0H
	DB	0bcH
	DB	0c0H
	DB	0ffH
	DB	0b8H
	DB	0bcH
	DB	0b8H
	DB	0ffH
	DB	0c0H
	DB	0c0H
	DB	0c0H
	DB	0ffH
	DB	0c0H
	DB	0bcH
	DB	0c0H
	DB	0ffH
	DB	0b8H
	DB	0bcH
	DB	0b8H
	DB	0ffH
	DB	0c0H
	DB	0c0H
	DB	0c0H
	DB	0ffH
	DB	0c0H
	DB	0c0H
	DB	0c0H
	DB	0ffH
	DB	0b8H
	DB	0bcH
	DB	0b8H
	DB	0ffH
	DB	0c0H
	DB	0bcH
	DB	0c0H
	DB	0ffH
	DB	0c0H
	DB	0bcH
	DB	0c0H
	DB	0ffH
	DB	0b8H
	DB	0c0H
	DB	0b8H
	DB	0ffH
	DB	0c0H
	DB	0bcH
	DB	0c0H
	DB	0ffH
	DB	0c0H
	DB	0bcH
	DB	0c0H
	DB	0ffH
	DB	0b8H
	DB	0bcH
	DB	0b8H
	DB	0ffH
	DB	0c0H
	DB	0bcH
	DB	0c0H
	DB	0ffH
	DB	0c0H
	DB	0bcH
	DB	0c0H
	DB	0ffH
	DB	0b8H
	DB	0c0H
	DB	0b8H
	DB	0ffH
	DB	0c0H
	DB	0bcH
	DB	0c0H
	DB	0ffH
	DB	0c0H
	DB	0bcH
	DB	0c0H
	DB	0ffH
	DB	0b8H
	DB	0c0H
	DB	0b8H
	DB	0ffH
	DB	0c0H
	DB	0bcH
	DB	0c0H
	DB	0ffH
	DB	0c0H
	DB	0bcH
	DB	0c0H
	DB	0ffH
	DB	0c0H
	DB	0bcH
	DB	0c0H
	DB	0ffH
	DB	0b8H
	DB	0bcH
	DB	0b8H
	DB	0ffH
	DB	0c0H
	DB	0c0H
	DB	0c0H
	DB	0ffH
	DB	0c0H
	DB	0bcH
	DB	0c0H
	DB	0ffH
	DB	0b8H
	DB	0c0H
	DB	0b8H
	DB	0ffH
	DB	0c0H
	DB	0c0H
	DB	0c0H
	DB	0ffH
	DB	0b8H
	DB	0bcH
	DB	0b8H
	DB	0ffH
	DB	0c0H
	DB	0bcH
	DB	0c0H
	DB	0ffH
	DB	0c0H
	DB	0c0H
	DB	0c0H
	DB	0ffH
	DB	0b8H
	DB	0bcH
	DB	0b8H
	DB	0ffH
	DB	0c0H
	DB	0bcH
	DB	0c0H
	DB	0ffH
	DB	0c0H
	DB	0c0H
	DB	0c0H
	DB	0ffH
	DB	0b8H
	DB	0bcH
	DB	0b8H
	DB	0ffH
	DB	0c0H
	DB	0bcH
	DB	0c0H
	DB	0ffH
	DB	0c0H
	DB	0c0H
	DB	0c0H
	DB	0ffH
	DB	0b8H
	DB	0bcH
	DB	0b8H
	DB	0ffH
	DB	0c0H
	DB	0bcH
	DB	0c0H
	DB	0ffH
	DB	0c0H
	DB	0bcH
	DB	0c0H
	DB	0ffH
	DB	0b8H
	DB	0bcH
	DB	0b8H
	DB	0ffH
	DB	0c0H
	DB	0c0H
	DB	0c0H
	DB	0ffH
	DB	0b8H
	DB	0bcH
	DB	0b8H
	DB	0ffH
	DB	0c0H
	DB	0bcH
	DB	0c0H
	DB	0ffH
	DB	0c0H
	DB	0c0H
	DB	0c0H
	DB	0ffH
	DB	0c0H
	DB	0bcH
	DB	0c0H
	DB	0ffH
	DB	0b8H
	DB	0bcH
	DB	0b8H
	DB	0ffH
	DB	0c0H
	DB	0c0H
	DB	0c0H
	DB	0ffH
	DB	0c0H
	DB	0bcH
	DB	0c0H
	DB	0ffH
	DB	0b8H
	DB	0bcH
	DB	0b8H
	DB	0ffH
	DB	0c0H
	DB	0bcH
	DB	0c0H
	DB	0ffH
	DB	0b8H
	DB	0c0H
	DB	0b8H
	DB	0ffH
	DB	0c0H
	DB	0bcH
	DB	0c0H
	DB	0ffH
	DB	0c0H
	DB	0bcH
	DB	0c0H
	DB	0ffH
	DB	0b8H
	DB	0bcH
	DB	0b8H
	DB	0ffH
	DB	0c0H
	DB	0bcH
	DB	0c0H
	DB	0ffH
	DB	0b8H
	DB	0c0H
	DB	0b8H
	DB	0ffH
	DB	0c0H
	DB	0bcH
	DB	0c0H
	DB	0ffH
	DB	0c0H
	DB	0bcH
	DB	0c0H
	DB	0ffH
	DB	0b8H
	DB	0bcH
	DB	0b8H
	DB	0ffH
	DB	0c0H
	DB	0c0H
	DB	0c0H
	DB	0ffH
	DB	0c0H
	DB	0bcH
	DB	0c0H
	DB	0ffH
	DB	0b8H
	DB	0bcH
	DB	0b8H
	DB	0ffH
	DB	0c0H
	DB	0bcH
	DB	0c0H
	DB	0ffH
	DB	0b8H
	DB	0c0H
	DB	0b8H
	DB	0ffH
	DB	0c0H
	DB	0bcH
	DB	0c0H
	DB	0ffH
	DB	0c0H
	DB	0c0H
	DB	0c0H
	DB	0ffH
	DB	0b8H
	DB	0bcH
	DB	0b8H
	DB	0ffH
	DB	0c0H
	DB	0bcH
	DB	0c0H
	DB	0ffH
	DB	0c0H
	DB	0bcH
	DB	0c0H
	DB	0ffH
	DB	0b8H
	DB	0bcH
	DB	0b8H
	DB	0ffH
	DB	0c0H
	DB	0bcH
	DB	0c0H
	DB	0ffH
	DB	0c0H
	DB	0bcH
	DB	0c0H
	DB	0ffH
	DB	0b8H
	DB	0bcH
	DB	0b8H
	DB	0ffH
	DB	0c0H
	DB	0bcH
	DB	0c0H
	DB	0ffH
	DB	0b8H
	DB	0bcH
	DB	0b8H
	DB	0ffH
	DB	0c0H
	DB	0bcH
	DB	0c0H
	DB	0ffH
	DB	0c0H
	DB	0c0H
	DB	0c0H
	DB	0ffH
	DB	0b8H
	DB	0bcH
	DB	0b8H
	DB	0ffH
	DB	0c0H
	DB	0bcH
	DB	0c0H
	DB	0ffH
	DB	0b8H
	DB	0bcH
	DB	0b8H
	DB	0ffH
	DB	0c0H
	DB	0bcH
	DB	0c0H
	DB	0ffH
	DB	0b8H
	DB	0bcH
	DB	0b8H
	DB	0ffH
	DB	0c0H
	DB	0c0H
	DB	0c0H
	DB	0ffH
	DB	0c0H
	DB	0bcH
	DB	0c0H
	DB	0ffH
	DB	0b8H
	DB	0bcH
	DB	0b8H
	DB	0ffH
	DB	0c0H
	DB	0bcH
	DB	0c0H
	DB	0ffH
	DB	0b8H
	DB	0bcH
	DB	0b8H
	DB	0ffH
	DB	0c0H
	DB	0bcH
	DB	0c0H
	DB	0ffH
	DB	0b8H
	DB	0c0H
	DB	0b8H
	DB	0ffH
	DB	0c0H
	DB	0bcH
	DB	0c0H
	DB	0ffH
	DB	0c0H
	DB	0bcH
	DB	0c0H
	DB	0ffH
	DB	0c0H
	DB	0bcH
	DB	0c0H
	DB	0ffH
	DB	0b8H
	DB	0bcH
	DB	0b8H
	DB	0ffH
	DB	0c0H
	DB	0bcH
	DB	0c0H
	DB	0ffH
	DB	0c0H
	DB	0bcH
	DB	0c0H
	DB	0ffH
	DB	0b8H
	DB	0bcH
	DB	0b8H
	DB	0ffH
	DB	0c0H
	DB	0bcH
	DB	0c0H
	DB	0ffH
	DB	0c0H
	DB	0bcH
	DB	0c0H
	DB	0ffH
	DB	0b8H
	DB	0c0H
	DB	0b8H
	DB	0ffH
	DB	0c0H
	DB	0bcH
	DB	0c0H
	DB	0ffH
	DB	0b8H
	DB	0bcH
	DB	0b8H
	DB	0ffH
	DB	0c0H
	DB	0bcH
	DB	0c0H
	DB	0ffH
	DB	0c0H
	DB	0c0H
	DB	0c0H
	DB	0ffH
	DB	0b8H
	DB	0bcH
	DB	0b8H
	DB	0ffH
	DB	0c0H
	DB	0bcH
	DB	0c0H
	DB	0ffH
	DB	0c0H
	DB	0c0H
	DB	0c0H
	DB	0ffH
	DB	0b8H
	DB	0bcH
	DB	0b8H
	DB	0ffH
	DB	0c0H
	DB	0bcH
	DB	0c0H
	DB	0ffH
	DB	0c0H
	DB	0c0H
	DB	0c0H
	DB	0ffH
	DB	0b8H
	DB	0bcH
	DB	0b8H
	DB	0ffH
	DB	0c0H
	DB	0bcH
	DB	0c0H
	DB	0ffH
	DB	0c0H
	DB	0c0H
	DB	0c0H
	DB	0ffH
	DB	0b8H
	DB	0bcH
	DB	0b8H
	DB	0ffH
	DB	0c0H
	DB	0bcH
	DB	0c0H
	DB	0ffH
	DB	0c0H
	DB	0bcH
	DB	0c0H
	DB	0ffH
	DB	0b8H
	DB	0bcH
	DB	0b8H
	DB	0ffH
	DB	0c0H
	DB	0bcH
	DB	0c0H
	DB	0ffH
	DB	0b8H
	DB	0c0H
	DB	0b8H
	DB	0ffH
	DB	0c0H
	DB	0bcH
	DB	0c0H
	DB	0ffH
	DB	0c0H
	DB	0bcH
	DB	0c0H
	DB	0ffH
	DB	0b8H
	DB	0bcH
	DB	0b8H
	DB	0ffH
	DB	0c0H
	DB	0c0H
	DB	0c0H
	DB	0ffH
	DB	0b8H
	DB	0bcH
	DB	0b8H
	DB	0ffH
	DB	0c0H
	DB	0bcH
	DB	0c0H
	DB	0ffH
	DB	0c0H
	DB	0c0H
	DB	0c0H
	DB	0ffH
	DB	0b8H
	DB	0bcH
	DB	0b8H
	DB	0ffH
	DB	0c0H
	DB	0bcH
	DB	0c0H
	DB	0ffH
	DB	0c0H
	DB	0c0H
	DB	0c0H
	DB	0ffH
	DB	0b8H
	DB	0bcH
	DB	0b8H
	DB	0ffH
	DB	0c0H
	DB	0bcH
	DB	0c0H
	DB	0ffH
	DB	0c0H
	DB	0bcH
	DB	0c0H
	DB	0ffH
	DB	0b8H
	DB	0bcH
	DB	0b8H
	DB	0ffH
	DB	0c0H
	DB	0c0H
	DB	0c0H
	DB	0ffH
	DB	0c0H
	DB	0bcH
	DB	0c0H
	DB	0ffH
	DB	0b8H
	DB	0bcH
	DB	0b8H
	DB	0ffH
	DB	0c0H
	DB	0bcH
	DB	0c0H
	DB	0ffH
	DB	0b8H
	DB	0c0H
	DB	0b8H
	DB	0ffH
	DB	0c0H
	DB	0bcH
	DB	0c0H
	DB	0ffH
	DB	0c0H
	DB	0c0H
	DB	0c0H
	DB	0ffH
	DB	0b8H
	DB	0bcH
	DB	0b8H
	DB	0ffH
	DB	0c0H
	DB	0c0H
	DB	0c0H
	DB	0ffH
	DB	0b8H
	DB	0bcH
	DB	0b8H
	DB	0ffH
	DB	0c0H
	DB	0c0H
	DB	0c0H
	DB	0ffH
	DB	0c0H
	DB	0bcH
	DB	0c0H
	DB	0ffH
	DB	0b8H
	DB	0bcH
	DB	0b8H
	DB	0ffH
	DB	0c0H
	DB	0bcH
	DB	0c0H
	DB	0ffH
	DB	0c0H
	DB	0bcH
	DB	0c0H
	DB	0ffH
	DB	0b8H
	DB	0c0H
	DB	0b8H
	DB	0ffH
	DB	0c0H
	DB	0bcH
	DB	0c0H
	DB	0ffH
	DB	0c0H
	DB	0bcH
	DB	0c0H
	DB	0ffH
	DB	0b8H
	DB	0c0H
	DB	0b8H
	DB	0ffH
	DB	0c0H
	DB	0bcH
	DB	0c0H
	DB	0ffH
	DB	0c0H
	DB	0bcH
	DB	0c0H
	DB	0ffH
	DB	0b8H
	DB	0c0H
	DB	0b8H
	DB	0ffH
	DB	0c0H
	DB	0bcH
	DB	0c0H
	DB	0ffH
	DB	0c0H
	DB	0c0H
	DB	0c0H
	DB	0ffH
	DB	0b8H
	DB	0bcH
	DB	0b8H
	DB	0ffH
	DB	0c0H
	DB	0bcH
	DB	0c0H
	DB	0ffH
	DB	0c0H
	DB	0bcH
	DB	0c0H
	DB	0ffH
	DB	0b8H
	DB	0bcH
	DB	0b8H
	DB	0ffH
	DB	0b8H
	DB	0bcH
	DB	0b8H
	DB	0ffH
	DB	0c0H
	DB	0bcH
	DB	0c0H
	DB	0ffH
	DB	0b8H
	DB	0bcH
	DB	0b8H
	DB	0ffH
	DB	0c0H
	DB	0c0H
	DB	0c0H
	DB	0ffH
	DB	0b8H
	DB	0bcH
	DB	0b8H
	DB	0ffH
	DB	0c0H
	DB	0bcH
	DB	0c0H
	DB	0ffH
	DB	0c0H
	DB	0bcH
	DB	0c0H
	DB	0ffH
	DB	0b8H
	DB	0bcH
	DB	0b8H
	DB	0ffH
	DB	0c0H
	DB	0bcH
	DB	0c0H
	DB	0ffH
	DB	0c0H
	DB	0bcH
	DB	0c0H
	DB	0ffH
	DB	0b8H
	DB	0bcH
	DB	0b8H
	DB	0ffH
	DB	0c0H
	DB	0c0H
	DB	0c0H
	DB	0ffH
	DB	0b8H
	DB	0bcH
	DB	0b8H
	DB	0ffH
	DB	0c0H
	DB	0bcH
	DB	0c0H
	DB	0ffH
	DB	0b8H
	DB	0bcH
	DB	0b8H
	DB	0ffH
	DB	0c0H
	DB	0bcH
	DB	0c0H
	DB	0ffH
	DB	0b8H
	DB	0bcH
	DB	0b8H
	DB	0ffH
	DB	0c0H
	DB	0bcH
	DB	0c0H
	DB	0ffH
	DB	0b8H
	DB	0c0H
	DB	0b8H
	DB	0ffH
	DB	0c0H
	DB	0bcH
	DB	0c0H
	DB	0ffH
	DB	0c0H
	DB	0bcH
	DB	0c0H
	DB	0ffH
	DB	0b8H
	DB	0bcH
	DB	0b8H
	DB	0ffH
	DB	0b8H
	DB	0bcH
	DB	0b8H
	DB	0ffH
	DB	0c0H
	DB	0c0H
	DB	0c0H
	DB	0ffH
	DB	0b8H
	DB	0bcH
	DB	0b8H
	DB	0ffH
	DB	0c0H
	DB	0bcH
	DB	0c0H
	DB	0ffH
	DB	0c0H
	DB	0c0H
	DB	0c0H
	DB	0ffH
	DB	0b8H
	DB	0bcH
	DB	0b8H
	DB	0ffH
	DB	0c0H
	DB	0bcH
	DB	0c0H
	DB	0ffH
	DB	0c0H
	DB	0bcH
	DB	0c0H
	DB	0ffH
	DB	0b8H
	DB	0c0H
	DB	0b8H
	DB	0ffH
	DB	0c0H
	DB	0bcH
	DB	0c0H
	DB	0ffH
	DB	0c0H
	DB	0bcH
	DB	0c0H
	DB	0ffH
	DB	0b8H
	DB	0c0H
	DB	0b8H
	DB	0ffH
	DB	0c0H
	DB	0bcH
	DB	0c0H
	DB	0ffH
	DB	0c0H
	DB	0bcH
	DB	0c0H
	DB	0ffH
	DB	0b8H
	DB	0bcH
	DB	0b8H
	DB	0ffH
	DB	0c0H
	DB	0c0H
	DB	0c0H
	DB	0ffH
	DB	0b8H
	DB	0bcH
	DB	0b8H
	DB	0ffH
	DB	0c0H
	DB	0bcH
	DB	0c0H
	DB	0ffH
	DB	0b8H
	DB	0c0H
	DB	0b8H
	DB	0ffH
	DB	0c0H
	DB	0bcH
	DB	0c0H
	DB	0ffH
	DB	0c0H
	DB	0bcH
	DB	0c0H
	DB	0ffH
	DB	0b8H
	DB	0bcH
	DB	0b8H
	DB	0ffH
	DB	0c0H
	DB	0bcH
	DB	0c0H
	DB	0ffH
	DB	0c0H
	DB	0bcH
	DB	0c0H
	DB	0ffH
	DB	0b8H
	DB	0bcH
	DB	0b8H
	DB	0ffH
	DB	0c0H
	DB	0c0H
	DB	0c0H
	DB	0ffH
	DB	0b8H
	DB	0bcH
	DB	0b8H
	DB	0ffH
	DB	0c0H
	DB	0bcH
	DB	0c0H
	DB	0ffH
	DB	0c0H
	DB	0bcH
	DB	0c0H
	DB	0ffH
	DB	0b8H
	DB	0c0H
	DB	0b8H
	DB	0ffH
	DB	0c0H
	DB	0bcH
	DB	0c0H
	DB	0ffH
	DB	0c0H
	DB	0bcH
	DB	0c0H
	DB	0ffH
	DB	0b8H
	DB	0c0H
	DB	0b8H
	DB	0ffH
	DB	0c0H
	DB	0bcH
	DB	0c0H
	DB	0ffH
	DB	0b8H
	DB	0bcH
	DB	0b8H
	DB	0ffH
	DB	0c0H
	DB	0bcH
	DB	0c0H
	DB	0ffH
	DB	0c0H
	DB	0c0H
	DB	0c0H
	DB	0ffH
	DB	0b8H
	DB	0bcH
	DB	0b8H
	DB	0ffH
	DB	0c0H
	DB	0bcH
	DB	0c0H
	DB	0ffH
	DB	0c0H
	DB	0c0H
	DB	0c0H
	DB	0ffH
	DB	0b8H
	DB	0bcH
	DB	0b8H
	DB	0ffH
	DB	0b8H
	DB	0bcH
	DB	0b8H
	DB	0ffH
	DB	0c0H
	DB	0bcH
	DB	0c0H
	DB	0ffH
	DB	0c0H
	DB	0c0H
	DB	0c0H
	DB	0ffH
	DB	0b8H
	DB	0bcH
	DB	0b8H
	DB	0ffH
	DB	0c0H
	DB	0bcH
	DB	0c0H
	DB	0ffH
	DB	0c0H
	DB	0c0H
	DB	0c0H
	DB	0ffH
	DB	0b8H
	DB	0bcH
	DB	0b8H
	DB	0ffH
	DB	0c0H
	DB	0bcH
	DB	0c0H
	DB	0ffH
	DB	0c0H
	DB	0bcH
	DB	0c0H
	DB	0ffH
	DB	0c0H
	DB	0bcH
	DB	0c0H
	DB	0ffH
	DB	0b8H
	DB	0c0H
	DB	0b8H
	DB	0ffH
	DB	0c0H
	DB	0bcH
	DB	0c0H
	DB	0ffH
	DB	0c0H
	DB	0c0H
	DB	0c0H
	DB	0ffH
	DB	0b8H
	DB	0c0H
	DB	0b8H
	DB	0ffH
	DB	0b8H
	DB	0bcH
	DB	0b8H
	DB	0ffH
	DB	0c0H
	DB	0c0H
	DB	0c0H
	DB	0ffH
	DB	0c0H
	DB	0bcH
	DB	0c0H
	DB	0ffH
	DB	0b8H
	DB	0bcH
	DB	0b8H
	DB	0ffH
	DB	0c0H
	DB	0bcH
	DB	0c0H
	DB	0ffH
	DB	0c0H
	DB	0bcH
	DB	0c0H
	DB	0ffH
	DB	0b8H
	DB	0c0H
	DB	0b8H
	DB	0ffH
	DB	0c0H
	DB	0bcH
	DB	0c0H
	DB	0ffH
	DB	0c0H
	DB	0bcH
	DB	0c0H
	DB	0ffH
	DB	0c0H
	DB	0c0H
	DB	0c0H
	DB	0ffH
	DB	0b8H
	DB	0bcH
	DB	0b8H
	DB	0ffH
	DB	0c0H
	DB	0bcH
	DB	0c0H
	DB	0ffH
	DB	0c0H
	DB	0bcH
	DB	0c0H
	DB	0ffH
	DB	0b8H
	DB	0c0H
	DB	0b8H
	DB	0ffH
	DB	0c0H
	DB	0bcH
	DB	0c0H
	DB	0ffH
	DB	0c0H
	DB	0bcH
	DB	0c0H
	DB	0ffH
	DB	0c0H
	DB	0c0H
	DB	0c0H
	DB	0ffH
	DB	0b8H
	DB	0bcH
	DB	0b8H
	DB	0ffH
	DB	0c0H
	DB	0bcH
	DB	0c0H
	DB	0ffH
	DB	0c0H
	DB	0bcH
	DB	0c0H
	DB	0ffH
	DB	0b8H
	DB	0bcH
	DB	0b8H
	DB	0ffH
	DB	0c0H
	DB	0c0H
	DB	0c0H
	DB	0ffH
	DB	0b8H
	DB	0bcH
	DB	0b8H
	DB	0ffH
	DB	0c0H
	DB	0bcH
	DB	0c0H
	DB	0ffH
	DB	0c0H
	DB	0bcH
	DB	0c0H
	DB	0ffH
	DB	0b8H
	DB	0bcH
	DB	0b8H
	DB	0ffH
	DB	0c0H
	DB	0bcH
	DB	0c0H
	DB	0ffH
	DB	0b8H
	DB	0bcH
	DB	0b8H
	DB	0ffH
	DB	0c0H
	DB	0bcH
	DB	0c0H
	DB	0ffH
	DB	0c0H
	DB	0c0H
	DB	0c0H
	DB	0ffH
	DB	0b8H
	DB	0bcH
	DB	0b8H
	DB	0ffH
	DB	0c0H
	DB	0bcH
	DB	0c0H
	DB	0ffH
	DB	0c0H
	DB	0bcH
	DB	0c0H
	DB	0ffH
	DB	0b8H
	DB	0c0H
	DB	0b8H
	DB	0ffH
	DB	0c0H
	DB	0bcH
	DB	0c0H
	DB	0ffH
	DB	0b8H
	DB	0bcH
	DB	0b8H
	DB	0ffH
	DB	0c0H
	DB	0c0H
	DB	0c0H
	DB	0ffH
	DB	0c0H
	DB	0bcH
	DB	0c0H
	DB	0ffH
	DB	0b8H
	DB	0bcH
	DB	0b8H
	DB	0ffH
	DB	0c0H
	DB	0bcH
	DB	0c0H
	DB	0ffH
	DB	0c0H
	DB	0bcH
	DB	0c0H
	DB	0ffH
	DB	0b8H
	DB	0bcH
	DB	0b8H
	DB	0ffH
	DB	0c0H
	DB	0bcH
	DB	0c0H
	DB	0ffH
	DB	0c0H
	DB	0bcH
	DB	0c0H
	DB	0ffH
	DB	0b8H
	DB	0bcH
	DB	0b8H
	DB	0ffH
	DB	0c0H
	DB	0bcH
	DB	0c0H
	DB	0ffH
	DB	0b8H
	DB	0bcH
	DB	0b8H
	DB	0ffH
	DB	0c0H
	DB	0c0H
	DB	0c0H
	DB	0ffH
	DB	0c0H
	DB	0bcH
	DB	0c0H
	DB	0ffH
	DB	0b8H
	DB	0bcH
	DB	0b8H
	DB	0ffH
	DB	0c0H
	DB	0c0H
	DB	0c0H
	DB	0ffH
	DB	0c0H
	DB	0bcH
	DB	0c0H
	DB	0ffH
	DB	0b8H
	DB	0bcH
	DB	0b8H
	DB	0ffH
	DB	0c0H
	DB	0bcH
	DB	0c0H
	DB	0ffH
	DB	0c0H
	DB	0bcH
	DB	0c0H
	DB	0ffH
	DB	0b8H
	DB	0c0H
	DB	0b8H
	DB	0ffH
	DB	0c0H
	DB	0bcH
	DB	0c0H
	DB	0ffH
	DB	0c0H
	DB	0bcH
	DB	0c0H
	DB	0ffH
	DB	0b8H
	DB	0bcH
	DB	0b8H
	DB	0ffH
	DB	0c0H
	DB	0bcH
	DB	0c0H
	DB	0ffH
	DB	0c0H
	DB	0c0H
	DB	0c0H
	DB	0ffH
	DB	0b8H
	DB	0bcH
	DB	0b8H
	DB	0ffH
	DB	0c0H
	DB	0bcH
	DB	0c0H
	DB	0ffH
	DB	0c0H
	DB	0c0H
	DB	0c0H
	DB	0ffH
	DB	0b8H
	DB	0bcH
	DB	0b8H
	DB	0ffH
	DB	0c0H
	DB	0bcH
	DB	0c0H
	DB	0ffH
	DB	0c0H
	DB	0bcH
	DB	0c0H
	DB	0ffH
	DB	0b8H
	DB	0bcH
	DB	0b8H
	DB	0ffH
	DB	0c0H
	DB	0bcH
	DB	0c0H
	DB	0ffH
	DB	0c0H
	DB	0bcH
	DB	0c0H
	DB	0ffH
	DB	0b8H
	DB	0bcH
	DB	0b8H
	DB	0ffH
	DB	0c0H
	DB	0bcH
	DB	0c0H
	DB	0ffH
	DB	0c0H
	DB	0c0H
	DB	0c0H
	DB	0ffH
	DB	0b8H
	DB	0bcH
	DB	0b8H
	DB	0ffH
	DB	0c0H
	DB	0bcH
	DB	0c0H
	DB	0ffH
	DB	0c0H
	DB	0c0H
	DB	0c0H
	DB	0ffH
	DB	0b8H
	DB	0bcH
	DB	0b8H
	DB	0ffH
	DB	0c0H
	DB	0bcH
	DB	0c0H
	DB	0ffH
	DB	0b8H
	DB	0c0H
	DB	0b8H
	DB	0ffH
	DB	0c0H
	DB	0bcH
	DB	0c0H
	DB	0ffH
	DB	0c0H
	DB	0bcH
	DB	0c0H
	DB	0ffH
	DB	0b8H
	DB	0bcH
	DB	0b8H
	DB	0ffH
	DB	0c0H
	DB	0bcH
	DB	0c0H
	DB	0ffH
	DB	0c0H
	DB	0c0H
	DB	0c0H
	DB	0ffH
	DB	0b8H
	DB	0bcH
	DB	0b8H
	DB	0ffH
	DB	0c0H
	DB	0bcH
	DB	0c0H
	DB	0ffH
	DB	0c0H
	DB	0bcH
	DB	0c0H
	DB	0ffH
	DB	0b8H
	DB	0c0H
	DB	0b8H
	DB	0ffH
	DB	0c0H
	DB	0bcH
	DB	0c0H
	DB	0ffH
	DB	0b8H
	DB	0bcH
	DB	0b8H
	DB	0ffH
	DB	0c0H
	DB	0c0H
	DB	0c0H
	DB	0ffH
	DB	0c0H
	DB	0bcH
	DB	0c0H
	DB	0ffH
	DB	0b8H
	DB	0bcH
	DB	0b8H
	DB	0ffH
	DB	0c0H
	DB	0c0H
	DB	0c0H
	DB	0ffH
	DB	0b8H
	DB	0bcH
	DB	0b8H
	DB	0ffH
	DB	0c0H
	DB	0c0H
	DB	0c0H
	DB	0ffH
	DB	0c0H
	DB	0bcH
	DB	0c0H
	DB	0ffH
	DB	0b8H
	DB	0bcH
	DB	0b8H
	DB	0ffH
	DB	0c0H
	DB	0c0H
	DB	0c0H
	DB	0ffH
	DB	0c0H
	DB	0bcH
	DB	0c0H
	DB	0ffH
	DB	0b8H
	DB	0bcH
	DB	0b8H
	DB	0ffH
	DB	0c0H
	DB	0bcH
	DB	0c0H
	DB	0ffH
	DB	0c0H
	DB	0c0H
	DB	0c0H
	DB	0ffH
	DB	0b8H
	DB	0bcH
	DB	0b8H
	DB	0ffH
	DB	0c0H
	DB	0bcH
	DB	0c0H
	DB	0ffH
	DB	0c0H
	DB	0bcH
	DB	0c0H
	DB	0ffH
	DB	0b8H
	DB	0c0H
	DB	0b8H
	DB	0ffH
	DB	0c0H
	DB	0bcH
	DB	0c0H
	DB	0ffH
	DB	0b8H
	DB	0c0H
	DB	0b8H
	DB	0ffH
	DB	0c0H
	DB	0c0H
	DB	0c0H
	DB	0ffH
	DB	0c0H
	DB	0bcH
	DB	0c0H
	DB	0ffH
	DB	0b8H
	DB	0c0H
	DB	0b8H
	DB	0ffH
	DB	0c0H
	DB	0c0H
	DB	0c0H
	DB	0ffH
	DB	0b8H
	DB	0bcH
	DB	0b8H
	DB	0ffH
	DB	0c0H
	DB	0bcH
	DB	0c0H
	DB	0ffH
	DB	0c0H
	DB	0c0H
	DB	0c0H
	DB	0ffH
	DB	0b8H
	DB	0bcH
	DB	0b8H
	DB	0ffH
	DB	0c0H
	DB	0bcH
	DB	0c0H
	DB	0ffH
	DB	0c0H
	DB	0bcH
	DB	0c0H
	DB	0ffH
	DB	0b8H
	DB	0c0H
	DB	0b8H
	DB	0ffH
	DB	0c0H
	DB	0bcH
	DB	0c0H
	DB	0ffH
	DB	0b8H
	DB	0bcH
	DB	0b8H
	DB	0ffH
	DB	0c0H
	DB	0c0H
	DB	0c0H
	DB	0ffH
	DB	0b8H
	DB	0bcH
	DB	0b8H
	DB	0ffH
	DB	0c0H
	DB	0bcH
	DB	0c0H
	DB	0ffH
	DB	0c0H
	DB	0bcH
	DB	0c0H
	DB	0ffH
	DB	0c0H
	DB	0c0H
	DB	0c0H
	DB	0ffH
	DB	0b8H
	DB	0bcH
	DB	0b8H
	DB	0ffH
	DB	0c0H
	DB	0bcH
	DB	0c0H
	DB	0ffH
	DB	0c0H
	DB	0c0H
	DB	0c0H
	DB	0ffH
	DB	0b8H
	DB	0bcH
	DB	0b8H
	DB	0ffH
	DB	0c0H
	DB	0bcH
	DB	0c0H
	DB	0ffH
	DB	0c0H
	DB	0bcH
	DB	0c0H
	DB	0ffH
	DB	0b8H
	DB	0bcH
	DB	0b8H
	DB	0ffH
	DB	0c0H
	DB	0bcH
	DB	0c0H
	DB	0ffH
	DB	0b8H
	DB	0bcH
	DB	0b8H
	DB	0ffH
	DB	0c0H
	DB	0c0H
	DB	0c0H
	DB	0ffH
	DB	0b8H
	DB	0bcH
	DB	0b8H
	DB	0ffH
	DB	0c0H
	DB	0bcH
	DB	0c0H
	DB	0ffH
	DB	0c0H
	DB	0bcH
	DB	0c0H
	DB	0ffH
	DB	0b8H
	DB	0bcH
	DB	0b8H
	DB	0ffH
	DB	0c0H
	DB	0bcH
	DB	0c0H
	DB	0ffH
	DB	0c0H
	DB	0c0H
	DB	0c0H
	DB	0ffH
	DB	0b8H
	DB	0bcH
	DB	0b8H
	DB	0ffH
	DB	0c0H
	DB	0bcH
	DB	0c0H
	DB	0ffH
	DB	0b8H
	DB	0c0H
	DB	0b8H
	DB	0ffH
	DB	0c0H
	DB	0bcH
	DB	0c0H
	DB	0ffH
	DB	0c0H
	DB	0bcH
	DB	0c0H
	DB	0ffH
	DB	0b8H
	DB	0bcH
	DB	0b8H
	DB	0ffH
	DB	0b8H
	DB	0bcH
	DB	0b8H
	DB	0ffH
	DB	0c0H
	DB	0c0H
	DB	0c0H
	DB	0ffH
	DB	0b8H
	DB	0bcH
	DB	0b8H
	DB	0ffH
	DB	0c0H
	DB	0bcH
	DB	0c0H
	DB	0ffH
	DB	0c0H
	DB	0bcH
	DB	0c0H
	DB	0ffH
	DB	0b8H
	DB	0bcH
	DB	0b8H
	DB	0ffH
	DB	0b8H
	DB	0bcH
	DB	0b8H
	DB	0ffH
	DB	0c0H
	DB	0bcH
	DB	0c0H
	DB	0ffH
	DB	0c0H
	DB	0c0H
	DB	0c0H
	DB	0ffH
	DB	0b8H
	DB	0bcH
	DB	0b8H
	DB	0ffH
	DB	0c0H
	DB	0bcH
	DB	0c0H
	DB	0ffH
	DB	0c0H
	DB	0bcH
	DB	0c0H
	DB	0ffH
	DB	0b8H
	DB	0bcH
	DB	0b8H
	DB	0ffH
	DB	0c0H
	DB	0bcH
	DB	0c0H
	DB	0ffH
	DB	0c0H
	DB	0bcH
	DB	0c0H
	DB	0ffH
	DB	0b8H
	DB	0c0H
	DB	0b8H
	DB	0ffH
	DB	0c0H
	DB	0bcH
	DB	0c0H
	DB	0ffH
	DB	0c0H
	DB	0bcH
	DB	0c0H
	DB	0ffH
	DB	0b8H
	DB	0c0H
	DB	0b8H
	DB	0ffH
	DB	0c0H
	DB	0bcH
	DB	0c0H
	DB	0ffH
	DB	0b8H
	DB	0bcH
	DB	0b8H
	DB	0ffH
	DB	0c0H
	DB	0bcH
	DB	0c0H
	DB	0ffH
	DB	0c0H
	DB	0c0H
	DB	0c0H
	DB	0ffH
	DB	0b8H
	DB	0bcH
	DB	0b8H
	DB	0ffH
	DB	0c0H
	DB	0bcH
	DB	0c0H
	DB	0ffH
	DB	0c0H
	DB	0bcH
	DB	0c0H
	DB	0ffH
	DB	0b8H
	DB	0c0H
	DB	0b8H
	DB	0ffH
	DB	0c0H
	DB	0bcH
	DB	0c0H
	DB	0ffH
	DB	0c0H
	DB	0bcH
	DB	0c0H
	DB	0ffH
	DB	0b8H
	DB	0bcH
	DB	0b8H
	DB	0ffH
	DB	0c0H
	DB	0bcH
	DB	0c0H
	DB	0ffH
	DB	0b8H
	DB	0bcH
	DB	0b8H
	DB	0ffH
	DB	0c0H
	DB	0bcH
	DB	0c0H
	DB	0ffH
	DB	0c0H
	DB	0bcH
	DB	0c0H
	DB	0ffH
	DB	0b8H
	DB	0bcH
	DB	0b8H
	DB	0ffH
	DB	0c0H
	DB	0c0H
	DB	0c0H
	DB	0ffH
	DB	0c0H
	DB	0bcH
	DB	0c0H
	DB	0ffH
	DB	0b8H
	DB	0bcH
	DB	0b8H
	DB	0ffH
	DB	0c0H
	DB	0bcH
	DB	0c0H
	DB	0ffH
	DB	0b8H
	DB	0c0H
	DB	0b8H
	DB	0ffH
	DB	0c0H
	DB	0bcH
	DB	0c0H
	DB	0ffH
	DB	0c0H
	DB	0bcH
	DB	0c0H
	DB	0ffH
	DB	0b8H
	DB	0bcH
	DB	0b8H
	DB	0ffH
	DB	0c0H
	DB	0bcH
	DB	0c0H
	DB	0ffH
	DB	0c0H
	DB	0c0H
	DB	0c0H
	DB	0ffH
	DB	0b8H
	DB	0bcH
	DB	0b8H
	DB	0ffH
	DB	0c0H
	DB	0bcH
	DB	0c0H
	DB	0ffH
	DB	0b8H
	DB	0bcH
	DB	0b8H
	DB	0ffH
	DB	0b8H
	DB	0bcH
	DB	0b8H
	DB	0ffH
	DB	0c0H
	DB	0c0H
	DB	0c0H
	DB	0ffH
	DB	0b8H
	DB	0bcH
	DB	0b8H
	DB	0ffH
	DB	0c0H
	DB	0bcH
	DB	0c0H
	DB	0ffH
	DB	0b8H
	DB	0c0H
	DB	0b8H
	DB	0ffH
	DB	0c0H
	DB	0bcH
	DB	0c0H
	DB	0ffH
	DB	0c0H
	DB	0bcH
	DB	0c0H
	DB	0ffH
	DB	0c0H
	DB	0bcH
	DB	0c0H
	DB	0ffH
	DB	0c0H
	DB	0bcH
	DB	0c0H
	DB	0ffH
	DB	0b8H
	DB	0c0H
	DB	0b8H
	DB	0ffH
	DB	0c0H
	DB	0bcH
	DB	0c0H
	DB	0ffH
	DB	0b8H
	DB	0c0H
	DB	0b8H
	DB	0ffH
	DB	0c0H
	DB	0c0H
	DB	0c0H
	DB	0ffH
	DB	0c0H
	DB	0bcH
	DB	0c0H
	DB	0ffH
	DB	0b8H
	DB	0bcH
	DB	0b8H
	DB	0ffH
	DB	0c0H
	DB	0bcH
	DB	0c0H
	DB	0ffH
	DB	0c0H
	DB	0bcH
	DB	0c0H
	DB	0ffH
	DB	0b8H
	DB	0bcH
	DB	0b8H
	DB	0ffH
	DB	0c0H
	DB	0bcH
	DB	0c0H
	DB	0ffH
	DB	0c0H
	DB	0bcH
	DB	0c0H
	DB	0ffH
	DB	0b8H
	DB	0c0H
	DB	0b8H
	DB	0ffH
	DB	0c0H
	DB	0bcH
	DB	0c0H
	DB	0ffH
	DB	0c0H
	DB	0bcH
	DB	0c0H
	DB	0ffH
	DB	0c0H
	DB	0c0H
	DB	0c0H
	DB	0ffH
	DB	0b8H
	DB	0bcH
	DB	0b8H
	DB	0ffH
	DB	0c0H
	DB	0c0H
	DB	0c0H
	DB	0ffH
	DB	0c0H
	DB	0bcH
	DB	0c0H
	DB	0ffH
	DB	0b8H
	DB	0c0H
	DB	0b8H
	DB	0ffH
	DB	0c0H
	DB	0bcH
	DB	0c0H
	DB	0ffH
	DB	0c0H
	DB	0bcH
	DB	0c0H
	DB	0ffH
	DB	0b8H
	DB	0bcH
	DB	0b8H
	DB	0ffH
	DB	0c0H
	DB	0c0H
	DB	0c0H
	DB	0ffH
	DB	0c0H
	DB	0bcH
	DB	0c0H
	DB	0ffH
	DB	0b8H
	DB	0bcH
	DB	0b8H
	DB	0ffH
	DB	0c0H
	DB	0c0H
	DB	0c0H
	DB	0ffH
	DB	0c0H
	DB	0bcH
	DB	0c0H
	DB	0ffH
	DB	0b8H
	DB	0bcH
	DB	0b8H
	DB	0ffH
	DB	0c0H
	DB	0bcH
	DB	0c0H
	DB	0ffH
	DB	0b8H
	DB	0bcH
	DB	0b8H
	DB	0ffH
	DB	0c0H
	DB	0bcH
	DB	0c0H
	DB	0ffH
	DB	0c0H
	DB	0bcH
	DB	0c0H
	DB	0ffH
	DB	0b8H
	DB	0bcH
	DB	0b8H
	DB	0ffH
	DB	0c0H
	DB	0c0H
	DB	0c0H
	DB	0ffH
	DB	0b8H
	DB	0bcH
	DB	0b8H
	DB	0ffH
	DB	0c0H
	DB	0bcH
	DB	0c0H
	DB	0ffH
	DB	0b8H
	DB	0bcH
	DB	0b8H
	DB	0ffH
	DB	0c0H
	DB	0bcH
	DB	0c0H
	DB	0ffH
	DB	0b8H
	DB	0c0H
	DB	0b8H
	DB	0ffH
	DB	0c0H
	DB	0bcH
	DB	0c0H
	DB	0ffH
	DB	0c0H
	DB	0bcH
	DB	0c0H
	DB	0ffH
	DB	0b8H
	DB	0bcH
	DB	0b8H
	DB	0ffH
	DB	0c0H
	DB	0bcH
	DB	0c0H
	DB	0ffH
	DB	0c0H
	DB	0bcH
	DB	0c0H
	DB	0ffH
	DB	0b8H
	DB	0c0H
	DB	0b8H
	DB	0ffH
	DB	0c0H
	DB	0bcH
	DB	0c0H
	DB	0ffH
	DB	0c0H
	DB	0bcH
	DB	0c0H
	DB	0ffH
	DB	0b8H
	DB	0bcH
	DB	0b8H
	DB	0ffH
	DB	0c0H
	DB	0bcH
	DB	0c0H
	DB	0ffH
	DB	0b8H
	DB	0c0H
	DB	0b8H
	DB	0ffH
	DB	0c0H
	DB	0bcH
	DB	0c0H
	DB	0ffH
	DB	0c0H
	DB	0bcH
	DB	0c0H
	DB	0ffH
	DB	0b8H
	DB	0bcH
	DB	0b8H
	DB	0ffH
	DB	0c0H
	DB	0bcH
	DB	0c0H
	DB	0ffH
	DB	0c0H
	DB	0c0H
	DB	0c0H
	DB	0ffH
	DB	0b8H
	DB	0bcH
	DB	0b8H
	DB	0ffH
	DB	0c0H
	DB	0bcH
	DB	0c0H
	DB	0ffH
	DB	0c0H
	DB	0bcH
	DB	0c0H
	DB	0ffH
	DB	0b8H
	DB	0c0H
	DB	0b8H
	DB	0ffH
	DB	0c0H
	DB	0bcH
	DB	0c0H
	DB	0ffH
	DB	0c0H
	DB	0bcH
	DB	0c0H
	DB	0ffH
	DB	0c0H
	DB	0c0H
	DB	0c0H
	DB	0ffH
	DB	0c0H
	DB	0bcH
	DB	0c0H
	DB	0ffH
	DB	0b8H
	DB	0bcH
	DB	0b8H
	DB	0ffH
	DB	0c0H
	DB	0bcH
	DB	0c0H
	DB	0ffH
	DB	0c0H
	DB	0bcH
	DB	0c0H
	DB	0ffH
	DB	0b8H
	DB	0c0H
	DB	0b8H
	DB	0ffH
	DB	0c0H
	DB	0bcH
	DB	0c0H
	DB	0ffH
	DB	0b8H
	DB	0bcH
	DB	0b8H
	DB	0ffH
	DB	0c0H
	DB	0bcH
	DB	0c0H
	DB	0ffH
	DB	0c0H
	DB	0bcH
	DB	0c0H
	DB	0ffH
	DB	0b8H
	DB	0bcH
	DB	0b8H
	DB	0ffH
	DB	0c0H
	DB	0bcH
	DB	0c0H
	DB	0ffH
	DB	0c0H
	DB	0bcH
	DB	0c0H
	DB	0ffH
	DB	0b8H
	DB	0c0H
	DB	0b8H
	DB	0ffH
	DB	0b8H
	DB	0bcH
	DB	0b8H
	DB	0ffH
	DB	0c0H
	DB	0c0H
	DB	0c0H
	DB	0ffH
	DB	0c0H
	DB	0bcH
	DB	0c0H
	DB	0ffH
	DB	0b8H
	DB	0c0H
	DB	0b8H
	DB	0ffH
	DB	0c0H
	DB	0bcH
	DB	0c0H
	DB	0ffH
	DB	0c0H
	DB	0bcH
	DB	0c0H
	DB	0ffH
	DB	0b8H
	DB	0c0H
	DB	0b8H
	DB	0ffH
	DB	0c0H
	DB	0bcH
	DB	0c0H
	DB	0ffH
	DB	0c0H
	DB	0bcH
	DB	0c0H
	DB	0ffH
	DB	0b8H
	DB	0bcH
	DB	0b8H
	DB	0ffH
	DB	0c0H
	DB	0bcH
	DB	0c0H
	DB	0ffH
	DB	0b8H
	DB	0bcH
	DB	0b8H
	DB	0ffH
	DB	0c0H
	DB	0c0H
	DB	0c0H
	DB	0ffH
	DB	0c0H
	DB	0bcH
	DB	0c0H
	DB	0ffH
	DB	0b8H
	DB	0bcH
	DB	0b8H
	DB	0ffH
	DB	0c0H
	DB	0c0H
	DB	0c0H
	DB	0ffH
	DB	0b8H
	DB	0bcH
	DB	0b8H
	DB	0ffH
	DB	0c0H
	DB	0bcH
	DB	0c0H
	DB	0ffH
	DB	0b8H
	DB	0c0H
	DB	0b8H
	DB	0ffH
	DB	0c0H
	DB	0bcH
	DB	0c0H
	DB	0ffH
	DB	0b8H
	DB	0bcH
	DB	0b8H
	DB	0ffH
	DB	0c0H
	DB	0c0H
	DB	0c0H
	DB	0ffH
	DB	0c0H
	DB	0bcH
	DB	0c0H
	DB	0ffH
	DB	0b8H
	DB	0bcH
	DB	0b8H
	DB	0ffH
	DB	0c0H
	DB	0c0H
	DB	0c0H
	DB	0ffH
	DB	0b8H
	DB	0bcH
	DB	0b8H
	DB	0ffH
	DB	0c0H
	DB	0bcH
	DB	0c0H
	DB	0ffH
	DB	0c0H
	DB	0c0H
	DB	0c0H
	DB	0ffH
	DB	0b8H
	DB	0bcH
	DB	0b8H
	DB	0ffH
	DB	0c0H
	DB	0bcH
	DB	0c0H
	DB	0ffH
	DB	0c0H
	DB	0c0H
	DB	0c0H
	DB	0ffH
	DB	0c0H
	DB	0bcH
	DB	0c0H
	DB	0ffH
	DB	0b8H
	DB	0bcH
	DB	0b8H
	DB	0ffH
	DB	0c0H
	DB	0bcH
	DB	0c0H
	DB	0ffH
	DB	0b8H
	DB	0bcH
	DB	0b8H
	DB	0ffH
	DB	0c0H
	DB	0c0H
	DB	0c0H
	DB	0ffH
	DB	0b8H
	DB	0c0H
	DB	0b8H
	DB	0ffH
	DB	0c0H
	DB	0bcH
	DB	0c0H
	DB	0ffH
	DB	0c0H
	DB	0bcH
	DB	0c0H
	DB	0ffH
	DB	0b8H
	DB	0c0H
	DB	0b8H
	DB	0ffH
	DB	0c0H
	DB	0bcH
	DB	0c0H
	DB	0ffH
	DB	0b8H
	DB	0c0H
	DB	0b8H
	DB	0ffH
	DB	0c0H
	DB	0bcH
	DB	0c0H
	DB	0ffH
	DB	0c0H
	DB	0bcH
	DB	0c0H
	DB	0ffH
	DB	0b8H
	DB	0c0H
	DB	0b8H
	DB	0ffH
	DB	0c0H
	DB	0bcH
	DB	0c0H
	DB	0ffH
	DB	0c0H
	DB	0bcH
	DB	0c0H
	DB	0ffH
	DB	0b8H
	DB	0c0H
	DB	0b8H
	DB	0ffH
	DB	0c0H
	DB	0bcH
	DB	0c0H
	DB	0ffH
	DB	0b8H
	DB	0bcH
	DB	0b8H
	DB	0ffH
	DB	0c0H
	DB	0c0H
	DB	0c0H
	DB	0ffH
	DB	0b8H
	DB	0bcH
	DB	0b8H
	DB	0ffH
	DB	0c0H
	DB	0bcH
	DB	0c0H
	DB	0ffH
	DB	0b8H
	DB	0bcH
	DB	0b8H
	DB	0ffH
	DB	0c0H
	DB	0c0H
	DB	0c0H
	DB	0ffH
	DB	0b8H
	DB	0bcH
	DB	0b8H
	DB	0ffH
	DB	0c0H
	DB	0bcH
	DB	0c0H
	DB	0ffH
	DB	0c0H
	DB	0bcH
	DB	0c0H
	DB	0ffH
	DB	0b8H
	DB	0c0H
	DB	0b8H
	DB	0ffH
	DB	0c0H
	DB	0bcH
	DB	0c0H
	DB	0ffH
	DB	0c0H
	DB	0bcH
	DB	0c0H
	DB	0ffH
	DB	0b8H
	DB	0bcH
	DB	0b8H
	DB	0ffH
	DB	0b8H
	DB	0bcH
	DB	0b8H
	DB	0ffH
	DB	0c0H
	DB	0bcH
	DB	0c0H
	DB	0ffH
	DB	0b8H
	DB	0bcH
	DB	0b8H
	DB	0ffH
	DB	0c0H
	DB	0c0H
	DB	0c0H
	DB	0ffH
	DB	0c0H
	DB	0bcH
	DB	0c0H
	DB	0ffH
	DB	0b8H
	DB	0bcH
	DB	0b8H
	DB	0ffH
	DB	0c0H
	DB	0bcH
	DB	0c0H
	DB	0ffH
	DB	0c0H
	DB	0bcH
	DB	0c0H
	DB	0ffH
	DB	0b8H
	DB	0bcH
	DB	0b8H
	DB	0ffH
	DB	0c0H
	DB	0bcH
	DB	0c0H
	DB	0ffH
	DB	0b8H
	DB	0c0H
	DB	0b8H
	DB	0ffH
	DB	0c0H
	DB	0bcH
	DB	0c0H
	DB	0ffH
	DB	0b8H
	DB	0bcH
	DB	0b8H
	DB	0ffH
	DB	0c0H
	DB	0bcH
	DB	0c0H
	DB	0ffH
	DB	0c0H
	DB	0bcH
	DB	0c0H
	DB	0ffH
	DB	0b8H
	DB	0c0H
	DB	0b8H
	DB	0ffH
	DB	0c0H
	DB	0bcH
	DB	0c0H
	DB	0ffH
	DB	0c0H
	DB	0bcH
	DB	0c0H
	DB	0ffH
	DB	0b8H
	DB	0c0H
	DB	0b8H
	DB	0ffH
	DB	0c0H
	DB	0bcH
	DB	0c0H
	DB	0ffH
	DB	0b8H
	DB	0bcH
	DB	0b8H
	DB	0ffH
	DB	0c0H
	DB	0bcH
	DB	0c0H
	DB	0ffH
	DB	0c0H
	DB	0bcH
	DB	0c0H
	DB	0ffH
	DB	0b8H
	DB	0c0H
	DB	0b8H
	DB	0ffH
	DB	0c0H
	DB	0bcH
	DB	0c0H
	DB	0ffH
	DB	0c0H
	DB	0bcH
	DB	0c0H
	DB	0ffH
	DB	0c0H
	DB	0bcH
	DB	0c0H
	DB	0ffH
	DB	0b8H
	DB	0bcH
	DB	0b8H
	DB	0ffH
	DB	0c0H
	DB	0bcH
	DB	0c0H
	DB	0ffH
	DB	0b8H
	DB	0c0H
	DB	0b8H
	DB	0ffH
	DB	0c0H
	DB	0bcH
	DB	0c0H
	DB	0ffH
	DB	0c0H
	DB	0bcH
	DB	0c0H
	DB	0ffH
	DB	0b8H
	DB	0c0H
	DB	0b8H
	DB	0ffH
	DB	0c0H
	DB	0bcH
	DB	0c0H
	DB	0ffH
	DB	0c0H
	DB	0bcH
	DB	0c0H
	DB	0ffH
	DB	0b8H
	DB	0c0H
	DB	0b8H
	DB	0ffH
	DB	0c0H
	DB	0bcH
	DB	0c0H
	DB	0ffH
	DB	0c0H
	DB	0bcH
	DB	0c0H
	DB	0ffH
	DB	0b8H
	DB	0bcH
	DB	0b8H
	DB	0ffH
	DB	0c0H
	DB	0c0H
	DB	0c0H
	DB	0ffH
	DB	0c0H
	DB	0bcH
	DB	0c0H
	DB	0ffH
	DB	0b8H
	DB	0bcH
	DB	0b8H
	DB	0ffH
	DB	0c0H
	DB	0bcH
	DB	0c0H
	DB	0ffH
	DB	0c0H
	DB	0bcH
	DB	0c0H
	DB	0ffH
	DB	0b8H
	DB	0bcH
	DB	0b8H
	DB	0ffH
	DB	0c0H
	DB	0bcH
	DB	0c0H
	DB	0ffH
	DB	0b8H
	DB	0bcH
	DB	0b8H
	DB	0ffH
	DB	0c0H
	DB	0bcH
	DB	0c0H
	DB	0ffH
	DB	0c0H
	DB	0bcH
	DB	0c0H
	DB	0ffH
	DB	0b8H
	DB	0bcH
	DB	0b8H
	DB	0ffH
	DB	0c0H
	DB	0c0H
	DB	0c0H
	DB	0ffH
	DB	0c0H
	DB	0bcH
	DB	0c0H
	DB	0ffH
	DB	0b8H
	DB	0bcH
	DB	0b8H
	DB	0ffH
	DB	0c0H
	DB	0bcH
	DB	0c0H
	DB	0ffH
	DB	0b8H
	DB	0c0H
	DB	0b8H
	DB	0ffH
	DB	0c0H
	DB	0bcH
	DB	0c0H
	DB	0ffH
	DB	0c0H
	DB	0bcH
	DB	0c0H
	DB	0ffH
	DB	0b8H
	DB	0bcH
	DB	0b8H
	DB	0ffH
	DB	0c0H
	DB	0bcH
	DB	0c0H
	DB	0ffH
	DB	0c0H
	DB	0c0H
	DB	0c0H
	DB	0ffH
	DB	0b8H
	DB	0bcH
	DB	0b8H
	DB	0ffH
	DB	0c0H
	DB	0bcH
	DB	0c0H
	DB	0ffH
	DB	0c0H
	DB	0bcH
	DB	0c0H
	DB	0ffH
	DB	0b8H
	DB	0bcH
	DB	0b8H
	DB	0ffH
	DB	0b8H
	DB	0bcH
	DB	0b8H
	DB	0ffH
	DB	0c0H
	DB	0c0H
	DB	0c0H
	DB	0ffH
	DB	0c0H
	DB	0bcH
	DB	0c0H
	DB	0ffH
	DB	0b8H
	DB	0bcH
	DB	0b8H
	DB	0ffH
	DB	0c0H
	DB	0c0H
	DB	0c0H
	DB	0ffH
	DB	0c0H
	DB	0bcH
	DB	0c0H
	DB	0ffH
	DB	0c0H
	DB	0bcH
	DB	0c0H
	DB	0ffH
	DB	0c0H
	DB	0bcH
	DB	0c0H
	DB	0ffH
	DB	0b8H
	DB	0bcH
	DB	0b8H
	DB	0ffH
	DB	0c0H
	DB	0c0H
	DB	0c0H
	DB	0ffH
	DB	0c0H
	DB	0bcH
	DB	0c0H
	DB	0ffH
	DB	0b8H
	DB	0bcH
	DB	0b8H
	DB	0ffH
	DB	0c0H
	DB	0c0H
	DB	0c0H
	DB	0ffH
	DB	0c0H
	DB	0bcH
	DB	0c0H
	DB	0ffH
	DB	0c0H
	DB	0bcH
	DB	0c0H
	DB	0ffH
	DB	0b8H
	DB	0bcH
	DB	0b8H
	DB	0ffH
	DB	0c0H
	DB	0bcH
	DB	0c0H
	DB	0ffH
	DB	0c0H
	DB	0bcH
	DB	0c0H
	DB	0ffH
	DB	0b8H
	DB	0c0H
	DB	0b8H
	DB	0ffH
	DB	0c0H
	DB	0bcH
	DB	0c0H
	DB	0ffH
	DB	0b8H
	DB	0bcH
	DB	0b8H
	DB	0ffH
	DB	0b8H
	DB	0bcH
	DB	0b8H
	DB	0ffH
	DB	0c0H
	DB	0c0H
	DB	0c0H
	DB	0ffH
	DB	0c0H
	DB	0bcH
	DB	0c0H
	DB	0ffH
	DB	0b8H
	DB	0bcH
	DB	0b8H
	DB	0ffH
	DB	0c0H
	DB	0bcH
	DB	0c0H
	DB	0ffH
	DB	0c0H
	DB	0c0H
	DB	0c0H
	DB	0ffH
	DB	0b8H
	DB	0bcH
	DB	0b8H
	DB	0ffH
	DB	0c0H
	DB	0bcH
	DB	0c0H
	DB	0ffH
	DB	0c0H
	DB	0bcH
	DB	0c0H
	DB	0ffH
	DB	0b8H
	DB	0bcH
	DB	0b8H
	DB	0ffH
	DB	0c0H
	DB	0c0H
	DB	0c0H
	DB	0ffH
	DB	0b8H
	DB	0bcH
	DB	0b8H
	DB	0ffH
	DB	0c0H
	DB	0bcH
	DB	0c0H
	DB	0ffH
	DB	0c0H
	DB	0c0H
	DB	0c0H
	DB	0ffH
	DB	0b8H
	DB	0bcH
	DB	0b8H
	DB	0ffH
	DB	0c0H
	DB	0bcH
	DB	0c0H
	DB	0ffH
	DB	0c0H
	DB	0bcH
	DB	0c0H
	DB	0ffH
	DB	0b8H
	DB	0bcH
	DB	0b8H
	DB	0ffH
	DB	0c0H
	DB	0bcH
	DB	0c0H
	DB	0ffH
	DB	0c0H
	DB	0bcH
	DB	0c0H
	DB	0ffH
	DB	0b8H
	DB	0bcH
	DB	0b8H
	DB	0ffH
	DB	0c0H
	DB	0bcH
	DB	0c0H
	DB	0ffH
	DB	0b8H
	DB	0bcH
	DB	0b8H
	DB	0ffH
	DB	0b8H
	DB	0bcH
	DB	0b8H
	DB	0ffH
	DB	0c0H
	DB	0c0H
	DB	0c0H
	DB	0ffH
	DB	0c0H
	DB	0bcH
	DB	0c0H
	DB	0ffH
	DB	0b8H
	DB	0c0H
	DB	0b8H
	DB	0ffH
	DB	0c0H
	DB	0bcH
	DB	0c0H
	DB	0ffH
	DB	0c0H
	DB	0bcH
	DB	0c0H
	DB	0ffH
	DB	0b8H
	DB	0c0H
	DB	0b8H
	DB	0ffH
	DB	0c0H
	DB	0bcH
	DB	0c0H
	DB	0ffH
	DB	0c0H
	DB	0c0H
	DB	0c0H
	DB	0ffH
	DB	0b8H
	DB	0bcH
	DB	0b8H
	DB	0ffH
	DB	0c0H
	DB	0bcH
	DB	0c0H
	DB	0ffH
	DB	0c0H
	DB	0bcH
	DB	0c0H
	DB	0ffH
	DB	0b8H
	DB	0bcH
	DB	0b8H
	DB	0ffH
	DB	0c0H
	DB	0bcH
	DB	0c0H
	DB	0ffH
	DB	0c0H
	DB	0bcH
	DB	0c0H
	DB	0ffH
	DB	0b8H
	DB	0c0H
	DB	0b8H
	DB	0ffH
	DB	0c0H
	DB	0bcH
	DB	0c0H
	DB	0ffH
	DB	0c0H
	DB	0bcH
	DB	0c0H
	DB	0ffH
	DB	0b8H
	DB	0c0H
	DB	0b8H
	DB	0ffH
	DB	0c0H
	DB	0bcH
	DB	0c0H
	DB	0ffH
	DB	0c0H
	DB	0bcH
	DB	0c0H
	DB	0ffH
	DB	0b8H
	DB	0bcH
	DB	0b8H
	DB	0ffH
	DB	0c0H
	DB	0c0H
	DB	0c0H
	DB	0ffH
	DB	0c0H
	DB	0bcH
	DB	0c0H
	DB	0ffH
	DB	0c0H
	DB	0bcH
	DB	0c0H
	DB	0ffH
	DB	0c0H
	DB	0c0H
	DB	0c0H
	DB	0ffH
	DB	0b8H
	DB	0bcH
	DB	0b8H
	DB	0ffH
	DB	0c0H
	DB	0bcH
	DB	0c0H
	DB	0ffH
	DB	0c0H
	DB	0bcH
	DB	0c0H
	DB	0ffH
	DB	0b8H
	DB	0bcH
	DB	0b8H
	DB	0ffH
	DB	0b8H
	DB	0c0H
	DB	0b8H
	DB	0ffH
	DB	0c0H
	DB	0bcH
	DB	0c0H
	DB	0ffH
	DB	0c0H
	DB	0bcH
	DB	0c0H
	DB	0ffH
	DB	0c0H
	DB	0bcH
	DB	0c0H
	DB	0ffH
	DB	0b8H
	DB	0bcH
	DB	0b8H
	DB	0ffH
	DB	0c0H
	DB	0bcH
	DB	0c0H
	DB	0ffH
	DB	0b8H
	DB	0bcH
	DB	0b8H
	DB	0ffH
	DB	0c0H
	DB	0c0H
	DB	0c0H
	DB	0ffH
	DB	0b8H
	DB	0bcH
	DB	0b8H
	DB	0ffH
	DB	0b8H
	DB	0c0H
	DB	0b8H
	DB	0ffH
	DB	0c0H
	DB	0bcH
	DB	0c0H
	DB	0ffH
	DB	0c0H
	DB	0c0H
	DB	0c0H
	DB	0ffH
	DB	0b8H
	DB	0bcH
	DB	0b8H
	DB	0ffH
	DB	0c0H
	DB	0bcH
	DB	0c0H
	DB	0ffH
	DB	0c0H
	DB	0c0H
	DB	0c0H
	DB	0ffH
	DB	0c0H
	DB	0bcH
	DB	0c0H
	DB	0ffH
	DB	0c0H
	DB	0bcH
	DB	0c0H
	DB	0ffH
	DB	0b8H
	DB	0bcH
	DB	0b8H
	DB	0ffH
	DB	0c0H
	DB	0bcH
	DB	0c0H
	DB	0ffH
	DB	0c0H
	DB	0c0H
	DB	0c0H
	DB	0ffH
	DB	0b8H
	DB	0bcH
	DB	0b8H
	DB	0ffH
	DB	0c0H
	DB	0bcH
	DB	0c0H
	DB	0ffH
	DB	0c0H
	DB	0bcH
	DB	0c0H
	DB	0ffH
	DB	0b8H
	DB	0c0H
	DB	0b8H
	DB	0ffH
	DB	0c0H
	DB	0bcH
	DB	0c0H
	DB	0ffH
	DB	0c0H
	DB	0bcH
	DB	0c0H
	DB	0ffH
	DB	0b8H
	DB	0c0H
	DB	0b8H
	DB	0ffH
	DB	0c0H
	DB	0bcH
	DB	0c0H
	DB	0ffH
	DB	0c0H
	DB	0bcH
	DB	0c0H
	DB	0ffH
	DB	0b8H
	DB	0c0H
	DB	0b8H
	DB	0ffH
	DB	0c0H
	DB	0bcH
	DB	0c0H
	DB	0ffH
	DB	0c0H
	DB	0bcH
	DB	0c0H
	DB	0ffH
	DB	0b8H
	DB	0c0H
	DB	0b8H
	DB	0ffH
	DB	0c0H
	DB	0bcH
	DB	0c0H
	DB	0ffH
	DB	0b8H
	DB	0c0H
	DB	0b8H
	DB	0ffH
	DB	0c0H
	DB	0c0H
	DB	0c0H
	DB	0ffH
	DB	0b8H
	DB	0bcH
	DB	0b8H
	DB	0ffH
	DB	0c0H
	DB	0bcH
	DB	0c0H
	DB	0ffH
	DB	0c0H
	DB	0c0H
	DB	0c0H
	DB	0ffH
	DB	0c0H
	DB	0bcH
	DB	0c0H
	DB	0ffH
	DB	0b8H
	DB	0bcH
	DB	0b8H
	DB	0ffH
	DB	0c0H
	DB	0bcH
	DB	0c0H
	DB	0ffH
	DB	0c0H
	DB	0bcH
	DB	0c0H
	DB	0ffH
	DB	0b8H
	DB	0c0H
	DB	0b8H
	DB	0ffH
	DB	0c0H
	DB	0bcH
	DB	0c0H
	DB	0ffH
	DB	0c0H
	DB	0bcH
	DB	0c0H
	DB	0ffH
	DB	0b8H
	DB	0c0H
	DB	0b8H
	DB	0ffH
	DB	0c0H
	DB	0bcH
	DB	0c0H
	DB	0ffH
	DB	0c0H
	DB	0bcH
	DB	0c0H
	DB	0ffH
	DB	0b8H
	DB	0c0H
	DB	0b8H
	DB	0ffH
	DB	0c0H
	DB	0bcH
	DB	0c0H
	DB	0ffH
	DB	0b8H
	DB	0c0H
	DB	0b8H
	DB	0ffH
	DB	0c0H
	DB	0bcH
	DB	0c0H
	DB	0ffH
	DB	0b8H
	DB	0bcH
	DB	0b8H
	DB	0ffH
	DB	0c0H
	DB	0c0H
	DB	0c0H
	DB	0ffH
	DB	0c0H
	DB	0bcH
	DB	0c0H
	DB	0ffH
	DB	0b8H
	DB	0bcH
	DB	0b8H
	DB	0ffH
	DB	0c0H
	DB	0bcH
	DB	0c0H
	DB	0ffH
	DB	0b8H
	DB	0bcH
	DB	0b8H
	DB	0ffH
	DB	0c0H
	DB	0c0H
	DB	0c0H
	DB	0ffH
	DB	0c0H
	DB	0bcH
	DB	0c0H
	DB	0ffH
	DB	0b8H
	DB	0bcH
	DB	0b8H
	DB	0ffH
	DB	0b8H
	DB	0bcH
	DB	0b8H
	DB	0ffH
	DB	0c0H
	DB	0c0H
	DB	0c0H
	DB	0ffH
	DB	0b8H
	DB	0bcH
	DB	0b8H
	DB	0ffH
	DB	0c0H
	DB	0bcH
	DB	0c0H
	DB	0ffH
	DB	0c0H
	DB	0c0H
	DB	0c0H
	DB	0ffH
	DB	0b8H
	DB	0bcH
	DB	0b8H
	DB	0ffH
	DB	0c0H
	DB	0bcH
	DB	0c0H
	DB	0ffH
	DB	0c0H
	DB	0bcH
	DB	0c0H
	DB	0ffH
	DB	0b8H
	DB	0bcH
	DB	0b8H
	DB	0ffH
	DB	0c0H
	DB	0bcH
	DB	0c0H
	DB	0ffH
	DB	0b8H
	DB	0bcH
	DB	0b8H
	DB	0ffH
	DB	0c0H
	DB	0bcH
	DB	0c0H
	DB	0ffH
	DB	0c0H
	DB	0bcH
	DB	0c0H
	DB	0ffH
	DB	0b8H
	DB	0c0H
	DB	0b8H
	DB	0ffH
	DB	0c0H
	DB	0bcH
	DB	0c0H
	DB	0ffH
	DB	0c0H
	DB	0bcH
	DB	0c0H
	DB	0ffH
	DB	0c0H
	DB	0bcH
	DB	0c0H
	DB	0ffH
	DB	0b8H
	DB	0bcH
	DB	0b8H
	DB	0ffH
	DB	0c0H
	DB	0bcH
	DB	0c0H
	DB	0ffH
	DB	0c0H
	DB	0c0H
	DB	0c0H
	DB	0ffH
	DB	0b8H
	DB	0bcH
	DB	0b8H
	DB	0ffH
	DB	0b8H
	DB	0bcH
	DB	0b8H
	DB	0ffH
	DB	0c0H
	DB	0bcH
	DB	0c0H
	DB	0ffH
	DB	0b8H
	DB	0c0H
	DB	0b8H
	DB	0ffH
	DB	0c0H
	DB	0bcH
	DB	0c0H
	DB	0ffH
	DB	0c0H
	DB	0bcH
	DB	0c0H
	DB	0ffH
	DB	0b8H
	DB	0c0H
	DB	0b8H
	DB	0ffH
	DB	0c0H
	DB	0bcH
	DB	0c0H
	DB	0ffH
	DB	0b8H
	DB	0bcH
	DB	0b8H
	DB	0ffH
	DB	0c0H
	DB	0bcH
	DB	0c0H
	DB	0ffH
	DB	0b8H
	DB	0c0H
	DB	0b8H
	DB	0ffH
	DB	0c0H
	DB	0bcH
	DB	0c0H
	DB	0ffH
	DB	0b8H
	DB	0bcH
	DB	0b8H
	DB	0ffH
	DB	0c0H
	DB	0c0H
	DB	0c0H
	DB	0ffH
	DB	0b8H
	DB	0bcH
	DB	0b8H
	DB	0ffH
	DB	0c0H
	DB	0bcH
	DB	0c0H
	DB	0ffH
	DB	0c0H
	DB	0bcH
	DB	0c0H
	DB	0ffH
	DB	0b8H
	DB	0bcH
	DB	0b8H
	DB	0ffH
	DB	0c0H
	DB	0bcH
	DB	0c0H
	DB	0ffH
	DB	0b8H
	DB	0bcH
	DB	0b8H
	DB	0ffH
	DB	0c0H
	DB	0bcH
	DB	0c0H
	DB	0ffH
	DB	0c0H
	DB	0bcH
	DB	0c0H
	DB	0ffH
	DB	0c0H
	DB	0bcH
	DB	0c0H
	DB	0ffH
	DB	0b8H
	DB	0bcH
	DB	0b8H
	DB	0ffH
	DB	0c0H
	DB	0bcH
	DB	0c0H
	DB	0ffH
	DB	0b8H
	DB	0c0H
	DB	0b8H
	DB	0ffH
	DB	0c0H
	DB	0bcH
	DB	0c0H
	DB	0ffH
	DB	0c0H
	DB	0c0H
	DB	0c0H
	DB	0ffH
	DB	0b8H
	DB	0bcH
	DB	0b8H
	DB	0ffH
	DB	0c0H
	DB	0bcH
	DB	0c0H
	DB	0ffH
	DB	0b8H
	DB	0bcH
	DB	0b8H
	DB	0ffH
	DB	0c0H
	DB	0bcH
	DB	0c0H
	DB	0ffH
	DB	0b8H
	DB	0bcH
	DB	0b8H
	DB	0ffH
	DB	0c0H
	DB	0bcH
	DB	0c0H
	DB	0ffH
	DB	0b8H
	DB	0bcH
	DB	0b8H
	DB	0ffH
	DB	0c0H
	DB	0bcH
	DB	0c0H
	DB	0ffH
	DB	0b8H
	DB	0bcH
	DB	0b8H
	DB	0ffH
	DB	0c0H
	DB	0bcH
	DB	0c0H
	DB	0ffH
	DB	0c0H
	DB	0bcH
	DB	0c0H
	DB	0ffH
	DB	0b8H
	DB	0c0H
	DB	0b8H
	DB	0ffH
	DB	0c0H
	DB	0bcH
	DB	0c0H
	DB	0ffH
	DB	0c0H
	DB	0bcH
	DB	0c0H
	DB	0ffH
	DB	0b8H
	DB	0bcH
	DB	0b8H
	DB	0ffH
	DB	0c0H
	DB	0bcH
	DB	0c0H
	DB	0ffH
	DB	0c0H
	DB	0c0H
	DB	0c0H
	DB	0ffH
	DB	0b8H
	DB	0bcH
	DB	0b8H
	DB	0ffH
	DB	0c0H
	DB	0bcH
	DB	0c0H
	DB	0ffH
	DB	0b8H
	DB	0bcH
	DB	0b8H
	DB	0ffH
	DB	0c0H
	DB	0c0H
	DB	0c0H
	DB	0ffH
	DB	0c0H
	DB	0bcH
	DB	0c0H
	DB	0ffH
	DB	0c0H
	DB	0bcH
	DB	0c0H
	DB	0ffH
	DB	0b8H
	DB	0bcH
	DB	0b8H
	DB	0ffH
	DB	0b8H
	DB	0bcH
	DB	0b8H
	DB	0ffH
	DB	0c0H
	DB	0bcH
	DB	0c0H
	DB	0ffH
	DB	0c0H
	DB	0c0H
	DB	0c0H
	DB	0ffH
	DB	0b8H
	DB	0bcH
	DB	0b8H
	DB	0ffH
	DB	0c0H
	DB	0c0H
	DB	0c0H
	DB	0ffH
	DB	0c0H
	DB	0c0H
	DB	0c0H
	DB	0ffH
	DB	0c0H
	DB	0bcH
	DB	0c0H
	DB	0ffH
	DB	0b8H
	DB	0bcH
	DB	0b8H
	DB	0ffH
	DB	0c0H
	DB	0c0H
	DB	0c0H
	DB	0ffH
	DB	0b8H
	DB	0bcH
	DB	0b8H
	DB	0ffH
	DB	0c0H
	DB	0bcH
	DB	0c0H
	DB	0ffH
	DB	0c0H
	DB	0c0H
	DB	0c0H
	DB	0ffH
	DB	0b8H
	DB	0bcH
	DB	0b8H
	DB	0ffH
	DB	0c0H
	DB	0bcH
	DB	0c0H
	DB	0ffH
	DB	0c0H
	DB	0c0H
	DB	0c0H
	DB	0ffH
	DB	0b8H
	DB	0bcH
	DB	0b8H
	DB	0ffH
	DB	0c0H
	DB	0bcH
	DB	0c0H
	DB	0ffH
	DB	0c0H
	DB	0bcH
	DB	0c0H
	DB	0ffH
	DB	0c0H
	DB	0bcH
	DB	0c0H
	DB	0ffH
	DB	0c0H
	DB	0bcH
	DB	0c0H
	DB	0ffH
	DB	0b8H
	DB	0c0H
	DB	0b8H
	DB	0ffH
	DB	0c0H
	DB	0bcH
	DB	0c0H
	DB	0ffH
	DB	0b8H
	DB	0bcH
	DB	0b8H
	DB	0ffH
	DB	0c0H
	DB	0c0H
	DB	0c0H
	DB	0ffH
	DB	0c0H
	DB	0bcH
	DB	0c0H
	DB	0ffH
	DB	0b8H
	DB	0bcH
	DB	0b8H
	DB	0ffH
	DB	0c0H
	DB	0bcH
	DB	0c0H
	DB	0ffH
	DB	0c0H
	DB	0c0H
	DB	0c0H
	DB	0ffH
	DB	0c0H
	DB	0bcH
	DB	0c0H
	DB	0ffH
	DB	0b8H
	DB	0bcH
	DB	0b8H
	DB	0ffH
	DB	0c0H
	DB	0bcH
	DB	0c0H
	DB	0ffH
	DB	0c0H
	DB	0bcH
	DB	0c0H
	DB	0ffH
	DB	0b8H
	DB	0bcH
	DB	0b8H
	DB	0ffH
	DB	0c0H
	DB	0c0H
	DB	0c0H
	DB	0ffH
	DB	0b8H
	DB	0bcH
	DB	0b8H
	DB	0ffH
	DB	0c0H
	DB	0bcH
	DB	0c0H
	DB	0ffH
	DB	0c0H
	DB	0c0H
	DB	0c0H
	DB	0ffH
	DB	0b8H
	DB	0bcH
	DB	0b8H
	DB	0ffH
	DB	0c0H
	DB	0bcH
	DB	0c0H
	DB	0ffH
	DB	0b8H
	DB	0c0H
	DB	0b8H
	DB	0ffH
	DB	0c0H
	DB	0bcH
	DB	0c0H
	DB	0ffH
	DB	0c0H
	DB	0bcH
	DB	0c0H
	DB	0ffH
	DB	0b8H
	DB	0c0H
	DB	0b8H
	DB	0ffH
	DB	0c0H
	DB	0bcH
	DB	0c0H
	DB	0ffH
	DB	0b8H
	DB	0bcH
	DB	0b8H
	DB	0ffH
	DB	0c0H
	DB	0bcH
	DB	0c0H
	DB	0ffH
	DB	0c0H
	DB	0c0H
	DB	0c0H
	DB	0ffH
	DB	0b8H
	DB	0bcH
	DB	0b8H
	DB	0ffH
	DB	0c0H
	DB	0c0H
	DB	0c0H
	DB	0ffH
	DB	0c0H
	DB	0bcH
	DB	0c0H
	DB	0ffH
	DB	0c0H
	DB	0c0H
	DB	0c0H
	DB	0ffH
	DB	0b8H
	DB	0bcH
	DB	0b8H
	DB	0ffH
	DB	0c0H
	DB	0c0H
	DB	0c0H
	DB	0ffH
	DB	0c0H
	DB	0bcH
	DB	0c0H
	DB	0ffH
	DB	0b8H
	DB	0c0H
	DB	0b8H
	DB	0ffH
	DB	0c0H
	DB	0bcH
	DB	0c0H
	DB	0ffH
	DB	0c0H
	DB	0bcH
	DB	0c0H
	DB	0ffH
	DB	0b8H
	DB	0bcH
	DB	0b8H
	DB	0ffH
	DB	0c0H
	DB	0c0H
	DB	0c0H
	DB	0ffH
	DB	0c0H
	DB	0bcH
	DB	0c0H
	DB	0ffH
	DB	0b8H
	DB	0bcH
	DB	0b8H
	DB	0ffH
	DB	0b8H
	DB	0c0H
	DB	0b8H
	DB	0ffH
	DB	0c0H
	DB	0bcH
	DB	0c0H
	DB	0ffH
	DB	0c0H
	DB	0bcH
	DB	0c0H
	DB	0ffH
	DB	0c0H
	DB	0c0H
	DB	0c0H
	DB	0ffH
	DB	0b8H
	DB	0bcH
	DB	0b8H
	DB	0ffH
	DB	0c0H
	DB	0bcH
	DB	0c0H
	DB	0ffH
	DB	0c0H
	DB	0c0H
	DB	0c0H
	DB	0ffH
	DB	0b8H
	DB	0bcH
	DB	0b8H
	DB	0ffH
	DB	0c0H
	DB	0c0H
	DB	0c0H
	DB	0ffH
	DB	0c0H
	DB	0bcH
	DB	0c0H
	DB	0ffH
	DB	0b8H
	DB	0bcH
	DB	0b8H
	DB	0ffH
	DB	0c0H
	DB	0bcH
	DB	0c0H
	DB	0ffH
	DB	0b8H
	DB	0bcH
	DB	0b8H
	DB	0ffH
	DB	0b8H
	DB	0bcH
	DB	0b8H
	DB	0ffH
	DB	0c0H
	DB	0bcH
	DB	0c0H
	DB	0ffH
	DB	0b8H
	DB	0bcH
	DB	0b8H
	DB	0ffH
	DB	0c0H
	DB	0bcH
	DB	0c0H
	DB	0ffH
	DB	0c0H
	DB	0bcH
	DB	0c0H
	DB	0ffH
	DB	0c0H
	DB	0bcH
	DB	0c0H
	DB	0ffH
	DB	0b8H
	DB	0bcH
	DB	0b8H
	DB	0ffH
	DB	0c0H
	DB	0bcH
	DB	0c0H
	DB	0ffH
	DB	0b8H
	DB	0bcH
	DB	0b8H
	DB	0ffH
	DB	0b8H
	DB	0bcH
	DB	0b8H
	DB	0ffH
	DB	0c0H
	DB	0c0H
	DB	0c0H
	DB	0ffH
	DB	0c0H
	DB	0bcH
	DB	0c0H
	DB	0ffH
	DB	0b8H
	DB	0bcH
	DB	0b8H
	DB	0ffH
	DB	0b8H
	DB	0c0H
	DB	0b8H
	DB	0ffH
	DB	0c0H
	DB	0bcH
	DB	0c0H
	DB	0ffH
	DB	0c0H
	DB	0bcH
	DB	0c0H
	DB	0ffH
	DB	0b8H
	DB	0c0H
	DB	0b8H
	DB	0ffH
	DB	0c0H
	DB	0bcH
	DB	0c0H
	DB	0ffH
	DB	0c0H
	DB	0bcH
	DB	0c0H
	DB	0ffH
	DB	0b8H
	DB	0bcH
	DB	0b8H
	DB	0ffH
	DB	0c0H
	DB	0bcH
	DB	0c0H
	DB	0ffH
	DB	0c0H
	DB	0c0H
	DB	0c0H
	DB	0ffH
	DB	0b8H
	DB	0bcH
	DB	0b8H
	DB	0ffH
	DB	0c0H
	DB	0bcH
	DB	0c0H
	DB	0ffH
	DB	0b8H
	DB	0bcH
	DB	0b8H
	DB	0ffH
	DB	0c0H
	DB	0c0H
	DB	0c0H
	DB	0ffH
	DB	0c0H
	DB	0bcH
	DB	0c0H
	DB	0ffH
	DB	0b8H
	DB	0bcH
	DB	0b8H
	DB	0ffH
	DB	0c0H
	DB	0c0H
	DB	0c0H
	DB	0ffH
	DB	0c0H
	DB	0bcH
	DB	0c0H
	DB	0ffH
	DB	0b8H
	DB	0bcH
	DB	0b8H
	DB	0ffH
	DB	0c0H
	DB	0c0H
	DB	0c0H
	DB	0ffH
	DB	0c0H
	DB	0bcH
	DB	0c0H
	DB	0ffH
	DB	0b8H
	DB	0bcH
	DB	0b8H
	DB	0ffH
	DB	0c0H
	DB	0c0H
	DB	0c0H
	DB	0ffH
	DB	0b8H
	DB	0bcH
	DB	0b8H
	DB	0ffH
	DB	0c0H
	DB	0bcH
	DB	0c0H
	DB	0ffH
	DB	0c0H
	DB	0c0H
	DB	0c0H
	DB	0ffH
	DB	0b8H
	DB	0bcH
	DB	0b8H
	DB	0ffH
	DB	0c0H
	DB	0bcH
	DB	0c0H
	DB	0ffH
	DB	0c0H
	DB	0bcH
	DB	0c0H
	DB	0ffH
	DB	0b8H
	DB	0bcH
	DB	0b8H
	DB	0ffH
	DB	0c0H
	DB	0bcH
	DB	0c0H
	DB	0ffH
	DB	0c0H
	DB	0c0H
	DB	0c0H
	DB	0ffH
	DB	0b8H
	DB	0bcH
	DB	0b8H
	DB	0ffH
	DB	0c0H
	DB	0bcH
	DB	0c0H
	DB	0ffH
	DB	0b8H
	DB	0bcH
	DB	0b8H
	DB	0ffH
	DB	0c0H
	DB	0c0H
	DB	0c0H
	DB	0ffH
	DB	0c0H
	DB	0bcH
	DB	0c0H
	DB	0ffH
	DB	0b8H
	DB	0bcH
	DB	0b8H
	DB	0ffH
	DB	0c0H
	DB	0bcH
	DB	0c0H
	DB	0ffH
	DB	0b8H
	DB	0c0H
	DB	0b8H
	DB	0ffH
	DB	0c0H
	DB	0bcH
	DB	0c0H
	DB	0ffH
	DB	0b8H
	DB	0bcH
	DB	0b8H
	DB	0ffH
	DB	0c0H
	DB	0bcH
	DB	0c0H
	DB	0ffH
	DB	0c0H
	DB	0c0H
	DB	0c0H
	DB	0ffH
	DB	0b8H
	DB	0bcH
	DB	0b8H
	DB	0ffH
	DB	0c0H
	DB	0bcH
	DB	0c0H
	DB	0ffH
	DB	0c0H
	DB	0bcH
	DB	0c0H
	DB	0ffH
	DB	0b8H
	DB	0bcH
	DB	0b8H
	DB	0ffH
	DB	0c0H
	DB	0c0H
	DB	0c0H
	DB	0ffH
	DB	0c0H
	DB	0bcH
	DB	0c0H
	DB	0ffH
	DB	0b8H
	DB	0bcH
	DB	0b8H
	DB	0ffH
	DB	0b8H
	DB	0bcH
	DB	0b8H
	DB	0ffH
	DB	0c0H
	DB	0bcH
	DB	0c0H
	DB	0ffH
	DB	0c0H
	DB	0bcH
	DB	0c0H
	DB	0ffH
	DB	0c0H
	DB	0c0H
	DB	0c0H
	DB	0ffH
	DB	0b8H
	DB	0bcH
	DB	0b8H
	DB	0ffH
	DB	0c0H
	DB	0bcH
	DB	0c0H
	DB	0ffH
	DB	0c0H
	DB	0c0H
	DB	0c0H
	DB	0ffH
	DB	0c0H
	DB	0bcH
	DB	0c0H
	DB	0ffH
	DB	0b8H
	DB	0bcH
	DB	0b8H
	DB	0ffH
	DB	0c0H
	DB	0c0H
	DB	0c0H
	DB	0ffH
	DB	0c0H
	DB	0bcH
	DB	0c0H
	DB	0ffH
	DB	0b8H
	DB	0bcH
	DB	0b8H
	DB	0ffH
	DB	0c0H
	DB	0bcH
	DB	0c0H
	DB	0ffH
	DB	0c0H
	DB	0bcH
	DB	0c0H
	DB	0ffH
	DB	0b8H
	DB	0c0H
	DB	0b8H
	DB	0ffH
	DB	0c0H
	DB	0bcH
	DB	0c0H
	DB	0ffH
	DB	0c0H
	DB	0bcH
	DB	0c0H
	DB	0ffH
	DB	0b8H
	DB	0bcH
	DB	0b8H
	DB	0ffH
	DB	0c0H
	DB	0bcH
	DB	0c0H
	DB	0ffH
	DB	0c0H
	DB	0c0H
	DB	0c0H
	DB	0ffH
	DB	0b8H
	DB	0bcH
	DB	0b8H
	DB	0ffH
	DB	0c0H
	DB	0bcH
	DB	0c0H
	DB	0ffH
	DB	0b8H
	DB	0bcH
	DB	0b8H
	DB	0ffH
	DB	0c0H
	DB	0bcH
	DB	0c0H
	DB	0ffH
	DB	0c0H
	DB	0bcH
	DB	0c0H
	DB	0ffH
	DB	0b8H
	DB	0c0H
	DB	0b8H
	DB	0ffH
	DB	0c0H
	DB	0bcH
	DB	0c0H
	DB	0ffH
	DB	0b8H
	DB	0bcH
	DB	0b8H
	DB	0ffH
	DB	0c0H
	DB	0bcH
	DB	0c0H
	DB	0ffH
	DB	0c0H
	DB	0c0H
	DB	0c0H
	DB	0ffH
	DB	0b8H
	DB	0bcH
	DB	0b8H
	DB	0ffH
	DB	0c0H
	DB	0bcH
	DB	0c0H
	DB	0ffH
	DB	0c0H
	DB	0c0H
	DB	0c0H
	DB	0ffH
	DB	0b8H
	DB	0bcH
	DB	0b8H
	DB	0ffH
	DB	0c0H
	DB	0bcH
	DB	0c0H
	DB	0ffH
	DB	0c0H
	DB	0bcH
	DB	0c0H
	DB	0ffH
	DB	0b8H
	DB	0bcH
	DB	0b8H
	DB	0ffH
	DB	0c0H
	DB	0bcH
	DB	0c0H
	DB	0ffH
	DB	0b8H
	DB	0bcH
	DB	0b8H
	DB	0ffH
	DB	0c0H
	DB	0bcH
	DB	0c0H
	DB	0ffH
	DB	0c0H
	DB	0bcH
	DB	0c0H
	DB	0ffH
	DB	0b8H
	DB	0c0H
	DB	0b8H
	DB	0ffH
	DB	0c0H
	DB	0bcH
	DB	0c0H
	DB	0ffH
	DB	0c0H
	DB	0bcH
	DB	0c0H
	DB	0ffH
	DB	0b8H
	DB	0bcH
	DB	0b8H
	DB	0ffH
	DB	0c0H
	DB	0bcH
	DB	0c0H
	DB	0ffH
	DB	0c0H
	DB	0c0H
	DB	0c0H
	DB	0ffH
	DB	0b8H
	DB	0bcH
	DB	0b8H
	DB	0ffH
	DB	0c0H
	DB	0bcH
	DB	0c0H
	DB	0ffH
	DB	0b8H
	DB	0bcH
	DB	0b8H
	DB	0ffH
	DB	0c0H
	DB	0bcH
	DB	0c0H
	DB	0ffH
	DB	0c0H
	DB	0bcH
	DB	0c0H
	DB	0ffH
	DB	0b8H
	DB	0bcH
	DB	0b8H
	DB	0ffH
	DB	0c0H
	DB	0bcH
	DB	0c0H
	DB	0ffH
	DB	0c0H
	DB	0bcH
	DB	0c0H
	DB	0ffH
	DB	0b8H
	DB	0bcH
	DB	0b8H
	DB	0ffH
	DB	0c0H
	DB	0bcH
	DB	0c0H
	DB	0ffH
	DB	0c0H
	DB	0bcH
	DB	0c0H
	DB	0ffH
	DB	0c0H
	DB	0bcH
	DB	0c0H
	DB	0ffH
	DB	0b8H
	DB	0c0H
	DB	0b8H
	DB	0ffH
	DB	0c0H
	DB	0bcH
	DB	0c0H
	DB	0ffH
	DB	0b8H
	DB	0bcH
	DB	0b8H
	DB	0ffH
	DB	0c0H
	DB	0bcH
	DB	0c0H
	DB	0ffH
	DB	0c0H
	DB	0c0H
	DB	0c0H
	DB	0ffH
	DB	0b8H
	DB	0bcH
	DB	0b8H
	DB	0ffH
	DB	0c0H
	DB	0bcH
	DB	0c0H
	DB	0ffH
	DB	0b8H
	DB	0c0H
	DB	0b8H
	DB	0ffH
	DB	0b8H
	DB	0bcH
	DB	0b8H
	DB	0ffH
	DB	0c0H
	DB	0bcH
	DB	0c0H
	DB	0ffH
	DB	0c0H
	DB	0bcH
	DB	0c0H
	DB	0ffH
	DB	0c0H
	DB	0c0H
	DB	0c0H
	DB	0ffH
	DB	0b8H
	DB	0bcH
	DB	0b8H
	DB	0ffH
	DB	0c0H
	DB	0bcH
	DB	0c0H
	DB	0ffH
	DB	0b8H
	DB	0bcH
	DB	0b8H
	DB	0ffH
	DB	0c0H
	DB	0c0H
	DB	0c0H
	DB	0ffH
	DB	0c0H
	DB	0bcH
	DB	0c0H
	DB	0ffH
	DB	0b8H
	DB	0bcH
	DB	0b8H
	DB	0ffH
	DB	0c0H
	DB	0c0H
	DB	0c0H
	DB	0ffH
	DB	0c0H
	DB	0bcH
	DB	0c0H
	DB	0ffH
	DB	0b8H
	DB	0bcH
	DB	0b8H
	DB	0ffH
	DB	0c0H
	DB	0c0H
	DB	0c0H
	DB	0ffH
	DB	0c0H
	DB	0bcH
	DB	0c0H
	DB	0ffH
	DB	0b8H
	DB	0bcH
	DB	0b8H
	DB	0ffH
	DB	0c0H
	DB	0bcH
	DB	0c0H
	DB	0ffH
	DB	0c0H
	DB	0c0H
	DB	0c0H
	DB	0ffH
	DB	0c0H
	DB	0bcH
	DB	0c0H
	DB	0ffH
	DB	0c0H
	DB	0bcH
	DB	0c0H
	DB	0ffH
	DB	0b8H
	DB	0c0H
	DB	0b8H
	DB	0ffH
	DB	0c0H
	DB	0bcH
	DB	0c0H
	DB	0ffH
	DB	0c0H
	DB	0bcH
	DB	0c0H
	DB	0ffH
	DB	0c0H
	DB	0bcH
	DB	0c0H
	DB	0ffH
	DB	0b8H
	DB	0c0H
	DB	0b8H
	DB	0ffH
	DB	0c0H
	DB	0c0H
	DB	0c0H
	DB	0ffH
	DB	0c0H
	DB	0bcH
	DB	0c0H
	DB	0ffH
	DB	0b8H
	DB	0bcH
	DB	0b8H
	DB	0ffH
	DB	0c0H
	DB	0bcH
	DB	0c0H
	DB	0ffH
	DB	0c0H
	DB	0c0H
	DB	0c0H
	DB	0ffH
	DB	0b8H
	DB	0bcH
	DB	0b8H
	DB	0ffH
	DB	0c0H
	DB	0bcH
	DB	0c0H
	DB	0ffH
	DB	0c0H
	DB	0bcH
	DB	0c0H
	DB	0ffH
	DB	0b8H
	DB	0bcH
	DB	0b8H
	DB	0ffH
	DB	0c0H
	DB	0bcH
	DB	0c0H
	DB	0ffH
	DB	0b8H
	DB	0bcH
	DB	0b8H
	DB	0ffH
	DB	0c0H
	DB	0c0H
	DB	0c0H
	DB	0ffH
	DB	0b8H
	DB	0bcH
	DB	0b8H
	DB	0ffH
	DB	0c0H
	DB	0bcH
	DB	0c0H
	DB	0ffH
	DB	0c0H
	DB	0c0H
	DB	0c0H
	DB	0ffH
	DB	0b8H
	DB	0c0H
	DB	0b8H
	DB	0ffH
	DB	0c0H
	DB	0bcH
	DB	0c0H
	DB	0ffH
	DB	0c0H
	DB	0bcH
	DB	0c0H
	DB	0ffH
	DB	0b8H
	DB	0c0H
	DB	0b8H
	DB	0ffH
	DB	0c0H
	DB	0bcH
	DB	0c0H
	DB	0ffH
	DB	0c0H
	DB	0bcH
	DB	0c0H
	DB	0ffH
	DB	0b8H
	DB	0c0H
	DB	0b8H
	DB	0ffH
	DB	0b8H
	DB	0bcH
	DB	0b8H
	DB	0ffH
	DB	0c0H
	DB	0bcH
	DB	0c0H
	DB	0ffH
	DB	0c0H
	DB	0c0H
	DB	0c0H
	DB	0ffH
	DB	0b8H
	DB	0bcH
	DB	0b8H
	DB	0ffH
	DB	0c0H
	DB	0c0H
	DB	0c0H
	DB	0ffH
	DB	0c0H
	DB	0c0H
	DB	0c0H
	DB	0ffH
	DB	0b8H
	DB	0bcH
	DB	0b8H
	DB	0ffH
	DB	0c0H
	DB	0c0H
	DB	0c0H
	DB	0ffH
	DB	0b8H
	DB	0c0H
	DB	0b8H
	DB	0ffH
	DB	0c0H
	DB	0bcH
	DB	0c0H
	DB	0ffH
	DB	0b8H
	DB	0bcH
	DB	0b8H
	DB	0ffH
	DB	0c0H
	DB	0c0H
	DB	0c0H
	DB	0ffH
	DB	0b8H
	DB	0c0H
	DB	0b8H
	DB	0ffH
	DB	0c0H
	DB	0bcH
	DB	0c0H
	DB	0ffH
	DB	0b8H
	DB	0bcH
	DB	0b8H
	DB	0ffH
	DB	0c0H
	DB	0bcH
	DB	0c0H
	DB	0ffH
	DB	0c0H
	DB	0c0H
	DB	0c0H
	DB	0ffH
	DB	0b8H
	DB	0bcH
	DB	0b8H
	DB	0ffH
	DB	0c0H
	DB	0bcH
	DB	0c0H
	DB	0ffH
	DB	0c0H
	DB	0bcH
	DB	0c0H
	DB	0ffH
	DB	0b8H
	DB	0c0H
	DB	0b8H
	DB	0ffH
	DB	0c0H
	DB	0bcH
	DB	0c0H
	DB	0ffH
	DB	0c0H
	DB	0bcH
	DB	0c0H
	DB	0ffH
	DB	0c0H
	DB	0bcH
	DB	0c0H
	DB	0ffH
	DB	0b8H
	DB	0bcH
	DB	0b8H
	DB	0ffH
	DB	0c0H
	DB	0c0H
	DB	0c0H
	DB	0ffH
	DB	0c0H
	DB	0bcH
	DB	0c0H
	DB	0ffH
	DB	0b8H
	DB	0bcH
	DB	0b8H
	DB	0ffH
	DB	0c0H
	DB	0c0H
	DB	0c0H
	DB	0ffH
	DB	0c0H
	DB	0bcH
	DB	0c0H
	DB	0ffH
	DB	0b8H
	DB	0bcH
	DB	0b8H
	DB	0ffH
	DB	0c0H
	DB	0bcH
	DB	0c0H
	DB	0ffH
	DB	0b8H
	DB	0bcH
	DB	0b8H
	DB	0ffH
	DB	0c0H
	DB	0bcH
	DB	0c0H
	DB	0ffH
	DB	0c0H
	DB	0bcH
	DB	0c0H
	DB	0ffH
	DB	0b8H
	DB	0bcH
	DB	0b8H
	DB	0ffH
	DB	0b8H
	DB	0bcH
	DB	0b8H
	DB	0ffH
	DB	0c0H
	DB	0bcH
	DB	0c0H
	DB	0ffH
	DB	0c0H
	DB	0bcH
	DB	0c0H
	DB	0ffH
	DB	0b8H
	DB	0bcH
	DB	0b8H
	DB	0ffH
	DB	0b8H
	DB	0bcH
	DB	0b8H
	DB	0ffH
	DB	0c0H
	DB	0bcH
	DB	0c0H
	DB	0ffH
	DB	0b8H
	DB	0c0H
	DB	0b8H
	DB	0ffH
	DB	0c0H
	DB	0bcH
	DB	0c0H
	DB	0ffH
	DB	0b8H
	DB	0bcH
	DB	0b8H
	DB	0ffH
	DB	0b8H
	DB	0bcH
	DB	0b8H
	DB	0ffH
	DB	0c0H
	DB	0bcH
	DB	0c0H
	DB	0ffH
	DB	0c0H
	DB	0bcH
	DB	0c0H
	DB	0ffH
	DB	0b8H
	DB	0bcH
	DB	0b8H
	DB	0ffH
	DB	0c0H
	DB	0c0H
	DB	0c0H
	DB	0ffH
	DB	0b8H
	DB	0bcH
	DB	0b8H
	DB	0ffH
	DB	0c0H
	DB	0bcH
	DB	0c0H
	DB	0ffH
	DB	0c0H
	DB	0bcH
	DB	0c0H
	DB	0ffH
	DB	0b8H
	DB	0c0H
	DB	0b8H
	DB	0ffH
	DB	0c0H
	DB	0bcH
	DB	0c0H
	DB	0ffH
	DB	0b8H
	DB	0c0H
	DB	0b8H
	DB	0ffH
	DB	0c0H
	DB	0bcH
	DB	0c0H
	DB	0ffH
	DB	0c0H
	DB	0bcH
	DB	0c0H
	DB	0ffH
	DB	0b8H
	DB	0c0H
	DB	0b8H
	DB	0ffH
	DB	0c0H
	DB	0bcH
	DB	0c0H
	DB	0ffH
	DB	0c0H
	DB	0bcH
	DB	0c0H
	DB	0ffH
	DB	0b8H
	DB	0bcH
	DB	0b8H
	DB	0ffH
	DB	0c0H
	DB	0bcH
	DB	0c0H
	DB	0ffH
	DB	0c0H
	DB	0bcH
	DB	0c0H
	DB	0ffH
	DB	0b8H
	DB	0c0H
	DB	0b8H
	DB	0ffH
	DB	0c0H
	DB	0bcH
	DB	0c0H
	DB	0ffH
	DB	0b8H
	DB	0bcH
	DB	0b8H
	DB	0ffH
	DB	0c0H
	DB	0bcH
	DB	0c0H
	DB	0ffH
	DB	0c0H
	DB	0bcH
	DB	0c0H
	DB	0ffH
	DB	0b8H
	DB	0bcH
	DB	0b8H
	DB	0ffH
	DB	0c0H
	DB	0bcH
	DB	0c0H
	DB	0ffH
	DB	0c0H
	DB	0bcH
	DB	0c0H
	DB	0ffH
	DB	0b8H
	DB	0bcH
	DB	0b8H
	DB	0ffH
	DB	0c0H
	DB	0bcH
	DB	0c0H
	DB	0ffH
	DB	0c0H
	DB	0bcH
	DB	0c0H
	DB	0ffH
	DB	0b8H
	DB	0bcH
	DB	0b8H
	DB	0ffH
	DB	0c0H
	DB	0bcH
	DB	0c0H
	DB	0ffH
	DB	0c0H
	DB	0bcH
	DB	0c0H
	DB	0ffH
	DB	0c0H
	DB	0bcH
	DB	0c0H
	DB	0ffH
	DB	0b8H
	DB	0bcH
	DB	0b8H
	DB	0ffH
	DB	0c0H
	DB	0c0H
	DB	0c0H
	DB	0ffH
	DB	0c0H
	DB	0bcH
	DB	0c0H
	DB	0ffH
	DB	0b8H
	DB	0bcH
	DB	0b8H
	DB	0ffH
	DB	0c0H
	DB	0c0H
	DB	0c0H
	DB	0ffH
	DB	0c0H
	DB	0bcH
	DB	0c0H
	DB	0ffH
	DB	0b8H
	DB	0bcH
	DB	0b8H
	DB	0ffH
	DB	0c0H
	DB	0bcH
	DB	0c0H
	DB	0ffH
	DB	0c0H
	DB	0c0H
	DB	0c0H
	DB	0ffH
	DB	0b8H
	DB	0bcH
	DB	0b8H
	DB	0ffH
	DB	0c0H
	DB	0bcH
	DB	0c0H
	DB	0ffH
	DB	0c0H
	DB	0bcH
	DB	0c0H
	DB	0ffH
	DB	0b8H
	DB	0bcH
	DB	0b8H
	DB	0ffH
	DB	0c0H
	DB	0c0H
	DB	0c0H
	DB	0ffH
	DB	0c0H
	DB	0bcH
	DB	0c0H
	DB	0ffH
	DB	0b8H
	DB	0bcH
	DB	0b8H
	DB	0ffH
	DB	0b8H
	DB	0bcH
	DB	0b8H
	DB	0ffH
	DB	0c0H
	DB	0bcH
	DB	0c0H
	DB	0ffH
	DB	0c0H
	DB	0bcH
	DB	0c0H
	DB	0ffH
	DB	0b8H
	DB	0c0H
	DB	0b8H
	DB	0ffH
	DB	0c0H
	DB	0bcH
	DB	0c0H
	DB	0ffH
	DB	0c0H
	DB	0bcH
	DB	0c0H
	DB	0ffH
	DB	0b8H
	DB	0c0H
	DB	0b8H
	DB	0ffH
	DB	0c0H
	DB	0bcH
	DB	0c0H
	DB	0ffH
	DB	0b8H
	DB	0c0H
	DB	0b8H
	DB	0ffH
	DB	0c0H
	DB	0bcH
	DB	0c0H
	DB	0ffH
	DB	0c0H
	DB	0c0H
	DB	0c0H
	DB	0ffH
	DB	0b8H
	DB	0bcH
	DB	0b8H
	DB	0ffH
	DB	0c0H
	DB	0bcH
	DB	0c0H
	DB	0ffH
	DB	0c0H
	DB	0bcH
	DB	0c0H
	DB	0ffH
	DB	0c0H
	DB	0bcH
	DB	0c0H
	DB	0ffH
	DB	0b8H
	DB	0c0H
	DB	0b8H
	DB	0ffH
	DB	0c0H
	DB	0bcH
	DB	0c0H
	DB	0ffH
	DB	0c0H
	DB	0bcH
	DB	0c0H
	DB	0ffH
	DB	0c0H
	DB	0bcH
	DB	0c0H
	DB	0ffH
	DB	0c0H
	DB	0c0H
	DB	0c0H
	DB	0ffH
	DB	0b8H
	DB	0c0H
	DB	0b8H
	DB	0ffH
	DB	0c0H
	DB	0bcH
	DB	0c0H
	DB	0ffH
	DB	0c0H
	DB	0bcH
	DB	0c0H
	DB	0ffH
	DB	0b8H
	DB	0bcH
	DB	0b8H
	DB	0ffH
	DB	0c0H
	DB	0bcH
	DB	0c0H
	DB	0ffH
	DB	0c0H
	DB	0c0H
	DB	0c0H
	DB	0ffH
	DB	0b8H
	DB	0bcH
	DB	0b8H
	DB	0ffH
	DB	0c0H
	DB	0bcH
	DB	0c0H
	DB	0ffH
	DB	0c0H
	DB	0bcH
	DB	0c0H
	DB	0ffH
	DB	0b8H
	DB	0bcH
	DB	0b8H
	DB	0ffH
	DB	0c0H
	DB	0c0H
	DB	0c0H
	DB	0ffH
	DB	0c0H
	DB	0bcH
	DB	0c0H
	DB	0ffH
	DB	0b8H
	DB	0bcH
	DB	0b8H
	DB	0ffH
	DB	0c0H
	DB	0bcH
	DB	0c0H
	DB	0ffH
	DB	0c0H
	DB	0bcH
	DB	0c0H
	DB	0ffH
	DB	0b8H
	DB	0c0H
	DB	0b8H
	DB	0ffH
	DB	0b8H
	DB	0bcH
	DB	0b8H
	DB	0ffH
	DB	0c0H
	DB	0bcH
	DB	0c0H
	DB	0ffH
	DB	0c0H
	DB	0bcH
	DB	0c0H
	DB	0ffH
	DB	0b8H
	DB	0bcH
	DB	0b8H
	DB	0ffH
	DB	0c0H
	DB	0c0H
	DB	0c0H
	DB	0ffH
	DB	0c0H
	DB	0bcH
	DB	0c0H
	DB	0ffH
	DB	0b8H
	DB	0bcH
	DB	0b8H
	DB	0ffH
	DB	0c0H
	DB	0c0H
	DB	0c0H
	DB	0ffH
	DB	0c0H
	DB	0bcH
	DB	0c0H
	DB	0ffH
	DB	0b8H
	DB	0c0H
	DB	0b8H
	DB	0ffH
	DB	0c0H
	DB	0bcH
	DB	0c0H
	DB	0ffH
	DB	0b8H
	DB	0bcH
	DB	0b8H
	DB	0ffH
	DB	0c0H
	DB	0c0H
	DB	0c0H
	DB	0ffH
	DB	0b8H
	DB	0bcH
	DB	0b8H
	DB	0ffH
	DB	0c0H
	DB	0bcH
	DB	0c0H
	DB	0ffH
	DB	0b8H
	DB	0bcH
	DB	0b8H
	DB	0ffH
	DB	0c0H
	DB	0bcH
	DB	0c0H
	DB	0ffH
	DB	0b8H
	DB	0bcH
	DB	0b8H
	DB	0ffH
	DB	0c0H
	DB	0c0H
	DB	0c0H
	DB	0ffH
	DB	0c0H
	DB	0bcH
	DB	0c0H
	DB	0ffH
	DB	0b8H
	DB	0bcH
	DB	0b8H
	DB	0ffH
	DB	0c0H
	DB	0bcH
	DB	0c0H
	DB	0ffH
	DB	0c0H
	DB	0bcH
	DB	0c0H
	DB	0ffH
	DB	0b8H
	DB	0c0H
	DB	0b8H
	DB	0ffH
	DB	0c0H
	DB	0bcH
	DB	0c0H
	DB	0ffH
	DB	0c0H
	DB	0bcH
	DB	0c0H
	DB	0ffH
	DB	0b8H
	DB	0bcH
	DB	0b8H
	DB	0ffH
	DB	0b8H
	DB	0c0H
	DB	0b8H
	DB	0ffH
	DB	0c0H
	DB	0bcH
	DB	0c0H
	DB	0ffH
	DB	0c0H
	DB	0bcH
	DB	0c0H
	DB	0ffH
	DB	0b8H
	DB	0c0H
	DB	0b8H
	DB	0ffH
	DB	0b8H
	DB	0bcH
	DB	0b8H
	DB	0ffH
	DB	0c0H
	DB	0bcH
	DB	0c0H
	DB	0ffH
	DB	0c0H
	DB	0c0H
	DB	0c0H
	DB	0ffH
	DB	0b8H
	DB	0bcH
	DB	0b8H
	DB	0ffH
	DB	0c0H
	DB	0bcH
	DB	0c0H
	DB	0ffH
	DB	0c0H
	DB	0c0H
	DB	0c0H
	DB	0ffH
	DB	0b8H
	DB	0bcH
	DB	0b8H
	DB	0ffH
	DB	0c0H
	DB	0bcH
	DB	0c0H
	DB	0ffH
	DB	0c0H
	DB	0bcH
	DB	0c0H
	DB	0ffH
	DB	0b8H
	DB	0c0H
	DB	0b8H
	DB	0ffH
	DB	0c0H
	DB	0bcH
	DB	0c0H
	DB	0ffH
	DB	0c0H
	DB	0bcH
	DB	0c0H
	DB	0ffH
	DB	0b8H
	DB	0bcH
	DB	0b8H
	DB	0ffH
	DB	0c0H
	DB	0bcH
	DB	0c0H
	DB	0ffH
	DB	0c0H
	DB	0c0H
	DB	0c0H
	DB	0ffH
	DB	0b8H
	DB	0bcH
	DB	0b8H
	DB	0ffH
	DB	0c0H
	DB	0bcH
	DB	0c0H
	DB	0ffH
	DB	0b8H
	DB	0bcH
	DB	0b8H
	DB	0ffH
	DB	0c0H
	DB	0c0H
	DB	0c0H
	DB	0ffH
	DB	0c0H
	DB	0bcH
	DB	0c0H
	DB	0ffH
	DB	0b8H
	DB	0bcH
	DB	0b8H
	DB	0ffH
	DB	0b8H
	DB	0bcH
	DB	0b8H
	DB	0ffH
	DB	0c0H
	DB	0bcH
	DB	0c0H
	DB	0ffH
	DB	0c0H
	DB	0bcH
	DB	0c0H
	DB	0ffH
	DB	0b8H
	DB	0c0H
	DB	0b8H
	DB	0ffH
	DB	0c0H
	DB	0bcH
	DB	0c0H
	DB	0ffH
	DB	0b8H
	DB	0bcH
	DB	0b8H
	DB	0ffH
	DB	0c0H
	DB	0bcH
	DB	0c0H
	DB	0ffH
	DB	0c0H
	DB	0bcH
	DB	0c0H
	DB	0ffH
	DB	0b8H
	DB	0c0H
	DB	0b8H
	DB	0ffH
	DB	0b8H
	DB	0bcH
	DB	0b8H
	DB	0ffH
	DB	0c0H
	DB	0bcH
	DB	0c0H
	DB	0ffH
	DB	0c0H
	DB	0bcH
	DB	0c0H
	DB	0ffH
	DB	0b8H
	DB	0bcH
	DB	0b8H
	DB	0ffH
	DB	0c0H
	DB	0c0H
	DB	0c0H
	DB	0ffH
	DB	0b8H
	DB	0bcH
	DB	0b8H
	DB	0ffH
	DB	0c0H
	DB	0bcH
	DB	0c0H
	DB	0ffH
	DB	0c0H
	DB	0c0H
	DB	0c0H
	DB	0ffH
	DB	0b8H
	DB	0bcH
	DB	0b8H
	DB	0ffH
	DB	0c0H
	DB	0c0H
	DB	0c0H
	DB	0ffH
	DB	0c0H
	DB	0bcH
	DB	0c0H
	DB	0ffH
	DB	0b8H
	DB	0bcH
	DB	0b8H
	DB	0ffH
	DB	0c0H
	DB	0c0H
	DB	0c0H
	DB	0ffH
	DB	0c0H
	DB	0bcH
	DB	0c0H
	DB	0ffH
	DB	0b8H
	DB	0bcH
	DB	0b8H
	DB	0ffH
	DB	0b8H
	DB	0c0H
	DB	0b8H
	DB	0ffH
	DB	0c0H
	DB	0bcH
	DB	0c0H
	DB	0ffH
	DB	0c0H
	DB	0bcH
	DB	0c0H
	DB	0ffH
	DB	0b8H
	DB	0c0H
	DB	0b8H
	DB	0ffH
	DB	0c0H
	DB	0bcH
	DB	0c0H
	DB	0ffH
	DB	0c0H
	DB	0bcH
	DB	0c0H
	DB	0ffH
	DB	0b8H
	DB	0c0H
	DB	0b8H
	DB	0ffH
	DB	0c0H
	DB	0bcH
	DB	0c0H
	DB	0ffH
	DB	0c0H
	DB	0c0H
	DB	0c0H
	DB	0ffH
	DB	0b8H
	DB	0c0H
	DB	0b8H
	DB	0ffH
	DB	0c0H
	DB	0bcH
	DB	0c0H
	DB	0ffH
	DB	0c0H
	DB	0bcH
	DB	0c0H
	DB	0ffH
	DB	0b8H
	DB	0bcH
	DB	0b8H
	DB	0ffH
	DB	0c0H
	DB	0bcH
	DB	0c0H
	DB	0ffH
	DB	0b8H
	DB	0bcH
	DB	0b8H
	DB	0ffH
	DB	0c0H
	DB	0c0H
	DB	0c0H
	DB	0ffH
	DB	0b8H
	DB	0bcH
	DB	0b8H
	DB	0ffH
	DB	0c0H
	DB	0bcH
	DB	0c0H
	DB	0ffH
	DB	0b8H
	DB	0c0H
	DB	0b8H
	DB	0ffH
	DB	0c0H
	DB	0bcH
	DB	0c0H
	DB	0ffH
	DB	0c0H
	DB	0bcH
	DB	0c0H
	DB	0ffH
	DB	0b8H
	DB	0bcH
	DB	0b8H
	DB	0ffH
	DB	0c0H
	DB	0c0H
	DB	0c0H
	DB	0ffH
	DB	0c0H
	DB	0bcH
	DB	0c0H
	DB	0ffH
	DB	0b8H
	DB	0bcH
	DB	0b8H
	DB	0ffH
	DB	0c0H
	DB	0bcH
	DB	0c0H
	DB	0ffH
	DB	0c0H
	DB	0bcH
	DB	0c0H
	DB	0ffH
	DB	0c0H
	DB	0c0H
	DB	0c0H
	DB	0ffH
	DB	0b8H
	DB	0bcH
	DB	0b8H
	DB	0ffH
	DB	0c0H
	DB	0bcH
	DB	0c0H
	DB	0ffH
	DB	0b8H
	DB	0bcH
	DB	0b8H
	DB	0ffH
	DB	0c0H
	DB	0bcH
	DB	0c0H
	DB	0ffH
	DB	0b8H
	DB	0bcH
	DB	0b8H
	DB	0ffH
	DB	0c0H
	DB	0c0H
	DB	0c0H
	DB	0ffH
	DB	0c0H
	DB	0bcH
	DB	0c0H
	DB	0ffH
	DB	0b8H
	DB	0bcH
	DB	0b8H
	DB	0ffH
	DB	0c0H
	DB	0bcH
	DB	0c0H
	DB	0ffH
	DB	0c0H
	DB	0c0H
	DB	0c0H
	DB	0ffH
	DB	0b8H
	DB	0bcH
	DB	0b8H
	DB	0ffH
	DB	0c0H
	DB	0bcH
	DB	0c0H
	DB	0ffH
	DB	0c0H
	DB	0bcH
	DB	0c0H
	DB	0ffH
	DB	0b8H
	DB	0bcH
	DB	0b8H
	DB	0ffH
	DB	0c0H
	DB	0bcH
	DB	0c0H
	DB	0ffH
	DB	0c0H
	DB	0bcH
	DB	0c0H
	DB	0ffH
	DB	0b8H
	DB	0c0H
	DB	0b8H
	DB	0ffH
	DB	0c0H
	DB	0bcH
	DB	0c0H
	DB	0ffH
	DB	0c0H
	DB	0c0H
	DB	0c0H
	DB	0ffH
	DB	0b8H
	DB	0bcH
	DB	0b8H
	DB	0ffH
	DB	0c0H
	DB	0bcH
	DB	0c0H
	DB	0ffH
	DB	0c0H
	DB	0bcH
	DB	0c0H
	DB	0ffH
	DB	0b8H
	DB	0c0H
	DB	0b8H
	DB	0ffH
	DB	0c0H
	DB	0c0H
	DB	0c0H
	DB	0ffH
	DB	0b8H
	DB	0bcH
	DB	0b8H
	DB	0ffH
	DB	0c0H
	DB	0bcH
	DB	0c0H
	DB	0ffH
	DB	0c0H
	DB	0bcH
	DB	0c0H
	DB	0ffH
	DB	0b8H
	DB	0c0H
	DB	0b8H
	DB	0ffH
	DB	0c0H
	DB	0bcH
	DB	0c0H
	DB	0ffH
	DB	0c0H
	DB	0c0H
	DB	0c0H
	DB	0ffH
	DB	0b8H
	DB	0bcH
	DB	0b8H
	DB	0ffH
	DB	0c0H
	DB	0bcH
	DB	0c0H
	DB	0ffH
	DB	0c0H
	DB	0c0H
	DB	0c0H
	DB	0ffH
	DB	0b8H
	DB	0bcH
	DB	0b8H
	DB	0ffH
	DB	0c0H
	DB	0bcH
	DB	0c0H
	DB	0ffH
	DB	0c0H
	DB	0bcH
	DB	0c0H
	DB	0ffH
	DB	0b8H
	DB	0bcH
	DB	0b8H
	DB	0ffH
	DB	0c0H
	DB	0c0H
	DB	0c0H
	DB	0ffH
	DB	0b8H
	DB	0bcH
	DB	0b8H
	DB	0ffH
	DB	0c0H
	DB	0bcH
	DB	0c0H
	DB	0ffH
	DB	0c0H
	DB	0bcH
	DB	0c0H
	DB	0ffH
	DB	0b8H
	DB	0bcH
	DB	0b8H
	DB	0ffH
	DB	0c0H
	DB	0bcH
	DB	0c0H
	DB	0ffH
	DB	0c0H
	DB	0bcH
	DB	0c0H
	DB	0ffH
	DB	0b8H
	DB	0bcH
	DB	0b8H
	DB	0ffH
	DB	0c0H
	DB	0bcH
	DB	0c0H
	DB	0ffH
	DB	0c0H
	DB	0bcH
	DB	0c0H
	DB	0ffH
	DB	0b8H
	DB	0bcH
	DB	0b8H
	DB	0ffH
	DB	0c0H
	DB	0bcH
	DB	0c0H
	DB	0ffH
	DB	0c0H
	DB	0bcH
	DB	0c0H
	DB	0ffH
	DB	0b8H
	DB	0bcH
	DB	0b8H
	DB	0ffH
	DB	0c0H
	DB	0bcH
	DB	0c0H
	DB	0ffH
	DB	0c0H
	DB	0c0H
	DB	0c0H
	DB	0ffH
	DB	0b8H
	DB	0bcH
	DB	0b8H
	DB	0ffH
	DB	0c0H
	DB	0c0H
	DB	0c0H
	DB	0ffH
	DB	0c0H
	DB	0bcH
	DB	0c0H
	DB	0ffH
	DB	0c0H
	DB	0bcH
	DB	0c0H
	DB	0ffH
	DB	0b8H
	DB	0bcH
	DB	0b8H
	DB	0ffH
	DB	0c0H
	DB	0bcH
	DB	0c0H
	DB	0ffH
	DB	0c0H
	DB	0bcH
	DB	0c0H
	DB	0ffH
	DB	0b8H
	DB	0bcH
	DB	0b8H
	DB	0ffH
	DB	0c0H
	DB	0c0H
	DB	0c0H
	DB	0ffH
	DB	0c0H
	DB	0bcH
	DB	0c0H
	DB	0ffH
	DB	0b8H
	DB	0bcH
	DB	0b8H
	DB	0ffH
	DB	0c0H
	DB	0bcH
	DB	0c0H
	DB	0ffH
	DB	0c0H
	DB	0c0H
	DB	0c0H
	DB	0ffH
	DB	0b8H
	DB	0bcH
	DB	0b8H
	DB	0ffH
	DB	0c0H
	DB	0bcH
	DB	0c0H
	DB	0ffH
	DB	0c0H
	DB	0c0H
	DB	0c0H
	DB	0ffH
	DB	0b8H
	DB	0bcH
	DB	0b8H
	DB	0ffH
	DB	0c0H
	DB	0bcH
	DB	0c0H
	DB	0ffH
	DB	0c0H
	DB	0c0H
	DB	0c0H
	DB	0ffH
	DB	0b8H
	DB	0bcH
	DB	0b8H
	DB	0ffH
	DB	0c0H
	DB	0bcH
	DB	0c0H
	DB	0ffH
	DB	0c0H
	DB	0c0H
	DB	0c0H
	DB	0ffH
	DB	0b8H
	DB	0bcH
	DB	0b8H
	DB	0ffH
	DB	0c0H
	DB	0bcH
	DB	0c0H
	DB	0ffH
	DB	0b8H
	DB	0bcH
	DB	0b8H
	DB	0ffH
	DB	0c0H
	DB	0c0H
	DB	0c0H
	DB	0ffH
	DB	0c0H
	DB	0bcH
	DB	0c0H
	DB	0ffH
	DB	0b8H
	DB	0bcH
	DB	0b8H
	DB	0ffH
	DB	0c0H
	DB	0bcH
	DB	0c0H
	DB	0ffH
	DB	0c0H
	DB	0bcH
	DB	0c0H
	DB	0ffH
	DB	00H
	DB	0b4H
	DB	00H
	DB	0ffH
	DB	00H
	DB	0b4H
	DB	00H
	DB	0ffH
	DB	00H
	DB	0b4H
	DB	00H
	DB	0ffH
	DB	00H
	DB	0b4H
	DB	00H
	DB	0ffH
	DB	00H
	DB	0b4H
	DB	00H
	DB	0ffH
	DB	00H
	DB	0b4H
	DB	00H
	DB	0ffH
	DB	00H
	DB	0b4H
	DB	00H
	DB	0ffH
	DB	00H
	DB	0b4H
	DB	00H
	DB	0ffH
	DB	00H
	DB	0b4H
	DB	00H
	DB	0ffH
	DB	00H
	DB	0b4H
	DB	00H
	DB	0ffH
	DB	00H
	DB	0b4H
	DB	00H
	DB	0ffH
	DB	00H
	DB	0b4H
	DB	00H
	DB	0ffH
	DB	00H
	DB	0b4H
	DB	00H
	DB	0ffH
	DB	00H
	DB	0b4H
	DB	00H
	DB	0ffH
	DB	00H
	DB	0b4H
	DB	00H
	DB	0ffH
	DB	00H
	DB	0b4H
	DB	00H
	DB	0ffH
	DB	00H
	DB	0b4H
	DB	00H
	DB	0ffH
	DB	00H
	DB	0b4H
	DB	00H
	DB	0ffH
	DB	00H
	DB	0b4H
	DB	00H
	DB	0ffH
	DB	00H
	DB	0b4H
	DB	00H
	DB	0ffH
	DB	00H
	DB	0b4H
	DB	00H
	DB	0ffH
	DB	00H
	DB	0b4H
	DB	00H
	DB	0ffH
	DB	00H
	DB	0b4H
	DB	00H
	DB	0ffH
	DB	00H
	DB	0b4H
	DB	00H
	DB	0ffH
	DB	00H
	DB	0b4H
	DB	00H
	DB	0ffH
	DB	00H
	DB	0b4H
	DB	00H
	DB	0ffH
	DB	00H
	DB	0b4H
	DB	00H
	DB	0ffH
	DB	00H
	DB	0b4H
	DB	00H
	DB	0ffH
	DB	00H
	DB	0b4H
	DB	00H
	DB	0ffH
	DB	00H
	DB	0b4H
	DB	00H
	DB	0ffH
	DB	00H
	DB	0b4H
	DB	00H
	DB	0ffH
	DB	00H
	DB	0b4H
	DB	00H
	DB	0ffH
	DB	00H
	DB	0b4H
	DB	00H
	DB	0ffH
	DB	00H
	DB	0b4H
	DB	00H
	DB	0ffH
	DB	00H
	DB	0b4H
	DB	00H
	DB	0ffH
	DB	00H
	DB	0b4H
	DB	00H
	DB	0ffH
	DB	00H
	DB	0b4H
	DB	00H
	DB	0ffH
	DB	00H
	DB	0b4H
	DB	00H
	DB	0ffH
	DB	00H
	DB	0b4H
	DB	00H
	DB	0ffH
	DB	00H
	DB	0b4H
	DB	00H
	DB	0ffH
	DB	00H
	DB	0b4H
	DB	00H
	DB	0ffH
	DB	00H
	DB	0b4H
	DB	00H
	DB	0ffH
	DB	00H
	DB	0b4H
	DB	00H
	DB	0ffH
	DB	00H
	DB	0b4H
	DB	00H
	DB	0ffH
	DB	00H
	DB	0b4H
	DB	00H
	DB	0ffH
	DB	00H
	DB	0b4H
	DB	00H
	DB	0ffH
	DB	00H
	DB	0b4H
	DB	00H
	DB	0ffH
	DB	00H
	DB	0b4H
	DB	00H
	DB	0ffH
	DB	00H
	DB	0b4H
	DB	00H
	DB	0ffH
	DB	00H
	DB	0b4H
	DB	00H
	DB	0ffH
	DB	00H
	DB	0b4H
	DB	00H
	DB	0ffH
	DB	00H
	DB	0b4H
	DB	00H
	DB	0ffH
	DB	00H
	DB	0b4H
	DB	00H
	DB	0ffH
	DB	00H
	DB	0b4H
	DB	00H
	DB	0ffH
	DB	00H
	DB	0b4H
	DB	00H
	DB	0ffH
	DB	00H
	DB	0b4H
	DB	00H
	DB	0ffH
	DB	00H
	DB	0b4H
	DB	00H
	DB	0ffH
	DB	00H
	DB	0b4H
	DB	00H
	DB	0ffH
	DB	00H
	DB	0b4H
	DB	00H
	DB	0ffH
	DB	00H
	DB	0b4H
	DB	00H
	DB	0ffH
	DB	00H
	DB	0b4H
	DB	00H
	DB	0ffH
	DB	00H
	DB	0b4H
	DB	00H
	DB	0ffH
	DB	00H
	DB	0b4H
	DB	00H
	DB	0ffH
	DB	00H
	DB	0b4H
	DB	00H
	DB	0ffH
	DB	00H
	DB	0b4H
	DB	00H
	DB	0ffH
	DB	00H
	DB	0b4H
	DB	00H
	DB	0ffH
	DB	00H
	DB	0b4H
	DB	00H
	DB	0ffH
	DB	00H
	DB	0b4H
	DB	00H
	DB	0ffH
	DB	00H
	DB	0b4H
	DB	00H
	DB	0ffH
	DB	00H
	DB	0b4H
	DB	00H
	DB	0ffH
	DB	00H
	DB	0b4H
	DB	00H
	DB	0ffH
	DB	00H
	DB	0b4H
	DB	00H
	DB	0ffH
	DB	00H
	DB	0b4H
	DB	00H
	DB	0ffH
	DB	00H
	DB	0b4H
	DB	00H
	DB	0ffH
	DB	00H
	DB	0b4H
	DB	00H
	DB	0ffH
	DB	00H
	DB	0b4H
	DB	00H
	DB	0ffH
	DB	00H
	DB	0b4H
	DB	00H
	DB	0ffH
	DB	00H
	DB	0b4H
	DB	00H
	DB	0ffH
	DB	00H
	DB	0b4H
	DB	00H
	DB	0ffH
	DB	00H
	DB	0b4H
	DB	00H
	DB	0ffH
	DB	00H
	DB	0b4H
	DB	00H
	DB	0ffH
	DB	00H
	DB	0b4H
	DB	00H
	DB	0ffH
	DB	00H
	DB	0b4H
	DB	00H
	DB	0ffH
	DB	00H
	DB	0b4H
	DB	00H
	DB	0ffH
	DB	00H
	DB	0b4H
	DB	00H
	DB	0ffH
	DB	00H
	DB	0b4H
	DB	00H
	DB	0ffH
	DB	00H
	DB	0b4H
	DB	00H
	DB	0ffH
	DB	00H
	DB	0b4H
	DB	00H
	DB	0ffH
	DB	00H
	DB	0b4H
	DB	00H
	DB	0ffH
	DB	00H
	DB	0b4H
	DB	00H
	DB	0ffH
	DB	00H
	DB	0b4H
	DB	00H
	DB	0ffH
	DB	00H
	DB	0b4H
	DB	00H
	DB	0ffH
	DB	00H
	DB	0b4H
	DB	00H
	DB	0ffH
	DB	00H
	DB	0b4H
	DB	00H
	DB	0ffH
	DB	00H
	DB	0b4H
	DB	00H
	DB	0ffH
	DB	00H
	DB	0b4H
	DB	00H
	DB	0ffH
	DB	00H
	DB	0b4H
	DB	00H
	DB	0ffH
	DB	00H
	DB	0b4H
	DB	00H
	DB	0ffH
	DB	00H
	DB	0b4H
	DB	00H
	DB	0ffH
	DB	00H
	DB	0b4H
	DB	00H
	DB	0ffH
	DB	00H
	DB	0b4H
	DB	00H
	DB	0ffH
	DB	00H
	DB	0b4H
	DB	00H
	DB	0ffH
	DB	00H
	DB	0b4H
	DB	00H
	DB	0ffH
	DB	00H
	DB	0b4H
	DB	00H
	DB	0ffH
	DB	00H
	DB	0b4H
	DB	00H
	DB	0ffH
	DB	00H
	DB	0b4H
	DB	00H
	DB	0ffH
	DB	00H
	DB	0b4H
	DB	00H
	DB	0ffH
	DB	00H
	DB	0b4H
	DB	00H
	DB	0ffH
	DB	00H
	DB	0b4H
	DB	00H
	DB	0ffH
	DB	00H
	DB	0b4H
	DB	00H
	DB	0ffH
	DB	00H
	DB	0b4H
	DB	00H
	DB	0ffH
	DB	00H
	DB	0b4H
	DB	00H
	DB	0ffH
	DB	00H
	DB	0b4H
	DB	00H
	DB	0ffH
	DB	00H
	DB	0b4H
	DB	00H
	DB	0ffH
	DB	00H
	DB	0b4H
	DB	00H
	DB	0ffH
	DB	00H
	DB	0b4H
	DB	00H
	DB	0ffH
	DB	00H
	DB	0b4H
	DB	00H
	DB	0ffH
	DB	00H
	DB	0b4H
	DB	00H
	DB	0ffH
	DB	00H
	DB	0b4H
	DB	00H
	DB	0ffH
	DB	00H
	DB	0b4H
	DB	00H
	DB	0ffH
	DB	00H
	DB	0b4H
	DB	00H
	DB	0ffH
	DB	00H
	DB	0b4H
	DB	00H
	DB	0ffH
	DB	00H
	DB	0b4H
	DB	00H
	DB	0ffH
	DB	00H
	DB	0b4H
	DB	00H
	DB	0ffH
	DB	00H
	DB	0b4H
	DB	00H
	DB	0ffH
	DB	00H
	DB	0b4H
	DB	00H
	DB	0ffH
	DB	00H
	DB	0b4H
	DB	00H
	DB	0ffH
	DB	00H
	DB	0b4H
	DB	00H
	DB	0ffH
	DB	00H
	DB	0b4H
	DB	00H
	DB	0ffH
	DB	00H
	DB	0b4H
	DB	00H
	DB	0ffH
	DB	00H
	DB	0b4H
	DB	00H
	DB	0ffH
	DB	00H
	DB	0b4H
	DB	00H
	DB	0ffH
	DB	00H
	DB	0b4H
	DB	00H
	DB	0ffH
	DB	00H
	DB	0b4H
	DB	00H
	DB	0ffH
	DB	00H
	DB	0b4H
	DB	00H
	DB	0ffH
	DB	00H
	DB	0b4H
	DB	00H
	DB	0ffH
	DB	00H
	DB	0b4H
	DB	00H
	DB	0ffH
	DB	00H
	DB	0b4H
	DB	00H
	DB	0ffH
	DB	00H
	DB	0b4H
	DB	00H
	DB	0ffH
	DB	00H
	DB	0b4H
	DB	00H
	DB	0ffH
	DB	00H
	DB	0b4H
	DB	00H
	DB	0ffH
	DB	00H
	DB	0b4H
	DB	00H
	DB	0ffH
	DB	00H
	DB	0b4H
	DB	00H
	DB	0ffH
	DB	00H
	DB	0b4H
	DB	00H
	DB	0ffH
	DB	00H
	DB	0b4H
	DB	00H
	DB	0ffH
	DB	00H
	DB	0b4H
	DB	00H
	DB	0ffH
	DB	00H
	DB	0b4H
	DB	00H
	DB	0ffH
	DB	00H
	DB	0b4H
	DB	00H
	DB	0ffH
	DB	00H
	DB	0b4H
	DB	00H
	DB	0ffH
	DB	00H
	DB	0b4H
	DB	00H
	DB	0ffH
	DB	00H
	DB	0b4H
	DB	00H
	DB	0ffH
	DB	00H
	DB	0b4H
	DB	00H
	DB	0ffH
	DB	00H
	DB	0b4H
	DB	00H
	DB	0ffH
	DB	00H
	DB	0b4H
	DB	00H
	DB	0ffH
	DB	00H
	DB	0b4H
	DB	00H
	DB	0ffH
	DB	00H
	DB	0b4H
	DB	00H
	DB	0ffH
	DB	00H
	DB	0b4H
	DB	00H
	DB	0ffH
	DB	00H
	DB	0b4H
	DB	00H
	DB	0ffH
	DB	00H
	DB	0b4H
	DB	00H
	DB	0ffH
	DB	00H
	DB	0b4H
	DB	00H
	DB	0ffH
	DB	00H
	DB	0b4H
	DB	00H
	DB	0ffH
	DB	00H
	DB	0b4H
	DB	00H
	DB	0ffH
	DB	00H
	DB	0b4H
	DB	00H
	DB	0ffH
	DB	00H
	DB	0b4H
	DB	00H
	DB	0ffH
	DB	00H
	DB	0b4H
	DB	00H
	DB	0ffH
	DB	00H
	DB	0b4H
	DB	00H
	DB	0ffH
	DB	00H
	DB	0b4H
	DB	00H
	DB	0ffH
	DB	00H
	DB	0b4H
	DB	00H
	DB	0ffH
	DB	00H
	DB	0b4H
	DB	00H
	DB	0ffH
	DB	00H
	DB	0b4H
	DB	00H
	DB	0ffH
	DB	00H
	DB	0b4H
	DB	00H
	DB	0ffH
	DB	00H
	DB	0b4H
	DB	00H
	DB	0ffH
	DB	00H
	DB	0b4H
	DB	00H
	DB	0ffH
	DB	00H
	DB	0b4H
	DB	00H
	DB	0ffH
	DB	00H
	DB	0b4H
	DB	00H
	DB	0ffH
	DB	00H
	DB	0b4H
	DB	00H
	DB	0ffH
	DB	00H
	DB	0b4H
	DB	00H
	DB	0ffH
	DB	00H
	DB	0b4H
	DB	00H
	DB	0ffH
	DB	00H
	DB	0b4H
	DB	00H
	DB	0ffH
	DB	00H
	DB	0b4H
	DB	00H
	DB	0ffH
	DB	00H
	DB	0b4H
	DB	00H
	DB	0ffH
	DB	00H
	DB	0b4H
	DB	00H
	DB	0ffH
	DB	00H
	DB	0b4H
	DB	00H
	DB	0ffH
	DB	00H
	DB	0b4H
	DB	00H
	DB	0ffH
	DB	00H
	DB	0b4H
	DB	00H
	DB	0ffH
	DB	00H
	DB	0b4H
	DB	00H
	DB	0ffH
	DB	00H
	DB	0b4H
	DB	00H
	DB	0ffH
	DB	00H
	DB	0b4H
	DB	00H
	DB	0ffH
	DB	00H
	DB	0b4H
	DB	00H
	DB	0ffH
	DB	00H
	DB	0b4H
	DB	00H
	DB	0ffH
	DB	00H
	DB	0b4H
	DB	00H
	DB	0ffH
	DB	00H
	DB	0b4H
	DB	00H
	DB	0ffH
	DB	00H
	DB	0b4H
	DB	00H
	DB	0ffH
	DB	00H
	DB	0b4H
	DB	00H
	DB	0ffH
	DB	00H
	DB	0b4H
	DB	00H
	DB	0ffH
	DB	00H
	DB	0b4H
	DB	00H
	DB	0ffH
	DB	00H
	DB	0b4H
	DB	00H
	DB	0ffH
	DB	00H
	DB	0b4H
	DB	00H
	DB	0ffH
	DB	00H
	DB	0b4H
	DB	00H
	DB	0ffH
	DB	00H
	DB	0b4H
	DB	00H
	DB	0ffH
	DB	00H
	DB	0b4H
	DB	00H
	DB	0ffH
	DB	00H
	DB	0b4H
	DB	00H
	DB	0ffH
	DB	00H
	DB	0b4H
	DB	00H
	DB	0ffH
	DB	00H
	DB	0b4H
	DB	00H
	DB	0ffH
	DB	00H
	DB	0b4H
	DB	00H
	DB	0ffH
	DB	00H
	DB	0b4H
	DB	00H
	DB	0ffH
	DB	00H
	DB	0b4H
	DB	00H
	DB	0ffH
	DB	00H
	DB	0b4H
	DB	00H
	DB	0ffH
	DB	00H
	DB	0b4H
	DB	00H
	DB	0ffH
	DB	00H
	DB	0b4H
	DB	00H
	DB	0ffH
	DB	00H
	DB	0b4H
	DB	00H
	DB	0ffH
	DB	00H
	DB	0b4H
	DB	00H
	DB	0ffH
	DB	00H
	DB	0b4H
	DB	00H
	DB	0ffH
	DB	00H
	DB	0b4H
	DB	00H
	DB	0ffH
	DB	00H
	DB	0b4H
	DB	00H
	DB	0ffH
	DB	00H
	DB	0b4H
	DB	00H
	DB	0ffH
	DB	00H
	DB	0b4H
	DB	00H
	DB	0ffH
	DB	00H
	DB	0b4H
	DB	00H
	DB	0ffH
	DB	00H
	DB	0b4H
	DB	00H
	DB	0ffH
	DB	00H
	DB	0b4H
	DB	00H
	DB	0ffH
	DB	00H
	DB	0b4H
	DB	00H
	DB	0ffH
	DB	00H
	DB	0b4H
	DB	00H
	DB	0ffH
	DB	00H
	DB	0b4H
	DB	00H
	DB	0ffH
	DB	00H
	DB	0b4H
	DB	00H
	DB	0ffH
	DB	00H
	DB	0b4H
	DB	00H
	DB	0ffH
	DB	00H
	DB	0b4H
	DB	00H
	DB	0ffH
	DB	00H
	DB	0b4H
	DB	00H
	DB	0ffH
	DB	00H
	DB	0b4H
	DB	00H
	DB	0ffH
	DB	00H
	DB	0b4H
	DB	00H
	DB	0ffH
	DB	00H
	DB	0b4H
	DB	00H
	DB	0ffH
	DB	00H
	DB	0b4H
	DB	00H
	DB	0ffH
	DB	00H
	DB	0b4H
	DB	00H
	DB	0ffH
	DB	00H
	DB	0b4H
	DB	00H
	DB	0ffH
	DB	00H
	DB	0b4H
	DB	00H
	DB	0ffH
	DB	00H
	DB	0b4H
	DB	00H
	DB	0ffH
	DB	00H
	DB	0b4H
	DB	00H
	DB	0ffH
	DB	00H
	DB	0b4H
	DB	00H
	DB	0ffH
	DB	00H
	DB	0b4H
	DB	00H
	DB	0ffH
	DB	00H
	DB	0b4H
	DB	00H
	DB	0ffH
	DB	00H
	DB	0b4H
	DB	00H
	DB	0ffH
	DB	00H
	DB	0b4H
	DB	00H
	DB	0ffH
	DB	00H
	DB	0b4H
	DB	00H
	DB	0ffH
	DB	00H
	DB	0b4H
	DB	00H
	DB	0ffH
	DB	00H
	DB	0b4H
	DB	00H
	DB	0ffH
	DB	00H
	DB	0b4H
	DB	00H
	DB	0ffH
	DB	00H
	DB	0b4H
	DB	00H
	DB	0ffH
	DB	00H
	DB	0b4H
	DB	00H
	DB	0ffH
	DB	00H
	DB	0b4H
	DB	00H
	DB	0ffH
	DB	00H
	DB	0b4H
	DB	00H
	DB	0ffH
	DB	00H
	DB	0b4H
	DB	00H
	DB	0ffH
	DB	00H
	DB	0b4H
	DB	00H
	DB	0ffH
	DB	00H
	DB	0b4H
	DB	00H
	DB	0ffH
	DB	00H
	DB	0b4H
	DB	00H
	DB	0ffH
	DB	00H
	DB	0b4H
	DB	00H
	DB	0ffH
	DB	00H
	DB	0b4H
	DB	00H
	DB	0ffH
	DB	00H
	DB	0b4H
	DB	00H
	DB	0ffH
	DB	00H
	DB	0b4H
	DB	00H
	DB	0ffH
	DB	00H
	DB	0b4H
	DB	00H
	DB	0ffH
	DB	00H
	DB	0b4H
	DB	00H
	DB	0ffH
	DB	00H
	DB	0b4H
	DB	00H
	DB	0ffH
	DB	00H
	DB	0b4H
	DB	00H
	DB	0ffH
	DB	00H
	DB	0b4H
	DB	00H
	DB	0ffH
	DB	00H
	DB	0b4H
	DB	00H
	DB	0ffH
	DB	00H
	DB	0b4H
	DB	00H
	DB	0ffH
	DB	00H
	DB	0b4H
	DB	00H
	DB	0ffH
	DB	00H
	DB	0b4H
	DB	00H
	DB	0ffH
	DB	00H
	DB	0b4H
	DB	00H
	DB	0ffH
	DB	00H
	DB	0b4H
	DB	00H
	DB	0ffH
	DB	00H
	DB	0b4H
	DB	00H
	DB	0ffH
	DB	00H
	DB	0b4H
	DB	00H
	DB	0ffH
	DB	00H
	DB	0b4H
	DB	00H
	DB	0ffH
	DB	00H
	DB	0b4H
	DB	00H
	DB	0ffH
	DB	00H
	DB	0b4H
	DB	00H
	DB	0ffH
	DB	00H
	DB	0b4H
	DB	00H
	DB	0ffH
	DB	00H
	DB	0b4H
	DB	00H
	DB	0ffH
	DB	00H
	DB	0b4H
	DB	00H
	DB	0ffH
	DB	00H
	DB	0b4H
	DB	00H
	DB	0ffH
	DB	00H
	DB	0b4H
	DB	00H
	DB	0ffH
	DB	00H
	DB	0b4H
	DB	00H
	DB	0ffH
	DB	00H
	DB	0b4H
	DB	00H
	DB	0ffH
	DB	00H
	DB	0b4H
	DB	00H
	DB	0ffH
	DB	00H
	DB	0b4H
	DB	00H
	DB	0ffH
	DB	00H
	DB	0b4H
	DB	00H
	DB	0ffH
	DB	00H
	DB	0b4H
	DB	00H
	DB	0ffH
	DB	00H
	DB	0b4H
	DB	00H
	DB	0ffH
	DB	00H
	DB	0b4H
	DB	00H
	DB	0ffH
	DB	00H
	DB	0b4H
	DB	00H
	DB	0ffH
	DB	00H
	DB	0b4H
	DB	00H
	DB	0ffH
	DB	00H
	DB	0b4H
	DB	00H
	DB	0ffH
	DB	00H
	DB	0b4H
	DB	00H
	DB	0ffH
	DB	00H
	DB	0b4H
	DB	00H
	DB	0ffH
	DB	00H
	DB	0b4H
	DB	00H
	DB	0ffH
	DB	00H
	DB	0b4H
	DB	00H
	DB	0ffH
	DB	00H
	DB	0b4H
	DB	00H
	DB	0ffH
	DB	00H
	DB	0b4H
	DB	00H
	DB	0ffH
	DB	00H
	DB	0b4H
	DB	00H
	DB	0ffH
	DB	00H
	DB	0b4H
	DB	00H
	DB	0ffH
	DB	00H
	DB	0b4H
	DB	00H
	DB	0ffH
	DB	00H
	DB	0b4H
	DB	00H
	DB	0ffH
	DB	00H
	DB	0b4H
	DB	00H
	DB	0ffH
	DB	00H
	DB	0b4H
	DB	00H
	DB	0ffH
	DB	00H
	DB	0b4H
	DB	00H
	DB	0ffH
	DB	00H
	DB	0b4H
	DB	00H
	DB	0ffH
	DB	00H
	DB	0b4H
	DB	00H
	DB	0ffH
	DB	00H
	DB	0b4H
	DB	00H
	DB	0ffH
	DB	00H
	DB	0b4H
	DB	00H
	DB	0ffH
	DB	00H
	DB	0b4H
	DB	00H
	DB	0ffH
	DB	00H
	DB	0b4H
	DB	00H
	DB	0ffH
	DB	00H
	DB	0b4H
	DB	00H
	DB	0ffH
	DB	00H
	DB	0b4H
	DB	00H
	DB	0ffH
	DB	00H
	DB	0b4H
	DB	00H
	DB	0ffH
	DB	00H
	DB	0b4H
	DB	00H
	DB	0ffH
	DB	00H
	DB	0b4H
	DB	00H
	DB	0ffH
	DB	00H
	DB	0b4H
	DB	00H
	DB	0ffH
	DB	00H
	DB	0b4H
	DB	00H
	DB	0ffH
	DB	00H
	DB	0b4H
	DB	00H
	DB	0ffH
	DB	00H
	DB	0b4H
	DB	00H
	DB	0ffH
	DB	00H
	DB	0b4H
	DB	00H
	DB	0ffH
	DB	00H
	DB	0b4H
	DB	00H
	DB	0ffH
	DB	00H
	DB	0b4H
	DB	00H
	DB	0ffH
	DB	00H
	DB	0b4H
	DB	00H
	DB	0ffH
	DB	00H
	DB	0b4H
	DB	00H
	DB	0ffH
	DB	00H
	DB	0b4H
	DB	00H
	DB	0ffH
	DB	00H
	DB	0b4H
	DB	00H
	DB	0ffH
	DB	00H
	DB	0b4H
	DB	00H
	DB	0ffH
	DB	00H
	DB	0b4H
	DB	00H
	DB	0ffH
	DB	00H
	DB	0b4H
	DB	00H
	DB	0ffH
	DB	00H
	DB	0b4H
	DB	00H
	DB	0ffH
	DB	00H
	DB	0b4H
	DB	00H
	DB	0ffH
	DB	00H
	DB	0b4H
	DB	00H
	DB	0ffH
	DB	00H
	DB	0b4H
	DB	00H
	DB	0ffH
	DB	00H
	DB	0b4H
	DB	00H
	DB	0ffH
	DB	00H
	DB	0b4H
	DB	00H
	DB	0ffH
	DB	00H
	DB	0b4H
	DB	00H
	DB	0ffH
	DB	00H
	DB	0b4H
	DB	00H
	DB	0ffH
	DB	00H
	DB	0b4H
	DB	00H
	DB	0ffH
	DB	00H
	DB	0b4H
	DB	00H
	DB	0ffH
	DB	00H
	DB	0b4H
	DB	00H
	DB	0ffH
	DB	00H
	DB	0b4H
	DB	00H
	DB	0ffH
	DB	00H
	DB	0b4H
	DB	00H
	DB	0ffH
	DB	00H
	DB	0b4H
	DB	00H
	DB	0ffH
	DB	00H
	DB	0b4H
	DB	00H
	DB	0ffH
	DB	00H
	DB	0b4H
	DB	00H
	DB	0ffH
	DB	00H
	DB	0b4H
	DB	00H
	DB	0ffH
	DB	00H
	DB	0b4H
	DB	00H
	DB	0ffH
	DB	00H
	DB	0b4H
	DB	00H
	DB	0ffH
	DB	00H
	DB	0b4H
	DB	00H
	DB	0ffH
	DB	00H
	DB	0b4H
	DB	00H
	DB	0ffH
	DB	00H
	DB	0b4H
	DB	00H
	DB	0ffH
	DB	00H
	DB	0b4H
	DB	00H
	DB	0ffH
	DB	00H
	DB	0b4H
	DB	00H
	DB	0ffH
	DB	00H
	DB	0b4H
	DB	00H
	DB	0ffH
	DB	00H
	DB	0b4H
	DB	00H
	DB	0ffH
	DB	00H
	DB	0b4H
	DB	00H
	DB	0ffH
	DB	00H
	DB	0b4H
	DB	00H
	DB	0ffH
	DB	00H
	DB	0b4H
	DB	00H
	DB	0ffH
	DB	00H
	DB	0b4H
	DB	00H
	DB	0ffH
	DB	00H
	DB	0b4H
	DB	00H
	DB	0ffH
	DB	00H
	DB	0b4H
	DB	00H
	DB	0ffH
	DB	00H
	DB	0b4H
	DB	00H
	DB	0ffH
	DB	00H
	DB	0b4H
	DB	00H
	DB	0ffH
	DB	00H
	DB	0b4H
	DB	00H
	DB	0ffH
	DB	00H
	DB	0b4H
	DB	00H
	DB	0ffH
	DB	00H
	DB	0b4H
	DB	00H
	DB	0ffH
	DB	00H
	DB	0b4H
	DB	00H
	DB	0ffH
	DB	00H
	DB	0b4H
	DB	00H
	DB	0ffH
	DB	00H
	DB	0b4H
	DB	00H
	DB	0ffH
	DB	00H
	DB	0b4H
	DB	00H
	DB	0ffH
	DB	00H
	DB	0b4H
	DB	00H
	DB	0ffH
	DB	00H
	DB	0b4H
	DB	00H
	DB	0ffH
	DB	00H
	DB	0b4H
	DB	00H
	DB	0ffH
	DB	00H
	DB	0b4H
	DB	00H
	DB	0ffH
	DB	00H
	DB	0b4H
	DB	00H
	DB	0ffH
	DB	00H
	DB	0b4H
	DB	00H
	DB	0ffH
	DB	00H
	DB	0b4H
	DB	00H
	DB	0ffH
	DB	00H
	DB	0b4H
	DB	00H
	DB	0ffH
	DB	00H
	DB	0b4H
	DB	00H
	DB	0ffH
	DB	00H
	DB	0b4H
	DB	00H
	DB	0ffH
	DB	00H
	DB	0b4H
	DB	00H
	DB	0ffH
	DB	00H
	DB	0b4H
	DB	00H
	DB	0ffH
	DB	00H
	DB	0b4H
	DB	00H
	DB	0ffH
	DB	00H
	DB	0b4H
	DB	00H
	DB	0ffH
	DB	00H
	DB	0b4H
	DB	00H
	DB	0ffH
	DB	00H
	DB	0b4H
	DB	00H
	DB	0ffH
	DB	00H
	DB	0b4H
	DB	00H
	DB	0ffH
	DB	00H
	DB	0b4H
	DB	00H
	DB	0ffH
	DB	00H
	DB	0b4H
	DB	00H
	DB	0ffH
	DB	00H
	DB	0b4H
	DB	00H
	DB	0ffH
	DB	00H
	DB	0b4H
	DB	00H
	DB	0ffH
	DB	00H
	DB	0b4H
	DB	00H
	DB	0ffH
	DB	00H
	DB	0b4H
	DB	00H
	DB	0ffH
	DB	00H
	DB	0b4H
	DB	00H
	DB	0ffH
	DB	00H
	DB	0b4H
	DB	00H
	DB	0ffH
	DB	00H
	DB	0b4H
	DB	00H
	DB	0ffH
	DB	00H
	DB	0b4H
	DB	00H
	DB	0ffH
	DB	00H
	DB	0b4H
	DB	00H
	DB	0ffH
	DB	00H
	DB	0b4H
	DB	00H
	DB	0ffH
	DB	00H
	DB	0b4H
	DB	00H
	DB	0ffH
	DB	00H
	DB	0b4H
	DB	00H
	DB	0ffH
	DB	00H
	DB	0b4H
	DB	00H
	DB	0ffH
	DB	00H
	DB	0b4H
	DB	00H
	DB	0ffH
	DB	00H
	DB	0b4H
	DB	00H
	DB	0ffH
	DB	00H
	DB	0b4H
	DB	00H
	DB	0ffH
	DB	00H
	DB	0b4H
	DB	00H
	DB	0ffH
	DB	00H
	DB	0b4H
	DB	00H
	DB	0ffH
	DB	00H
	DB	0b4H
	DB	00H
	DB	0ffH
	DB	00H
	DB	0b4H
	DB	00H
	DB	0ffH
	DB	00H
	DB	0b4H
	DB	00H
	DB	0ffH
	DB	00H
	DB	0b4H
	DB	00H
	DB	0ffH
	DB	00H
	DB	0b4H
	DB	00H
	DB	0ffH
	DB	00H
	DB	0b4H
	DB	00H
	DB	0ffH
	DB	00H
	DB	0b4H
	DB	00H
	DB	0ffH
	DB	00H
	DB	0b4H
	DB	00H
	DB	0ffH
	DB	00H
	DB	0b4H
	DB	00H
	DB	0ffH
	DB	00H
	DB	0b4H
	DB	00H
	DB	0ffH
	DB	00H
	DB	0b4H
	DB	00H
	DB	0ffH
	DB	00H
	DB	0b4H
	DB	00H
	DB	0ffH
	DB	00H
	DB	0b4H
	DB	00H
	DB	0ffH
	DB	00H
	DB	0b4H
	DB	00H
	DB	0ffH
	DB	00H
	DB	0b4H
	DB	00H
	DB	0ffH
	DB	00H
	DB	0b4H
	DB	00H
	DB	0ffH
	DB	00H
	DB	0b4H
	DB	00H
	DB	0ffH
	DB	00H
	DB	0b4H
	DB	00H
	DB	0ffH
	DB	00H
	DB	0b4H
	DB	00H
	DB	0ffH
	DB	00H
	DB	0b4H
	DB	00H
	DB	0ffH
	DB	00H
	DB	0b4H
	DB	00H
	DB	0ffH
	DB	00H
	DB	0b4H
	DB	00H
	DB	0ffH
	DB	00H
	DB	0b4H
	DB	00H
	DB	0ffH
	DB	00H
	DB	0b4H
	DB	00H
	DB	0ffH
	DB	00H
	DB	0b4H
	DB	00H
	DB	0ffH
	DB	00H
	DB	0b4H
	DB	00H
	DB	0ffH
	DB	00H
	DB	0b4H
	DB	00H
	DB	0ffH
	DB	00H
	DB	0b4H
	DB	00H
	DB	0ffH
	DB	00H
	DB	0b4H
	DB	00H
	DB	0ffH
	DB	00H
	DB	0b4H
	DB	00H
	DB	0ffH
	DB	00H
	DB	0b4H
	DB	00H
	DB	0ffH
	DB	00H
	DB	0b4H
	DB	00H
	DB	0ffH
	DB	00H
	DB	0b4H
	DB	00H
	DB	0ffH
	DB	00H
	DB	0b4H
	DB	00H
	DB	0ffH
	DB	00H
	DB	0b4H
	DB	00H
	DB	0ffH
	DB	00H
	DB	0b4H
	DB	00H
	DB	0ffH
	DB	00H
	DB	0b4H
	DB	00H
	DB	0ffH
	DB	00H
	DB	0b4H
	DB	00H
	DB	0ffH
	DB	00H
	DB	0b4H
	DB	00H
	DB	0ffH
	DB	00H
	DB	0b4H
	DB	00H
	DB	0ffH
	DB	00H
	DB	0b4H
	DB	00H
	DB	0ffH
	DB	00H
	DB	0b4H
	DB	00H
	DB	0ffH
	DB	00H
	DB	0b4H
	DB	00H
	DB	0ffH
	DB	00H
	DB	0b4H
	DB	00H
	DB	0ffH
	DB	00H
	DB	0b4H
	DB	00H
	DB	0ffH
	DB	00H
	DB	0b4H
	DB	00H
	DB	0ffH
	DB	00H
	DB	0b4H
	DB	00H
	DB	0ffH
	DB	00H
	DB	0b4H
	DB	00H
	DB	0ffH
	DB	00H
	DB	0b4H
	DB	00H
	DB	0ffH
	DB	00H
	DB	0b4H
	DB	00H
	DB	0ffH
	DB	00H
	DB	0b4H
	DB	00H
	DB	0ffH
	DB	00H
	DB	0b4H
	DB	00H
	DB	0ffH
	DB	00H
	DB	0b4H
	DB	00H
	DB	0ffH
	DB	00H
	DB	0b4H
	DB	00H
	DB	0ffH
	DB	00H
	DB	0b4H
	DB	00H
	DB	0ffH
	DB	00H
	DB	0b4H
	DB	00H
	DB	0ffH
	DB	00H
	DB	0b4H
	DB	00H
	DB	0ffH
	DB	00H
	DB	0b4H
	DB	00H
	DB	0ffH
	DB	00H
	DB	0b4H
	DB	00H
	DB	0ffH
	DB	00H
	DB	0b4H
	DB	00H
	DB	0ffH
	DB	00H
	DB	0b4H
	DB	00H
	DB	0ffH
	DB	00H
	DB	0b4H
	DB	00H
	DB	0ffH
	DB	00H
	DB	0b4H
	DB	00H
	DB	0ffH
	DB	00H
	DB	0b4H
	DB	00H
	DB	0ffH
	DB	00H
	DB	0b4H
	DB	00H
	DB	0ffH
	DB	00H
	DB	0b4H
	DB	00H
	DB	0ffH
	DB	00H
	DB	0b4H
	DB	00H
	DB	0ffH
	DB	00H
	DB	0b4H
	DB	00H
	DB	0ffH
	DB	00H
	DB	0b4H
	DB	00H
	DB	0ffH
	DB	00H
	DB	0b4H
	DB	00H
	DB	0ffH
	DB	00H
	DB	0b4H
	DB	00H
	DB	0ffH
	DB	00H
	DB	0b4H
	DB	00H
	DB	0ffH
	DB	00H
	DB	0b4H
	DB	00H
	DB	0ffH
	DB	00H
	DB	0b4H
	DB	00H
	DB	0ffH
	DB	00H
	DB	0b4H
	DB	00H
	DB	0ffH
	DB	00H
	DB	0b4H
	DB	00H
	DB	0ffH
	DB	00H
	DB	0b4H
	DB	00H
	DB	0ffH
	DB	00H
	DB	0b4H
	DB	00H
	DB	0ffH
	DB	00H
	DB	0b4H
	DB	00H
	DB	0ffH
	DB	00H
	DB	0b4H
	DB	00H
	DB	0ffH
	DB	00H
	DB	0b4H
	DB	00H
	DB	0ffH
	DB	00H
	DB	0b4H
	DB	00H
	DB	0ffH
	DB	00H
	DB	0b4H
	DB	00H
	DB	0ffH
	DB	00H
	DB	0b4H
	DB	00H
	DB	0ffH
	DB	00H
	DB	0b4H
	DB	00H
	DB	0ffH
	DB	00H
	DB	0b4H
	DB	00H
	DB	0ffH
	DB	00H
	DB	0b4H
	DB	00H
	DB	0ffH
	DB	00H
	DB	0b4H
	DB	00H
	DB	0ffH
	DB	00H
	DB	0b4H
	DB	00H
	DB	0ffH
	DB	00H
	DB	0b4H
	DB	00H
	DB	0ffH
	DB	00H
	DB	0b4H
	DB	00H
	DB	0ffH
	DB	00H
	DB	0b4H
	DB	00H
	DB	0ffH
	DB	00H
	DB	0b4H
	DB	00H
	DB	0ffH
	DB	00H
	DB	0b4H
	DB	00H
	DB	0ffH
	DB	00H
	DB	0b4H
	DB	00H
	DB	0ffH
	DB	00H
	DB	0b4H
	DB	00H
	DB	0ffH
	DB	00H
	DB	0b4H
	DB	00H
	DB	0ffH
	DB	00H
	DB	0b4H
	DB	00H
	DB	0ffH
	DB	00H
	DB	0b4H
	DB	00H
	DB	0ffH
	DB	00H
	DB	0b4H
	DB	00H
	DB	0ffH
	DB	00H
	DB	0b4H
	DB	00H
	DB	0ffH
	DB	00H
	DB	0b4H
	DB	00H
	DB	0ffH
	DB	00H
	DB	0b4H
	DB	00H
	DB	0ffH
	DB	00H
	DB	0b4H
	DB	00H
	DB	0ffH
	DB	00H
	DB	0b4H
	DB	00H
	DB	0ffH
	DB	00H
	DB	0b4H
	DB	00H
	DB	0ffH
	DB	00H
	DB	0b4H
	DB	00H
	DB	0ffH
	DB	00H
	DB	0b4H
	DB	00H
	DB	0ffH
	DB	00H
	DB	0b4H
	DB	00H
	DB	0ffH
	DB	00H
	DB	0b4H
	DB	00H
	DB	0ffH
	DB	00H
	DB	0b4H
	DB	00H
	DB	0ffH
	DB	00H
	DB	0b4H
	DB	00H
	DB	0ffH
	DB	00H
	DB	0b4H
	DB	00H
	DB	0ffH
	DB	00H
	DB	0b4H
	DB	00H
	DB	0ffH
	DB	00H
	DB	0b4H
	DB	00H
	DB	0ffH
	DB	00H
	DB	0b4H
	DB	00H
	DB	0ffH
	DB	00H
	DB	0b4H
	DB	00H
	DB	0ffH
	DB	00H
	DB	0b4H
	DB	00H
	DB	0ffH
	DB	00H
	DB	0b4H
	DB	00H
	DB	0ffH
	DB	00H
	DB	0b4H
	DB	00H
	DB	0ffH
	DB	00H
	DB	0b4H
	DB	00H
	DB	0ffH
	DB	00H
	DB	0b4H
	DB	00H
	DB	0ffH
	DB	00H
	DB	0b4H
	DB	00H
	DB	0ffH
	DB	00H
	DB	0b4H
	DB	00H
	DB	0ffH
	DB	00H
	DB	0b4H
	DB	00H
	DB	0ffH
	DB	00H
	DB	0b4H
	DB	00H
	DB	0ffH
	DB	00H
	DB	0b4H
	DB	00H
	DB	0ffH
	DB	00H
	DB	0b4H
	DB	00H
	DB	0ffH
	DB	00H
	DB	0b4H
	DB	00H
	DB	0ffH
	DB	00H
	DB	0b4H
	DB	00H
	DB	0ffH
	DB	00H
	DB	0b4H
	DB	00H
	DB	0ffH
	DB	00H
	DB	0b4H
	DB	00H
	DB	0ffH
	DB	00H
	DB	0b4H
	DB	00H
	DB	0ffH
	DB	00H
	DB	0b4H
	DB	00H
	DB	0ffH
	DB	00H
	DB	0b4H
	DB	00H
	DB	0ffH
	DB	00H
	DB	0b4H
	DB	00H
	DB	0ffH
	DB	00H
	DB	0b4H
	DB	00H
	DB	0ffH
	DB	00H
	DB	0b4H
	DB	00H
	DB	0ffH
	DB	00H
	DB	0b4H
	DB	00H
	DB	0ffH
	DB	00H
	DB	0b4H
	DB	00H
	DB	0ffH
	DB	00H
	DB	0b4H
	DB	00H
	DB	0ffH
	DB	00H
	DB	0b4H
	DB	00H
	DB	0ffH
	DB	00H
	DB	0b4H
	DB	00H
	DB	0ffH
	DB	00H
	DB	0b4H
	DB	00H
	DB	0ffH
	DB	00H
	DB	0b4H
	DB	00H
	DB	0ffH
	DB	00H
	DB	0b4H
	DB	00H
	DB	0ffH
	DB	00H
	DB	0b4H
	DB	00H
	DB	0ffH
	DB	00H
	DB	0b4H
	DB	00H
	DB	0ffH
	DB	00H
	DB	0b4H
	DB	00H
	DB	0ffH
	DB	00H
	DB	0b4H
	DB	00H
	DB	0ffH
	DB	00H
	DB	0b4H
	DB	00H
	DB	0ffH
	DB	00H
	DB	0b4H
	DB	00H
	DB	0ffH
	DB	00H
	DB	0b4H
	DB	00H
	DB	0ffH
	DB	00H
	DB	0b4H
	DB	00H
	DB	0ffH
	DB	00H
	DB	0b4H
	DB	00H
	DB	0ffH
	DB	00H
	DB	0b4H
	DB	00H
	DB	0ffH
	DB	00H
	DB	0b4H
	DB	00H
	DB	0ffH
	DB	00H
	DB	0b4H
	DB	00H
	DB	0ffH
	DB	00H
	DB	0b4H
	DB	00H
	DB	0ffH
	DB	00H
	DB	0b4H
	DB	00H
	DB	0ffH
	DB	00H
	DB	0b4H
	DB	00H
	DB	0ffH
	DB	00H
	DB	0b4H
	DB	00H
	DB	0ffH
	DB	00H
	DB	0b4H
	DB	00H
	DB	0ffH
	DB	00H
	DB	0b4H
	DB	00H
	DB	0ffH
	DB	00H
	DB	0b4H
	DB	00H
	DB	0ffH
	DB	00H
	DB	0b4H
	DB	00H
	DB	0ffH
	DB	00H
	DB	0b4H
	DB	00H
	DB	0ffH
	DB	00H
	DB	0b4H
	DB	00H
	DB	0ffH
	DB	00H
	DB	0b4H
	DB	00H
	DB	0ffH
	DB	00H
	DB	0b4H
	DB	00H
	DB	0ffH
	DB	00H
	DB	0b4H
	DB	00H
	DB	0ffH
	DB	00H
	DB	0b4H
	DB	00H
	DB	0ffH
	DB	00H
	DB	0b4H
	DB	00H
	DB	0ffH
	DB	00H
	DB	0b4H
	DB	00H
	DB	0ffH
	DB	00H
	DB	0b4H
	DB	00H
	DB	0ffH
	DB	00H
	DB	0b4H
	DB	00H
	DB	0ffH
	DB	00H
	DB	0b4H
	DB	00H
	DB	0ffH
	DB	00H
	DB	0b4H
	DB	00H
	DB	0ffH
	DB	00H
	DB	0b4H
	DB	00H
	DB	0ffH
	DB	00H
	DB	0b4H
	DB	00H
	DB	0ffH
	DB	00H
	DB	0b4H
	DB	00H
	DB	0ffH
	DB	00H
	DB	0b4H
	DB	00H
	DB	0ffH
	DB	00H
	DB	0b4H
	DB	00H
	DB	0ffH
	DB	00H
	DB	0b4H
	DB	00H
	DB	0ffH
	DB	00H
	DB	0b4H
	DB	00H
	DB	0ffH
	DB	00H
	DB	0b4H
	DB	00H
	DB	0ffH
	DB	00H
	DB	0b4H
	DB	00H
	DB	0ffH
	DB	00H
	DB	0b4H
	DB	00H
	DB	0ffH
	DB	00H
	DB	0b4H
	DB	00H
	DB	0ffH
	DB	00H
	DB	0b4H
	DB	00H
	DB	0ffH
	DB	00H
	DB	0b4H
	DB	00H
	DB	0ffH
	DB	00H
	DB	0b4H
	DB	00H
	DB	0ffH
	DB	00H
	DB	0b4H
	DB	00H
	DB	0ffH
	DB	00H
	DB	0b4H
	DB	00H
	DB	0ffH
	DB	00H
	DB	0b4H
	DB	00H
	DB	0ffH
	DB	00H
	DB	0b4H
	DB	00H
	DB	0ffH
	DB	00H
	DB	0b4H
	DB	00H
	DB	0ffH
	DB	00H
	DB	0b4H
	DB	00H
	DB	0ffH
	DB	00H
	DB	0b4H
	DB	00H
	DB	0ffH
	DB	00H
	DB	0b4H
	DB	00H
	DB	0ffH
	DB	00H
	DB	0b4H
	DB	00H
	DB	0ffH
	DB	00H
	DB	0b4H
	DB	00H
	DB	0ffH
	DB	00H
	DB	0b4H
	DB	00H
	DB	0ffH
	DB	00H
	DB	0b4H
	DB	00H
	DB	0ffH
	DB	00H
	DB	0b4H
	DB	00H
	DB	0ffH
	DB	00H
	DB	0b4H
	DB	00H
	DB	0ffH
	DB	00H
	DB	0b4H
	DB	00H
	DB	0ffH
	DB	00H
	DB	0b4H
	DB	00H
	DB	0ffH
	DB	00H
	DB	0b4H
	DB	00H
	DB	0ffH
	DB	00H
	DB	0b4H
	DB	00H
	DB	0ffH
	DB	00H
	DB	0b4H
	DB	00H
	DB	0ffH
	DB	00H
	DB	0b4H
	DB	00H
	DB	0ffH
	DB	00H
	DB	0b4H
	DB	00H
	DB	0ffH
	DB	00H
	DB	0b4H
	DB	00H
	DB	0ffH
	DB	00H
	DB	0b4H
	DB	00H
	DB	0ffH
	DB	00H
	DB	0b4H
	DB	00H
	DB	0ffH
	DB	00H
	DB	0b4H
	DB	00H
	DB	0ffH
	DB	00H
	DB	0b4H
	DB	00H
	DB	0ffH
	DB	00H
	DB	0b4H
	DB	00H
	DB	0ffH
	DB	00H
	DB	0b4H
	DB	00H
	DB	0ffH
	DB	00H
	DB	0b4H
	DB	00H
	DB	0ffH
	DB	00H
	DB	0b4H
	DB	00H
	DB	0ffH
	DB	00H
	DB	0b4H
	DB	00H
	DB	0ffH
	DB	00H
	DB	0b4H
	DB	00H
	DB	0ffH
	DB	00H
	DB	0b4H
	DB	00H
	DB	0ffH
	DB	00H
	DB	0b4H
	DB	00H
	DB	0ffH
	DB	00H
	DB	0b4H
	DB	00H
	DB	0ffH
	DB	00H
	DB	0b4H
	DB	00H
	DB	0ffH
	DB	00H
	DB	0b4H
	DB	00H
	DB	0ffH
	DB	00H
	DB	0b4H
	DB	00H
	DB	0ffH
	DB	00H
	DB	0b4H
	DB	00H
	DB	0ffH
	DB	00H
	DB	0b4H
	DB	00H
	DB	0ffH
	DB	00H
	DB	0b4H
	DB	00H
	DB	0ffH
	DB	00H
	DB	0b4H
	DB	00H
	DB	0ffH
	DB	00H
	DB	0b4H
	DB	00H
	DB	0ffH
	DB	00H
	DB	0b4H
	DB	00H
	DB	0ffH
	DB	00H
	DB	0b4H
	DB	00H
	DB	0ffH
	DB	00H
	DB	0b4H
	DB	00H
	DB	0ffH
	DB	00H
	DB	0b4H
	DB	00H
	DB	0ffH
	DB	00H
	DB	0b4H
	DB	00H
	DB	0ffH
	DB	00H
	DB	0b4H
	DB	00H
	DB	0ffH
	DB	00H
	DB	0b4H
	DB	00H
	DB	0ffH
	DB	00H
	DB	0b4H
	DB	00H
	DB	0ffH
	DB	00H
	DB	0b4H
	DB	00H
	DB	0ffH
	DB	00H
	DB	0b4H
	DB	00H
	DB	0ffH
	DB	00H
	DB	0b4H
	DB	00H
	DB	0ffH
	DB	00H
	DB	0b4H
	DB	00H
	DB	0ffH
	DB	00H
	DB	0b4H
	DB	00H
	DB	0ffH
	DB	00H
	DB	0b4H
	DB	00H
	DB	0ffH
	DB	00H
	DB	0b4H
	DB	00H
	DB	0ffH
	DB	00H
	DB	0b4H
	DB	00H
	DB	0ffH
	DB	00H
	DB	0b4H
	DB	00H
	DB	0ffH
	DB	00H
	DB	0b4H
	DB	00H
	DB	0ffH
	DB	00H
	DB	0b4H
	DB	00H
	DB	0ffH
	DB	00H
	DB	0b4H
	DB	00H
	DB	0ffH
	DB	00H
	DB	0b4H
	DB	00H
	DB	0ffH
	DB	00H
	DB	0b4H
	DB	00H
	DB	0ffH
	DB	00H
	DB	0b4H
	DB	00H
	DB	0ffH
	DB	00H
	DB	0b4H
	DB	00H
	DB	0ffH
	DB	00H
	DB	0b4H
	DB	00H
	DB	0ffH
	DB	00H
	DB	0b4H
	DB	00H
	DB	0ffH
	DB	00H
	DB	0b4H
	DB	00H
	DB	0ffH
	DB	00H
	DB	0b4H
	DB	00H
	DB	0ffH
	DB	00H
	DB	0b4H
	DB	00H
	DB	0ffH
	DB	00H
	DB	0b4H
	DB	00H
	DB	0ffH
	DB	00H
	DB	0b4H
	DB	00H
	DB	0ffH
	DB	00H
	DB	0b4H
	DB	00H
	DB	0ffH
	DB	00H
	DB	0b4H
	DB	00H
	DB	0ffH
	DB	00H
	DB	0b4H
	DB	00H
	DB	0ffH
	DB	00H
	DB	0b4H
	DB	00H
	DB	0ffH
	DB	00H
	DB	0b4H
	DB	00H
	DB	0ffH
	DB	00H
	DB	0b4H
	DB	00H
	DB	0ffH
	DB	00H
	DB	0b4H
	DB	00H
	DB	0ffH
	DB	00H
	DB	0b4H
	DB	00H
	DB	0ffH
	DB	00H
	DB	0b4H
	DB	00H
	DB	0ffH
	DB	00H
	DB	0b4H
	DB	00H
	DB	0ffH
	DB	00H
	DB	0b4H
	DB	00H
	DB	0ffH
	DB	00H
	DB	0b4H
	DB	00H
	DB	0ffH
	DB	00H
	DB	0b4H
	DB	00H
	DB	0ffH
	DB	00H
	DB	0b4H
	DB	00H
	DB	0ffH
	DB	00H
	DB	0b4H
	DB	00H
	DB	0ffH
	DB	00H
	DB	0b4H
	DB	00H
	DB	0ffH
	DB	00H
	DB	0b4H
	DB	00H
	DB	0ffH
	DB	00H
	DB	0b4H
	DB	00H
	DB	0ffH
	DB	00H
	DB	0b4H
	DB	00H
	DB	0ffH
	DB	00H
	DB	0b4H
	DB	00H
	DB	0ffH
	DB	00H
	DB	0b4H
	DB	00H
	DB	0ffH
	DB	00H
	DB	0b4H
	DB	00H
	DB	0ffH
	DB	00H
	DB	0b4H
	DB	00H
	DB	0ffH
	DB	00H
	DB	0b4H
	DB	00H
	DB	0ffH
	DB	00H
	DB	0b4H
	DB	00H
	DB	0ffH
	DB	00H
	DB	0b4H
	DB	00H
	DB	0ffH
	DB	00H
	DB	0b4H
	DB	00H
	DB	0ffH
	DB	00H
	DB	0b4H
	DB	00H
	DB	0ffH
	DB	00H
	DB	0b4H
	DB	00H
	DB	0ffH
	DB	00H
	DB	0b4H
	DB	00H
	DB	0ffH
	DB	00H
	DB	0b4H
	DB	00H
	DB	0ffH
	DB	00H
	DB	0b4H
	DB	00H
	DB	0ffH
	DB	00H
	DB	0b4H
	DB	00H
	DB	0ffH
	DB	00H
	DB	0b4H
	DB	00H
	DB	0ffH
	DB	00H
	DB	0b4H
	DB	00H
	DB	0ffH
	DB	00H
	DB	0b4H
	DB	00H
	DB	0ffH
	DB	00H
	DB	0b4H
	DB	00H
	DB	0ffH
	DB	00H
	DB	0b4H
	DB	00H
	DB	0ffH
	DB	00H
	DB	0b4H
	DB	00H
	DB	0ffH
	DB	00H
	DB	0b4H
	DB	00H
	DB	0ffH
	DB	00H
	DB	0b4H
	DB	00H
	DB	0ffH
	DB	00H
	DB	0b4H
	DB	00H
	DB	0ffH
	DB	00H
	DB	0b4H
	DB	00H
	DB	0ffH
	DB	00H
	DB	0b4H
	DB	00H
	DB	0ffH
	DB	00H
	DB	0b4H
	DB	00H
	DB	0ffH
	DB	00H
	DB	0b4H
	DB	00H
	DB	0ffH
	DB	00H
	DB	0b4H
	DB	00H
	DB	0ffH
	DB	00H
	DB	0b4H
	DB	00H
	DB	0ffH
	DB	00H
	DB	0b4H
	DB	00H
	DB	0ffH
	DB	00H
	DB	0b4H
	DB	00H
	DB	0ffH
	DB	00H
	DB	0b4H
	DB	00H
	DB	0ffH
	DB	00H
	DB	0b4H
	DB	00H
	DB	0ffH
	DB	00H
	DB	0b4H
	DB	00H
	DB	0ffH
	DB	00H
	DB	0b4H
	DB	00H
	DB	0ffH
	DB	00H
	DB	0b4H
	DB	00H
	DB	0ffH
	DB	00H
	DB	0b4H
	DB	00H
	DB	0ffH
	DB	00H
	DB	0b4H
	DB	00H
	DB	0ffH
	DB	00H
	DB	0b4H
	DB	00H
	DB	0ffH
	DB	00H
	DB	0b4H
	DB	00H
	DB	0ffH
	DB	00H
	DB	0b4H
	DB	00H
	DB	0ffH
	DB	00H
	DB	0b4H
	DB	00H
	DB	0ffH
	DB	00H
	DB	0b4H
	DB	00H
	DB	0ffH
	DB	00H
	DB	0b4H
	DB	00H
	DB	0ffH
	DB	00H
	DB	0b4H
	DB	00H
	DB	0ffH
	DB	00H
	DB	0b4H
	DB	00H
	DB	0ffH
	DB	00H
	DB	0b4H
	DB	00H
	DB	0ffH
	DB	00H
	DB	0b4H
	DB	00H
	DB	0ffH
	DB	00H
	DB	0b4H
	DB	00H
	DB	0ffH
	DB	00H
	DB	0b4H
	DB	00H
	DB	0ffH
	DB	00H
	DB	0b4H
	DB	00H
	DB	0ffH
	DB	00H
	DB	0b4H
	DB	00H
	DB	0ffH
	DB	00H
	DB	0b4H
	DB	00H
	DB	0ffH
	DB	00H
	DB	0b4H
	DB	00H
	DB	0ffH
	DB	00H
	DB	0b4H
	DB	00H
	DB	0ffH
	DB	00H
	DB	0b4H
	DB	00H
	DB	0ffH
	DB	00H
	DB	0b4H
	DB	00H
	DB	0ffH
	DB	00H
	DB	0b4H
	DB	00H
	DB	0ffH
	DB	00H
	DB	0b4H
	DB	00H
	DB	0ffH
	DB	00H
	DB	0b4H
	DB	00H
	DB	0ffH
	DB	00H
	DB	0b4H
	DB	00H
	DB	0ffH
	DB	00H
	DB	0b4H
	DB	00H
	DB	0ffH
	DB	00H
	DB	0b4H
	DB	00H
	DB	0ffH
	DB	00H
	DB	0b4H
	DB	00H
	DB	0ffH
	DB	00H
	DB	0b4H
	DB	00H
	DB	0ffH
	DB	00H
	DB	0b4H
	DB	00H
	DB	0ffH
	DB	00H
	DB	0b4H
	DB	00H
	DB	0ffH
	DB	00H
	DB	0b4H
	DB	00H
	DB	0ffH
	DB	00H
	DB	0b4H
	DB	00H
	DB	0ffH
	DB	00H
	DB	0b4H
	DB	00H
	DB	0ffH
	DB	00H
	DB	0b4H
	DB	00H
	DB	0ffH
	DB	00H
	DB	0b4H
	DB	00H
	DB	0ffH
	DB	00H
	DB	0b4H
	DB	00H
	DB	0ffH
	DB	00H
	DB	0b4H
	DB	00H
	DB	0ffH
	DB	00H
	DB	0b4H
	DB	00H
	DB	0ffH
	DB	00H
	DB	0b4H
	DB	00H
	DB	0ffH
	DB	00H
	DB	0b4H
	DB	00H
	DB	0ffH
	DB	00H
	DB	0b4H
	DB	00H
	DB	0ffH
	DB	00H
	DB	0b4H
	DB	00H
	DB	0ffH
	DB	00H
	DB	0b4H
	DB	00H
	DB	0ffH
	DB	00H
	DB	0b4H
	DB	00H
	DB	0ffH
	DB	00H
	DB	0b4H
	DB	00H
	DB	0ffH
	DB	00H
	DB	0b4H
	DB	00H
	DB	0ffH
	DB	00H
	DB	0b4H
	DB	00H
	DB	0ffH
	DB	00H
	DB	0b4H
	DB	00H
	DB	0ffH
	DB	00H
	DB	0b4H
	DB	00H
	DB	0ffH
	DB	00H
	DB	0b4H
	DB	00H
	DB	0ffH
	DB	00H
	DB	0b4H
	DB	00H
	DB	0ffH
	DB	00H
	DB	0b4H
	DB	00H
	DB	0ffH
	DB	00H
	DB	0b4H
	DB	00H
	DB	0ffH
	DB	00H
	DB	0b4H
	DB	00H
	DB	0ffH
	DB	00H
	DB	0b4H
	DB	00H
	DB	0ffH
	DB	00H
	DB	0b4H
	DB	00H
	DB	0ffH
	DB	00H
	DB	0b4H
	DB	00H
	DB	0ffH
	DB	00H
	DB	0b4H
	DB	00H
	DB	0ffH
	DB	00H
	DB	0b4H
	DB	00H
	DB	0ffH
	DB	00H
	DB	0b4H
	DB	00H
	DB	0ffH
	DB	00H
	DB	0b4H
	DB	00H
	DB	0ffH
	DB	00H
	DB	0b4H
	DB	00H
	DB	0ffH
	DB	00H
	DB	0b4H
	DB	00H
	DB	0ffH
	DB	00H
	DB	0b4H
	DB	00H
	DB	0ffH
	DB	00H
	DB	0b4H
	DB	00H
	DB	0ffH
	DB	00H
	DB	0b4H
	DB	00H
	DB	0ffH
	DB	00H
	DB	0b4H
	DB	00H
	DB	0ffH
	DB	00H
	DB	0b4H
	DB	00H
	DB	0ffH
	DB	00H
	DB	0b4H
	DB	00H
	DB	0ffH
	DB	00H
	DB	0b4H
	DB	00H
	DB	0ffH
	DB	00H
	DB	0b4H
	DB	00H
	DB	0ffH
	DB	00H
	DB	0b4H
	DB	00H
	DB	0ffH
	DB	00H
	DB	0b4H
	DB	00H
	DB	0ffH
	DB	00H
	DB	0b4H
	DB	00H
	DB	0ffH
	DB	00H
	DB	0b4H
	DB	00H
	DB	0ffH
	DB	00H
	DB	0b4H
	DB	00H
	DB	0ffH
	DB	00H
	DB	0b4H
	DB	00H
	DB	0ffH
	DB	00H
	DB	0b4H
	DB	00H
	DB	0ffH
	DB	00H
	DB	0b4H
	DB	00H
	DB	0ffH
	DB	00H
	DB	0b4H
	DB	00H
	DB	0ffH
	DB	00H
	DB	0b4H
	DB	00H
	DB	0ffH
	DB	00H
	DB	0b4H
	DB	00H
	DB	0ffH
	DB	00H
	DB	0b4H
	DB	00H
	DB	0ffH
	DB	00H
	DB	0b4H
	DB	00H
	DB	0ffH
	DB	00H
	DB	0b4H
	DB	00H
	DB	0ffH
	DB	00H
	DB	0b4H
	DB	00H
	DB	0ffH
	DB	00H
	DB	0b4H
	DB	00H
	DB	0ffH
	DB	00H
	DB	0b4H
	DB	00H
	DB	0ffH
	DB	00H
	DB	0b4H
	DB	00H
	DB	0ffH
	DB	00H
	DB	0b4H
	DB	00H
	DB	0ffH
	DB	00H
	DB	0b4H
	DB	00H
	DB	0ffH
	DB	00H
	DB	0b4H
	DB	00H
	DB	0ffH
	DB	00H
	DB	0b4H
	DB	00H
	DB	0ffH
	DB	00H
	DB	0b4H
	DB	00H
	DB	0ffH
	DB	00H
	DB	0b4H
	DB	00H
	DB	0ffH
	DB	00H
	DB	0b4H
	DB	00H
	DB	0ffH
	DB	00H
	DB	0b4H
	DB	00H
	DB	0ffH
	DB	00H
	DB	0b4H
	DB	00H
	DB	0ffH
	DB	00H
	DB	0b4H
	DB	00H
	DB	0ffH
	DB	00H
	DB	0b4H
	DB	00H
	DB	0ffH
	DB	00H
	DB	0b4H
	DB	00H
	DB	0ffH
	DB	00H
	DB	0b4H
	DB	00H
	DB	0ffH
	DB	00H
	DB	0b4H
	DB	00H
	DB	0ffH
	DB	00H
	DB	0b4H
	DB	00H
	DB	0ffH
	DB	00H
	DB	0b4H
	DB	00H
	DB	0ffH
	DB	00H
	DB	0b4H
	DB	00H
	DB	0ffH
	DB	00H
	DB	0b4H
	DB	00H
	DB	0ffH
	DB	00H
	DB	0b4H
	DB	00H
	DB	0ffH
	DB	00H
	DB	0b4H
	DB	00H
	DB	0ffH
	DB	00H
	DB	0b4H
	DB	00H
	DB	0ffH
	DB	00H
	DB	0b4H
	DB	00H
	DB	0ffH
	DB	00H
	DB	0b4H
	DB	00H
	DB	0ffH
	DB	00H
	DB	0b4H
	DB	00H
	DB	0ffH
	DB	00H
	DB	0b4H
	DB	00H
	DB	0ffH
	DB	00H
	DB	0b4H
	DB	00H
	DB	0ffH
	DB	00H
	DB	0b4H
	DB	00H
	DB	0ffH
	DB	00H
	DB	0b4H
	DB	00H
	DB	0ffH
	DB	00H
	DB	0b4H
	DB	00H
	DB	0ffH
	DB	00H
	DB	0b4H
	DB	00H
	DB	0ffH
	DB	00H
	DB	0b4H
	DB	00H
	DB	0ffH
	DB	00H
	DB	0b4H
	DB	00H
	DB	0ffH
	DB	00H
	DB	0b4H
	DB	00H
	DB	0ffH
	DB	00H
	DB	0b4H
	DB	00H
	DB	0ffH
	DB	00H
	DB	0b4H
	DB	00H
	DB	0ffH
	DB	00H
	DB	0b4H
	DB	00H
	DB	0ffH
	DB	00H
	DB	0b4H
	DB	00H
	DB	0ffH
	DB	00H
	DB	0b4H
	DB	00H
	DB	0ffH
	DB	00H
	DB	0b4H
	DB	00H
	DB	0ffH
	DB	00H
	DB	0b4H
	DB	00H
	DB	0ffH
	DB	00H
	DB	0b4H
	DB	00H
	DB	0ffH
	DB	00H
	DB	0b4H
	DB	00H
	DB	0ffH
	DB	00H
	DB	0b4H
	DB	00H
	DB	0ffH
	DB	00H
	DB	0b4H
	DB	00H
	DB	0ffH
	DB	00H
	DB	0b4H
	DB	00H
	DB	0ffH
	DB	00H
	DB	0b4H
	DB	00H
	DB	0ffH
	DB	00H
	DB	0b4H
	DB	00H
	DB	0ffH
	DB	00H
	DB	0b4H
	DB	00H
	DB	0ffH
	DB	00H
	DB	0b4H
	DB	00H
	DB	0ffH
	DB	00H
	DB	0b4H
	DB	00H
	DB	0ffH
	DB	00H
	DB	0b4H
	DB	00H
	DB	0ffH
	DB	00H
	DB	0b4H
	DB	00H
	DB	0ffH
	DB	00H
	DB	0b4H
	DB	00H
	DB	0ffH
	DB	00H
	DB	0b4H
	DB	00H
	DB	0ffH
	DB	00H
	DB	0b4H
	DB	00H
	DB	0ffH
	DB	00H
	DB	0b4H
	DB	00H
	DB	0ffH
	DB	00H
	DB	0b4H
	DB	00H
	DB	0ffH
	DB	00H
	DB	0b4H
	DB	00H
	DB	0ffH
	DB	00H
	DB	0b4H
	DB	00H
	DB	0ffH
	DB	00H
	DB	0b4H
	DB	00H
	DB	0ffH
	DB	00H
	DB	0b4H
	DB	00H
	DB	0ffH
	DB	00H
	DB	0b4H
	DB	00H
	DB	0ffH
	DB	00H
	DB	0b4H
	DB	00H
	DB	0ffH
	DB	00H
	DB	0b4H
	DB	00H
	DB	0ffH
	DB	00H
	DB	0b4H
	DB	00H
	DB	0ffH
	DB	00H
	DB	0b4H
	DB	00H
	DB	0ffH
	DB	00H
	DB	0b4H
	DB	00H
	DB	0ffH
	DB	00H
	DB	0b4H
	DB	00H
	DB	0ffH
	DB	00H
	DB	0b4H
	DB	00H
	DB	0ffH
	DB	00H
	DB	0b4H
	DB	00H
	DB	0ffH
	DB	00H
	DB	0b4H
	DB	00H
	DB	0ffH
	DB	00H
	DB	0b4H
	DB	00H
	DB	0ffH
	DB	00H
	DB	0b4H
	DB	00H
	DB	0ffH
	DB	00H
	DB	0b4H
	DB	00H
	DB	0ffH
	DB	00H
	DB	0b4H
	DB	00H
	DB	0ffH
	DB	00H
	DB	0b4H
	DB	00H
	DB	0ffH
	DB	00H
	DB	0b4H
	DB	00H
	DB	0ffH
	DB	00H
	DB	0b4H
	DB	00H
	DB	0ffH
	DB	00H
	DB	0b4H
	DB	00H
	DB	0ffH
	DB	00H
	DB	0b4H
	DB	00H
	DB	0ffH
	DB	00H
	DB	0b4H
	DB	00H
	DB	0ffH
	DB	00H
	DB	0b4H
	DB	00H
	DB	0ffH
	DB	00H
	DB	0b4H
	DB	00H
	DB	0ffH
	DB	00H
	DB	0b4H
	DB	00H
	DB	0ffH
	DB	00H
	DB	0b4H
	DB	00H
	DB	0ffH
	DB	00H
	DB	0b4H
	DB	00H
	DB	0ffH
	DB	00H
	DB	0b4H
	DB	00H
	DB	0ffH
	DB	00H
	DB	0b4H
	DB	00H
	DB	0ffH
	DB	00H
	DB	0b4H
	DB	00H
	DB	0ffH
	DB	00H
	DB	0b4H
	DB	00H
	DB	0ffH
	DB	00H
	DB	0b4H
	DB	00H
	DB	0ffH
	DB	00H
	DB	0b4H
	DB	00H
	DB	0ffH
	DB	00H
	DB	0b4H
	DB	00H
	DB	0ffH
	DB	00H
	DB	0b4H
	DB	00H
	DB	0ffH
	DB	00H
	DB	0b4H
	DB	00H
	DB	0ffH
	DB	00H
	DB	0b4H
	DB	00H
	DB	0ffH
	DB	00H
	DB	0b4H
	DB	00H
	DB	0ffH
	DB	00H
	DB	0b4H
	DB	00H
	DB	0ffH
	DB	00H
	DB	0b4H
	DB	00H
	DB	0ffH
	DB	00H
	DB	0b4H
	DB	00H
	DB	0ffH
	DB	00H
	DB	0b4H
	DB	00H
	DB	0ffH
	DB	00H
	DB	0b4H
	DB	00H
	DB	0ffH
	DB	00H
	DB	0b4H
	DB	00H
	DB	0ffH
	DB	00H
	DB	0b4H
	DB	00H
	DB	0ffH
	DB	00H
	DB	0b4H
	DB	00H
	DB	0ffH
	DB	00H
	DB	0b4H
	DB	00H
	DB	0ffH
	DB	00H
	DB	0b4H
	DB	00H
	DB	0ffH
	DB	00H
	DB	0b4H
	DB	00H
	DB	0ffH
	DB	00H
	DB	0b4H
	DB	00H
	DB	0ffH
	DB	00H
	DB	0b4H
	DB	00H
	DB	0ffH
	DB	00H
	DB	0b4H
	DB	00H
	DB	0ffH
	DB	00H
	DB	0b4H
	DB	00H
	DB	0ffH
	DB	00H
	DB	0b4H
	DB	00H
	DB	0ffH
	DB	00H
	DB	0b4H
	DB	00H
	DB	0ffH
	DB	00H
	DB	0b4H
	DB	00H
	DB	0ffH
	DB	00H
	DB	0b4H
	DB	00H
	DB	0ffH
	DB	00H
	DB	0b4H
	DB	00H
	DB	0ffH
	DB	00H
	DB	0b4H
	DB	00H
	DB	0ffH
	DB	00H
	DB	0b4H
	DB	00H
	DB	0ffH
	DB	00H
	DB	0b4H
	DB	00H
	DB	0ffH
	DB	00H
	DB	0b4H
	DB	00H
	DB	0ffH
	DB	00H
	DB	0b4H
	DB	00H
	DB	0ffH
	DB	00H
	DB	0b4H
	DB	00H
	DB	0ffH
	DB	00H
	DB	0b4H
	DB	00H
	DB	0ffH
	DB	00H
	DB	0b4H
	DB	00H
	DB	0ffH
	DB	00H
	DB	0b4H
	DB	00H
	DB	0ffH
	DB	00H
	DB	0b4H
	DB	00H
	DB	0ffH
	DB	00H
	DB	0b4H
	DB	00H
	DB	0ffH
	DB	00H
	DB	0b4H
	DB	00H
	DB	0ffH
	DB	00H
	DB	0b4H
	DB	00H
	DB	0ffH
	DB	00H
	DB	0b4H
	DB	00H
	DB	0ffH
	DB	00H
	DB	0b4H
	DB	00H
	DB	0ffH
	DB	00H
	DB	0b4H
	DB	00H
	DB	0ffH
	DB	00H
	DB	0b4H
	DB	00H
	DB	0ffH
	DB	00H
	DB	0b4H
	DB	00H
	DB	0ffH
	DB	00H
	DB	0b4H
	DB	00H
	DB	0ffH
	DB	00H
	DB	0b4H
	DB	00H
	DB	0ffH
	DB	00H
	DB	0b4H
	DB	00H
	DB	0ffH
	DB	00H
	DB	0b4H
	DB	00H
	DB	0ffH
	DB	00H
	DB	0b4H
	DB	00H
	DB	0ffH
	DB	00H
	DB	0b4H
	DB	00H
	DB	0ffH
	DB	00H
	DB	0b4H
	DB	00H
	DB	0ffH
	DB	00H
	DB	0b4H
	DB	00H
	DB	0ffH
	DB	00H
	DB	0b4H
	DB	00H
	DB	0ffH
	DB	00H
	DB	0b4H
	DB	00H
	DB	0ffH
	DB	00H
	DB	0b4H
	DB	00H
	DB	0ffH
	DB	00H
	DB	0b4H
	DB	00H
	DB	0ffH
	DB	00H
	DB	0b4H
	DB	00H
	DB	0ffH
	DB	00H
	DB	0b4H
	DB	00H
	DB	0ffH
	DB	00H
	DB	0b4H
	DB	00H
	DB	0ffH
	DB	00H
	DB	0b4H
	DB	00H
	DB	0ffH
	DB	00H
	DB	0b4H
	DB	00H
	DB	0ffH
	DB	00H
	DB	0b4H
	DB	00H
	DB	0ffH
	DB	00H
	DB	0b4H
	DB	00H
	DB	0ffH
	DB	00H
	DB	0b4H
	DB	00H
	DB	0ffH
	DB	00H
	DB	0b4H
	DB	00H
	DB	0ffH
	DB	00H
	DB	0b4H
	DB	00H
	DB	0ffH
	DB	00H
	DB	0b4H
	DB	00H
	DB	0ffH
	DB	00H
	DB	0b4H
	DB	00H
	DB	0ffH
	DB	00H
	DB	0b4H
	DB	00H
	DB	0ffH
	DB	00H
	DB	0b4H
	DB	00H
	DB	0ffH
	DB	00H
	DB	0b4H
	DB	00H
	DB	0ffH
	DB	00H
	DB	0b4H
	DB	00H
	DB	0ffH
	DB	00H
	DB	0b4H
	DB	00H
	DB	0ffH
	DB	00H
	DB	0b4H
	DB	00H
	DB	0ffH
	DB	00H
	DB	0b4H
	DB	00H
	DB	0ffH
	DB	00H
	DB	0b4H
	DB	00H
	DB	0ffH
	DB	00H
	DB	0b4H
	DB	00H
	DB	0ffH
	DB	00H
	DB	0b4H
	DB	00H
	DB	0ffH
	DB	00H
	DB	0b4H
	DB	00H
	DB	0ffH
	DB	00H
	DB	0b4H
	DB	00H
	DB	0ffH
	DB	00H
	DB	0b4H
	DB	00H
	DB	0ffH
	DB	00H
	DB	0b4H
	DB	00H
	DB	0ffH
	DB	00H
	DB	0b4H
	DB	00H
	DB	0ffH
	DB	00H
	DB	0b4H
	DB	00H
	DB	0ffH
	DB	00H
	DB	0b4H
	DB	00H
	DB	0ffH
	DB	00H
	DB	0b4H
	DB	00H
	DB	0ffH
	DB	00H
	DB	0b4H
	DB	00H
	DB	0ffH
	DB	00H
	DB	0b4H
	DB	00H
	DB	0ffH
	DB	00H
	DB	0b4H
	DB	00H
	DB	0ffH
	DB	00H
	DB	0b4H
	DB	00H
	DB	0ffH
	DB	00H
	DB	0b4H
	DB	00H
	DB	0ffH
	DB	00H
	DB	0b4H
	DB	00H
	DB	0ffH
	DB	00H
	DB	0b4H
	DB	00H
	DB	0ffH
	DB	00H
	DB	0b4H
	DB	00H
	DB	0ffH
	DB	00H
	DB	0b4H
	DB	00H
	DB	0ffH
	DB	00H
	DB	0b4H
	DB	00H
	DB	0ffH
	DB	00H
	DB	0b4H
	DB	00H
	DB	0ffH
	DB	00H
	DB	0b4H
	DB	00H
	DB	0ffH
	DB	00H
	DB	0b4H
	DB	00H
	DB	0ffH
	DB	00H
	DB	0b4H
	DB	00H
	DB	0ffH
	DB	00H
	DB	0b4H
	DB	00H
	DB	0ffH
	DB	00H
	DB	0b4H
	DB	00H
	DB	0ffH
	DB	00H
	DB	0b4H
	DB	00H
	DB	0ffH
	DB	00H
	DB	0b4H
	DB	00H
	DB	0ffH
	DB	00H
	DB	0b4H
	DB	00H
	DB	0ffH
	DB	00H
	DB	0b4H
	DB	00H
	DB	0ffH
	DB	00H
	DB	0b4H
	DB	00H
	DB	0ffH
	DB	00H
	DB	0b4H
	DB	00H
	DB	0ffH
	DB	00H
	DB	0b4H
	DB	00H
	DB	0ffH
	DB	00H
	DB	0b4H
	DB	00H
	DB	0ffH
	DB	00H
	DB	0b4H
	DB	00H
	DB	0ffH
	DB	00H
	DB	0b4H
	DB	00H
	DB	0ffH
	DB	00H
	DB	0b4H
	DB	00H
	DB	0ffH
	DB	00H
	DB	0b4H
	DB	00H
	DB	0ffH
	DB	00H
	DB	0b4H
	DB	00H
	DB	0ffH
	DB	00H
	DB	0b4H
	DB	00H
	DB	0ffH
	DB	00H
	DB	0b4H
	DB	00H
	DB	0ffH
	DB	00H
	DB	0b4H
	DB	00H
	DB	0ffH
	DB	00H
	DB	0b4H
	DB	00H
	DB	0ffH
	DB	00H
	DB	0b4H
	DB	00H
	DB	0ffH
	DB	00H
	DB	0b4H
	DB	00H
	DB	0ffH
	DB	00H
	DB	0b4H
	DB	00H
	DB	0ffH
	DB	00H
	DB	0b4H
	DB	00H
	DB	0ffH
	DB	00H
	DB	0b4H
	DB	00H
	DB	0ffH
	DB	00H
	DB	0b4H
	DB	00H
	DB	0ffH
	DB	00H
	DB	0b4H
	DB	00H
	DB	0ffH
	DB	00H
	DB	0b4H
	DB	00H
	DB	0ffH
	DB	00H
	DB	0b4H
	DB	00H
	DB	0ffH
	DB	00H
	DB	0b4H
	DB	00H
	DB	0ffH
	DB	00H
	DB	0b4H
	DB	00H
	DB	0ffH
	DB	00H
	DB	0b4H
	DB	00H
	DB	0ffH
	DB	00H
	DB	0b4H
	DB	00H
	DB	0ffH
	DB	00H
	DB	0b4H
	DB	00H
	DB	0ffH
	DB	00H
	DB	0b4H
	DB	00H
	DB	0ffH
	DB	00H
	DB	0b4H
	DB	00H
	DB	0ffH
	DB	00H
	DB	0b4H
	DB	00H
	DB	0ffH
	DB	00H
	DB	0b4H
	DB	00H
	DB	0ffH
	DB	00H
	DB	0b4H
	DB	00H
	DB	0ffH
	DB	00H
	DB	0b4H
	DB	00H
	DB	0ffH
	DB	00H
	DB	0b4H
	DB	00H
	DB	0ffH
	DB	00H
	DB	0b4H
	DB	00H
	DB	0ffH
	DB	00H
	DB	0b4H
	DB	00H
	DB	0ffH
	DB	00H
	DB	0b4H
	DB	00H
	DB	0ffH
	DB	00H
	DB	0b4H
	DB	00H
	DB	0ffH
	DB	00H
	DB	0b4H
	DB	00H
	DB	0ffH
	DB	00H
	DB	0b4H
	DB	00H
	DB	0ffH
	DB	00H
	DB	0b4H
	DB	00H
	DB	0ffH
	DB	00H
	DB	0b4H
	DB	00H
	DB	0ffH
	DB	00H
	DB	0b4H
	DB	00H
	DB	0ffH
	DB	00H
	DB	0b4H
	DB	00H
	DB	0ffH
	DB	00H
	DB	0b4H
	DB	00H
	DB	0ffH
	DB	00H
	DB	0b4H
	DB	00H
	DB	0ffH
	DB	00H
	DB	0b4H
	DB	00H
	DB	0ffH
	DB	00H
	DB	0b4H
	DB	00H
	DB	0ffH
	DB	00H
	DB	0b4H
	DB	00H
	DB	0ffH
	DB	00H
	DB	0b4H
	DB	00H
	DB	0ffH
	DB	00H
	DB	0b4H
	DB	00H
	DB	0ffH
	DB	00H
	DB	0b4H
	DB	00H
	DB	0ffH
	DB	00H
	DB	0b4H
	DB	00H
	DB	0ffH
	DB	00H
	DB	0b4H
	DB	00H
	DB	0ffH
	DB	00H
	DB	0b4H
	DB	00H
	DB	0ffH
	DB	00H
	DB	0b4H
	DB	00H
	DB	0ffH
	DB	00H
	DB	0b4H
	DB	00H
	DB	0ffH
	DB	00H
	DB	0b4H
	DB	00H
	DB	0ffH
	DB	00H
	DB	0b4H
	DB	00H
	DB	0ffH
	DB	00H
	DB	0b4H
	DB	00H
	DB	0ffH
	DB	00H
	DB	0b4H
	DB	00H
	DB	0ffH
	DB	00H
	DB	0b4H
	DB	00H
	DB	0ffH
	DB	00H
	DB	0b4H
	DB	00H
	DB	0ffH
	DB	00H
	DB	0b4H
	DB	00H
	DB	0ffH
	DB	00H
	DB	0b4H
	DB	00H
	DB	0ffH
	DB	00H
	DB	0b4H
	DB	00H
	DB	0ffH
	DB	00H
	DB	0b4H
	DB	00H
	DB	0ffH
	DB	00H
	DB	0b4H
	DB	00H
	DB	0ffH
	DB	00H
	DB	0b4H
	DB	00H
	DB	0ffH
	DB	00H
	DB	0b4H
	DB	00H
	DB	0ffH
	DB	00H
	DB	0b4H
	DB	00H
	DB	0ffH
	DB	00H
	DB	0b4H
	DB	00H
	DB	0ffH
	DB	00H
	DB	0b4H
	DB	00H
	DB	0ffH
	DB	00H
	DB	0b4H
	DB	00H
	DB	0ffH
	DB	00H
	DB	0b4H
	DB	00H
	DB	0ffH
	DB	00H
	DB	0b4H
	DB	00H
	DB	0ffH
	DB	00H
	DB	0b4H
	DB	00H
	DB	0ffH
	DB	00H
	DB	0b4H
	DB	00H
	DB	0ffH
	DB	00H
	DB	0b4H
	DB	00H
	DB	0ffH
	DB	00H
	DB	0b4H
	DB	00H
	DB	0ffH
	DB	00H
	DB	0b4H
	DB	00H
	DB	0ffH
	DB	00H
	DB	0b4H
	DB	00H
	DB	0ffH
	DB	00H
	DB	0b4H
	DB	00H
	DB	0ffH
	DB	00H
	DB	0b4H
	DB	00H
	DB	0ffH
	DB	00H
	DB	0b4H
	DB	00H
	DB	0ffH
	DB	00H
	DB	0b4H
	DB	00H
	DB	0ffH
	DB	00H
	DB	0b4H
	DB	00H
	DB	0ffH
	DB	00H
	DB	0b4H
	DB	00H
	DB	0ffH
	DB	00H
	DB	0b4H
	DB	00H
	DB	0ffH
	DB	00H
	DB	0b4H
	DB	00H
	DB	0ffH
	DB	00H
	DB	0b4H
	DB	00H
	DB	0ffH
	DB	00H
	DB	0b4H
	DB	00H
	DB	0ffH
	DB	00H
	DB	0b4H
	DB	00H
	DB	0ffH
	DB	00H
	DB	0b4H
	DB	00H
	DB	0ffH
	DB	00H
	DB	0b4H
	DB	00H
	DB	0ffH
	DB	00H
	DB	0b4H
	DB	00H
	DB	0ffH
	DB	00H
	DB	0b4H
	DB	00H
	DB	0ffH
	DB	00H
	DB	0b4H
	DB	00H
	DB	0ffH
	DB	00H
	DB	0b4H
	DB	00H
	DB	0ffH
	DB	00H
	DB	0b4H
	DB	00H
	DB	0ffH
	DB	00H
	DB	0b4H
	DB	00H
	DB	0ffH
	DB	00H
	DB	0b4H
	DB	00H
	DB	0ffH
	DB	00H
	DB	0b4H
	DB	00H
	DB	0ffH
	DB	00H
	DB	0b4H
	DB	00H
	DB	0ffH
	DB	00H
	DB	0b4H
	DB	00H
	DB	0ffH
	DB	00H
	DB	0b4H
	DB	00H
	DB	0ffH
	DB	00H
	DB	0b4H
	DB	00H
	DB	0ffH
	DB	00H
	DB	0b4H
	DB	00H
	DB	0ffH
	DB	00H
	DB	0b4H
	DB	00H
	DB	0ffH
	DB	00H
	DB	0b4H
	DB	00H
	DB	0ffH
	DB	00H
	DB	0b4H
	DB	00H
	DB	0ffH
	DB	00H
	DB	0b4H
	DB	00H
	DB	0ffH
	DB	00H
	DB	0b4H
	DB	00H
	DB	0ffH
	DB	00H
	DB	0b4H
	DB	00H
	DB	0ffH
	DB	00H
	DB	0b4H
	DB	00H
	DB	0ffH
	DB	00H
	DB	0b4H
	DB	00H
	DB	0ffH
	DB	00H
	DB	0b4H
	DB	00H
	DB	0ffH
	DB	00H
	DB	0b4H
	DB	00H
	DB	0ffH
	DB	00H
	DB	0b4H
	DB	00H
	DB	0ffH
	DB	00H
	DB	0b4H
	DB	00H
	DB	0ffH
	DB	00H
	DB	0b4H
	DB	00H
	DB	0ffH
	DB	00H
	DB	0b4H
	DB	00H
	DB	0ffH
	DB	00H
	DB	0b4H
	DB	00H
	DB	0ffH
	DB	00H
	DB	0b4H
	DB	00H
	DB	0ffH
	DB	00H
	DB	0b4H
	DB	00H
	DB	0ffH
	DB	00H
	DB	0b4H
	DB	00H
	DB	0ffH
	DB	00H
	DB	0b4H
	DB	00H
	DB	0ffH
	DB	00H
	DB	0b4H
	DB	00H
	DB	0ffH
	DB	00H
	DB	0b4H
	DB	00H
	DB	0ffH
	DB	00H
	DB	0b4H
	DB	00H
	DB	0ffH
	DB	00H
	DB	0b4H
	DB	00H
	DB	0ffH
	DB	00H
	DB	0b4H
	DB	00H
	DB	0ffH
	DB	00H
	DB	0b4H
	DB	00H
	DB	0ffH
	DB	00H
	DB	0b4H
	DB	00H
	DB	0ffH
	DB	00H
	DB	0b4H
	DB	00H
	DB	0ffH
	DB	00H
	DB	0b4H
	DB	00H
	DB	0ffH
	DB	00H
	DB	0b4H
	DB	00H
	DB	0ffH
	DB	00H
	DB	0b4H
	DB	00H
	DB	0ffH
	DB	00H
	DB	0b4H
	DB	00H
	DB	0ffH
	DB	00H
	DB	0b4H
	DB	00H
	DB	0ffH
	DB	00H
	DB	0b4H
	DB	00H
	DB	0ffH
	DB	00H
	DB	0b4H
	DB	00H
	DB	0ffH
	DB	00H
	DB	0b4H
	DB	00H
	DB	0ffH
	DB	00H
	DB	0b4H
	DB	00H
	DB	0ffH
	DB	00H
	DB	0b4H
	DB	00H
	DB	0ffH
	DB	00H
	DB	0b4H
	DB	00H
	DB	0ffH
	DB	00H
	DB	0b4H
	DB	00H
	DB	0ffH
	DB	00H
	DB	0b4H
	DB	00H
	DB	0ffH
	DB	00H
	DB	0b4H
	DB	00H
	DB	0ffH
	DB	00H
	DB	0b4H
	DB	00H
	DB	0ffH
	DB	00H
	DB	0b4H
	DB	00H
	DB	0ffH
	DB	00H
	DB	0b4H
	DB	00H
	DB	0ffH
	DB	00H
	DB	0b4H
	DB	00H
	DB	0ffH
	DB	00H
	DB	0b4H
	DB	00H
	DB	0ffH
	DB	00H
	DB	0b4H
	DB	00H
	DB	0ffH
	DB	00H
	DB	0b4H
	DB	00H
	DB	0ffH
	DB	00H
	DB	0b4H
	DB	00H
	DB	0ffH
	DB	00H
	DB	0b4H
	DB	00H
	DB	0ffH
	DB	00H
	DB	0b4H
	DB	00H
	DB	0ffH
	DB	00H
	DB	0b4H
	DB	00H
	DB	0ffH
	DB	00H
	DB	0b4H
	DB	00H
	DB	0ffH
	DB	00H
	DB	0b4H
	DB	00H
	DB	0ffH
	DB	00H
	DB	0b4H
	DB	00H
	DB	0ffH
	DB	00H
	DB	0b4H
	DB	00H
	DB	0ffH
	DB	00H
	DB	0b4H
	DB	00H
	DB	0ffH
	DB	00H
	DB	0b4H
	DB	00H
	DB	0ffH
	DB	00H
	DB	0b4H
	DB	00H
	DB	0ffH
	DB	00H
	DB	0b4H
	DB	00H
	DB	0ffH
	DB	00H
	DB	0b4H
	DB	00H
	DB	0ffH
	DB	00H
	DB	0b4H
	DB	00H
	DB	0ffH
	DB	00H
	DB	0b4H
	DB	00H
	DB	0ffH
	DB	00H
	DB	0b4H
	DB	00H
	DB	0ffH
	DB	00H
	DB	0b4H
	DB	00H
	DB	0ffH
	DB	00H
	DB	0b4H
	DB	00H
	DB	0ffH
	DB	00H
	DB	0b4H
	DB	00H
	DB	0ffH
	DB	00H
	DB	0b4H
	DB	00H
	DB	0ffH
	DB	00H
	DB	0b4H
	DB	00H
	DB	0ffH
	DB	00H
	DB	0b4H
	DB	00H
	DB	0ffH
	DB	00H
	DB	0b4H
	DB	00H
	DB	0ffH
	DB	00H
	DB	0b4H
	DB	00H
	DB	0ffH
	DB	00H
	DB	0b4H
	DB	00H
	DB	0ffH
	DB	00H
	DB	0b4H
	DB	00H
	DB	0ffH
	DB	00H
	DB	0b4H
	DB	00H
	DB	0ffH
	DB	00H
	DB	0b4H
	DB	00H
	DB	0ffH
	DB	00H
	DB	0b4H
	DB	00H
	DB	0ffH
	DB	00H
	DB	0b4H
	DB	00H
	DB	0ffH
	DB	00H
	DB	0b4H
	DB	00H
	DB	0ffH
	DB	00H
	DB	0b4H
	DB	00H
	DB	0ffH
	DB	00H
	DB	0b4H
	DB	00H
	DB	0ffH
	DB	00H
	DB	0b4H
	DB	00H
	DB	0ffH
	DB	00H
	DB	0b4H
	DB	00H
	DB	0ffH
	DB	00H
	DB	0b4H
	DB	00H
	DB	0ffH
	DB	00H
	DB	0b4H
	DB	00H
	DB	0ffH
	DB	00H
	DB	0b4H
	DB	00H
	DB	0ffH
	DB	00H
	DB	0b4H
	DB	00H
	DB	0ffH
	DB	00H
	DB	0b4H
	DB	00H
	DB	0ffH
	DB	00H
	DB	0b4H
	DB	00H
	DB	0ffH
	DB	00H
	DB	0b4H
	DB	00H
	DB	0ffH
	DB	00H
	DB	0b4H
	DB	00H
	DB	0ffH
	DB	00H
	DB	0b4H
	DB	00H
	DB	0ffH
	DB	00H
	DB	0b4H
	DB	00H
	DB	0ffH
	DB	00H
	DB	0b4H
	DB	00H
	DB	0ffH
	DB	00H
	DB	0b4H
	DB	00H
	DB	0ffH
	DB	00H
	DB	0b4H
	DB	00H
	DB	0ffH
	DB	00H
	DB	0b4H
	DB	00H
	DB	0ffH
	DB	00H
	DB	0b4H
	DB	00H
	DB	0ffH
	DB	00H
	DB	0b4H
	DB	00H
	DB	0ffH
	DB	00H
	DB	0b4H
	DB	00H
	DB	0ffH
	DB	00H
	DB	0b4H
	DB	00H
	DB	0ffH
	DB	00H
	DB	0b4H
	DB	00H
	DB	0ffH
	DB	00H
	DB	0b4H
	DB	00H
	DB	0ffH
	DB	00H
	DB	0b4H
	DB	00H
	DB	0ffH
	DB	00H
	DB	0b4H
	DB	00H
	DB	0ffH
	DB	00H
	DB	0b4H
	DB	00H
	DB	0ffH
	DB	00H
	DB	0b4H
	DB	00H
	DB	0ffH
	DB	00H
	DB	0b4H
	DB	00H
	DB	0ffH
	DB	00H
	DB	0b4H
	DB	00H
	DB	0ffH
	DB	00H
	DB	0b4H
	DB	00H
	DB	0ffH
	DB	00H
	DB	0b4H
	DB	00H
	DB	0ffH
	DB	00H
	DB	0b4H
	DB	00H
	DB	0ffH
	DB	00H
	DB	0b4H
	DB	00H
	DB	0ffH
	DB	00H
	DB	0b4H
	DB	00H
	DB	0ffH
	DB	00H
	DB	0b4H
	DB	00H
	DB	0ffH
	DB	00H
	DB	0b4H
	DB	00H
	DB	0ffH
	DB	00H
	DB	0b4H
	DB	00H
	DB	0ffH
	DB	00H
	DB	0b4H
	DB	00H
	DB	0ffH
	DB	00H
	DB	0b4H
	DB	00H
	DB	0ffH
	DB	00H
	DB	0b4H
	DB	00H
	DB	0ffH
	DB	00H
	DB	0b4H
	DB	00H
	DB	0ffH
	DB	00H
	DB	0b4H
	DB	00H
	DB	0ffH
	DB	00H
	DB	0b4H
	DB	00H
	DB	0ffH
	DB	00H
	DB	0b4H
	DB	00H
	DB	0ffH
	DB	00H
	DB	0b4H
	DB	00H
	DB	0ffH
	DB	00H
	DB	0b4H
	DB	00H
	DB	0ffH
	DB	00H
	DB	0b4H
	DB	00H
	DB	0ffH
	DB	00H
	DB	0b4H
	DB	00H
	DB	0ffH
	DB	00H
	DB	0b4H
	DB	00H
	DB	0ffH
	DB	00H
	DB	0b4H
	DB	00H
	DB	0ffH
	DB	00H
	DB	0b4H
	DB	00H
	DB	0ffH
	DB	00H
	DB	0b4H
	DB	00H
	DB	0ffH
	DB	00H
	DB	0b4H
	DB	00H
	DB	0ffH
	DB	00H
	DB	0b4H
	DB	00H
	DB	0ffH
	DB	00H
	DB	0b4H
	DB	00H
	DB	0ffH
	DB	00H
	DB	0b4H
	DB	00H
	DB	0ffH
	DB	00H
	DB	0b4H
	DB	00H
	DB	0ffH
	DB	00H
	DB	0b4H
	DB	00H
	DB	0ffH
	DB	00H
	DB	0b4H
	DB	00H
	DB	0ffH
	DB	00H
	DB	0b4H
	DB	00H
	DB	0ffH
	DB	00H
	DB	0b4H
	DB	00H
	DB	0ffH
	DB	00H
	DB	0b4H
	DB	00H
	DB	0ffH
	DB	00H
	DB	0b4H
	DB	00H
	DB	0ffH
	DB	00H
	DB	0b4H
	DB	00H
	DB	0ffH
	DB	00H
	DB	0b4H
	DB	00H
	DB	0ffH
	DB	00H
	DB	0b4H
	DB	00H
	DB	0ffH
	DB	00H
	DB	0b4H
	DB	00H
	DB	0ffH
	DB	00H
	DB	0b4H
	DB	00H
	DB	0ffH
	DB	00H
	DB	0b4H
	DB	00H
	DB	0ffH
	DB	00H
	DB	0b4H
	DB	00H
	DB	0ffH
	DB	00H
	DB	0b4H
	DB	00H
	DB	0ffH
	DB	00H
	DB	0b4H
	DB	00H
	DB	0ffH
	DB	00H
	DB	0b4H
	DB	00H
	DB	0ffH
	DB	00H
	DB	0b4H
	DB	00H
	DB	0ffH
	DB	00H
	DB	0b4H
	DB	00H
	DB	0ffH
	DB	00H
	DB	0b4H
	DB	00H
	DB	0ffH
	DB	00H
	DB	0b4H
	DB	00H
	DB	0ffH
	DB	00H
	DB	0b4H
	DB	00H
	DB	0ffH
	DB	00H
	DB	0b4H
	DB	00H
	DB	0ffH
	DB	00H
	DB	0b4H
	DB	00H
	DB	0ffH
	DB	00H
	DB	0b4H
	DB	00H
	DB	0ffH
	DB	00H
	DB	0b4H
	DB	00H
	DB	0ffH
	DB	00H
	DB	0b4H
	DB	00H
	DB	0ffH
	DB	00H
	DB	0b4H
	DB	00H
	DB	0ffH
	DB	00H
	DB	0b4H
	DB	00H
	DB	0ffH
	DB	00H
	DB	0b4H
	DB	00H
	DB	0ffH
	DB	00H
	DB	0b4H
	DB	00H
	DB	0ffH
	DB	00H
	DB	0b4H
	DB	00H
	DB	0ffH
	DB	00H
	DB	0b4H
	DB	00H
	DB	0ffH
	DB	00H
	DB	0b4H
	DB	00H
	DB	0ffH
	DB	00H
	DB	0b4H
	DB	00H
	DB	0ffH
	DB	00H
	DB	0b4H
	DB	00H
	DB	0ffH
	DB	00H
	DB	0b4H
	DB	00H
	DB	0ffH
	DB	00H
	DB	0b4H
	DB	00H
	DB	0ffH
	DB	00H
	DB	0b4H
	DB	00H
	DB	0ffH
	DB	00H
	DB	0b4H
	DB	00H
	DB	0ffH
	DB	00H
	DB	0b4H
	DB	00H
	DB	0ffH
	DB	00H
	DB	0b4H
	DB	00H
	DB	0ffH
	DB	00H
	DB	0b4H
	DB	00H
	DB	0ffH
	DB	00H
	DB	0b4H
	DB	00H
	DB	0ffH
	DB	00H
	DB	0b4H
	DB	00H
	DB	0ffH
	DB	00H
	DB	0b4H
	DB	00H
	DB	0ffH
	DB	00H
	DB	0b4H
	DB	00H
	DB	0ffH
	DB	00H
	DB	0b4H
	DB	00H
	DB	0ffH
	DB	00H
	DB	0b4H
	DB	00H
	DB	0ffH
	DB	00H
	DB	0b4H
	DB	00H
	DB	0ffH
	DB	00H
	DB	0b4H
	DB	00H
	DB	0ffH
	DB	00H
	DB	0b4H
	DB	00H
	DB	0ffH
	DB	00H
	DB	0b4H
	DB	00H
	DB	0ffH
	DB	00H
	DB	0b4H
	DB	00H
	DB	0ffH
	DB	00H
	DB	0b4H
	DB	00H
	DB	0ffH
	DB	00H
	DB	0b4H
	DB	00H
	DB	0ffH
	DB	00H
	DB	0b4H
	DB	00H
	DB	0ffH
	DB	00H
	DB	0b4H
	DB	00H
	DB	0ffH
	DB	00H
	DB	0b4H
	DB	00H
	DB	0ffH
	DB	00H
	DB	0b4H
	DB	00H
	DB	0ffH
	DB	00H
	DB	0b4H
	DB	00H
	DB	0ffH
	DB	00H
	DB	0b4H
	DB	00H
	DB	0ffH
	DB	00H
	DB	0b4H
	DB	00H
	DB	0ffH
	DB	00H
	DB	0b4H
	DB	00H
	DB	0ffH
	DB	00H
	DB	0b4H
	DB	00H
	DB	0ffH
	DB	00H
	DB	0b4H
	DB	00H
	DB	0ffH
	DB	00H
	DB	0b4H
	DB	00H
	DB	0ffH
	DB	00H
	DB	0b4H
	DB	00H
	DB	0ffH
	DB	00H
	DB	0b4H
	DB	00H
	DB	0ffH
	DB	00H
	DB	0b4H
	DB	00H
	DB	0ffH
	DB	00H
	DB	0b4H
	DB	00H
	DB	0ffH
	DB	00H
	DB	0b4H
	DB	00H
	DB	0ffH
	DB	00H
	DB	0b4H
	DB	00H
	DB	0ffH
	DB	00H
	DB	0b4H
	DB	00H
	DB	0ffH
	DB	00H
	DB	0b4H
	DB	00H
	DB	0ffH
	DB	00H
	DB	0b4H
	DB	00H
	DB	0ffH
	DB	00H
	DB	0b4H
	DB	00H
	DB	0ffH
	DB	00H
	DB	0b4H
	DB	00H
	DB	0ffH
	DB	00H
	DB	0b4H
	DB	00H
	DB	0ffH
	DB	00H
	DB	0b4H
	DB	00H
	DB	0ffH
	DB	00H
	DB	0b4H
	DB	00H
	DB	0ffH
	DB	00H
	DB	0b4H
	DB	00H
	DB	0ffH
	DB	00H
	DB	0b4H
	DB	00H
	DB	0ffH
	DB	00H
	DB	0b4H
	DB	00H
	DB	0ffH
	DB	00H
	DB	0b4H
	DB	00H
	DB	0ffH
	DB	00H
	DB	0b4H
	DB	00H
	DB	0ffH
	DB	00H
	DB	0b4H
	DB	00H
	DB	0ffH
	DB	00H
	DB	0b4H
	DB	00H
	DB	0ffH
	DB	00H
	DB	0b4H
	DB	00H
	DB	0ffH
	DB	00H
	DB	0b4H
	DB	00H
	DB	0ffH
	DB	00H
	DB	0b4H
	DB	00H
	DB	0ffH
	DB	00H
	DB	0b4H
	DB	00H
	DB	0ffH
	DB	00H
	DB	0b4H
	DB	00H
	DB	0ffH
	DB	00H
	DB	0b4H
	DB	00H
	DB	0ffH
	DB	00H
	DB	0b4H
	DB	00H
	DB	0ffH
	DB	00H
	DB	0b4H
	DB	00H
	DB	0ffH
	DB	00H
	DB	0b4H
	DB	00H
	DB	0ffH
	DB	00H
	DB	0b4H
	DB	00H
	DB	0ffH
	DB	00H
	DB	0b4H
	DB	00H
	DB	0ffH
	DB	00H
	DB	0b4H
	DB	00H
	DB	0ffH
	DB	00H
	DB	0b4H
	DB	00H
	DB	0ffH
	DB	00H
	DB	0b4H
	DB	00H
	DB	0ffH
	DB	00H
	DB	0b4H
	DB	00H
	DB	0ffH
	DB	00H
	DB	0b4H
	DB	00H
	DB	0ffH
	DB	00H
	DB	0b4H
	DB	00H
	DB	0ffH
	DB	00H
	DB	0b4H
	DB	00H
	DB	0ffH
	DB	00H
	DB	0b4H
	DB	00H
	DB	0ffH
	DB	00H
	DB	0b4H
	DB	00H
	DB	0ffH
	DB	00H
	DB	0b4H
	DB	00H
	DB	0ffH
	DB	00H
	DB	0b4H
	DB	00H
	DB	0ffH
	DB	00H
	DB	0b4H
	DB	00H
	DB	0ffH
	DB	00H
	DB	0b4H
	DB	00H
	DB	0ffH
	DB	00H
	DB	0b4H
	DB	00H
	DB	0ffH
	DB	00H
	DB	0b4H
	DB	00H
	DB	0ffH
	DB	00H
	DB	0b4H
	DB	00H
	DB	0ffH
	DB	00H
	DB	0b4H
	DB	00H
	DB	0ffH
	DB	00H
	DB	0b4H
	DB	00H
	DB	0ffH
	DB	00H
	DB	0b4H
	DB	00H
	DB	0ffH
	DB	00H
	DB	0b4H
	DB	00H
	DB	0ffH
	DB	00H
	DB	0b4H
	DB	00H
	DB	0ffH
	DB	00H
	DB	0b4H
	DB	00H
	DB	0ffH
	DB	00H
	DB	0b4H
	DB	00H
	DB	0ffH
	DB	00H
	DB	0b4H
	DB	00H
	DB	0ffH
	DB	00H
	DB	0b4H
	DB	00H
	DB	0ffH
	DB	00H
	DB	0b4H
	DB	00H
	DB	0ffH
	DB	00H
	DB	0b4H
	DB	00H
	DB	0ffH
	DB	00H
	DB	0b4H
	DB	00H
	DB	0ffH
	DB	00H
	DB	0b4H
	DB	00H
	DB	0ffH
	DB	00H
	DB	0b4H
	DB	00H
	DB	0ffH
	DB	00H
	DB	0b4H
	DB	00H
	DB	0ffH
	DB	00H
	DB	0b4H
	DB	00H
	DB	0ffH
	DB	00H
	DB	0b4H
	DB	00H
	DB	0ffH
	DB	00H
	DB	0b4H
	DB	00H
	DB	0ffH
	DB	00H
	DB	0b4H
	DB	00H
	DB	0ffH
	DB	00H
	DB	0b4H
	DB	00H
	DB	0ffH
	DB	00H
	DB	0b4H
	DB	00H
	DB	0ffH
	DB	00H
	DB	0b4H
	DB	00H
	DB	0ffH
	DB	00H
	DB	0b4H
	DB	00H
	DB	0ffH
	DB	00H
	DB	0b4H
	DB	00H
	DB	0ffH
	DB	00H
	DB	0b4H
	DB	00H
	DB	0ffH
	DB	00H
	DB	0b4H
	DB	00H
	DB	0ffH
	DB	00H
	DB	0b4H
	DB	00H
	DB	0ffH
	DB	00H
	DB	0b4H
	DB	00H
	DB	0ffH
	DB	00H
	DB	0b4H
	DB	00H
	DB	0ffH
	DB	00H
	DB	0b4H
	DB	00H
	DB	0ffH
	DB	00H
	DB	0b4H
	DB	00H
	DB	0ffH
	DB	00H
	DB	0b4H
	DB	00H
	DB	0ffH
	DB	00H
	DB	0b4H
	DB	00H
	DB	0ffH
	DB	00H
	DB	0b4H
	DB	00H
	DB	0ffH
	DB	00H
	DB	0b4H
	DB	00H
	DB	0ffH
	DB	00H
	DB	0b4H
	DB	00H
	DB	0ffH
	DB	00H
	DB	0b4H
	DB	00H
	DB	0ffH
	DB	00H
	DB	0b4H
	DB	00H
	DB	0ffH
	DB	00H
	DB	0b4H
	DB	00H
	DB	0ffH
	DB	00H
	DB	0b4H
	DB	00H
	DB	0ffH
	DB	00H
	DB	0b4H
	DB	00H
	DB	0ffH
	DB	00H
	DB	0b4H
	DB	00H
	DB	0ffH
	DB	00H
	DB	0b4H
	DB	00H
	DB	0ffH
	DB	00H
	DB	0b4H
	DB	00H
	DB	0ffH
	DB	00H
	DB	0b4H
	DB	00H
	DB	0ffH
	DB	00H
	DB	0b4H
	DB	00H
	DB	0ffH
	DB	00H
	DB	0b4H
	DB	00H
	DB	0ffH
	DB	00H
	DB	0b4H
	DB	00H
	DB	0ffH
	DB	00H
	DB	0b4H
	DB	00H
	DB	0ffH
	DB	00H
	DB	0b4H
	DB	00H
	DB	0ffH
	DB	00H
	DB	0b4H
	DB	00H
	DB	0ffH
	DB	00H
	DB	0b4H
	DB	00H
	DB	0ffH
	DB	00H
	DB	0b4H
	DB	00H
	DB	0ffH
	DB	00H
	DB	0b4H
	DB	00H
	DB	0ffH
	DB	00H
	DB	0b4H
	DB	00H
	DB	0ffH
	DB	00H
	DB	0b4H
	DB	00H
	DB	0ffH
	DB	00H
	DB	0b4H
	DB	00H
	DB	0ffH
	DB	00H
	DB	0b4H
	DB	00H
	DB	0ffH
	DB	00H
	DB	0b4H
	DB	00H
	DB	0ffH
	DB	00H
	DB	0b4H
	DB	00H
	DB	0ffH
	DB	00H
	DB	0b4H
	DB	00H
	DB	0ffH
	DB	00H
	DB	0b4H
	DB	00H
	DB	0ffH
	DB	00H
	DB	0b4H
	DB	00H
	DB	0ffH
	DB	00H
	DB	0b4H
	DB	00H
	DB	0ffH
	DB	00H
	DB	0b4H
	DB	00H
	DB	0ffH
	DB	00H
	DB	0b4H
	DB	00H
	DB	0ffH
	DB	00H
	DB	0b4H
	DB	00H
	DB	0ffH
	DB	00H
	DB	0b4H
	DB	00H
	DB	0ffH
	DB	00H
	DB	0b4H
	DB	00H
	DB	0ffH
	DB	00H
	DB	0b4H
	DB	00H
	DB	0ffH
	DB	00H
	DB	0b4H
	DB	00H
	DB	0ffH
	DB	00H
	DB	0b4H
	DB	00H
	DB	0ffH
	DB	00H
	DB	0b4H
	DB	00H
	DB	0ffH
	DB	00H
	DB	0b4H
	DB	00H
	DB	0ffH
	DB	00H
	DB	0b4H
	DB	00H
	DB	0ffH
	DB	00H
	DB	0b4H
	DB	00H
	DB	0ffH
	DB	00H
	DB	0b4H
	DB	00H
	DB	0ffH
	DB	00H
	DB	0b4H
	DB	00H
	DB	0ffH
	DB	00H
	DB	0b4H
	DB	00H
	DB	0ffH
	DB	00H
	DB	0b4H
	DB	00H
	DB	0ffH
	DB	00H
	DB	0b4H
	DB	00H
	DB	0ffH
	DB	00H
	DB	0b4H
	DB	00H
	DB	0ffH
	DB	00H
	DB	0b4H
	DB	00H
	DB	0ffH
	DB	00H
	DB	0b4H
	DB	00H
	DB	0ffH
	DB	00H
	DB	0b4H
	DB	00H
	DB	0ffH
	DB	00H
	DB	0b4H
	DB	00H
	DB	0ffH
	DB	00H
	DB	0b4H
	DB	00H
	DB	0ffH
	DB	00H
	DB	0b4H
	DB	00H
	DB	0ffH
	DB	00H
	DB	0b4H
	DB	00H
	DB	0ffH
	DB	00H
	DB	0b4H
	DB	00H
	DB	0ffH
	DB	00H
	DB	0b4H
	DB	00H
	DB	0ffH
	DB	00H
	DB	0b4H
	DB	00H
	DB	0ffH
	DB	00H
	DB	0b4H
	DB	00H
	DB	0ffH
	DB	00H
	DB	0b4H
	DB	00H
	DB	0ffH
	DB	00H
	DB	0b4H
	DB	00H
	DB	0ffH
	DB	00H
	DB	0b4H
	DB	00H
	DB	0ffH
	DB	00H
	DB	0b4H
	DB	00H
	DB	0ffH
	DB	00H
	DB	0b4H
	DB	00H
	DB	0ffH
	DB	00H
	DB	0b4H
	DB	00H
	DB	0ffH
	DB	00H
	DB	0b4H
	DB	00H
	DB	0ffH
	DB	00H
	DB	0b4H
	DB	00H
	DB	0ffH
	DB	00H
	DB	0b4H
	DB	00H
	DB	0ffH
	DB	00H
	DB	0b4H
	DB	00H
	DB	0ffH
	DB	00H
	DB	0b4H
	DB	00H
	DB	0ffH
	DB	00H
	DB	0b4H
	DB	00H
	DB	0ffH
	DB	00H
	DB	0b4H
	DB	00H
	DB	0ffH
	DB	00H
	DB	0b4H
	DB	00H
	DB	0ffH
	DB	00H
	DB	0b4H
	DB	00H
	DB	0ffH
	DB	00H
	DB	0b4H
	DB	00H
	DB	0ffH
	DB	00H
	DB	0b4H
	DB	00H
	DB	0ffH
	DB	00H
	DB	0b4H
	DB	00H
	DB	0ffH
	DB	00H
	DB	0b4H
	DB	00H
	DB	0ffH
	DB	00H
	DB	0b4H
	DB	00H
	DB	0ffH
	DB	00H
	DB	0b4H
	DB	00H
	DB	0ffH
	DB	00H
	DB	0b4H
	DB	00H
	DB	0ffH
	DB	00H
	DB	0b4H
	DB	00H
	DB	0ffH
	DB	00H
	DB	0b4H
	DB	00H
	DB	0ffH
	DB	00H
	DB	0b4H
	DB	00H
	DB	0ffH
	DB	00H
	DB	0b4H
	DB	00H
	DB	0ffH
	DB	00H
	DB	0b4H
	DB	00H
	DB	0ffH
	DB	00H
	DB	0b4H
	DB	00H
	DB	0ffH
	DB	00H
	DB	0b4H
	DB	00H
	DB	0ffH
	DB	00H
	DB	0b4H
	DB	00H
	DB	0ffH
	DB	00H
	DB	0b4H
	DB	00H
	DB	0ffH
	DB	00H
	DB	0b4H
	DB	00H
	DB	0ffH
	DB	00H
	DB	0b4H
	DB	00H
	DB	0ffH
	DB	00H
	DB	0b4H
	DB	00H
	DB	0ffH
	DB	00H
	DB	0b4H
	DB	00H
	DB	0ffH
	DB	00H
	DB	0b4H
	DB	00H
	DB	0ffH
	DB	00H
	DB	0b4H
	DB	00H
	DB	0ffH
	DB	00H
	DB	0b4H
	DB	00H
	DB	0ffH
	DB	00H
	DB	0b4H
	DB	00H
	DB	0ffH
	DB	00H
	DB	0b4H
	DB	00H
	DB	0ffH
	DB	00H
	DB	0b4H
	DB	00H
	DB	0ffH
	DB	00H
	DB	0b4H
	DB	00H
	DB	0ffH
	DB	00H
	DB	0b4H
	DB	00H
	DB	0ffH
	DB	00H
	DB	0b4H
	DB	00H
	DB	0ffH
	DB	00H
	DB	0b4H
	DB	00H
	DB	0ffH
	DB	00H
	DB	0b4H
	DB	00H
	DB	0ffH
	DB	00H
	DB	0b4H
	DB	00H
	DB	0ffH
	DB	00H
	DB	0b4H
	DB	00H
	DB	0ffH
	DB	00H
	DB	0b4H
	DB	00H
	DB	0ffH
	DB	00H
	DB	0b4H
	DB	00H
	DB	0ffH
	DB	00H
	DB	0b4H
	DB	00H
	DB	0ffH
	DB	00H
	DB	0b4H
	DB	00H
	DB	0ffH
	DB	00H
	DB	0b4H
	DB	00H
	DB	0ffH
	DB	00H
	DB	0b4H
	DB	00H
	DB	0ffH
	DB	00H
	DB	0b4H
	DB	00H
	DB	0ffH
	DB	00H
	DB	0b4H
	DB	00H
	DB	0ffH
	DB	00H
	DB	0b4H
	DB	00H
	DB	0ffH
	DB	00H
	DB	0b4H
	DB	00H
	DB	0ffH
	DB	00H
	DB	0b4H
	DB	00H
	DB	0ffH
	DB	00H
	DB	0b4H
	DB	00H
	DB	0ffH
	DB	00H
	DB	0b4H
	DB	00H
	DB	0ffH
	DB	00H
	DB	0b4H
	DB	00H
	DB	0ffH
	DB	00H
	DB	0b4H
	DB	00H
	DB	0ffH
	DB	00H
	DB	0b4H
	DB	00H
	DB	0ffH
	DB	00H
	DB	0b4H
	DB	00H
	DB	0ffH
	DB	00H
	DB	0b4H
	DB	00H
	DB	0ffH
	DB	00H
	DB	0b4H
	DB	00H
	DB	0ffH
	DB	00H
	DB	0b4H
	DB	00H
	DB	0ffH
	DB	00H
	DB	0b4H
	DB	00H
	DB	0ffH
	DB	00H
	DB	0b4H
	DB	00H
	DB	0ffH
	DB	00H
	DB	0b4H
	DB	00H
	DB	0ffH
	DB	00H
	DB	0b4H
	DB	00H
	DB	0ffH
	DB	00H
	DB	0b4H
	DB	00H
	DB	0ffH
	DB	00H
	DB	0b4H
	DB	00H
	DB	0ffH
	DB	00H
	DB	0b4H
	DB	00H
	DB	0ffH
	DB	00H
	DB	0b4H
	DB	00H
	DB	0ffH
	DB	00H
	DB	0b4H
	DB	00H
	DB	0ffH
	DB	00H
	DB	0b4H
	DB	00H
	DB	0ffH
	DB	00H
	DB	0b4H
	DB	00H
	DB	0ffH
	DB	00H
	DB	0b4H
	DB	00H
	DB	0ffH
	DB	00H
	DB	0b4H
	DB	00H
	DB	0ffH
	DB	00H
	DB	0b4H
	DB	00H
	DB	0ffH
	DB	00H
	DB	0b4H
	DB	00H
	DB	0ffH
	DB	00H
	DB	0b4H
	DB	00H
	DB	0ffH
	DB	00H
	DB	0b4H
	DB	00H
	DB	0ffH
	DB	00H
	DB	0b4H
	DB	00H
	DB	0ffH
	DB	00H
	DB	0b4H
	DB	00H
	DB	0ffH
	DB	00H
	DB	0b4H
	DB	00H
	DB	0ffH
	DB	00H
	DB	0b4H
	DB	00H
	DB	0ffH
	DB	00H
	DB	0b4H
	DB	00H
	DB	0ffH
	DB	00H
	DB	0b4H
	DB	00H
	DB	0ffH
	DB	00H
	DB	0b4H
	DB	00H
	DB	0ffH
	DB	00H
	DB	0b4H
	DB	00H
	DB	0ffH
	DB	00H
	DB	0b4H
	DB	00H
	DB	0ffH
	DB	00H
	DB	0b4H
	DB	00H
	DB	0ffH
	DB	00H
	DB	0b4H
	DB	00H
	DB	0ffH
	DB	00H
	DB	0b4H
	DB	00H
	DB	0ffH
	DB	00H
	DB	0b4H
	DB	00H
	DB	0ffH
	DB	00H
	DB	0b4H
	DB	00H
	DB	0ffH
	DB	00H
	DB	0b4H
	DB	00H
	DB	0ffH
	DB	00H
	DB	0b4H
	DB	00H
	DB	0ffH
	DB	00H
	DB	0b4H
	DB	00H
	DB	0ffH
	DB	00H
	DB	0b4H
	DB	00H
	DB	0ffH
	DB	00H
	DB	0b4H
	DB	00H
	DB	0ffH
	DB	00H
	DB	0b4H
	DB	00H
	DB	0ffH
	DB	00H
	DB	0b4H
	DB	00H
	DB	0ffH
	DB	00H
	DB	0b4H
	DB	00H
	DB	0ffH
	DB	00H
	DB	0b4H
	DB	00H
	DB	0ffH
	DB	00H
	DB	0b4H
	DB	00H
	DB	0ffH
	DB	00H
	DB	0b4H
	DB	00H
	DB	0ffH
	DB	00H
	DB	0b4H
	DB	00H
	DB	0ffH
	DB	00H
	DB	0b4H
	DB	00H
	DB	0ffH
	DB	00H
	DB	0b4H
	DB	00H
	DB	0ffH
	DB	00H
	DB	0b4H
	DB	00H
	DB	0ffH
	DB	00H
	DB	0b4H
	DB	00H
	DB	0ffH
	DB	00H
	DB	0b4H
	DB	00H
	DB	0ffH
	DB	00H
	DB	0b4H
	DB	00H
	DB	0ffH
	DB	00H
	DB	0b4H
	DB	00H
	DB	0ffH
	DB	00H
	DB	0b4H
	DB	00H
	DB	0ffH
	DB	00H
	DB	0b4H
	DB	00H
	DB	0ffH
	DB	00H
	DB	0b4H
	DB	00H
	DB	0ffH
	DB	00H
	DB	0b4H
	DB	00H
	DB	0ffH
	DB	00H
	DB	0b4H
	DB	00H
	DB	0ffH
	DB	00H
	DB	0b4H
	DB	00H
	DB	0ffH
	DB	00H
	DB	0b4H
	DB	00H
	DB	0ffH
	DB	00H
	DB	0b4H
	DB	00H
	DB	0ffH
	DB	00H
	DB	0b4H
	DB	00H
	DB	0ffH
	DB	00H
	DB	0b4H
	DB	00H
	DB	0ffH
	DB	00H
	DB	0b4H
	DB	00H
	DB	0ffH
	DB	00H
	DB	0b4H
	DB	00H
	DB	0ffH
	DB	00H
	DB	0b4H
	DB	00H
	DB	0ffH
	DB	00H
	DB	0b4H
	DB	00H
	DB	0ffH
	DB	00H
	DB	0b4H
	DB	00H
	DB	0ffH
	DB	00H
	DB	0b4H
	DB	00H
	DB	0ffH
	DB	00H
	DB	0b4H
	DB	00H
	DB	0ffH
	DB	00H
	DB	0b4H
	DB	00H
	DB	0ffH
	DB	00H
	DB	0b4H
	DB	00H
	DB	0ffH
	DB	00H
	DB	0b4H
	DB	00H
	DB	0ffH
	DB	00H
	DB	0b4H
	DB	00H
	DB	0ffH
	DB	00H
	DB	0b4H
	DB	00H
	DB	0ffH
	DB	00H
	DB	0b4H
	DB	00H
	DB	0ffH
	DB	00H
	DB	0b4H
	DB	00H
	DB	0ffH
	DB	00H
	DB	0b4H
	DB	00H
	DB	0ffH
	DB	00H
	DB	0b4H
	DB	00H
	DB	0ffH
	DB	00H
	DB	0b4H
	DB	00H
	DB	0ffH
	DB	00H
	DB	0b4H
	DB	00H
	DB	0ffH
	DB	00H
	DB	0b4H
	DB	00H
	DB	0ffH
	DB	00H
	DB	0b4H
	DB	00H
	DB	0ffH
	DB	00H
	DB	0b4H
	DB	00H
	DB	0ffH
	DB	00H
	DB	0b4H
	DB	00H
	DB	0ffH
	DB	00H
	DB	0b4H
	DB	00H
	DB	0ffH
	DB	00H
	DB	0b4H
	DB	00H
	DB	0ffH
	DB	00H
	DB	0b4H
	DB	00H
	DB	0ffH
	DB	00H
	DB	0b4H
	DB	00H
	DB	0ffH
	DB	00H
	DB	0b4H
	DB	00H
	DB	0ffH
	DB	00H
	DB	0b4H
	DB	00H
	DB	0ffH
	DB	00H
	DB	0b4H
	DB	00H
	DB	0ffH
	DB	00H
	DB	0b4H
	DB	00H
	DB	0ffH
	DB	00H
	DB	0b4H
	DB	00H
	DB	0ffH
	DB	00H
	DB	0b4H
	DB	00H
	DB	0ffH
	DB	00H
	DB	0b4H
	DB	00H
	DB	0ffH
	DB	00H
	DB	0b4H
	DB	00H
	DB	0ffH
	DB	00H
	DB	0b4H
	DB	00H
	DB	0ffH
	DB	00H
	DB	0b4H
	DB	00H
	DB	0ffH
	DB	00H
	DB	0b4H
	DB	00H
	DB	0ffH
	DB	00H
	DB	0b4H
	DB	00H
	DB	0ffH
	DB	00H
	DB	0b4H
	DB	00H
	DB	0ffH
	DB	00H
	DB	0b4H
	DB	00H
	DB	0ffH
	DB	00H
	DB	0b4H
	DB	00H
	DB	0ffH
	DB	00H
	DB	0b4H
	DB	00H
	DB	0ffH
	DB	00H
	DB	0b4H
	DB	00H
	DB	0ffH
	DB	00H
	DB	0b4H
	DB	00H
	DB	0ffH
	DB	00H
	DB	0b4H
	DB	00H
	DB	0ffH
	DB	00H
	DB	0b4H
	DB	00H
	DB	0ffH
	DB	00H
	DB	0b4H
	DB	00H
	DB	0ffH
	DB	00H
	DB	0b4H
	DB	00H
	DB	0ffH
	DB	00H
	DB	0b4H
	DB	00H
	DB	0ffH
	DB	00H
	DB	0b4H
	DB	00H
	DB	0ffH
	DB	00H
	DB	0b4H
	DB	00H
	DB	0ffH
	DB	00H
	DB	0b4H
	DB	00H
	DB	0ffH
	DB	00H
	DB	0b4H
	DB	00H
	DB	0ffH
	DB	00H
	DB	0b4H
	DB	00H
	DB	0ffH
	DB	00H
	DB	0b4H
	DB	00H
	DB	0ffH
	DB	00H
	DB	0b4H
	DB	00H
	DB	0ffH
	DB	00H
	DB	0b4H
	DB	00H
	DB	0ffH
	DB	00H
	DB	0b4H
	DB	00H
	DB	0ffH
	DB	00H
	DB	0b4H
	DB	00H
	DB	0ffH
	DB	00H
	DB	0b4H
	DB	00H
	DB	0ffH
	DB	00H
	DB	0b4H
	DB	00H
	DB	0ffH
	DB	00H
	DB	0b4H
	DB	00H
	DB	0ffH
	DB	00H
	DB	0b4H
	DB	00H
	DB	0ffH
	DB	00H
	DB	0b4H
	DB	00H
	DB	0ffH
	DB	00H
	DB	0b4H
	DB	00H
	DB	0ffH
	DB	00H
	DB	0b4H
	DB	00H
	DB	0ffH
	DB	00H
	DB	0b4H
	DB	00H
	DB	0ffH
	DB	00H
	DB	0b4H
	DB	00H
	DB	0ffH
	DB	00H
	DB	0b4H
	DB	00H
	DB	0ffH
	DB	00H
	DB	0b4H
	DB	00H
	DB	0ffH
	DB	00H
	DB	0b4H
	DB	00H
	DB	0ffH
	DB	00H
	DB	0b4H
	DB	00H
	DB	0ffH
	DB	00H
	DB	0b4H
	DB	00H
	DB	0ffH
	DB	00H
	DB	0b4H
	DB	00H
	DB	0ffH
	DB	00H
	DB	0b4H
	DB	00H
	DB	0ffH
	DB	00H
	DB	0b4H
	DB	00H
	DB	0ffH
	DB	00H
	DB	0b4H
	DB	00H
	DB	0ffH
	DB	00H
	DB	0b4H
	DB	00H
	DB	0ffH
	DB	00H
	DB	0b4H
	DB	00H
	DB	0ffH
	DB	00H
	DB	0b4H
	DB	00H
	DB	0ffH
	DB	00H
	DB	0b4H
	DB	00H
	DB	0ffH
	DB	00H
	DB	0b4H
	DB	00H
	DB	0ffH
	DB	00H
	DB	0b4H
	DB	00H
	DB	0ffH
	DB	00H
	DB	0b4H
	DB	00H
	DB	0ffH
	DB	00H
	DB	0b4H
	DB	00H
	DB	0ffH
	DB	00H
	DB	0b4H
	DB	00H
	DB	0ffH
	DB	00H
	DB	0b4H
	DB	00H
	DB	0ffH
	DB	00H
	DB	0b4H
	DB	00H
	DB	0ffH
	DB	00H
	DB	0b4H
	DB	00H
	DB	0ffH
	DB	00H
	DB	0b4H
	DB	00H
	DB	0ffH
	DB	00H
	DB	0b4H
	DB	00H
	DB	0ffH
	DB	00H
	DB	0b4H
	DB	00H
	DB	0ffH
	DB	00H
	DB	0b4H
	DB	00H
	DB	0ffH
	DB	00H
	DB	0b4H
	DB	00H
	DB	0ffH
	DB	00H
	DB	0b4H
	DB	00H
	DB	0ffH
	DB	00H
	DB	0b4H
	DB	00H
	DB	0ffH
	DB	00H
	DB	0b4H
	DB	00H
	DB	0ffH
	DB	00H
	DB	0b4H
	DB	00H
	DB	0ffH
	DB	00H
	DB	0b4H
	DB	00H
	DB	0ffH
	DB	00H
	DB	0b4H
	DB	00H
	DB	0ffH
	DB	00H
	DB	0b4H
	DB	00H
	DB	0ffH
	DB	00H
	DB	0b4H
	DB	00H
	DB	0ffH
	DB	00H
	DB	0b4H
	DB	00H
	DB	0ffH
	DB	00H
	DB	0b4H
	DB	00H
	DB	0ffH
	DB	00H
	DB	0b4H
	DB	00H
	DB	0ffH
	DB	00H
	DB	0b4H
	DB	00H
	DB	0ffH
	DB	00H
	DB	0b4H
	DB	00H
	DB	0ffH
	DB	00H
	DB	0b4H
	DB	00H
	DB	0ffH
	DB	00H
	DB	0b4H
	DB	00H
	DB	0ffH
	DB	00H
	DB	0b4H
	DB	00H
	DB	0ffH
	DB	00H
	DB	0b4H
	DB	00H
	DB	0ffH
	DB	00H
	DB	0b4H
	DB	00H
	DB	0ffH
	DB	00H
	DB	0b4H
	DB	00H
	DB	0ffH
	DB	00H
	DB	0b4H
	DB	00H
	DB	0ffH
	DB	00H
	DB	0b4H
	DB	00H
	DB	0ffH
	DB	00H
	DB	0b4H
	DB	00H
	DB	0ffH
	DB	00H
	DB	0b4H
	DB	00H
	DB	0ffH
	DB	00H
	DB	0b4H
	DB	00H
	DB	0ffH
	DB	00H
	DB	0b4H
	DB	00H
	DB	0ffH
	DB	00H
	DB	0b4H
	DB	00H
	DB	0ffH
	DB	00H
	DB	0b4H
	DB	00H
	DB	0ffH
	DB	00H
	DB	0b4H
	DB	00H
	DB	0ffH
	DB	00H
	DB	0b4H
	DB	00H
	DB	0ffH
	DB	00H
	DB	0b4H
	DB	00H
	DB	0ffH
	DB	00H
	DB	0b4H
	DB	00H
	DB	0ffH
	DB	00H
	DB	0b4H
	DB	00H
	DB	0ffH
	DB	00H
	DB	0b4H
	DB	00H
	DB	0ffH
	DB	00H
	DB	0b4H
	DB	00H
	DB	0ffH
	DB	00H
	DB	0b4H
	DB	00H
	DB	0ffH
	DB	00H
	DB	0b4H
	DB	00H
	DB	0ffH
	DB	00H
	DB	0b4H
	DB	00H
	DB	0ffH
	DB	00H
	DB	0b4H
	DB	00H
	DB	0ffH
	DB	00H
	DB	0b4H
	DB	00H
	DB	0ffH
	DB	00H
	DB	0b4H
	DB	00H
	DB	0ffH
	DB	00H
	DB	0b4H
	DB	00H
	DB	0ffH
	DB	00H
	DB	0b4H
	DB	00H
	DB	0ffH
	DB	00H
	DB	0b4H
	DB	00H
	DB	0ffH
	DB	00H
	DB	0b4H
	DB	00H
	DB	0ffH
	DB	00H
	DB	0b4H
	DB	00H
	DB	0ffH
	DB	00H
	DB	0b4H
	DB	00H
	DB	0ffH
	DB	00H
	DB	0b4H
	DB	00H
	DB	0ffH
	DB	00H
	DB	0b4H
	DB	00H
	DB	0ffH
	DB	00H
	DB	0b4H
	DB	00H
	DB	0ffH
	DB	00H
	DB	0b4H
	DB	00H
	DB	0ffH
	DB	00H
	DB	0b4H
	DB	00H
	DB	0ffH
	DB	00H
	DB	0b4H
	DB	00H
	DB	0ffH
	DB	00H
	DB	0b4H
	DB	00H
	DB	0ffH
	DB	00H
	DB	0b4H
	DB	00H
	DB	0ffH
	DB	00H
	DB	0b4H
	DB	00H
	DB	0ffH
	DB	00H
	DB	0b4H
	DB	00H
	DB	0ffH
	DB	00H
	DB	0b4H
	DB	00H
	DB	0ffH
	DB	00H
	DB	0b4H
	DB	00H
	DB	0ffH
	DB	00H
	DB	0b4H
	DB	00H
	DB	0ffH
	DB	00H
	DB	0b4H
	DB	00H
	DB	0ffH
	DB	00H
	DB	0b4H
	DB	00H
	DB	0ffH
	DB	00H
	DB	0b4H
	DB	00H
	DB	0ffH
	DB	00H
	DB	0b4H
	DB	00H
	DB	0ffH
	DB	00H
	DB	0b4H
	DB	00H
	DB	0ffH
	DB	00H
	DB	0b4H
	DB	00H
	DB	0ffH
	DB	00H
	DB	0b4H
	DB	00H
	DB	0ffH
	DB	00H
	DB	0b4H
	DB	00H
	DB	0ffH
	DB	00H
	DB	0b4H
	DB	00H
	DB	0ffH
	DB	00H
	DB	0b4H
	DB	00H
	DB	0ffH
	DB	00H
	DB	0b4H
	DB	00H
	DB	0ffH
	DB	00H
	DB	0b4H
	DB	00H
	DB	0ffH
	DB	00H
	DB	0b4H
	DB	00H
	DB	0ffH
	DB	00H
	DB	0b4H
	DB	00H
	DB	0ffH
	DB	00H
	DB	0b4H
	DB	00H
	DB	0ffH
	DB	00H
	DB	0b4H
	DB	00H
	DB	0ffH
	DB	00H
	DB	0b4H
	DB	00H
	DB	0ffH
	DB	00H
	DB	0b4H
	DB	00H
	DB	0ffH
	DB	00H
	DB	0b4H
	DB	00H
	DB	0ffH
	DB	00H
	DB	0b4H
	DB	00H
	DB	0ffH
	DB	00H
	DB	0b4H
	DB	00H
	DB	0ffH
	DB	00H
	DB	0b4H
	DB	00H
	DB	0ffH
	DB	00H
	DB	0b4H
	DB	00H
	DB	0ffH
	DB	00H
	DB	0b4H
	DB	00H
	DB	0ffH
	DB	00H
	DB	0b4H
	DB	00H
	DB	0ffH
	DB	00H
	DB	0b4H
	DB	00H
	DB	0ffH
	DB	00H
	DB	0b4H
	DB	00H
	DB	0ffH
	DB	00H
	DB	0b4H
	DB	00H
	DB	0ffH
	DB	00H
	DB	0b4H
	DB	00H
	DB	0ffH
	DB	00H
	DB	0b4H
	DB	00H
	DB	0ffH
	DB	00H
	DB	0b4H
	DB	00H
	DB	0ffH
	DB	00H
	DB	0b4H
	DB	00H
	DB	0ffH
	DB	00H
	DB	0b4H
	DB	00H
	DB	0ffH
	DB	00H
	DB	0b4H
	DB	00H
	DB	0ffH
	DB	00H
	DB	0b4H
	DB	00H
	DB	0ffH
	DB	00H
	DB	0b4H
	DB	00H
	DB	0ffH
	DB	00H
	DB	0b4H
	DB	00H
	DB	0ffH
	DB	00H
	DB	0b4H
	DB	00H
	DB	0ffH
	DB	00H
	DB	0b4H
	DB	00H
	DB	0ffH
	DB	00H
	DB	0b4H
	DB	00H
