; Listing generated by Microsoft (R) Optimizing Compiler Version 19.37.32822.0 

	TITLE	C:\TouchGFXProjects\KraftHeinz_DS3600\TouchGFX\build\Debug\obj\image_Barcode-active.obj
	.686P
	.XMM
	include listing.inc
	.model	flat

INCLUDELIB MSVCRTD
INCLUDELIB OLDNAMES

PUBLIC	?image_barcode_active@@3QBEB			; image_barcode_active
msvcjmc	SEGMENT
__38966392_Config@hpp DB 01H
__8E4284CD_image_Barcode-active@cpp DB 01H
msvcjmc	ENDS
CONST	SEGMENT
?image_barcode_active@@3QBEB DB 00H			; image_barcode_active
	DB	00H
	DB	00H
	DB	00H
	DB	00H
	DB	00H
	DB	00H
	DB	00H
	DB	00H
	DB	00H
	DB	00H
	DB	00H
	DB	00H
	DB	00H
	DB	00H
	DB	00H
	DB	00H
	DB	00H
	DB	00H
	DB	00H
	DB	00H
	DB	00H
	DB	00H
	DB	00H
	DB	00H
	DB	00H
	DB	00H
	DB	00H
	DB	00H
	DB	00H
	DB	00H
	DB	00H
	DB	00H
	DB	00H
	DB	00H
	DB	00H
	DB	00H
	DB	00H
	DB	00H
	DB	00H
	DB	00H
	DB	00H
	DB	00H
	DB	00H
	DB	00H
	DB	00H
	DB	00H
	DB	00H
	DB	00H
	DB	00H
	DB	00H
	DB	00H
	DB	00H
	DB	00H
	DB	00H
	DB	00H
	DB	00H
	DB	00H
	DB	00H
	DB	00H
	DB	00H
	DB	00H
	DB	00H
	DB	00H
	DB	00H
	DB	00H
	DB	00H
	DB	00H
	DB	00H
	DB	00H
	DB	00H
	DB	00H
	DB	00H
	DB	00H
	DB	00H
	DB	00H
	DB	00H
	DB	00H
	DB	00H
	DB	00H
	DB	00H
	DB	00H
	DB	00H
	DB	00H
	DB	00H
	DB	00H
	DB	00H
	DB	00H
	DB	00H
	DB	00H
	DB	00H
	DB	00H
	DB	00H
	DB	00H
	DB	00H
	DB	00H
	DB	00H
	DB	00H
	DB	00H
	DB	00H
	DB	00H
	DB	00H
	DB	00H
	DB	00H
	DB	00H
	DB	00H
	DB	00H
	DB	00H
	DB	00H
	DB	00H
	DB	00H
	DB	00H
	DB	00H
	DB	00H
	DB	00H
	DB	00H
	DB	00H
	DB	00H
	DB	00H
	DB	00H
	DB	00H
	DB	00H
	DB	00H
	DB	00H
	DB	00H
	DB	00H
	DB	00H
	DB	00H
	DB	00H
	DB	00H
	DB	00H
	DB	00H
	DB	00H
	DB	00H
	DB	00H
	DB	00H
	DB	00H
	DB	00H
	DB	00H
	DB	00H
	DB	00H
	DB	00H
	DB	00H
	DB	00H
	DB	00H
	DB	00H
	DB	00H
	DB	00H
	DB	00H
	DB	00H
	DB	00H
	DB	00H
	DB	00H
	DB	00H
	DB	00H
	DB	00H
	DB	00H
	DB	00H
	DB	00H
	DB	00H
	DB	00H
	DB	00H
	DB	00H
	DB	00H
	DB	00H
	DB	00H
	DB	00H
	DB	00H
	DB	00H
	DB	00H
	DB	00H
	DB	00H
	DB	00H
	DB	00H
	DB	00H
	DB	00H
	DB	00H
	DB	00H
	DB	00H
	DB	00H
	DB	00H
	DB	00H
	DB	00H
	DB	00H
	DB	00H
	DB	00H
	DB	00H
	DB	00H
	DB	00H
	DB	00H
	DB	00H
	DB	00H
	DB	00H
	DB	00H
	DB	00H
	DB	00H
	DB	00H
	DB	00H
	DB	00H
	DB	00H
	DB	00H
	DB	00H
	DB	00H
	DB	00H
	DB	00H
	DB	00H
	DB	00H
	DB	00H
	DB	00H
	DB	00H
	DB	00H
	DB	00H
	DB	00H
	DB	00H
	DB	00H
	DB	00H
	DB	00H
	DB	00H
	DB	00H
	DB	00H
	DB	00H
	DB	00H
	DB	00H
	DB	00H
	DB	00H
	DB	00H
	DB	00H
	DB	00H
	DB	00H
	DB	00H
	DB	00H
	DB	00H
	DB	00H
	DB	00H
	DB	00H
	DB	00H
	DB	00H
	DB	00H
	DB	00H
	DB	00H
	DB	00H
	DB	00H
	DB	00H
	DB	00H
	DB	00H
	DB	00H
	DB	00H
	DB	00H
	DB	00H
	DB	00H
	DB	00H
	DB	00H
	DB	00H
	DB	00H
	DB	00H
	DB	00H
	DB	00H
	DB	00H
	DB	00H
	DB	00H
	DB	00H
	DB	00H
	DB	00H
	DB	00H
	DB	00H
	DB	00H
	DB	00H
	DB	00H
	DB	00H
	DB	00H
	DB	00H
	DB	00H
	DB	00H
	DB	00H
	DB	00H
	DB	00H
	DB	00H
	DB	00H
	DB	00H
	DB	00H
	DB	00H
	DB	00H
	DB	00H
	DB	00H
	DB	00H
	DB	00H
	DB	00H
	DB	00H
	DB	00H
	DB	00H
	DB	00H
	DB	00H
	DB	00H
	DB	00H
	DB	00H
	DB	00H
	DB	00H
	DB	00H
	DB	00H
	DB	00H
	DB	00H
	DB	00H
	DB	00H
	DB	00H
	DB	00H
	DB	00H
	DB	00H
	DB	00H
	DB	00H
	DB	00H
	DB	00H
	DB	00H
	DB	00H
	DB	00H
	DB	00H
	DB	00H
	DB	00H
	DB	00H
	DB	00H
	DB	00H
	DB	00H
	DB	00H
	DB	00H
	DB	00H
	DB	00H
	DB	00H
	DB	00H
	DB	00H
	DB	00H
	DB	00H
	DB	00H
	DB	00H
	DB	00H
	DB	00H
	DB	00H
	DB	00H
	DB	00H
	DB	00H
	DB	00H
	DB	00H
	DB	00H
	DB	00H
	DB	00H
	DB	00H
	DB	00H
	DB	00H
	DB	00H
	DB	00H
	DB	00H
	DB	00H
	DB	00H
	DB	00H
	DB	00H
	DB	00H
	DB	00H
	DB	00H
	DB	00H
	DB	00H
	DB	00H
	DB	00H
	DB	00H
	DB	00H
	DB	00H
	DB	00H
	DB	00H
	DB	00H
	DB	00H
	DB	00H
	DB	00H
	DB	00H
	DB	00H
	DB	00H
	DB	00H
	DB	00H
	DB	00H
	DB	00H
	DB	00H
	DB	00H
	DB	00H
	DB	00H
	DB	00H
	DB	00H
	DB	00H
	DB	00H
	DB	00H
	DB	00H
	DB	00H
	DB	00H
	DB	00H
	DB	00H
	DB	00H
	DB	00H
	DB	00H
	DB	00H
	DB	00H
	DB	00H
	DB	00H
	DB	00H
	DB	00H
	DB	00H
	DB	00H
	DB	00H
	DB	00H
	DB	00H
	DB	00H
	DB	00H
	DB	00H
	DB	00H
	DB	00H
	DB	00H
	DB	00H
	DB	00H
	DB	00H
	DB	00H
	DB	00H
	DB	00H
	DB	00H
	DB	00H
	DB	00H
	DB	00H
	DB	00H
	DB	00H
	DB	00H
	DB	00H
	DB	00H
	DB	00H
	DB	00H
	DB	00H
	DB	00H
	DB	00H
	DB	00H
	DB	00H
	DB	00H
	DB	00H
	DB	00H
	DB	00H
	DB	00H
	DB	00H
	DB	00H
	DB	00H
	DB	00H
	DB	00H
	DB	00H
	DB	00H
	DB	00H
	DB	00H
	DB	00H
	DB	00H
	DB	00H
	DB	00H
	DB	00H
	DB	00H
	DB	00H
	DB	00H
	DB	00H
	DB	00H
	DB	00H
	DB	00H
	DB	00H
	DB	00H
	DB	00H
	DB	00H
	DB	00H
	DB	00H
	DB	00H
	DB	00H
	DB	00H
	DB	00H
	DB	00H
	DB	00H
	DB	00H
	DB	00H
	DB	00H
	DB	00H
	DB	00H
	DB	00H
	DB	00H
	DB	00H
	DB	00H
	DB	00H
	DB	00H
	DB	00H
	DB	00H
	DB	00H
	DB	00H
	DB	00H
	DB	00H
	DB	00H
	DB	00H
	DB	00H
	DB	00H
	DB	00H
	DB	00H
	DB	00H
	DB	00H
	DB	00H
	DB	00H
	DB	00H
	DB	00H
	DB	00H
	DB	00H
	DB	00H
	DB	00H
	DB	00H
	DB	00H
	DB	00H
	DB	00H
	DB	00H
	DB	00H
	DB	00H
	DB	00H
	DB	00H
	DB	00H
	DB	00H
	DB	00H
	DB	00H
	DB	00H
	DB	00H
	DB	00H
	DB	00H
	DB	00H
	DB	00H
	DB	00H
	DB	00H
	DB	00H
	DB	00H
	DB	00H
	DB	00H
	DB	00H
	DB	00H
	DB	00H
	DB	00H
	DB	00H
	DB	00H
	DB	00H
	DB	00H
	DB	00H
	DB	00H
	DB	00H
	DB	00H
	DB	00H
	DB	00H
	DB	00H
	DB	00H
	DB	00H
	DB	00H
	DB	00H
	DB	00H
	DB	00H
	DB	00H
	DB	00H
	DB	00H
	DB	00H
	DB	00H
	DB	00H
	DB	00H
	DB	00H
	DB	00H
	DB	00H
	DB	00H
	DB	00H
	DB	00H
	DB	00H
	DB	00H
	DB	00H
	DB	00H
	DB	00H
	DB	00H
	DB	00H
	DB	00H
	DB	00H
	DB	00H
	DB	00H
	DB	00H
	DB	00H
	DB	00H
	DB	00H
	DB	00H
	DB	00H
	DB	00H
	DB	00H
	DB	00H
	DB	00H
	DB	00H
	DB	00H
	DB	00H
	DB	00H
	DB	00H
	DB	00H
	DB	00H
	DB	00H
	DB	00H
	DB	00H
	DB	00H
	DB	00H
	DB	00H
	DB	00H
	DB	00H
	DB	00H
	DB	00H
	DB	00H
	DB	00H
	DB	00H
	DB	00H
	DB	00H
	DB	00H
	DB	00H
	DB	00H
	DB	00H
	DB	00H
	DB	00H
	DB	00H
	DB	00H
	DB	00H
	DB	00H
	DB	00H
	DB	00H
	DB	00H
	DB	00H
	DB	00H
	DB	00H
	DB	00H
	DB	00H
	DB	00H
	DB	00H
	DB	00H
	DB	00H
	DB	00H
	DB	00H
	DB	00H
	DB	00H
	DB	00H
	DB	00H
	DB	00H
	DB	00H
	DB	00H
	DB	00H
	DB	00H
	DB	00H
	DB	00H
	DB	00H
	DB	00H
	DB	00H
	DB	00H
	DB	00H
	DB	00H
	DB	00H
	DB	00H
	DB	00H
	DB	00H
	DB	00H
	DB	00H
	DB	00H
	DB	00H
	DB	00H
	DB	00H
	DB	00H
	DB	00H
	DB	00H
	DB	00H
	DB	00H
	DB	00H
	DB	00H
	DB	00H
	DB	00H
	DB	00H
	DB	00H
	DB	00H
	DB	00H
	DB	00H
	DB	00H
	DB	00H
	DB	00H
	DB	00H
	DB	00H
	DB	00H
	DB	00H
	DB	00H
	DB	00H
	DB	00H
	DB	00H
	DB	00H
	DB	00H
	DB	00H
	DB	00H
	DB	00H
	DB	00H
	DB	00H
	DB	00H
	DB	00H
	DB	00H
	DB	00H
	DB	00H
	DB	00H
	DB	00H
	DB	00H
	DB	00H
	DB	00H
	DB	00H
	DB	00H
	DB	00H
	DB	00H
	DB	00H
	DB	00H
	DB	00H
	DB	00H
	DB	00H
	DB	00H
	DB	00H
	DB	00H
	DB	00H
	DB	00H
	DB	00H
	DB	00H
	DB	00H
	DB	00H
	DB	00H
	DB	00H
	DB	00H
	DB	00H
	DB	00H
	DB	00H
	DB	00H
	DB	00H
	DB	00H
	DB	00H
	DB	00H
	DB	00H
	DB	00H
	DB	00H
	DB	00H
	DB	00H
	DB	00H
	DB	00H
	DB	00H
	DB	00H
	DB	00H
	DB	00H
	DB	00H
	DB	00H
	DB	00H
	DB	00H
	DB	00H
	DB	00H
	DB	00H
	DB	00H
	DB	00H
	DB	00H
	DB	00H
	DB	00H
	DB	00H
	DB	00H
	DB	00H
	DB	00H
	DB	00H
	DB	00H
	DB	00H
	DB	00H
	DB	00H
	DB	00H
	DB	00H
	DB	00H
	DB	00H
	DB	00H
	DB	00H
	DB	00H
	DB	00H
	DB	00H
	DB	00H
	DB	00H
	DB	00H
	DB	00H
	DB	00H
	DB	00H
	DB	00H
	DB	00H
	DB	00H
	DB	00H
	DB	00H
	DB	00H
	DB	00H
	DB	00H
	DB	00H
	DB	00H
	DB	00H
	DB	00H
	DB	00H
	DB	00H
	DB	00H
	DB	00H
	DB	00H
	DB	00H
	DB	00H
	DB	00H
	DB	00H
	DB	00H
	DB	00H
	DB	00H
	DB	00H
	DB	00H
	DB	00H
	DB	00H
	DB	00H
	DB	00H
	DB	00H
	DB	00H
	DB	00H
	DB	00H
	DB	00H
	DB	00H
	DB	00H
	DB	00H
	DB	00H
	DB	00H
	DB	00H
	DB	00H
	DB	00H
	DB	00H
	DB	00H
	DB	00H
	DB	00H
	DB	00H
	DB	00H
	DB	00H
	DB	00H
	DB	00H
	DB	00H
	DB	00H
	DB	00H
	DB	00H
	DB	00H
	DB	00H
	DB	00H
	DB	00H
	DB	00H
	DB	00H
	DB	00H
	DB	00H
	DB	00H
	DB	00H
	DB	00H
	DB	00H
	DB	00H
	DB	00H
	DB	00H
	DB	00H
	DB	00H
	DB	00H
	DB	00H
	DB	00H
	DB	00H
	DB	00H
	DB	00H
	DB	00H
	DB	00H
	DB	00H
	DB	00H
	DB	00H
	DB	00H
	DB	00H
	DB	00H
	DB	00H
	DB	00H
	DB	00H
	DB	00H
	DB	00H
	DB	00H
	DB	00H
	DB	00H
	DB	00H
	DB	00H
	DB	00H
	DB	00H
	DB	00H
	DB	00H
	DB	00H
	DB	00H
	DB	00H
	DB	00H
	DB	00H
	DB	00H
	DB	00H
	DB	00H
	DB	00H
	DB	00H
	DB	00H
	DB	00H
	DB	00H
	DB	00H
	DB	00H
	DB	00H
	DB	00H
	DB	00H
	DB	00H
	DB	00H
	DB	00H
	DB	00H
	DB	00H
	DB	00H
	DB	00H
	DB	00H
	DB	00H
	DB	00H
	DB	00H
	DB	00H
	DB	00H
	DB	00H
	DB	00H
	DB	00H
	DB	00H
	DB	00H
	DB	00H
	DB	00H
	DB	00H
	DB	00H
	DB	00H
	DB	00H
	DB	00H
	DB	00H
	DB	00H
	DB	00H
	DB	00H
	DB	00H
	DB	00H
	DB	00H
	DB	00H
	DB	00H
	DB	00H
	DB	00H
	DB	00H
	DB	00H
	DB	00H
	DB	00H
	DB	00H
	DB	00H
	DB	00H
	DB	00H
	DB	00H
	DB	00H
	DB	00H
	DB	00H
	DB	00H
	DB	00H
	DB	00H
	DB	00H
	DB	00H
	DB	00H
	DB	00H
	DB	00H
	DB	00H
	DB	00H
	DB	00H
	DB	00H
	DB	00H
	DB	00H
	DB	00H
	DB	00H
	DB	00H
	DB	00H
	DB	00H
	DB	00H
	DB	00H
	DB	00H
	DB	00H
	DB	00H
	DB	00H
	DB	00H
	DB	00H
	DB	00H
	DB	00H
	DB	00H
	DB	00H
	DB	00H
	DB	00H
	DB	00H
	DB	00H
	DB	00H
	DB	00H
	DB	00H
	DB	00H
	DB	00H
	DB	00H
	DB	00H
	DB	00H
	DB	00H
	DB	00H
	DB	00H
	DB	00H
	DB	00H
	DB	00H
	DB	00H
	DB	00H
	DB	00H
	DB	00H
	DB	00H
	DB	00H
	DB	00H
	DB	00H
	DB	00H
	DB	00H
	DB	00H
	DB	00H
	DB	00H
	DB	00H
	DB	00H
	DB	00H
	DB	00H
	DB	00H
	DB	00H
	DB	00H
	DB	00H
	DB	00H
	DB	00H
	DB	00H
	DB	00H
	DB	00H
	DB	00H
	DB	00H
	DB	00H
	DB	00H
	DB	00H
	DB	00H
	DB	00H
	DB	00H
	DB	00H
	DB	00H
	DB	00H
	DB	00H
	DB	00H
	DB	00H
	DB	00H
	DB	00H
	DB	00H
	DB	00H
	DB	00H
	DB	00H
	DB	00H
	DB	00H
	DB	00H
	DB	00H
	DB	00H
	DB	00H
	DB	00H
	DB	00H
	DB	00H
	DB	00H
	DB	00H
	DB	00H
	DB	00H
	DB	00H
	DB	00H
	DB	00H
	DB	00H
	DB	00H
	DB	00H
	DB	00H
	DB	00H
	DB	00H
	DB	00H
	DB	00H
	DB	00H
	DB	00H
	DB	00H
	DB	00H
	DB	00H
	DB	00H
	DB	00H
	DB	00H
	DB	00H
	DB	00H
	DB	00H
	DB	00H
	DB	00H
	DB	00H
	DB	00H
	DB	00H
	DB	00H
	DB	00H
	DB	00H
	DB	00H
	DB	00H
	DB	00H
	DB	00H
	DB	00H
	DB	00H
	DB	00H
	DB	00H
	DB	00H
	DB	00H
	DB	00H
	DB	00H
	DB	00H
	DB	00H
	DB	00H
	DB	00H
	DB	00H
	DB	00H
	DB	00H
	DB	00H
	DB	00H
	DB	00H
	DB	00H
	DB	00H
	DB	00H
	DB	00H
	DB	00H
	DB	00H
	DB	00H
	DB	00H
	DB	00H
	DB	00H
	DB	00H
	DB	00H
	DB	00H
	DB	00H
	DB	00H
	DB	00H
	DB	00H
	DB	00H
	DB	00H
	DB	00H
	DB	00H
	DB	00H
	DB	00H
	DB	00H
	DB	00H
	DB	00H
	DB	00H
	DB	00H
	DB	00H
	DB	00H
	DB	00H
	DB	00H
	DB	00H
	DB	00H
	DB	00H
	DB	00H
	DB	00H
	DB	00H
	DB	00H
	DB	00H
	DB	00H
	DB	00H
	DB	00H
	DB	00H
	DB	00H
	DB	00H
	DB	00H
	DB	00H
	DB	00H
	DB	00H
	DB	00H
	DB	00H
	DB	00H
	DB	00H
	DB	00H
	DB	00H
	DB	00H
	DB	00H
	DB	00H
	DB	00H
	DB	00H
	DB	00H
	DB	00H
	DB	00H
	DB	00H
	DB	00H
	DB	00H
	DB	00H
	DB	00H
	DB	00H
	DB	00H
	DB	00H
	DB	00H
	DB	00H
	DB	00H
	DB	00H
	DB	00H
	DB	00H
	DB	00H
	DB	00H
	DB	00H
	DB	00H
	DB	00H
	DB	00H
	DB	00H
	DB	00H
	DB	00H
	DB	00H
	DB	00H
	DB	00H
	DB	00H
	DB	00H
	DB	00H
	DB	00H
	DB	00H
	DB	00H
	DB	00H
	DB	00H
	DB	00H
	DB	00H
	DB	00H
	DB	00H
	DB	00H
	DB	00H
	DB	00H
	DB	00H
	DB	00H
	DB	00H
	DB	00H
	DB	00H
	DB	00H
	DB	00H
	DB	00H
	DB	00H
	DB	00H
	DB	00H
	DB	00H
	DB	00H
	DB	00H
	DB	00H
	DB	00H
	DB	00H
	DB	00H
	DB	00H
	DB	00H
	DB	00H
	DB	00H
	DB	00H
	DB	00H
	DB	00H
	DB	00H
	DB	00H
	DB	00H
	DB	00H
	DB	00H
	DB	00H
	DB	00H
	DB	00H
	DB	00H
	DB	00H
	DB	00H
	DB	00H
	DB	00H
	DB	00H
	DB	00H
	DB	00H
	DB	00H
	DB	00H
	DB	00H
	DB	00H
	DB	00H
	DB	00H
	DB	00H
	DB	00H
	DB	00H
	DB	00H
	DB	00H
	DB	00H
	DB	00H
	DB	00H
	DB	00H
	DB	00H
	DB	00H
	DB	00H
	DB	00H
	DB	00H
	DB	00H
	DB	00H
	DB	00H
	DB	00H
	DB	00H
	DB	00H
	DB	00H
	DB	00H
	DB	00H
	DB	00H
	DB	00H
	DB	00H
	DB	00H
	DB	00H
	DB	00H
	DB	00H
	DB	00H
	DB	00H
	DB	00H
	DB	00H
	DB	00H
	DB	00H
	DB	00H
	DB	00H
	DB	00H
	DB	00H
	DB	00H
	DB	00H
	DB	00H
	DB	00H
	DB	00H
	DB	00H
	DB	00H
	DB	00H
	DB	00H
	DB	00H
	DB	00H
	DB	00H
	DB	00H
	DB	00H
	DB	00H
	DB	00H
	DB	00H
	DB	00H
	DB	00H
	DB	00H
	DB	00H
	DB	00H
	DB	00H
	DB	00H
	DB	00H
	DB	00H
	DB	00H
	DB	00H
	DB	00H
	DB	00H
	DB	00H
	DB	00H
	DB	00H
	DB	00H
	DB	00H
	DB	00H
	DB	00H
	DB	00H
	DB	00H
	DB	00H
	DB	00H
	DB	00H
	DB	00H
	DB	00H
	DB	00H
	DB	00H
	DB	00H
	DB	00H
	DB	00H
	DB	00H
	DB	00H
	DB	00H
	DB	00H
	DB	00H
	DB	00H
	DB	00H
	DB	00H
	DB	00H
	DB	00H
	DB	00H
	DB	00H
	DB	00H
	DB	00H
	DB	00H
	DB	00H
	DB	00H
	DB	00H
	DB	00H
	DB	00H
	DB	00H
	DB	00H
	DB	00H
	DB	00H
	DB	00H
	DB	00H
	DB	00H
	DB	00H
	DB	00H
	DB	00H
	DB	00H
	DB	00H
	DB	00H
	DB	00H
	DB	00H
	DB	00H
	DB	00H
	DB	00H
	DB	00H
	DB	00H
	DB	00H
	DB	00H
	DB	00H
	DB	00H
	DB	00H
	DB	00H
	DB	00H
	DB	00H
	DB	00H
	DB	00H
	DB	00H
	DB	00H
	DB	00H
	DB	00H
	DB	00H
	DB	00H
	DB	00H
	DB	00H
	DB	00H
	DB	00H
	DB	00H
	DB	00H
	DB	00H
	DB	00H
	DB	00H
	DB	00H
	DB	00H
	DB	00H
	DB	00H
	DB	00H
	DB	00H
	DB	00H
	DB	00H
	DB	00H
	DB	00H
	DB	00H
	DB	00H
	DB	00H
	DB	00H
	DB	00H
	DB	00H
	DB	00H
	DB	00H
	DB	00H
	DB	00H
	DB	00H
	DB	00H
	DB	00H
	DB	00H
	DB	00H
	DB	00H
	DB	00H
	DB	00H
	DB	00H
	DB	00H
	DB	00H
	DB	00H
	DB	00H
	DB	00H
	DB	00H
	DB	00H
	DB	00H
	DB	00H
	DB	00H
	DB	00H
	DB	00H
	DB	00H
	DB	00H
	DB	00H
	DB	00H
	DB	00H
	DB	00H
	DB	00H
	DB	00H
	DB	00H
	DB	00H
	DB	00H
	DB	00H
	DB	00H
	DB	00H
	DB	00H
	DB	00H
	DB	00H
	DB	00H
	DB	00H
	DB	00H
	DB	00H
	DB	00H
	DB	00H
	DB	00H
	DB	00H
	DB	00H
	DB	00H
	DB	00H
	DB	00H
	DB	00H
	DB	00H
	DB	00H
	DB	00H
	DB	00H
	DB	00H
	DB	00H
	DB	00H
	DB	00H
	DB	00H
	DB	00H
	DB	00H
	DB	00H
	DB	00H
	DB	00H
	DB	00H
	DB	00H
	DB	00H
	DB	00H
	DB	00H
	DB	00H
	DB	00H
	DB	00H
	DB	00H
	DB	00H
	DB	00H
	DB	00H
	DB	00H
	DB	00H
	DB	00H
	DB	00H
	DB	00H
	DB	00H
	DB	00H
	DB	00H
	DB	00H
	DB	00H
	DB	00H
	DB	00H
	DB	00H
	DB	00H
	DB	00H
	DB	00H
	DB	00H
	DB	00H
	DB	00H
	DB	00H
	DB	00H
	DB	00H
	DB	00H
	DB	00H
	DB	00H
	DB	00H
	DB	00H
	DB	00H
	DB	00H
	DB	00H
	DB	00H
	DB	00H
	DB	00H
	DB	00H
	DB	00H
	DB	00H
	DB	00H
	DB	00H
	DB	00H
	DB	00H
	DB	00H
	DB	00H
	DB	00H
	DB	00H
	DB	00H
	DB	00H
	DB	00H
	DB	00H
	DB	00H
	DB	00H
	DB	00H
	DB	00H
	DB	00H
	DB	00H
	DB	00H
	DB	00H
	DB	00H
	DB	00H
	DB	00H
	DB	00H
	DB	00H
	DB	00H
	DB	00H
	DB	00H
	DB	00H
	DB	00H
	DB	00H
	DB	00H
	DB	00H
	DB	00H
	DB	00H
	DB	00H
	DB	00H
	DB	00H
	DB	00H
	DB	00H
	DB	00H
	DB	00H
	DB	00H
	DB	00H
	DB	00H
	DB	00H
	DB	00H
	DB	00H
	DB	00H
	DB	00H
	DB	00H
	DB	00H
	DB	00H
	DB	00H
	DB	00H
	DB	00H
	DB	00H
	DB	00H
	DB	00H
	DB	00H
	DB	00H
	DB	00H
	DB	00H
	DB	00H
	DB	00H
	DB	00H
	DB	00H
	DB	00H
	DB	00H
	DB	00H
	DB	00H
	DB	00H
	DB	0f8H
	DB	0fcH
	DB	0f8H
	DB	09eH
	DB	0f8H
	DB	0fcH
	DB	0f8H
	DB	0ffH
	DB	0f8H
	DB	0fcH
	DB	0f8H
	DB	0ffH
	DB	0f8H
	DB	0fcH
	DB	0f8H
	DB	09eH
	DB	00H
	DB	00H
	DB	00H
	DB	00H
	DB	0f8H
	DB	0fcH
	DB	0f8H
	DB	09eH
	DB	0f8H
	DB	0fcH
	DB	0f8H
	DB	0ffH
	DB	00H
	DB	00H
	DB	00H
	DB	00H
	DB	0f8H
	DB	0fcH
	DB	0f8H
	DB	061H
	DB	0f8H
	DB	0fcH
	DB	0f8H
	DB	0ffH
	DB	0f8H
	DB	0fcH
	DB	0f8H
	DB	0ffH
	DB	0f8H
	DB	0fcH
	DB	0f8H
	DB	0ffH
	DB	0f8H
	DB	0fcH
	DB	0f8H
	DB	0ffH
	DB	0f8H
	DB	0fcH
	DB	0f8H
	DB	09eH
	DB	00H
	DB	00H
	DB	00H
	DB	00H
	DB	0f8H
	DB	0fcH
	DB	0f8H
	DB	09eH
	DB	0f8H
	DB	0fcH
	DB	0f8H
	DB	0ffH
	DB	00H
	DB	00H
	DB	00H
	DB	00H
	DB	00H
	DB	00H
	DB	00H
	DB	00H
	DB	00H
	DB	00H
	DB	00H
	DB	00H
	DB	0f8H
	DB	0fcH
	DB	0f8H
	DB	09eH
	DB	0f8H
	DB	0fcH
	DB	0f8H
	DB	0ffH
	DB	0f8H
	DB	0fcH
	DB	0f8H
	DB	0ffH
	DB	0f8H
	DB	0fcH
	DB	0f8H
	DB	09eH
	DB	00H
	DB	00H
	DB	00H
	DB	00H
	DB	0f8H
	DB	0fcH
	DB	0f8H
	DB	09eH
	DB	0f8H
	DB	0fcH
	DB	0f8H
	DB	0ffH
	DB	0f8H
	DB	0fcH
	DB	0f8H
	DB	0ffH
	DB	0f8H
	DB	0fcH
	DB	0f8H
	DB	0ffH
	DB	0f8H
	DB	0fcH
	DB	0f8H
	DB	0ffH
	DB	0f8H
	DB	0fcH
	DB	0f8H
	DB	05dH
	DB	00H
	DB	00H
	DB	00H
	DB	00H
	DB	0f8H
	DB	0fcH
	DB	0f8H
	DB	0ffH
	DB	0f8H
	DB	0fcH
	DB	0f8H
	DB	09eH
	DB	00H
	DB	00H
	DB	00H
	DB	00H
	DB	00H
	DB	00H
	DB	00H
	DB	00H
	DB	00H
	DB	00H
	DB	00H
	DB	00H
	DB	00H
	DB	00H
	DB	00H
	DB	00H
	DB	00H
	DB	00H
	DB	00H
	DB	00H
	DB	00H
	DB	00H
	DB	00H
	DB	00H
	DB	0f8H
	DB	0fcH
	DB	0f8H
	DB	09eH
	DB	0f8H
	DB	0fcH
	DB	0f8H
	DB	0ffH
	DB	0f8H
	DB	0fcH
	DB	0f8H
	DB	0ffH
	DB	0f8H
	DB	0fcH
	DB	0f8H
	DB	09eH
	DB	00H
	DB	00H
	DB	00H
	DB	00H
	DB	0f8H
	DB	0fcH
	DB	0f8H
	DB	09eH
	DB	0f8H
	DB	0fcH
	DB	0f8H
	DB	0ffH
	DB	00H
	DB	00H
	DB	00H
	DB	00H
	DB	0f8H
	DB	0fcH
	DB	0f8H
	DB	061H
	DB	0f8H
	DB	0fcH
	DB	0f8H
	DB	0ffH
	DB	0f8H
	DB	0fcH
	DB	0f8H
	DB	0ffH
	DB	0f8H
	DB	0fcH
	DB	0f8H
	DB	0ffH
	DB	0f8H
	DB	0fcH
	DB	0f8H
	DB	0ffH
	DB	0f8H
	DB	0fcH
	DB	0f8H
	DB	09eH
	DB	00H
	DB	00H
	DB	00H
	DB	00H
	DB	0f8H
	DB	0fcH
	DB	0f8H
	DB	09eH
	DB	0f8H
	DB	0fcH
	DB	0f8H
	DB	0ffH
	DB	00H
	DB	00H
	DB	00H
	DB	00H
	DB	00H
	DB	00H
	DB	00H
	DB	00H
	DB	00H
	DB	00H
	DB	00H
	DB	00H
	DB	0f8H
	DB	0fcH
	DB	0f8H
	DB	09eH
	DB	0f8H
	DB	0fcH
	DB	0f8H
	DB	0ffH
	DB	0f8H
	DB	0fcH
	DB	0f8H
	DB	0ffH
	DB	0f8H
	DB	0fcH
	DB	0f8H
	DB	09eH
	DB	00H
	DB	00H
	DB	00H
	DB	00H
	DB	0f8H
	DB	0fcH
	DB	0f8H
	DB	09eH
	DB	0f8H
	DB	0fcH
	DB	0f8H
	DB	0ffH
	DB	0f8H
	DB	0fcH
	DB	0f8H
	DB	0ffH
	DB	0f8H
	DB	0fcH
	DB	0f8H
	DB	0ffH
	DB	0f8H
	DB	0fcH
	DB	0f8H
	DB	0ffH
	DB	0f8H
	DB	0fcH
	DB	0f8H
	DB	05dH
	DB	00H
	DB	00H
	DB	00H
	DB	00H
	DB	0f8H
	DB	0fcH
	DB	0f8H
	DB	0ffH
	DB	0f8H
	DB	0fcH
	DB	0f8H
	DB	09eH
	DB	00H
	DB	00H
	DB	00H
	DB	00H
	DB	00H
	DB	00H
	DB	00H
	DB	00H
	DB	00H
	DB	00H
	DB	00H
	DB	00H
	DB	00H
	DB	00H
	DB	00H
	DB	00H
	DB	00H
	DB	00H
	DB	00H
	DB	00H
	DB	00H
	DB	00H
	DB	00H
	DB	00H
	DB	0f8H
	DB	0fcH
	DB	0f8H
	DB	09eH
	DB	0f8H
	DB	0fcH
	DB	0f8H
	DB	0ffH
	DB	0f8H
	DB	0fcH
	DB	0f8H
	DB	0ffH
	DB	0f8H
	DB	0fcH
	DB	0f8H
	DB	09eH
	DB	00H
	DB	00H
	DB	00H
	DB	00H
	DB	0f8H
	DB	0fcH
	DB	0f8H
	DB	09eH
	DB	0f8H
	DB	0fcH
	DB	0f8H
	DB	0ffH
	DB	00H
	DB	00H
	DB	00H
	DB	00H
	DB	0f8H
	DB	0fcH
	DB	0f8H
	DB	061H
	DB	0f8H
	DB	0fcH
	DB	0f8H
	DB	0ffH
	DB	0f8H
	DB	0fcH
	DB	0f8H
	DB	0ffH
	DB	0f8H
	DB	0fcH
	DB	0f8H
	DB	0ffH
	DB	0f8H
	DB	0fcH
	DB	0f8H
	DB	0ffH
	DB	0f8H
	DB	0fcH
	DB	0f8H
	DB	09eH
	DB	00H
	DB	00H
	DB	00H
	DB	00H
	DB	0f8H
	DB	0fcH
	DB	0f8H
	DB	09eH
	DB	0f8H
	DB	0fcH
	DB	0f8H
	DB	0ffH
	DB	00H
	DB	00H
	DB	00H
	DB	00H
	DB	00H
	DB	00H
	DB	00H
	DB	00H
	DB	00H
	DB	00H
	DB	00H
	DB	00H
	DB	0f8H
	DB	0fcH
	DB	0f8H
	DB	09eH
	DB	0f8H
	DB	0fcH
	DB	0f8H
	DB	0ffH
	DB	0f8H
	DB	0fcH
	DB	0f8H
	DB	0ffH
	DB	0f8H
	DB	0fcH
	DB	0f8H
	DB	09eH
	DB	00H
	DB	00H
	DB	00H
	DB	00H
	DB	0f8H
	DB	0fcH
	DB	0f8H
	DB	09eH
	DB	0f8H
	DB	0fcH
	DB	0f8H
	DB	0ffH
	DB	0f8H
	DB	0fcH
	DB	0f8H
	DB	0ffH
	DB	0f8H
	DB	0fcH
	DB	0f8H
	DB	0ffH
	DB	0f8H
	DB	0fcH
	DB	0f8H
	DB	0ffH
	DB	0f8H
	DB	0fcH
	DB	0f8H
	DB	061H
	DB	00H
	DB	00H
	DB	00H
	DB	00H
	DB	0f8H
	DB	0fcH
	DB	0f8H
	DB	0ffH
	DB	0f8H
	DB	0fcH
	DB	0f8H
	DB	09eH
	DB	00H
	DB	00H
	DB	00H
	DB	00H
	DB	00H
	DB	00H
	DB	00H
	DB	00H
	DB	00H
	DB	00H
	DB	00H
	DB	00H
	DB	00H
	DB	00H
	DB	00H
	DB	00H
	DB	00H
	DB	00H
	DB	00H
	DB	00H
	DB	00H
	DB	00H
	DB	00H
	DB	00H
	DB	0f8H
	DB	0fcH
	DB	0f8H
	DB	09eH
	DB	0f8H
	DB	0fcH
	DB	0f8H
	DB	0ffH
	DB	0f8H
	DB	0fcH
	DB	0f8H
	DB	0ffH
	DB	0f8H
	DB	0fcH
	DB	0f8H
	DB	09eH
	DB	00H
	DB	00H
	DB	00H
	DB	00H
	DB	0f8H
	DB	0fcH
	DB	0f8H
	DB	09eH
	DB	0f8H
	DB	0fcH
	DB	0f8H
	DB	0ffH
	DB	00H
	DB	00H
	DB	00H
	DB	00H
	DB	0f8H
	DB	0fcH
	DB	0f8H
	DB	061H
	DB	0f8H
	DB	0fcH
	DB	0f8H
	DB	0ffH
	DB	0f8H
	DB	0fcH
	DB	0f8H
	DB	0ffH
	DB	0f8H
	DB	0fcH
	DB	0f8H
	DB	0ffH
	DB	0f8H
	DB	0fcH
	DB	0f8H
	DB	0ffH
	DB	0f8H
	DB	0fcH
	DB	0f8H
	DB	09eH
	DB	00H
	DB	00H
	DB	00H
	DB	00H
	DB	0f8H
	DB	0fcH
	DB	0f8H
	DB	09eH
	DB	0f8H
	DB	0fcH
	DB	0f8H
	DB	0ffH
	DB	00H
	DB	00H
	DB	00H
	DB	00H
	DB	00H
	DB	00H
	DB	00H
	DB	00H
	DB	00H
	DB	00H
	DB	00H
	DB	00H
	DB	0f8H
	DB	0fcH
	DB	0f8H
	DB	09eH
	DB	0f8H
	DB	0fcH
	DB	0f8H
	DB	0ffH
	DB	0f8H
	DB	0fcH
	DB	0f8H
	DB	0ffH
	DB	0f8H
	DB	0fcH
	DB	0f8H
	DB	09eH
	DB	00H
	DB	00H
	DB	00H
	DB	00H
	DB	0f8H
	DB	0fcH
	DB	0f8H
	DB	09eH
	DB	0f8H
	DB	0fcH
	DB	0f8H
	DB	0ffH
	DB	0f8H
	DB	0fcH
	DB	0f8H
	DB	0ffH
	DB	0f8H
	DB	0fcH
	DB	0f8H
	DB	0ffH
	DB	0f8H
	DB	0fcH
	DB	0f8H
	DB	0ffH
	DB	0f8H
	DB	0fcH
	DB	0f8H
	DB	061H
	DB	00H
	DB	00H
	DB	00H
	DB	00H
	DB	0f8H
	DB	0fcH
	DB	0f8H
	DB	0ffH
	DB	0f8H
	DB	0fcH
	DB	0f8H
	DB	09eH
	DB	00H
	DB	00H
	DB	00H
	DB	00H
	DB	00H
	DB	00H
	DB	00H
	DB	00H
	DB	00H
	DB	00H
	DB	00H
	DB	00H
	DB	00H
	DB	00H
	DB	00H
	DB	00H
	DB	00H
	DB	00H
	DB	00H
	DB	00H
	DB	00H
	DB	00H
	DB	00H
	DB	00H
	DB	0f8H
	DB	0fcH
	DB	0f8H
	DB	09eH
	DB	0f8H
	DB	0fcH
	DB	0f8H
	DB	0ffH
	DB	0f8H
	DB	0fcH
	DB	0f8H
	DB	0ffH
	DB	0f8H
	DB	0fcH
	DB	0f8H
	DB	09eH
	DB	00H
	DB	00H
	DB	00H
	DB	00H
	DB	0f8H
	DB	0fcH
	DB	0f8H
	DB	0a2H
	DB	0f8H
	DB	0fcH
	DB	0f8H
	DB	0ffH
	DB	00H
	DB	00H
	DB	00H
	DB	00H
	DB	0f8H
	DB	0fcH
	DB	0f8H
	DB	061H
	DB	0f8H
	DB	0fcH
	DB	0f8H
	DB	0ffH
	DB	0f8H
	DB	0fcH
	DB	0f8H
	DB	0ffH
	DB	0f8H
	DB	0fcH
	DB	0f8H
	DB	0ffH
	DB	0f8H
	DB	0fcH
	DB	0f8H
	DB	0ffH
	DB	0f8H
	DB	0fcH
	DB	0f8H
	DB	09eH
	DB	00H
	DB	00H
	DB	00H
	DB	00H
	DB	0f8H
	DB	0fcH
	DB	0f8H
	DB	09eH
	DB	0f8H
	DB	0fcH
	DB	0f8H
	DB	0ffH
	DB	00H
	DB	00H
	DB	00H
	DB	00H
	DB	00H
	DB	00H
	DB	00H
	DB	00H
	DB	00H
	DB	00H
	DB	00H
	DB	00H
	DB	0f8H
	DB	0fcH
	DB	0f8H
	DB	09eH
	DB	0f8H
	DB	0fcH
	DB	0f8H
	DB	0ffH
	DB	0f8H
	DB	0fcH
	DB	0f8H
	DB	0ffH
	DB	0f8H
	DB	0fcH
	DB	0f8H
	DB	09eH
	DB	00H
	DB	00H
	DB	00H
	DB	00H
	DB	0f8H
	DB	0fcH
	DB	0f8H
	DB	0a2H
	DB	0f8H
	DB	0fcH
	DB	0f8H
	DB	0ffH
	DB	0f8H
	DB	0fcH
	DB	0f8H
	DB	0ffH
	DB	0f8H
	DB	0fcH
	DB	0f8H
	DB	0ffH
	DB	0f8H
	DB	0fcH
	DB	0f8H
	DB	0ffH
	DB	0f8H
	DB	0fcH
	DB	0f8H
	DB	05dH
	DB	00H
	DB	00H
	DB	00H
	DB	00H
	DB	0f8H
	DB	0fcH
	DB	0f8H
	DB	0ffH
	DB	0f8H
	DB	0fcH
	DB	0f8H
	DB	09eH
	DB	00H
	DB	00H
	DB	00H
	DB	00H
	DB	00H
	DB	00H
	DB	00H
	DB	00H
	DB	00H
	DB	00H
	DB	00H
	DB	00H
	DB	00H
	DB	00H
	DB	00H
	DB	00H
	DB	00H
	DB	00H
	DB	00H
	DB	00H
	DB	00H
	DB	00H
	DB	00H
	DB	00H
	DB	0f8H
	DB	0fcH
	DB	0f8H
	DB	09eH
	DB	0f8H
	DB	0fcH
	DB	0f8H
	DB	0ffH
	DB	0f8H
	DB	0fcH
	DB	0f8H
	DB	0ffH
	DB	0f8H
	DB	0fcH
	DB	0f8H
	DB	09eH
	DB	00H
	DB	00H
	DB	00H
	DB	00H
	DB	0f8H
	DB	0fcH
	DB	0f8H
	DB	09eH
	DB	0f8H
	DB	0fcH
	DB	0f8H
	DB	0ffH
	DB	00H
	DB	00H
	DB	00H
	DB	00H
	DB	0f8H
	DB	0fcH
	DB	0f8H
	DB	061H
	DB	0f8H
	DB	0fcH
	DB	0f8H
	DB	0ffH
	DB	0f8H
	DB	0fcH
	DB	0f8H
	DB	0ffH
	DB	0f8H
	DB	0fcH
	DB	0f8H
	DB	0ffH
	DB	0f8H
	DB	0fcH
	DB	0f8H
	DB	0ffH
	DB	0f8H
	DB	0fcH
	DB	0f8H
	DB	09eH
	DB	00H
	DB	00H
	DB	00H
	DB	00H
	DB	0f8H
	DB	0fcH
	DB	0f8H
	DB	0a2H
	DB	0f8H
	DB	0fcH
	DB	0f8H
	DB	0ffH
	DB	00H
	DB	00H
	DB	00H
	DB	00H
	DB	00H
	DB	00H
	DB	00H
	DB	00H
	DB	00H
	DB	00H
	DB	00H
	DB	00H
	DB	0f8H
	DB	0fcH
	DB	0f8H
	DB	09eH
	DB	0f8H
	DB	0fcH
	DB	0f8H
	DB	0ffH
	DB	0f8H
	DB	0fcH
	DB	0f8H
	DB	0ffH
	DB	0f8H
	DB	0fcH
	DB	0f8H
	DB	09eH
	DB	00H
	DB	00H
	DB	00H
	DB	00H
	DB	0f8H
	DB	0fcH
	DB	0f8H
	DB	09eH
	DB	0f8H
	DB	0fcH
	DB	0f8H
	DB	0ffH
	DB	0f8H
	DB	0fcH
	DB	0f8H
	DB	0ffH
	DB	0f8H
	DB	0fcH
	DB	0f8H
	DB	0ffH
	DB	0f8H
	DB	0fcH
	DB	0f8H
	DB	0ffH
	DB	0f8H
	DB	0fcH
	DB	0f8H
	DB	061H
	DB	00H
	DB	00H
	DB	00H
	DB	00H
	DB	0f8H
	DB	0fcH
	DB	0f8H
	DB	0ffH
	DB	0f8H
	DB	0fcH
	DB	0f8H
	DB	09eH
	DB	00H
	DB	00H
	DB	00H
	DB	00H
	DB	00H
	DB	00H
	DB	00H
	DB	00H
	DB	00H
	DB	00H
	DB	00H
	DB	00H
	DB	00H
	DB	00H
	DB	00H
	DB	00H
	DB	00H
	DB	00H
	DB	00H
	DB	00H
	DB	00H
	DB	00H
	DB	00H
	DB	00H
	DB	0f8H
	DB	0fcH
	DB	0f8H
	DB	09eH
	DB	0f8H
	DB	0fcH
	DB	0f8H
	DB	0ffH
	DB	0f8H
	DB	0fcH
	DB	0f8H
	DB	0ffH
	DB	0f8H
	DB	0fcH
	DB	0f8H
	DB	0a2H
	DB	00H
	DB	00H
	DB	00H
	DB	00H
	DB	0f8H
	DB	0fcH
	DB	0f8H
	DB	09eH
	DB	0f8H
	DB	0fcH
	DB	0f8H
	DB	0ffH
	DB	00H
	DB	00H
	DB	00H
	DB	00H
	DB	0f8H
	DB	0fcH
	DB	0f8H
	DB	061H
	DB	0f8H
	DB	0fcH
	DB	0f8H
	DB	0ffH
	DB	0f8H
	DB	0fcH
	DB	0f8H
	DB	0ffH
	DB	0f8H
	DB	0fcH
	DB	0f8H
	DB	0ffH
	DB	0f8H
	DB	0fcH
	DB	0f8H
	DB	0ffH
	DB	0f8H
	DB	0fcH
	DB	0f8H
	DB	09eH
	DB	00H
	DB	00H
	DB	00H
	DB	00H
	DB	0f8H
	DB	0fcH
	DB	0f8H
	DB	09eH
	DB	0f8H
	DB	0fcH
	DB	0f8H
	DB	0ffH
	DB	00H
	DB	00H
	DB	00H
	DB	00H
	DB	00H
	DB	00H
	DB	00H
	DB	00H
	DB	00H
	DB	00H
	DB	00H
	DB	00H
	DB	0f8H
	DB	0fcH
	DB	0f8H
	DB	09eH
	DB	0f8H
	DB	0fcH
	DB	0f8H
	DB	0ffH
	DB	0f8H
	DB	0fcH
	DB	0f8H
	DB	0ffH
	DB	0f8H
	DB	0fcH
	DB	0f8H
	DB	0a2H
	DB	00H
	DB	00H
	DB	00H
	DB	00H
	DB	0f8H
	DB	0fcH
	DB	0f8H
	DB	09eH
	DB	0f8H
	DB	0fcH
	DB	0f8H
	DB	0ffH
	DB	0f8H
	DB	0fcH
	DB	0f8H
	DB	0ffH
	DB	0f8H
	DB	0fcH
	DB	0f8H
	DB	0ffH
	DB	0f8H
	DB	0fcH
	DB	0f8H
	DB	0ffH
	DB	0f8H
	DB	0fcH
	DB	0f8H
	DB	05dH
	DB	00H
	DB	00H
	DB	00H
	DB	00H
	DB	0f8H
	DB	0fcH
	DB	0f8H
	DB	0ffH
	DB	0f8H
	DB	0fcH
	DB	0f8H
	DB	09eH
	DB	00H
	DB	00H
	DB	00H
	DB	00H
	DB	00H
	DB	00H
	DB	00H
	DB	00H
	DB	00H
	DB	00H
	DB	00H
	DB	00H
	DB	00H
	DB	00H
	DB	00H
	DB	00H
	DB	00H
	DB	00H
	DB	00H
	DB	00H
	DB	00H
	DB	00H
	DB	00H
	DB	00H
	DB	0f8H
	DB	0fcH
	DB	0f8H
	DB	09eH
	DB	0f8H
	DB	0fcH
	DB	0f8H
	DB	0ffH
	DB	0f8H
	DB	0fcH
	DB	0f8H
	DB	0ffH
	DB	0f8H
	DB	0fcH
	DB	0f8H
	DB	09eH
	DB	00H
	DB	00H
	DB	00H
	DB	00H
	DB	0f8H
	DB	0fcH
	DB	0f8H
	DB	09eH
	DB	0f8H
	DB	0fcH
	DB	0f8H
	DB	0ffH
	DB	00H
	DB	00H
	DB	00H
	DB	00H
	DB	0f8H
	DB	0fcH
	DB	0f8H
	DB	061H
	DB	0f8H
	DB	0fcH
	DB	0f8H
	DB	0ffH
	DB	0f8H
	DB	0fcH
	DB	0f8H
	DB	0ffH
	DB	0f8H
	DB	0fcH
	DB	0f8H
	DB	0ffH
	DB	0f8H
	DB	0fcH
	DB	0f8H
	DB	0ffH
	DB	0f8H
	DB	0fcH
	DB	0f8H
	DB	09eH
	DB	00H
	DB	00H
	DB	00H
	DB	00H
	DB	0f8H
	DB	0fcH
	DB	0f8H
	DB	09eH
	DB	0f8H
	DB	0fcH
	DB	0f8H
	DB	0ffH
	DB	00H
	DB	00H
	DB	00H
	DB	00H
	DB	00H
	DB	00H
	DB	00H
	DB	00H
	DB	00H
	DB	00H
	DB	00H
	DB	00H
	DB	0f8H
	DB	0fcH
	DB	0f8H
	DB	0a2H
	DB	0f8H
	DB	0fcH
	DB	0f8H
	DB	0ffH
	DB	0f8H
	DB	0fcH
	DB	0f8H
	DB	0ffH
	DB	0f8H
	DB	0fcH
	DB	0f8H
	DB	09eH
	DB	00H
	DB	00H
	DB	00H
	DB	00H
	DB	0f8H
	DB	0fcH
	DB	0f8H
	DB	09eH
	DB	0f8H
	DB	0fcH
	DB	0f8H
	DB	0ffH
	DB	0f8H
	DB	0fcH
	DB	0f8H
	DB	0ffH
	DB	0f8H
	DB	0fcH
	DB	0f8H
	DB	0ffH
	DB	0f8H
	DB	0fcH
	DB	0f8H
	DB	0ffH
	DB	0f8H
	DB	0fcH
	DB	0f8H
	DB	061H
	DB	00H
	DB	00H
	DB	00H
	DB	00H
	DB	0f8H
	DB	0fcH
	DB	0f8H
	DB	0ffH
	DB	0f8H
	DB	0fcH
	DB	0f8H
	DB	09eH
	DB	00H
	DB	00H
	DB	00H
	DB	00H
	DB	00H
	DB	00H
	DB	00H
	DB	00H
	DB	00H
	DB	00H
	DB	00H
	DB	00H
	DB	00H
	DB	00H
	DB	00H
	DB	00H
	DB	00H
	DB	00H
	DB	00H
	DB	00H
	DB	00H
	DB	00H
	DB	00H
	DB	00H
	DB	0f8H
	DB	0fcH
	DB	0f8H
	DB	09eH
	DB	0f8H
	DB	0fcH
	DB	0f8H
	DB	0ffH
	DB	0f8H
	DB	0fcH
	DB	0f8H
	DB	0ffH
	DB	0f8H
	DB	0fcH
	DB	0f8H
	DB	09eH
	DB	00H
	DB	00H
	DB	00H
	DB	00H
	DB	0f8H
	DB	0fcH
	DB	0f8H
	DB	09eH
	DB	0f8H
	DB	0fcH
	DB	0f8H
	DB	0ffH
	DB	00H
	DB	00H
	DB	00H
	DB	00H
	DB	0f8H
	DB	0fcH
	DB	0f8H
	DB	061H
	DB	0f8H
	DB	0fcH
	DB	0f8H
	DB	0ffH
	DB	0f8H
	DB	0fcH
	DB	0f8H
	DB	0ffH
	DB	0f8H
	DB	0fcH
	DB	0f8H
	DB	0ffH
	DB	0f8H
	DB	0fcH
	DB	0f8H
	DB	0ffH
	DB	0f8H
	DB	0fcH
	DB	0f8H
	DB	09eH
	DB	00H
	DB	00H
	DB	00H
	DB	00H
	DB	0f8H
	DB	0fcH
	DB	0f8H
	DB	0a2H
	DB	0f8H
	DB	0fcH
	DB	0f8H
	DB	0ffH
	DB	00H
	DB	00H
	DB	00H
	DB	00H
	DB	00H
	DB	00H
	DB	00H
	DB	00H
	DB	00H
	DB	00H
	DB	00H
	DB	00H
	DB	0f8H
	DB	0fcH
	DB	0f8H
	DB	09eH
	DB	0f8H
	DB	0fcH
	DB	0f8H
	DB	0ffH
	DB	0f8H
	DB	0fcH
	DB	0f8H
	DB	0ffH
	DB	0f8H
	DB	0fcH
	DB	0f8H
	DB	09eH
	DB	00H
	DB	00H
	DB	00H
	DB	00H
	DB	0f8H
	DB	0fcH
	DB	0f8H
	DB	0a2H
	DB	0f8H
	DB	0fcH
	DB	0f8H
	DB	0ffH
	DB	0f8H
	DB	0fcH
	DB	0f8H
	DB	0ffH
	DB	0f8H
	DB	0fcH
	DB	0f8H
	DB	0ffH
	DB	0f8H
	DB	0fcH
	DB	0f8H
	DB	0ffH
	DB	0f8H
	DB	0fcH
	DB	0f8H
	DB	061H
	DB	00H
	DB	00H
	DB	00H
	DB	00H
	DB	0f8H
	DB	0fcH
	DB	0f8H
	DB	0ffH
	DB	0f8H
	DB	0fcH
	DB	0f8H
	DB	09eH
	DB	00H
	DB	00H
	DB	00H
	DB	00H
	DB	00H
	DB	00H
	DB	00H
	DB	00H
	DB	00H
	DB	00H
	DB	00H
	DB	00H
	DB	00H
	DB	00H
	DB	00H
	DB	00H
	DB	00H
	DB	00H
	DB	00H
	DB	00H
	DB	00H
	DB	00H
	DB	00H
	DB	00H
	DB	0f8H
	DB	0fcH
	DB	0f8H
	DB	09eH
	DB	0f8H
	DB	0fcH
	DB	0f8H
	DB	0ffH
	DB	0f8H
	DB	0fcH
	DB	0f8H
	DB	0ffH
	DB	0f8H
	DB	0fcH
	DB	0f8H
	DB	0a2H
	DB	00H
	DB	00H
	DB	00H
	DB	00H
	DB	0f8H
	DB	0fcH
	DB	0f8H
	DB	09eH
	DB	0f8H
	DB	0fcH
	DB	0f8H
	DB	0ffH
	DB	00H
	DB	00H
	DB	00H
	DB	00H
	DB	0f8H
	DB	0fcH
	DB	0f8H
	DB	061H
	DB	0f8H
	DB	0fcH
	DB	0f8H
	DB	0ffH
	DB	0f8H
	DB	0fcH
	DB	0f8H
	DB	0ffH
	DB	0f8H
	DB	0fcH
	DB	0f8H
	DB	0ffH
	DB	0f8H
	DB	0fcH
	DB	0f8H
	DB	0ffH
	DB	0f8H
	DB	0fcH
	DB	0f8H
	DB	09eH
	DB	00H
	DB	00H
	DB	00H
	DB	00H
	DB	0f8H
	DB	0fcH
	DB	0f8H
	DB	09eH
	DB	0f8H
	DB	0fcH
	DB	0f8H
	DB	0ffH
	DB	00H
	DB	00H
	DB	00H
	DB	00H
	DB	00H
	DB	00H
	DB	00H
	DB	00H
	DB	00H
	DB	00H
	DB	00H
	DB	00H
	DB	0f8H
	DB	0fcH
	DB	0f8H
	DB	09eH
	DB	0f8H
	DB	0fcH
	DB	0f8H
	DB	0ffH
	DB	0f8H
	DB	0fcH
	DB	0f8H
	DB	0ffH
	DB	0f8H
	DB	0fcH
	DB	0f8H
	DB	09eH
	DB	00H
	DB	00H
	DB	00H
	DB	00H
	DB	0f8H
	DB	0fcH
	DB	0f8H
	DB	09eH
	DB	0f8H
	DB	0fcH
	DB	0f8H
	DB	0ffH
	DB	0f8H
	DB	0fcH
	DB	0f8H
	DB	0ffH
	DB	0f8H
	DB	0fcH
	DB	0f8H
	DB	0ffH
	DB	0f8H
	DB	0fcH
	DB	0f8H
	DB	0ffH
	DB	0f8H
	DB	0fcH
	DB	0f8H
	DB	05dH
	DB	00H
	DB	00H
	DB	00H
	DB	00H
	DB	0f8H
	DB	0fcH
	DB	0f8H
	DB	0ffH
	DB	0f8H
	DB	0fcH
	DB	0f8H
	DB	09eH
	DB	00H
	DB	00H
	DB	00H
	DB	00H
	DB	00H
	DB	00H
	DB	00H
	DB	00H
	DB	00H
	DB	00H
	DB	00H
	DB	00H
	DB	00H
	DB	00H
	DB	00H
	DB	00H
	DB	00H
	DB	00H
	DB	00H
	DB	00H
	DB	00H
	DB	00H
	DB	00H
	DB	00H
	DB	0f8H
	DB	0fcH
	DB	0f8H
	DB	09eH
	DB	0f8H
	DB	0fcH
	DB	0f8H
	DB	0ffH
	DB	0f8H
	DB	0fcH
	DB	0f8H
	DB	0ffH
	DB	0f8H
	DB	0fcH
	DB	0f8H
	DB	09eH
	DB	00H
	DB	00H
	DB	00H
	DB	00H
	DB	0f8H
	DB	0fcH
	DB	0f8H
	DB	09eH
	DB	0f8H
	DB	0fcH
	DB	0f8H
	DB	0ffH
	DB	00H
	DB	00H
	DB	00H
	DB	00H
	DB	0f8H
	DB	0fcH
	DB	0f8H
	DB	061H
	DB	0f8H
	DB	0fcH
	DB	0f8H
	DB	0ffH
	DB	0f8H
	DB	0fcH
	DB	0f8H
	DB	0ffH
	DB	0f8H
	DB	0fcH
	DB	0f8H
	DB	0ffH
	DB	0f8H
	DB	0fcH
	DB	0f8H
	DB	0ffH
	DB	0f8H
	DB	0fcH
	DB	0f8H
	DB	09eH
	DB	00H
	DB	00H
	DB	00H
	DB	00H
	DB	0f8H
	DB	0fcH
	DB	0f8H
	DB	09eH
	DB	0f8H
	DB	0fcH
	DB	0f8H
	DB	0ffH
	DB	00H
	DB	00H
	DB	00H
	DB	00H
	DB	00H
	DB	00H
	DB	00H
	DB	00H
	DB	00H
	DB	00H
	DB	00H
	DB	00H
	DB	0f8H
	DB	0fcH
	DB	0f8H
	DB	09eH
	DB	0f8H
	DB	0fcH
	DB	0f8H
	DB	0ffH
	DB	0f8H
	DB	0fcH
	DB	0f8H
	DB	0ffH
	DB	0f8H
	DB	0fcH
	DB	0f8H
	DB	0a2H
	DB	00H
	DB	00H
	DB	00H
	DB	00H
	DB	0f8H
	DB	0fcH
	DB	0f8H
	DB	09eH
	DB	0f8H
	DB	0fcH
	DB	0f8H
	DB	0ffH
	DB	0f8H
	DB	0fcH
	DB	0f8H
	DB	0ffH
	DB	0f8H
	DB	0fcH
	DB	0f8H
	DB	0ffH
	DB	0f8H
	DB	0fcH
	DB	0f8H
	DB	0ffH
	DB	0f8H
	DB	0fcH
	DB	0f8H
	DB	061H
	DB	00H
	DB	00H
	DB	00H
	DB	00H
	DB	0f8H
	DB	0fcH
	DB	0f8H
	DB	0ffH
	DB	0f8H
	DB	0fcH
	DB	0f8H
	DB	09eH
	DB	00H
	DB	00H
	DB	00H
	DB	00H
	DB	00H
	DB	00H
	DB	00H
	DB	00H
	DB	00H
	DB	00H
	DB	00H
	DB	00H
	DB	00H
	DB	00H
	DB	00H
	DB	00H
	DB	00H
	DB	00H
	DB	00H
	DB	00H
	DB	00H
	DB	00H
	DB	00H
	DB	00H
	DB	0f8H
	DB	0fcH
	DB	0f8H
	DB	09eH
	DB	0f8H
	DB	0fcH
	DB	0f8H
	DB	0ffH
	DB	0f8H
	DB	0fcH
	DB	0f8H
	DB	0ffH
	DB	0f8H
	DB	0fcH
	DB	0f8H
	DB	09eH
	DB	00H
	DB	00H
	DB	00H
	DB	00H
	DB	0f8H
	DB	0fcH
	DB	0f8H
	DB	0a2H
	DB	0f8H
	DB	0fcH
	DB	0f8H
	DB	0ffH
	DB	00H
	DB	00H
	DB	00H
	DB	00H
	DB	0f8H
	DB	0fcH
	DB	0f8H
	DB	061H
	DB	0f8H
	DB	0fcH
	DB	0f8H
	DB	0ffH
	DB	0f8H
	DB	0fcH
	DB	0f8H
	DB	0ffH
	DB	0f8H
	DB	0fcH
	DB	0f8H
	DB	0ffH
	DB	0f8H
	DB	0fcH
	DB	0f8H
	DB	0ffH
	DB	0f8H
	DB	0fcH
	DB	0f8H
	DB	09eH
	DB	00H
	DB	00H
	DB	00H
	DB	00H
	DB	0f8H
	DB	0fcH
	DB	0f8H
	DB	0a2H
	DB	0f8H
	DB	0fcH
	DB	0f8H
	DB	0ffH
	DB	00H
	DB	00H
	DB	00H
	DB	00H
	DB	00H
	DB	00H
	DB	00H
	DB	00H
	DB	00H
	DB	00H
	DB	00H
	DB	00H
	DB	0f8H
	DB	0fcH
	DB	0f8H
	DB	09eH
	DB	0f8H
	DB	0fcH
	DB	0f8H
	DB	0ffH
	DB	0f8H
	DB	0fcH
	DB	0f8H
	DB	0ffH
	DB	0f8H
	DB	0fcH
	DB	0f8H
	DB	09eH
	DB	00H
	DB	00H
	DB	00H
	DB	00H
	DB	0f8H
	DB	0fcH
	DB	0f8H
	DB	09eH
	DB	0f8H
	DB	0fcH
	DB	0f8H
	DB	0ffH
	DB	0f8H
	DB	0fcH
	DB	0f8H
	DB	0ffH
	DB	0f8H
	DB	0fcH
	DB	0f8H
	DB	0ffH
	DB	0f8H
	DB	0fcH
	DB	0f8H
	DB	0ffH
	DB	0f8H
	DB	0fcH
	DB	0f8H
	DB	061H
	DB	00H
	DB	00H
	DB	00H
	DB	00H
	DB	0f8H
	DB	0fcH
	DB	0f8H
	DB	0ffH
	DB	0f8H
	DB	0fcH
	DB	0f8H
	DB	09eH
	DB	00H
	DB	00H
	DB	00H
	DB	00H
	DB	00H
	DB	00H
	DB	00H
	DB	00H
	DB	00H
	DB	00H
	DB	00H
	DB	00H
	DB	00H
	DB	00H
	DB	00H
	DB	00H
	DB	00H
	DB	00H
	DB	00H
	DB	00H
	DB	00H
	DB	00H
	DB	00H
	DB	00H
	DB	0f8H
	DB	0fcH
	DB	0f8H
	DB	09eH
	DB	0f8H
	DB	0fcH
	DB	0f8H
	DB	0ffH
	DB	0f8H
	DB	0fcH
	DB	0f8H
	DB	0ffH
	DB	0f8H
	DB	0fcH
	DB	0f8H
	DB	0a2H
	DB	00H
	DB	00H
	DB	00H
	DB	00H
	DB	0f8H
	DB	0fcH
	DB	0f8H
	DB	09eH
	DB	0f8H
	DB	0fcH
	DB	0f8H
	DB	0ffH
	DB	00H
	DB	00H
	DB	00H
	DB	00H
	DB	0f8H
	DB	0fcH
	DB	0f8H
	DB	061H
	DB	0f8H
	DB	0fcH
	DB	0f8H
	DB	0ffH
	DB	0f8H
	DB	0fcH
	DB	0f8H
	DB	0ffH
	DB	0f8H
	DB	0fcH
	DB	0f8H
	DB	0ffH
	DB	0f8H
	DB	0fcH
	DB	0f8H
	DB	0ffH
	DB	0f8H
	DB	0fcH
	DB	0f8H
	DB	09eH
	DB	00H
	DB	00H
	DB	00H
	DB	00H
	DB	0f8H
	DB	0fcH
	DB	0f8H
	DB	09eH
	DB	0f8H
	DB	0fcH
	DB	0f8H
	DB	0ffH
	DB	00H
	DB	00H
	DB	00H
	DB	00H
	DB	00H
	DB	00H
	DB	00H
	DB	00H
	DB	00H
	DB	00H
	DB	00H
	DB	00H
	DB	0f8H
	DB	0fcH
	DB	0f8H
	DB	0a2H
	DB	0f8H
	DB	0fcH
	DB	0f8H
	DB	0ffH
	DB	0f8H
	DB	0fcH
	DB	0f8H
	DB	0ffH
	DB	0f8H
	DB	0fcH
	DB	0f8H
	DB	09eH
	DB	00H
	DB	00H
	DB	00H
	DB	00H
	DB	0f8H
	DB	0fcH
	DB	0f8H
	DB	0a2H
	DB	0f8H
	DB	0fcH
	DB	0f8H
	DB	0ffH
	DB	0f8H
	DB	0fcH
	DB	0f8H
	DB	0ffH
	DB	0f8H
	DB	0fcH
	DB	0f8H
	DB	0ffH
	DB	0f8H
	DB	0fcH
	DB	0f8H
	DB	0ffH
	DB	0f8H
	DB	0fcH
	DB	0f8H
	DB	05dH
	DB	00H
	DB	00H
	DB	00H
	DB	00H
	DB	0f8H
	DB	0fcH
	DB	0f8H
	DB	0ffH
	DB	0f8H
	DB	0fcH
	DB	0f8H
	DB	09eH
	DB	00H
	DB	00H
	DB	00H
	DB	00H
	DB	00H
	DB	00H
	DB	00H
	DB	00H
	DB	00H
	DB	00H
	DB	00H
	DB	00H
	DB	00H
	DB	00H
	DB	00H
	DB	00H
	DB	00H
	DB	00H
	DB	00H
	DB	00H
	DB	00H
	DB	00H
	DB	00H
	DB	00H
	DB	0f8H
	DB	0fcH
	DB	0f8H
	DB	09eH
	DB	0f8H
	DB	0fcH
	DB	0f8H
	DB	0ffH
	DB	0f8H
	DB	0fcH
	DB	0f8H
	DB	0ffH
	DB	0f8H
	DB	0fcH
	DB	0f8H
	DB	09eH
	DB	00H
	DB	00H
	DB	00H
	DB	00H
	DB	0f8H
	DB	0fcH
	DB	0f8H
	DB	09eH
	DB	0f8H
	DB	0fcH
	DB	0f8H
	DB	0ffH
	DB	00H
	DB	00H
	DB	00H
	DB	00H
	DB	0f8H
	DB	0fcH
	DB	0f8H
	DB	061H
	DB	0f8H
	DB	0fcH
	DB	0f8H
	DB	0ffH
	DB	0f8H
	DB	0fcH
	DB	0f8H
	DB	0ffH
	DB	0f8H
	DB	0fcH
	DB	0f8H
	DB	0ffH
	DB	0f8H
	DB	0fcH
	DB	0f8H
	DB	0ffH
	DB	0f8H
	DB	0fcH
	DB	0f8H
	DB	09eH
	DB	00H
	DB	00H
	DB	00H
	DB	00H
	DB	0f8H
	DB	0fcH
	DB	0f8H
	DB	09eH
	DB	0f8H
	DB	0fcH
	DB	0f8H
	DB	0ffH
	DB	00H
	DB	00H
	DB	00H
	DB	00H
	DB	00H
	DB	00H
	DB	00H
	DB	00H
	DB	00H
	DB	00H
	DB	00H
	DB	00H
	DB	0f8H
	DB	0fcH
	DB	0f8H
	DB	09eH
	DB	0f8H
	DB	0fcH
	DB	0f8H
	DB	0ffH
	DB	0f8H
	DB	0fcH
	DB	0f8H
	DB	0ffH
	DB	0f8H
	DB	0fcH
	DB	0f8H
	DB	09eH
	DB	00H
	DB	00H
	DB	00H
	DB	00H
	DB	0f8H
	DB	0fcH
	DB	0f8H
	DB	09eH
	DB	0f8H
	DB	0fcH
	DB	0f8H
	DB	0ffH
	DB	0f8H
	DB	0fcH
	DB	0f8H
	DB	0ffH
	DB	0f8H
	DB	0fcH
	DB	0f8H
	DB	0ffH
	DB	0f8H
	DB	0fcH
	DB	0f8H
	DB	0ffH
	DB	0f8H
	DB	0fcH
	DB	0f8H
	DB	061H
	DB	00H
	DB	00H
	DB	00H
	DB	00H
	DB	0f8H
	DB	0fcH
	DB	0f8H
	DB	0ffH
	DB	0f8H
	DB	0fcH
	DB	0f8H
	DB	09eH
	DB	00H
	DB	00H
	DB	00H
	DB	00H
	DB	00H
	DB	00H
	DB	00H
	DB	00H
	DB	00H
	DB	00H
	DB	00H
	DB	00H
	DB	00H
	DB	00H
	DB	00H
	DB	00H
	DB	00H
	DB	00H
	DB	00H
	DB	00H
	DB	00H
	DB	00H
	DB	00H
	DB	00H
	DB	0f8H
	DB	0fcH
	DB	0f8H
	DB	09eH
	DB	0f8H
	DB	0fcH
	DB	0f8H
	DB	0ffH
	DB	0f8H
	DB	0fcH
	DB	0f8H
	DB	0ffH
	DB	0f8H
	DB	0fcH
	DB	0f8H
	DB	09eH
	DB	00H
	DB	00H
	DB	00H
	DB	00H
	DB	0f8H
	DB	0fcH
	DB	0f8H
	DB	09eH
	DB	0f8H
	DB	0fcH
	DB	0f8H
	DB	0ffH
	DB	00H
	DB	00H
	DB	00H
	DB	00H
	DB	0f8H
	DB	0fcH
	DB	0f8H
	DB	061H
	DB	0f8H
	DB	0fcH
	DB	0f8H
	DB	0ffH
	DB	0f8H
	DB	0fcH
	DB	0f8H
	DB	0ffH
	DB	0f8H
	DB	0fcH
	DB	0f8H
	DB	0ffH
	DB	0f8H
	DB	0fcH
	DB	0f8H
	DB	0ffH
	DB	0f8H
	DB	0fcH
	DB	0f8H
	DB	09eH
	DB	00H
	DB	00H
	DB	00H
	DB	00H
	DB	0f8H
	DB	0fcH
	DB	0f8H
	DB	0a2H
	DB	0f8H
	DB	0fcH
	DB	0f8H
	DB	0ffH
	DB	00H
	DB	00H
	DB	00H
	DB	00H
	DB	00H
	DB	00H
	DB	00H
	DB	00H
	DB	00H
	DB	00H
	DB	00H
	DB	00H
	DB	0f8H
	DB	0fcH
	DB	0f8H
	DB	09eH
	DB	0f8H
	DB	0fcH
	DB	0f8H
	DB	0ffH
	DB	0f8H
	DB	0fcH
	DB	0f8H
	DB	0ffH
	DB	0f8H
	DB	0fcH
	DB	0f8H
	DB	0a2H
	DB	00H
	DB	00H
	DB	00H
	DB	00H
	DB	0f8H
	DB	0fcH
	DB	0f8H
	DB	09eH
	DB	0f8H
	DB	0fcH
	DB	0f8H
	DB	0ffH
	DB	0f8H
	DB	0fcH
	DB	0f8H
	DB	0ffH
	DB	0f8H
	DB	0fcH
	DB	0f8H
	DB	0ffH
	DB	0f8H
	DB	0fcH
	DB	0f8H
	DB	0ffH
	DB	0f8H
	DB	0fcH
	DB	0f8H
	DB	061H
	DB	00H
	DB	00H
	DB	00H
	DB	00H
	DB	0f8H
	DB	0fcH
	DB	0f8H
	DB	0ffH
	DB	0f8H
	DB	0fcH
	DB	0f8H
	DB	09eH
	DB	00H
	DB	00H
	DB	00H
	DB	00H
	DB	00H
	DB	00H
	DB	00H
	DB	00H
	DB	00H
	DB	00H
	DB	00H
	DB	00H
	DB	00H
	DB	00H
	DB	00H
	DB	00H
	DB	00H
	DB	00H
	DB	00H
	DB	00H
	DB	00H
	DB	00H
	DB	00H
	DB	00H
	DB	0f8H
	DB	0fcH
	DB	0f8H
	DB	09eH
	DB	0f8H
	DB	0fcH
	DB	0f8H
	DB	0ffH
	DB	0f8H
	DB	0fcH
	DB	0f8H
	DB	0ffH
	DB	0f8H
	DB	0fcH
	DB	0f8H
	DB	0a2H
	DB	00H
	DB	00H
	DB	00H
	DB	00H
	DB	0f8H
	DB	0fcH
	DB	0f8H
	DB	09eH
	DB	0f8H
	DB	0fcH
	DB	0f8H
	DB	0ffH
	DB	00H
	DB	00H
	DB	00H
	DB	00H
	DB	0f8H
	DB	0fcH
	DB	0f8H
	DB	061H
	DB	0f8H
	DB	0fcH
	DB	0f8H
	DB	0ffH
	DB	0f8H
	DB	0fcH
	DB	0f8H
	DB	0ffH
	DB	0f8H
	DB	0fcH
	DB	0f8H
	DB	0ffH
	DB	0f8H
	DB	0fcH
	DB	0f8H
	DB	0ffH
	DB	0f8H
	DB	0fcH
	DB	0f8H
	DB	09eH
	DB	00H
	DB	00H
	DB	00H
	DB	00H
	DB	0f8H
	DB	0fcH
	DB	0f8H
	DB	09eH
	DB	0f8H
	DB	0fcH
	DB	0f8H
	DB	0ffH
	DB	00H
	DB	00H
	DB	00H
	DB	00H
	DB	00H
	DB	00H
	DB	00H
	DB	00H
	DB	00H
	DB	00H
	DB	00H
	DB	00H
	DB	0f8H
	DB	0fcH
	DB	0f8H
	DB	09eH
	DB	0f8H
	DB	0fcH
	DB	0f8H
	DB	0ffH
	DB	0f8H
	DB	0fcH
	DB	0f8H
	DB	0ffH
	DB	0f8H
	DB	0fcH
	DB	0f8H
	DB	09eH
	DB	00H
	DB	00H
	DB	00H
	DB	00H
	DB	0f8H
	DB	0fcH
	DB	0f8H
	DB	09eH
	DB	0f8H
	DB	0fcH
	DB	0f8H
	DB	0ffH
	DB	0f8H
	DB	0fcH
	DB	0f8H
	DB	0ffH
	DB	0f8H
	DB	0fcH
	DB	0f8H
	DB	0ffH
	DB	0f8H
	DB	0fcH
	DB	0f8H
	DB	0ffH
	DB	0f8H
	DB	0fcH
	DB	0f8H
	DB	05dH
	DB	00H
	DB	00H
	DB	00H
	DB	00H
	DB	0f8H
	DB	0fcH
	DB	0f8H
	DB	0ffH
	DB	0f8H
	DB	0fcH
	DB	0f8H
	DB	09eH
	DB	00H
	DB	00H
	DB	00H
	DB	00H
	DB	00H
	DB	00H
	DB	00H
	DB	00H
	DB	00H
	DB	00H
	DB	00H
	DB	00H
	DB	00H
	DB	00H
	DB	00H
	DB	00H
	DB	00H
	DB	00H
	DB	00H
	DB	00H
	DB	00H
	DB	00H
	DB	00H
	DB	00H
	DB	0f8H
	DB	0fcH
	DB	0f8H
	DB	09eH
	DB	0f8H
	DB	0fcH
	DB	0f8H
	DB	0ffH
	DB	0f8H
	DB	0fcH
	DB	0f8H
	DB	0ffH
	DB	0f8H
	DB	0fcH
	DB	0f8H
	DB	09eH
	DB	00H
	DB	00H
	DB	00H
	DB	00H
	DB	0f8H
	DB	0fcH
	DB	0f8H
	DB	09eH
	DB	0f8H
	DB	0fcH
	DB	0f8H
	DB	0ffH
	DB	00H
	DB	00H
	DB	00H
	DB	00H
	DB	0f8H
	DB	0fcH
	DB	0f8H
	DB	061H
	DB	0f8H
	DB	0fcH
	DB	0f8H
	DB	0ffH
	DB	0f8H
	DB	0fcH
	DB	0f8H
	DB	0ffH
	DB	0f8H
	DB	0fcH
	DB	0f8H
	DB	0ffH
	DB	0f8H
	DB	0fcH
	DB	0f8H
	DB	0ffH
	DB	0f8H
	DB	0fcH
	DB	0f8H
	DB	09eH
	DB	00H
	DB	00H
	DB	00H
	DB	00H
	DB	0f8H
	DB	0fcH
	DB	0f8H
	DB	09eH
	DB	0f8H
	DB	0fcH
	DB	0f8H
	DB	0ffH
	DB	00H
	DB	00H
	DB	00H
	DB	00H
	DB	00H
	DB	00H
	DB	00H
	DB	00H
	DB	00H
	DB	00H
	DB	00H
	DB	00H
	DB	0f8H
	DB	0fcH
	DB	0f8H
	DB	09eH
	DB	0f8H
	DB	0fcH
	DB	0f8H
	DB	0ffH
	DB	0f8H
	DB	0fcH
	DB	0f8H
	DB	0ffH
	DB	0f8H
	DB	0fcH
	DB	0f8H
	DB	09eH
	DB	00H
	DB	00H
	DB	00H
	DB	00H
	DB	0f8H
	DB	0fcH
	DB	0f8H
	DB	0a2H
	DB	0f8H
	DB	0fcH
	DB	0f8H
	DB	0ffH
	DB	0f8H
	DB	0fcH
	DB	0f8H
	DB	0ffH
	DB	0f8H
	DB	0fcH
	DB	0f8H
	DB	0ffH
	DB	0f8H
	DB	0fcH
	DB	0f8H
	DB	0ffH
	DB	0f8H
	DB	0fcH
	DB	0f8H
	DB	061H
	DB	00H
	DB	00H
	DB	00H
	DB	00H
	DB	0f8H
	DB	0fcH
	DB	0f8H
	DB	0ffH
	DB	0f8H
	DB	0fcH
	DB	0f8H
	DB	09eH
	DB	00H
	DB	00H
	DB	00H
	DB	00H
	DB	00H
	DB	00H
	DB	00H
	DB	00H
	DB	00H
	DB	00H
	DB	00H
	DB	00H
	DB	00H
	DB	00H
	DB	00H
	DB	00H
	DB	00H
	DB	00H
	DB	00H
	DB	00H
	DB	00H
	DB	00H
	DB	00H
	DB	00H
	DB	0f8H
	DB	0fcH
	DB	0f8H
	DB	09eH
	DB	0f8H
	DB	0fcH
	DB	0f8H
	DB	0ffH
	DB	0f8H
	DB	0fcH
	DB	0f8H
	DB	0ffH
	DB	0f8H
	DB	0fcH
	DB	0f8H
	DB	0a2H
	DB	00H
	DB	00H
	DB	00H
	DB	00H
	DB	0f8H
	DB	0fcH
	DB	0f8H
	DB	09eH
	DB	0f8H
	DB	0fcH
	DB	0f8H
	DB	0ffH
	DB	00H
	DB	00H
	DB	00H
	DB	00H
	DB	0f8H
	DB	0fcH
	DB	0f8H
	DB	061H
	DB	0f8H
	DB	0fcH
	DB	0f8H
	DB	0ffH
	DB	0f8H
	DB	0fcH
	DB	0f8H
	DB	0ffH
	DB	0f8H
	DB	0fcH
	DB	0f8H
	DB	0ffH
	DB	0f8H
	DB	0fcH
	DB	0f8H
	DB	0ffH
	DB	0f8H
	DB	0fcH
	DB	0f8H
	DB	09eH
	DB	00H
	DB	00H
	DB	00H
	DB	00H
	DB	0f8H
	DB	0fcH
	DB	0f8H
	DB	0a2H
	DB	0f8H
	DB	0fcH
	DB	0f8H
	DB	0ffH
	DB	00H
	DB	00H
	DB	00H
	DB	00H
	DB	00H
	DB	00H
	DB	00H
	DB	00H
	DB	00H
	DB	00H
	DB	00H
	DB	00H
	DB	0f8H
	DB	0fcH
	DB	0f8H
	DB	0a2H
	DB	0f8H
	DB	0fcH
	DB	0f8H
	DB	0ffH
	DB	0f8H
	DB	0fcH
	DB	0f8H
	DB	0ffH
	DB	0f8H
	DB	0fcH
	DB	0f8H
	DB	09eH
	DB	00H
	DB	00H
	DB	00H
	DB	00H
	DB	0f8H
	DB	0fcH
	DB	0f8H
	DB	09eH
	DB	0f8H
	DB	0fcH
	DB	0f8H
	DB	0ffH
	DB	0f8H
	DB	0fcH
	DB	0f8H
	DB	0ffH
	DB	0f8H
	DB	0fcH
	DB	0f8H
	DB	0ffH
	DB	0f8H
	DB	0fcH
	DB	0f8H
	DB	0ffH
	DB	0f8H
	DB	0fcH
	DB	0f8H
	DB	061H
	DB	00H
	DB	00H
	DB	00H
	DB	00H
	DB	0f8H
	DB	0fcH
	DB	0f8H
	DB	0ffH
	DB	0f8H
	DB	0fcH
	DB	0f8H
	DB	09eH
	DB	00H
	DB	00H
	DB	00H
	DB	00H
	DB	00H
	DB	00H
	DB	00H
	DB	00H
	DB	00H
	DB	00H
	DB	00H
	DB	00H
	DB	00H
	DB	00H
	DB	00H
	DB	00H
	DB	00H
	DB	00H
	DB	00H
	DB	00H
	DB	00H
	DB	00H
	DB	00H
	DB	00H
	DB	0f8H
	DB	0fcH
	DB	0f8H
	DB	09eH
	DB	0f8H
	DB	0fcH
	DB	0f8H
	DB	0ffH
	DB	0f8H
	DB	0fcH
	DB	0f8H
	DB	0ffH
	DB	0f8H
	DB	0fcH
	DB	0f8H
	DB	09eH
	DB	00H
	DB	00H
	DB	00H
	DB	00H
	DB	0f8H
	DB	0fcH
	DB	0f8H
	DB	09eH
	DB	0f8H
	DB	0fcH
	DB	0f8H
	DB	0ffH
	DB	00H
	DB	00H
	DB	00H
	DB	00H
	DB	0f8H
	DB	0fcH
	DB	0f8H
	DB	061H
	DB	0f8H
	DB	0fcH
	DB	0f8H
	DB	0ffH
	DB	0f8H
	DB	0fcH
	DB	0f8H
	DB	0ffH
	DB	0f8H
	DB	0fcH
	DB	0f8H
	DB	0ffH
	DB	0f8H
	DB	0fcH
	DB	0f8H
	DB	0ffH
	DB	0f8H
	DB	0fcH
	DB	0f8H
	DB	09eH
	DB	00H
	DB	00H
	DB	00H
	DB	00H
	DB	0f8H
	DB	0fcH
	DB	0f8H
	DB	09eH
	DB	0f8H
	DB	0fcH
	DB	0f8H
	DB	0ffH
	DB	00H
	DB	00H
	DB	00H
	DB	00H
	DB	00H
	DB	00H
	DB	00H
	DB	00H
	DB	00H
	DB	00H
	DB	00H
	DB	00H
	DB	0f8H
	DB	0fcH
	DB	0f8H
	DB	09eH
	DB	0f8H
	DB	0fcH
	DB	0f8H
	DB	0ffH
	DB	0f8H
	DB	0fcH
	DB	0f8H
	DB	0ffH
	DB	0f8H
	DB	0fcH
	DB	0f8H
	DB	0a2H
	DB	00H
	DB	00H
	DB	00H
	DB	00H
	DB	0f8H
	DB	0fcH
	DB	0f8H
	DB	09eH
	DB	0f8H
	DB	0fcH
	DB	0f8H
	DB	0ffH
	DB	0f8H
	DB	0fcH
	DB	0f8H
	DB	0ffH
	DB	0f8H
	DB	0fcH
	DB	0f8H
	DB	0ffH
	DB	0f8H
	DB	0fcH
	DB	0f8H
	DB	0ffH
	DB	0f8H
	DB	0fcH
	DB	0f8H
	DB	05dH
	DB	00H
	DB	00H
	DB	00H
	DB	00H
	DB	0f8H
	DB	0fcH
	DB	0f8H
	DB	0ffH
	DB	0f8H
	DB	0fcH
	DB	0f8H
	DB	09eH
	DB	00H
	DB	00H
	DB	00H
	DB	00H
	DB	00H
	DB	00H
	DB	00H
	DB	00H
	DB	00H
	DB	00H
	DB	00H
	DB	00H
	DB	00H
	DB	00H
	DB	00H
	DB	00H
	DB	00H
	DB	00H
	DB	00H
	DB	00H
	DB	00H
	DB	00H
	DB	00H
	DB	00H
	DB	0f8H
	DB	0fcH
	DB	0f8H
	DB	09eH
	DB	0f8H
	DB	0fcH
	DB	0f8H
	DB	0ffH
	DB	0f8H
	DB	0fcH
	DB	0f8H
	DB	0ffH
	DB	0f8H
	DB	0fcH
	DB	0f8H
	DB	09eH
	DB	00H
	DB	00H
	DB	00H
	DB	00H
	DB	0f8H
	DB	0fcH
	DB	0f8H
	DB	0a2H
	DB	0f8H
	DB	0fcH
	DB	0f8H
	DB	0ffH
	DB	00H
	DB	00H
	DB	00H
	DB	00H
	DB	0f8H
	DB	0fcH
	DB	0f8H
	DB	061H
	DB	0f8H
	DB	0fcH
	DB	0f8H
	DB	0ffH
	DB	0f8H
	DB	0fcH
	DB	0f8H
	DB	0ffH
	DB	0f8H
	DB	0fcH
	DB	0f8H
	DB	0ffH
	DB	0f8H
	DB	0fcH
	DB	0f8H
	DB	0ffH
	DB	0f8H
	DB	0fcH
	DB	0f8H
	DB	09eH
	DB	00H
	DB	00H
	DB	00H
	DB	00H
	DB	0f8H
	DB	0fcH
	DB	0f8H
	DB	09eH
	DB	0f8H
	DB	0fcH
	DB	0f8H
	DB	0ffH
	DB	00H
	DB	00H
	DB	00H
	DB	00H
	DB	00H
	DB	00H
	DB	00H
	DB	00H
	DB	00H
	DB	00H
	DB	00H
	DB	00H
	DB	0f8H
	DB	0fcH
	DB	0f8H
	DB	09eH
	DB	0f8H
	DB	0fcH
	DB	0f8H
	DB	0ffH
	DB	0f8H
	DB	0fcH
	DB	0f8H
	DB	0ffH
	DB	0f8H
	DB	0fcH
	DB	0f8H
	DB	09eH
	DB	00H
	DB	00H
	DB	00H
	DB	00H
	DB	0f8H
	DB	0fcH
	DB	0f8H
	DB	09eH
	DB	0f8H
	DB	0fcH
	DB	0f8H
	DB	0ffH
	DB	0f8H
	DB	0fcH
	DB	0f8H
	DB	0ffH
	DB	0f8H
	DB	0fcH
	DB	0f8H
	DB	0ffH
	DB	0f8H
	DB	0fcH
	DB	0f8H
	DB	0ffH
	DB	0f8H
	DB	0fcH
	DB	0f8H
	DB	061H
	DB	00H
	DB	00H
	DB	00H
	DB	00H
	DB	0f8H
	DB	0fcH
	DB	0f8H
	DB	0ffH
	DB	0f8H
	DB	0fcH
	DB	0f8H
	DB	09eH
	DB	00H
	DB	00H
	DB	00H
	DB	00H
	DB	00H
	DB	00H
	DB	00H
	DB	00H
	DB	00H
	DB	00H
	DB	00H
	DB	00H
	DB	00H
	DB	00H
	DB	00H
	DB	00H
	DB	00H
	DB	00H
	DB	00H
	DB	00H
	DB	00H
	DB	00H
	DB	00H
	DB	00H
	DB	00H
	DB	00H
	DB	00H
	DB	00H
	DB	00H
	DB	00H
	DB	00H
	DB	00H
	DB	00H
	DB	00H
	DB	00H
	DB	00H
	DB	00H
	DB	00H
	DB	00H
	DB	00H
	DB	00H
	DB	00H
	DB	00H
	DB	00H
	DB	00H
	DB	00H
	DB	00H
	DB	00H
	DB	00H
	DB	00H
	DB	00H
	DB	00H
	DB	00H
	DB	00H
	DB	00H
	DB	00H
	DB	00H
	DB	00H
	DB	00H
	DB	00H
	DB	00H
	DB	00H
	DB	00H
	DB	00H
	DB	00H
	DB	00H
	DB	00H
	DB	00H
	DB	00H
	DB	00H
	DB	00H
	DB	00H
	DB	00H
	DB	00H
	DB	00H
	DB	00H
	DB	00H
	DB	00H
	DB	00H
	DB	00H
	DB	00H
	DB	00H
	DB	00H
	DB	00H
	DB	00H
	DB	00H
	DB	00H
	DB	00H
	DB	00H
	DB	00H
	DB	00H
	DB	00H
	DB	00H
	DB	00H
	DB	00H
	DB	00H
	DB	00H
	DB	00H
	DB	00H
	DB	00H
	DB	00H
	DB	00H
	DB	00H
	DB	00H
	DB	00H
	DB	00H
	DB	00H
	DB	00H
	DB	00H
	DB	00H
	DB	00H
	DB	00H
	DB	00H
	DB	00H
	DB	00H
	DB	00H
	DB	00H
	DB	00H
	DB	00H
	DB	00H
	DB	00H
	DB	00H
	DB	00H
	DB	00H
	DB	00H
	DB	00H
	DB	00H
	DB	00H
	DB	00H
	DB	00H
	DB	00H
	DB	00H
	DB	00H
	DB	00H
	DB	00H
	DB	00H
	DB	00H
	DB	00H
	DB	00H
	DB	00H
	DB	00H
	DB	00H
	DB	00H
	DB	00H
	DB	00H
	DB	00H
	DB	00H
	DB	00H
	DB	00H
	DB	00H
	DB	00H
	DB	00H
	DB	00H
	DB	00H
	DB	00H
	DB	00H
	DB	00H
	DB	00H
	DB	00H
	DB	00H
	DB	00H
	DB	00H
	DB	00H
	DB	00H
	DB	00H
	DB	00H
	DB	00H
	DB	00H
	DB	00H
	DB	00H
	DB	00H
	DB	00H
	DB	00H
	DB	00H
	DB	00H
	DB	00H
	DB	00H
	DB	00H
	DB	00H
	DB	00H
	DB	00H
	DB	00H
	DB	00H
	DB	00H
	DB	00H
	DB	00H
	DB	00H
	DB	00H
	DB	00H
	DB	00H
	DB	00H
	DB	00H
	DB	00H
	DB	00H
	DB	00H
	DB	00H
	DB	00H
	DB	00H
	DB	00H
	DB	00H
	DB	00H
	DB	00H
	DB	00H
	DB	00H
	DB	00H
	DB	00H
	DB	00H
	DB	00H
	DB	00H
	DB	00H
	DB	00H
	DB	00H
	DB	00H
	DB	00H
	DB	00H
	DB	00H
	DB	00H
	DB	00H
	DB	00H
	DB	00H
	DB	00H
	DB	00H
	DB	00H
	DB	00H
	DB	00H
	DB	00H
	DB	00H
	DB	00H
	DB	00H
	DB	00H
	DB	00H
	DB	00H
	DB	00H
	DB	00H
	DB	00H
	DB	00H
	DB	00H
	DB	00H
	DB	00H
	DB	00H
	DB	00H
	DB	00H
	DB	00H
	DB	00H
	DB	00H
	DB	00H
	DB	00H
	DB	00H
	DB	00H
	DB	00H
	DB	00H
	DB	00H
	DB	00H
	DB	00H
	DB	00H
	DB	00H
	DB	00H
	DB	00H
	DB	00H
	DB	00H
	DB	00H
	DB	00H
	DB	00H
	DB	00H
	DB	00H
	DB	00H
	DB	00H
	DB	00H
	DB	00H
	DB	00H
	DB	00H
	DB	00H
	DB	00H
	DB	00H
	DB	00H
	DB	00H
	DB	00H
	DB	00H
	DB	00H
	DB	00H
	DB	00H
	DB	00H
	DB	00H
	DB	00H
	DB	00H
	DB	00H
	DB	00H
	DB	00H
	DB	00H
	DB	00H
	DB	00H
	DB	00H
	DB	00H
	DB	00H
	DB	00H
	DB	00H
	DB	00H
	DB	00H
	DB	00H
	DB	00H
	DB	00H
	DB	00H
	DB	00H
	DB	00H
	DB	00H
	DB	00H
	DB	00H
	DB	00H
	DB	00H
	DB	00H
	DB	00H
	DB	00H
	DB	00H
	DB	00H
	DB	00H
	DB	00H
	DB	00H
	DB	00H
	DB	00H
	DB	00H
	DB	00H
	DB	00H
	DB	00H
	DB	00H
	DB	00H
	DB	00H
	DB	00H
	DB	00H
	DB	00H
	DB	00H
	DB	00H
	DB	00H
	DB	00H
	DB	00H
	DB	00H
	DB	00H
	DB	00H
	DB	00H
	DB	00H
	DB	00H
	DB	00H
	DB	00H
	DB	00H
	DB	00H
	DB	00H
	DB	00H
	DB	00H
	DB	00H
	DB	00H
	DB	00H
	DB	00H
	DB	00H
	DB	00H
	DB	00H
	DB	00H
	DB	00H
	DB	00H
	DB	00H
	DB	00H
	DB	00H
	DB	00H
	DB	00H
	DB	00H
	DB	00H
	DB	00H
	DB	00H
	DB	00H
	DB	00H
	DB	00H
	DB	00H
	DB	00H
	DB	00H
	DB	00H
	DB	00H
	DB	00H
	DB	00H
	DB	00H
	DB	00H
	DB	00H
	DB	00H
	DB	00H
	DB	00H
	DB	00H
	DB	00H
	DB	00H
	DB	00H
	DB	00H
	DB	00H
	DB	00H
	DB	00H
	DB	00H
	DB	00H
	DB	00H
	DB	00H
	DB	00H
	DB	00H
	DB	00H
	DB	00H
	DB	00H
	DB	00H
	DB	00H
	DB	00H
	DB	00H
	DB	00H
	DB	00H
	DB	00H
	DB	00H
	DB	00H
	DB	00H
	DB	00H
	DB	00H
	DB	00H
	DB	00H
	DB	00H
	DB	00H
	DB	00H
	DB	00H
	DB	00H
	DB	00H
	DB	00H
	DB	00H
	DB	00H
	DB	00H
	DB	00H
	DB	00H
	DB	00H
	DB	00H
	DB	00H
	DB	00H
	DB	00H
	DB	00H
	DB	00H
	DB	00H
	DB	00H
	DB	00H
	DB	00H
	DB	00H
	DB	00H
	DB	00H
	DB	00H
	DB	00H
	DB	00H
	DB	00H
	DB	00H
	DB	00H
	DB	00H
	DB	00H
	DB	00H
	DB	00H
	DB	00H
	DB	00H
	DB	00H
	DB	00H
	DB	00H
	DB	00H
	DB	00H
	DB	00H
	DB	00H
	DB	00H
	DB	00H
	DB	00H
	DB	00H
	DB	00H
	DB	00H
	DB	00H
	DB	00H
	DB	00H
	DB	00H
	DB	00H
	DB	00H
	DB	00H
	DB	00H
	DB	00H
	DB	00H
	DB	00H
	DB	00H
	DB	00H
	DB	00H
	DB	00H
	DB	00H
	DB	00H
	DB	00H
	DB	00H
	DB	00H
	DB	00H
	DB	00H
	DB	00H
	DB	00H
	DB	00H
	DB	00H
	DB	00H
	DB	00H
	DB	00H
	DB	00H
	DB	00H
	DB	00H
	DB	00H
	DB	00H
	DB	00H
	DB	00H
	DB	00H
	DB	00H
	DB	00H
	DB	00H
	DB	00H
	DB	00H
	DB	00H
	DB	00H
	DB	00H
	DB	00H
	DB	00H
	DB	00H
	DB	00H
	DB	00H
	DB	00H
	DB	00H
	DB	00H
	DB	00H
	DB	00H
	DB	00H
	DB	00H
	DB	00H
	DB	00H
	DB	00H
	DB	00H
	DB	00H
	DB	00H
	DB	00H
	DB	00H
	DB	00H
	DB	00H
	DB	00H
	DB	00H
	DB	00H
	DB	00H
	DB	00H
	DB	00H
	DB	00H
	DB	00H
	DB	00H
	DB	00H
	DB	00H
	DB	00H
	DB	00H
	DB	00H
	DB	00H
	DB	00H
	DB	00H
	DB	00H
	DB	00H
	DB	00H
	DB	00H
	DB	00H
	DB	00H
	DB	00H
	DB	00H
	DB	00H
	DB	00H
	DB	00H
	DB	00H
	DB	00H
	DB	00H
	DB	00H
	DB	00H
	DB	00H
	DB	00H
	DB	00H
	DB	00H
	DB	00H
	DB	00H
	DB	00H
	DB	00H
	DB	00H
	DB	00H
	DB	00H
	DB	00H
	DB	00H
	DB	00H
	DB	00H
	DB	00H
	DB	00H
	DB	00H
	DB	00H
	DB	00H
	DB	00H
	DB	00H
	DB	00H
	DB	00H
	DB	00H
	DB	00H
	DB	00H
	DB	00H
	DB	00H
	DB	00H
	DB	00H
	DB	00H
	DB	00H
	DB	00H
	DB	00H
	DB	00H
	DB	00H
	DB	00H
	DB	00H
	DB	00H
	DB	00H
	DB	00H
	DB	00H
	DB	00H
	DB	00H
	DB	00H
	DB	00H
	DB	00H
	DB	00H
	DB	00H
	DB	00H
	DB	00H
	DB	00H
	DB	00H
	DB	00H
	DB	00H
	DB	00H
	DB	00H
	DB	00H
	DB	00H
	DB	00H
	DB	00H
	DB	00H
	DB	00H
	DB	00H
	DB	00H
	DB	00H
	DB	00H
	DB	00H
	DB	00H
	DB	00H
	DB	00H
	DB	00H
	DB	00H
	DB	00H
	DB	00H
	DB	00H
	DB	00H
	DB	00H
	DB	00H
	DB	00H
	DB	00H
	DB	00H
	DB	00H
	DB	00H
	DB	00H
	DB	00H
	DB	00H
	DB	00H
	DB	00H
	DB	00H
	DB	00H
	DB	00H
	DB	00H
	DB	00H
	DB	00H
	DB	00H
	DB	00H
	DB	00H
	DB	00H
	DB	00H
	DB	00H
	DB	00H
	DB	00H
	DB	00H
	DB	00H
	DB	00H
	DB	00H
	DB	00H
	DB	00H
	DB	00H
	DB	00H
	DB	00H
	DB	00H
	DB	00H
	DB	00H
	DB	00H
	DB	00H
	DB	00H
	DB	00H
	DB	00H
	DB	00H
	DB	00H
	DB	00H
	DB	00H
	DB	00H
	DB	00H
	DB	00H
	DB	00H
	DB	00H
	DB	00H
	DB	00H
	DB	00H
	DB	00H
	DB	00H
	DB	00H
	DB	00H
	DB	00H
	DB	00H
	DB	00H
	DB	00H
	DB	00H
	DB	00H
	DB	00H
	DB	00H
	DB	00H
	DB	00H
	DB	00H
	DB	00H
	DB	00H
	DB	00H
	DB	00H
	DB	00H
	DB	00H
	DB	00H
	DB	00H
	DB	00H
	DB	00H
	DB	00H
	DB	00H
	DB	00H
	DB	00H
	DB	00H
	DB	00H
	DB	00H
	DB	00H
	DB	00H
	DB	00H
	DB	00H
	DB	00H
	DB	00H
	DB	00H
	DB	00H
	DB	00H
	DB	00H
	DB	00H
	DB	00H
	DB	00H
	DB	00H
	DB	00H
	DB	00H
	DB	00H
	DB	00H
	DB	00H
	DB	00H
	DB	00H
	DB	00H
	DB	00H
	DB	00H
	DB	00H
	DB	00H
	DB	00H
	DB	00H
	DB	00H
	DB	00H
	DB	00H
	DB	00H
	DB	00H
	DB	00H
	DB	00H
	DB	00H
	DB	00H
	DB	00H
	DB	00H
	DB	00H
	DB	00H
	DB	00H
	DB	00H
	DB	00H
	DB	00H
	DB	00H
	DB	00H
	DB	00H
	DB	00H
	DB	00H
	DB	00H
	DB	00H
	DB	00H
	DB	00H
	DB	00H
	DB	00H
	DB	00H
	DB	00H
	DB	00H
	DB	00H
	DB	00H
	DB	00H
	DB	00H
	DB	00H
	DB	00H
	DB	00H
	DB	00H
	DB	00H
	DB	00H
	DB	00H
	DB	00H
	DB	00H
	DB	00H
	DB	00H
	DB	00H
	DB	00H
	DB	00H
	DB	00H
	DB	00H
	DB	00H
	DB	00H
	DB	00H
	DB	00H
	DB	00H
	DB	00H
	DB	00H
	DB	00H
	DB	00H
	DB	00H
	DB	00H
	DB	00H
	DB	00H
	DB	00H
	DB	00H
	DB	00H
	DB	00H
	DB	00H
	DB	00H
	DB	00H
	DB	00H
	DB	00H
	DB	00H
	DB	00H
	DB	00H
	DB	00H
	DB	00H
	DB	00H
	DB	00H
	DB	00H
	DB	00H
	DB	00H
	DB	00H
	DB	00H
	DB	00H
	DB	00H
	DB	00H
	DB	00H
	DB	00H
	DB	00H
	DB	00H
	DB	00H
	DB	00H
	DB	00H
	DB	00H
	DB	00H
	DB	00H
	DB	00H
	DB	00H
	DB	00H
	DB	00H
	DB	00H
	DB	00H
	DB	00H
	DB	00H
	DB	00H
	DB	00H
	DB	00H
	DB	00H
	DB	00H
	DB	00H
	DB	00H
	DB	00H
	DB	00H
	DB	00H
	DB	00H
	DB	00H
	DB	00H
	DB	00H
	DB	00H
	DB	00H
	DB	00H
	DB	00H
	DB	00H
	DB	00H
	DB	00H
	DB	00H
	DB	00H
	DB	00H
	DB	00H
	DB	00H
	DB	00H
	DB	00H
	DB	00H
	DB	00H
	DB	00H
	DB	00H
	DB	00H
	DB	00H
	DB	00H
	DB	00H
	DB	00H
	DB	00H
	DB	00H
	DB	00H
	DB	00H
	DB	00H
	DB	00H
	DB	00H
	DB	00H
	DB	00H
	DB	00H
	DB	00H
	DB	00H
	DB	00H
	DB	00H
	DB	00H
	DB	00H
	DB	00H
	DB	00H
	DB	00H
	DB	00H
	DB	00H
	DB	00H
	DB	00H
	DB	00H
	DB	00H
	DB	00H
	DB	00H
	DB	00H
	DB	00H
	DB	00H
	DB	00H
	DB	00H
	DB	00H
	DB	00H
	DB	00H
	DB	00H
	DB	00H
	DB	00H
	DB	00H
	DB	00H
	DB	00H
	DB	00H
	DB	00H
	DB	00H
	DB	00H
	DB	00H
	DB	00H
	DB	00H
	DB	00H
	DB	00H
	DB	00H
	DB	00H
	DB	00H
	DB	00H
	DB	00H
	DB	00H
	DB	00H
	DB	00H
	DB	00H
	DB	00H
	DB	00H
	DB	00H
	DB	00H
	DB	00H
	DB	00H
	DB	00H
	DB	00H
	DB	00H
	DB	00H
	DB	00H
	DB	00H
	DB	00H
	DB	00H
	DB	00H
	DB	00H
	DB	00H
	DB	00H
	DB	00H
	DB	00H
	DB	00H
	DB	00H
	DB	00H
	DB	00H
	DB	00H
	DB	00H
	DB	00H
	DB	00H
	DB	00H
	DB	00H
	DB	00H
	DB	00H
	DB	00H
	DB	00H
	DB	00H
	DB	00H
	DB	00H
	DB	00H
	DB	00H
	DB	00H
	DB	00H
	DB	00H
	DB	00H
	DB	00H
	DB	00H
	DB	00H
	DB	00H
	DB	00H
	DB	00H
	DB	00H
	DB	00H
	DB	00H
	DB	00H
	DB	00H
	DB	00H
	DB	00H
	DB	00H
	DB	00H
	DB	00H
	DB	00H
	DB	00H
	DB	00H
	DB	00H
	DB	00H
	DB	00H
	DB	00H
	DB	00H
	DB	00H
	DB	00H
	DB	00H
	DB	00H
	DB	00H
	DB	00H
	DB	00H
	DB	00H
	DB	00H
	DB	00H
	DB	00H
	DB	00H
	DB	00H
	DB	00H
	DB	00H
	DB	00H
	DB	00H
	DB	00H
	DB	00H
	DB	00H
	DB	00H
	DB	00H
	DB	00H
	DB	00H
	DB	00H
	DB	00H
	DB	00H
	DB	00H
	DB	00H
	DB	00H
	DB	00H
	DB	00H
	DB	00H
	DB	00H
	DB	00H
	DB	00H
	DB	00H
	DB	00H
	DB	00H
	DB	00H
	DB	00H
	DB	00H
	DB	00H
	DB	00H
	DB	00H
	DB	00H
	DB	00H
	DB	00H
	DB	00H
	DB	00H
	DB	00H
	DB	00H
	DB	00H
	DB	00H
	DB	00H
	DB	00H
	DB	00H
	DB	00H
	DB	00H
	DB	00H
	DB	00H
	DB	00H
	DB	00H
	DB	00H
	DB	00H
	DB	00H
	DB	00H
	DB	00H
	DB	00H
	DB	00H
	DB	00H
	DB	00H
	DB	00H
	DB	00H
	DB	00H
	DB	00H
	DB	00H
	DB	00H
	DB	00H
	DB	00H
	DB	00H
	DB	00H
	DB	00H
	DB	00H
	DB	00H
	DB	00H
	DB	00H
	DB	00H
	DB	00H
	DB	00H
	DB	00H
	DB	00H
	DB	00H
	DB	00H
	DB	00H
	DB	00H
	DB	00H
	DB	00H
	DB	00H
	DB	00H
	DB	00H
	DB	00H
	DB	00H
	DB	00H
	DB	00H
	DB	00H
	DB	00H
	DB	00H
	DB	00H
	DB	00H
	DB	00H
	DB	00H
	DB	00H
	DB	00H
	DB	00H
	DB	00H
	DB	00H
	DB	00H
	DB	00H
	DB	00H
	DB	00H
	DB	00H
	DB	00H
	DB	00H
	DB	00H
	DB	00H
	DB	00H
	DB	00H
	DB	00H
	DB	00H
	DB	00H
	DB	00H
	DB	00H
	DB	00H
	DB	00H
	DB	00H
	DB	00H
	DB	00H
	DB	00H
	DB	00H
	DB	00H
	DB	00H
	DB	00H
	DB	00H
	DB	00H
	DB	00H
	DB	00H
	DB	00H
	DB	00H
	DB	00H
	DB	00H
	DB	00H
	DB	00H
	DB	00H
	DB	00H
	DB	00H
	DB	00H
	DB	00H
	DB	00H
	DB	00H
	DB	00H
	DB	00H
	DB	00H
	DB	00H
	DB	00H
	DB	00H
	DB	00H
	DB	00H
	DB	00H
	DB	00H
	DB	00H
	DB	00H
	DB	00H
	DB	00H
	DB	00H
	DB	00H
	DB	00H
	DB	00H
	DB	00H
	DB	00H
	DB	00H
	DB	00H
	DB	00H
	DB	00H
	DB	00H
	DB	00H
	DB	00H
	DB	00H
	DB	00H
	DB	00H
	DB	00H
	DB	00H
	DB	00H
	DB	00H
	DB	00H
	DB	00H
	DB	00H
	DB	00H
	DB	00H
	DB	00H
	DB	00H
	DB	00H
	DB	00H
	DB	00H
	DB	00H
	DB	00H
	DB	00H
	DB	00H
	DB	00H
	DB	00H
	DB	00H
	DB	00H
	DB	00H
	DB	00H
	DB	00H
	DB	00H
	DB	00H
	DB	00H
	DB	00H
	DB	00H
	DB	00H
	DB	00H
	DB	00H
	DB	00H
	DB	00H
	DB	00H
	DB	00H
	DB	00H
	DB	00H
	DB	00H
	DB	00H
	DB	00H
	DB	00H
	DB	00H
	DB	00H
	DB	00H
	DB	00H
	DB	00H
	DB	00H
	DB	00H
	DB	00H
	DB	00H
	DB	00H
	DB	00H
	DB	00H
	DB	00H
	DB	00H
	DB	00H
	DB	00H
	DB	00H
	DB	00H
	DB	00H
	DB	00H
	DB	00H
	DB	00H
	DB	00H
	DB	00H
	DB	00H
	DB	00H
	DB	00H
	DB	00H
	DB	00H
	DB	00H
	DB	00H
	DB	00H
	DB	00H
	DB	00H
	DB	00H
	DB	00H
	DB	00H
	DB	00H
	DB	00H
	DB	00H
	DB	00H
	DB	00H
	DB	00H
	DB	00H
	DB	00H
	DB	00H
	DB	00H
	DB	00H
	DB	00H
	DB	00H
	DB	00H
	DB	00H
	DB	00H
	DB	00H
	DB	00H
	DB	00H
	DB	00H
	DB	00H
	DB	00H
	DB	00H
	DB	00H
	DB	00H
	DB	00H
	DB	00H
	DB	00H
	DB	00H
	DB	00H
	DB	00H
	DB	00H
	DB	00H
	DB	00H
	DB	00H
	DB	00H
	DB	00H
	DB	00H
	DB	00H
	DB	00H
	DB	00H
	DB	00H
	DB	00H
	DB	00H
	DB	00H
	DB	00H
	DB	00H
	DB	00H
	DB	00H
	DB	00H
	DB	00H
	DB	00H
	DB	00H
	DB	00H
	DB	00H
	DB	00H
	DB	00H
	DB	00H
	DB	00H
	DB	00H
	DB	00H
	DB	00H
	DB	00H
	DB	00H
	DB	00H
	DB	00H
	DB	00H
	DB	00H
	DB	00H
	DB	00H
	DB	00H
	DB	00H
	DB	00H
	DB	00H
	DB	00H
	DB	00H
	DB	00H
	DB	00H
	DB	00H
	DB	00H
	DB	00H
	DB	00H
	DB	00H
	DB	00H
	DB	00H
	DB	00H
	DB	00H
	DB	00H
	DB	00H
	DB	00H
	DB	00H
	DB	00H
	DB	00H
	DB	00H
	DB	00H
	DB	00H
	DB	00H
	DB	00H
	DB	00H
	DB	00H
	DB	00H
	DB	00H
	DB	00H
	DB	00H
	DB	00H
	DB	00H
	DB	00H
	DB	00H
	DB	00H
	DB	00H
	DB	00H
	DB	00H
	DB	00H
	DB	00H
	DB	00H
	DB	00H
	DB	00H
	DB	00H
	DB	00H
	DB	00H
	DB	00H
	DB	00H
	DB	00H
	DB	00H
	DB	00H
	DB	00H
	DB	00H
	DB	00H
	DB	00H
	DB	00H
	DB	00H
	DB	00H
	DB	00H
	DB	00H
	DB	00H
	DB	00H
	DB	00H
	DB	00H
	DB	00H
	DB	00H
	DB	00H
	DB	00H
	DB	00H
	DB	00H
	DB	00H
	DB	00H
	DB	00H
	DB	00H
	DB	00H
	DB	00H
	DB	00H
	DB	00H
	DB	00H
	DB	00H
	DB	00H
	DB	00H
	DB	00H
	DB	00H
	DB	00H
	DB	00H
	DB	00H
	DB	00H
	DB	00H
	DB	00H
	DB	00H
	DB	00H
	DB	00H
	DB	00H
	DB	00H
	DB	00H
	DB	00H
	DB	00H
	DB	00H
	DB	00H
	DB	00H
	DB	00H
	DB	00H
	DB	00H
	DB	00H
	DB	00H
	DB	00H
	DB	00H
	DB	00H
	DB	00H
	DB	00H
	DB	00H
	DB	00H
	DB	00H
	DB	00H
	DB	00H
	DB	00H
	DB	00H
	DB	00H
	DB	00H
	DB	00H
	DB	00H
	DB	00H
	DB	00H
	DB	00H
	DB	00H
	DB	00H
	DB	00H
	DB	00H
	DB	00H
	DB	00H
	DB	00H
	DB	00H
	DB	00H
	DB	00H
	DB	00H
	DB	00H
	DB	00H
	DB	00H
	DB	00H
	DB	00H
	DB	00H
	DB	00H
	DB	00H
	DB	00H
	DB	00H
	DB	00H
	DB	00H
	DB	00H
	DB	00H
	DB	00H
	DB	00H
	DB	00H
	DB	00H
	DB	00H
	DB	00H
	DB	00H
	DB	00H
	DB	00H
	DB	00H
	DB	00H
	DB	00H
	DB	00H
	DB	00H
	DB	00H
	DB	00H
	DB	00H
	DB	00H
	DB	00H
	DB	00H
	DB	00H
	DB	00H
	DB	00H
	DB	00H
	DB	00H
	DB	00H
	DB	00H
	DB	00H
	DB	00H
	DB	00H
	DB	00H
	DB	00H
	DB	00H
	DB	00H
	DB	00H
	DB	00H
	DB	00H
	DB	00H
	DB	00H
	DB	00H
	DB	00H
	DB	00H
	DB	00H
	DB	00H
	DB	00H
	DB	00H
	DB	00H
	DB	00H
	DB	00H
	DB	00H
	DB	00H
	DB	00H
	DB	00H
	DB	00H
	DB	00H
	DB	00H
	DB	00H
	DB	00H
	DB	00H
	DB	00H
	DB	00H
	DB	00H
	DB	00H
	DB	00H
	DB	00H
	DB	00H
	DB	00H
	DB	00H
	DB	00H
	DB	00H
	DB	00H
	DB	00H
	DB	00H
	DB	00H
	DB	00H
	DB	00H
	DB	00H
	DB	00H
	DB	00H
	DB	00H
	DB	00H
	DB	00H
	DB	00H
	DB	00H
	DB	00H
	DB	00H
	DB	00H
	DB	00H
	DB	00H
	DB	00H
	DB	00H
	DB	00H
CONST	ENDS
END
