; Listing generated by Microsoft (R) Optimizing Compiler Version 19.37.32822.0 

	TITLE	C:\TouchGFXProjects\KraftHeinz_DS3600\TouchGFX\build\Debug\obj\image_bluetooth-alt-active.obj
	.686P
	.XMM
	include listing.inc
	.model	flat

INCLUDELIB MSVCRTD
INCLUDELIB OLDNAMES

PUBLIC	?image_bluetooth_alt_active@@3QBEB		; image_bluetooth_alt_active
msvcjmc	SEGMENT
__38966392_Config@hpp DB 01H
__E14AB457_image_bluetooth-alt-active@cpp DB 01H
msvcjmc	ENDS
CONST	SEGMENT
?image_bluetooth_alt_active@@3QBEB DB 00H		; image_bluetooth_alt_active
	DB	00H
	DB	00H
	DB	00H
	DB	00H
	DB	00H
	DB	00H
	DB	00H
	DB	00H
	DB	00H
	DB	00H
	DB	00H
	DB	00H
	DB	00H
	DB	00H
	DB	00H
	DB	00H
	DB	00H
	DB	00H
	DB	00H
	DB	00H
	DB	00H
	DB	00H
	DB	00H
	DB	00H
	DB	00H
	DB	00H
	DB	00H
	DB	00H
	DB	00H
	DB	00H
	DB	00H
	DB	00H
	DB	00H
	DB	00H
	DB	00H
	DB	00H
	DB	00H
	DB	00H
	DB	00H
	DB	00H
	DB	00H
	DB	00H
	DB	00H
	DB	00H
	DB	00H
	DB	00H
	DB	00H
	DB	00H
	DB	00H
	DB	00H
	DB	00H
	DB	00H
	DB	00H
	DB	00H
	DB	00H
	DB	00H
	DB	00H
	DB	00H
	DB	00H
	DB	00H
	DB	00H
	DB	00H
	DB	00H
	DB	00H
	DB	00H
	DB	00H
	DB	00H
	DB	00H
	DB	00H
	DB	00H
	DB	00H
	DB	00H
	DB	00H
	DB	00H
	DB	00H
	DB	00H
	DB	00H
	DB	00H
	DB	00H
	DB	00H
	DB	00H
	DB	00H
	DB	00H
	DB	00H
	DB	00H
	DB	00H
	DB	00H
	DB	00H
	DB	00H
	DB	00H
	DB	00H
	DB	00H
	DB	00H
	DB	00H
	DB	00H
	DB	00H
	DB	00H
	DB	00H
	DB	00H
	DB	00H
	DB	00H
	DB	00H
	DB	00H
	DB	00H
	DB	00H
	DB	00H
	DB	00H
	DB	00H
	DB	00H
	DB	00H
	DB	00H
	DB	00H
	DB	00H
	DB	00H
	DB	00H
	DB	00H
	DB	00H
	DB	00H
	DB	00H
	DB	00H
	DB	00H
	DB	00H
	DB	00H
	DB	00H
	DB	00H
	DB	00H
	DB	00H
	DB	00H
	DB	00H
	DB	00H
	DB	00H
	DB	00H
	DB	00H
	DB	00H
	DB	00H
	DB	00H
	DB	00H
	DB	00H
	DB	00H
	DB	00H
	DB	00H
	DB	00H
	DB	00H
	DB	00H
	DB	00H
	DB	00H
	DB	00H
	DB	00H
	DB	00H
	DB	00H
	DB	00H
	DB	00H
	DB	00H
	DB	00H
	DB	00H
	DB	00H
	DB	00H
	DB	00H
	DB	00H
	DB	00H
	DB	00H
	DB	00H
	DB	00H
	DB	00H
	DB	00H
	DB	00H
	DB	00H
	DB	00H
	DB	00H
	DB	00H
	DB	00H
	DB	00H
	DB	00H
	DB	00H
	DB	00H
	DB	00H
	DB	00H
	DB	00H
	DB	00H
	DB	00H
	DB	00H
	DB	00H
	DB	00H
	DB	00H
	DB	00H
	DB	00H
	DB	00H
	DB	00H
	DB	00H
	DB	00H
	DB	00H
	DB	00H
	DB	00H
	DB	00H
	DB	00H
	DB	00H
	DB	00H
	DB	00H
	DB	00H
	DB	00H
	DB	00H
	DB	00H
	DB	00H
	DB	00H
	DB	00H
	DB	00H
	DB	00H
	DB	00H
	DB	00H
	DB	00H
	DB	00H
	DB	00H
	DB	00H
	DB	00H
	DB	00H
	DB	00H
	DB	00H
	DB	00H
	DB	00H
	DB	00H
	DB	00H
	DB	00H
	DB	00H
	DB	00H
	DB	00H
	DB	00H
	DB	00H
	DB	00H
	DB	00H
	DB	00H
	DB	00H
	DB	00H
	DB	00H
	DB	00H
	DB	00H
	DB	00H
	DB	00H
	DB	00H
	DB	00H
	DB	00H
	DB	00H
	DB	00H
	DB	00H
	DB	00H
	DB	00H
	DB	00H
	DB	00H
	DB	00H
	DB	00H
	DB	00H
	DB	00H
	DB	00H
	DB	00H
	DB	00H
	DB	00H
	DB	00H
	DB	00H
	DB	00H
	DB	00H
	DB	00H
	DB	00H
	DB	00H
	DB	00H
	DB	00H
	DB	00H
	DB	00H
	DB	00H
	DB	00H
	DB	00H
	DB	00H
	DB	00H
	DB	00H
	DB	00H
	DB	00H
	DB	00H
	DB	00H
	DB	00H
	DB	00H
	DB	00H
	DB	00H
	DB	00H
	DB	00H
	DB	00H
	DB	00H
	DB	00H
	DB	00H
	DB	00H
	DB	00H
	DB	00H
	DB	00H
	DB	00H
	DB	00H
	DB	00H
	DB	00H
	DB	00H
	DB	00H
	DB	00H
	DB	00H
	DB	00H
	DB	00H
	DB	00H
	DB	00H
	DB	00H
	DB	00H
	DB	00H
	DB	00H
	DB	00H
	DB	00H
	DB	00H
	DB	00H
	DB	00H
	DB	00H
	DB	00H
	DB	00H
	DB	00H
	DB	00H
	DB	00H
	DB	00H
	DB	00H
	DB	00H
	DB	00H
	DB	00H
	DB	00H
	DB	00H
	DB	00H
	DB	00H
	DB	00H
	DB	00H
	DB	00H
	DB	00H
	DB	00H
	DB	00H
	DB	00H
	DB	00H
	DB	00H
	DB	00H
	DB	00H
	DB	00H
	DB	00H
	DB	00H
	DB	00H
	DB	00H
	DB	00H
	DB	00H
	DB	00H
	DB	00H
	DB	00H
	DB	00H
	DB	00H
	DB	00H
	DB	00H
	DB	00H
	DB	00H
	DB	00H
	DB	00H
	DB	00H
	DB	00H
	DB	00H
	DB	00H
	DB	00H
	DB	00H
	DB	00H
	DB	00H
	DB	00H
	DB	00H
	DB	00H
	DB	00H
	DB	00H
	DB	00H
	DB	00H
	DB	00H
	DB	00H
	DB	00H
	DB	00H
	DB	00H
	DB	00H
	DB	00H
	DB	00H
	DB	00H
	DB	00H
	DB	00H
	DB	00H
	DB	00H
	DB	00H
	DB	00H
	DB	00H
	DB	00H
	DB	00H
	DB	00H
	DB	00H
	DB	00H
	DB	00H
	DB	00H
	DB	00H
	DB	00H
	DB	00H
	DB	00H
	DB	00H
	DB	00H
	DB	00H
	DB	00H
	DB	00H
	DB	00H
	DB	00H
	DB	00H
	DB	00H
	DB	00H
	DB	00H
	DB	00H
	DB	00H
	DB	00H
	DB	00H
	DB	00H
	DB	00H
	DB	00H
	DB	00H
	DB	00H
	DB	00H
	DB	00H
	DB	00H
	DB	00H
	DB	00H
	DB	00H
	DB	00H
	DB	00H
	DB	00H
	DB	00H
	DB	0c0H
	DB	094H
	DB	048H
	DB	051H
	DB	0c0H
	DB	098H
	DB	048H
	DB	09eH
	DB	0c0H
	DB	094H
	DB	048H
	DB	0dfH
	DB	0c0H
	DB	094H
	DB	048H
	DB	0ffH
	DB	0c0H
	DB	098H
	DB	048H
	DB	0ffH
	DB	0c0H
	DB	094H
	DB	048H
	DB	0ffH
	DB	0c0H
	DB	094H
	DB	048H
	DB	0dfH
	DB	0c0H
	DB	094H
	DB	048H
	DB	0beH
	DB	0c0H
	DB	094H
	DB	048H
	DB	05dH
	DB	0c0H
	DB	0a0H
	DB	040H
	DB	010H
	DB	00H
	DB	00H
	DB	00H
	DB	00H
	DB	00H
	DB	00H
	DB	00H
	DB	00H
	DB	00H
	DB	00H
	DB	00H
	DB	00H
	DB	00H
	DB	00H
	DB	00H
	DB	00H
	DB	00H
	DB	00H
	DB	00H
	DB	00H
	DB	00H
	DB	00H
	DB	00H
	DB	00H
	DB	00H
	DB	00H
	DB	00H
	DB	00H
	DB	00H
	DB	00H
	DB	00H
	DB	00H
	DB	00H
	DB	00H
	DB	00H
	DB	00H
	DB	00H
	DB	00H
	DB	00H
	DB	00H
	DB	00H
	DB	00H
	DB	00H
	DB	00H
	DB	00H
	DB	00H
	DB	00H
	DB	00H
	DB	00H
	DB	00H
	DB	00H
	DB	00H
	DB	00H
	DB	00H
	DB	00H
	DB	00H
	DB	00H
	DB	00H
	DB	00H
	DB	00H
	DB	00H
	DB	00H
	DB	00H
	DB	00H
	DB	00H
	DB	00H
	DB	00H
	DB	00H
	DB	00H
	DB	00H
	DB	00H
	DB	00H
	DB	00H
	DB	00H
	DB	00H
	DB	00H
	DB	00H
	DB	00H
	DB	00H
	DB	00H
	DB	0c0H
	DB	094H
	DB	048H
	DB	030H
	DB	0c0H
	DB	094H
	DB	048H
	DB	0dfH
	DB	0c0H
	DB	098H
	DB	048H
	DB	0ffH
	DB	0c0H
	DB	098H
	DB	048H
	DB	0ffH
	DB	0c0H
	DB	094H
	DB	048H
	DB	0ffH
	DB	0c0H
	DB	094H
	DB	048H
	DB	0efH
	DB	0c0H
	DB	098H
	DB	048H
	DB	0ffH
	DB	0c0H
	DB	098H
	DB	048H
	DB	0ffH
	DB	0c0H
	DB	094H
	DB	048H
	DB	0ffH
	DB	0c0H
	DB	098H
	DB	048H
	DB	0ffH
	DB	0c0H
	DB	098H
	DB	048H
	DB	0ffH
	DB	0c0H
	DB	094H
	DB	048H
	DB	0dfH
	DB	0c0H
	DB	094H
	DB	048H
	DB	05dH
	DB	00H
	DB	00H
	DB	00H
	DB	00H
	DB	00H
	DB	00H
	DB	00H
	DB	00H
	DB	00H
	DB	00H
	DB	00H
	DB	00H
	DB	00H
	DB	00H
	DB	00H
	DB	00H
	DB	00H
	DB	00H
	DB	00H
	DB	00H
	DB	00H
	DB	00H
	DB	00H
	DB	00H
	DB	00H
	DB	00H
	DB	00H
	DB	00H
	DB	00H
	DB	00H
	DB	00H
	DB	00H
	DB	00H
	DB	00H
	DB	00H
	DB	00H
	DB	00H
	DB	00H
	DB	00H
	DB	00H
	DB	00H
	DB	00H
	DB	00H
	DB	00H
	DB	00H
	DB	00H
	DB	00H
	DB	00H
	DB	00H
	DB	00H
	DB	00H
	DB	00H
	DB	00H
	DB	00H
	DB	00H
	DB	00H
	DB	00H
	DB	00H
	DB	00H
	DB	00H
	DB	00H
	DB	00H
	DB	00H
	DB	00H
	DB	00H
	DB	00H
	DB	00H
	DB	00H
	DB	00H
	DB	00H
	DB	00H
	DB	00H
	DB	0c0H
	DB	094H
	DB	048H
	DB	030H
	DB	0c0H
	DB	094H
	DB	048H
	DB	0efH
	DB	0c0H
	DB	098H
	DB	048H
	DB	0ffH
	DB	0c0H
	DB	094H
	DB	048H
	DB	0ffH
	DB	0c0H
	DB	098H
	DB	048H
	DB	0ffH
	DB	0c0H
	DB	098H
	DB	048H
	DB	0ffH
	DB	0c0H
	DB	094H
	DB	048H
	DB	0beH
	DB	0c0H
	DB	098H
	DB	048H
	DB	07dH
	DB	0c0H
	DB	094H
	DB	048H
	DB	0ffH
	DB	0c0H
	DB	098H
	DB	048H
	DB	0ffH
	DB	0c0H
	DB	098H
	DB	048H
	DB	0ffH
	DB	0c0H
	DB	094H
	DB	048H
	DB	0ffH
	DB	0c0H
	DB	098H
	DB	048H
	DB	0ffH
	DB	0c0H
	DB	098H
	DB	048H
	DB	0ffH
	DB	0c0H
	DB	094H
	DB	048H
	DB	071H
	DB	00H
	DB	00H
	DB	00H
	DB	00H
	DB	00H
	DB	00H
	DB	00H
	DB	00H
	DB	00H
	DB	00H
	DB	00H
	DB	00H
	DB	00H
	DB	00H
	DB	00H
	DB	00H
	DB	00H
	DB	00H
	DB	00H
	DB	00H
	DB	00H
	DB	00H
	DB	00H
	DB	00H
	DB	00H
	DB	00H
	DB	00H
	DB	00H
	DB	00H
	DB	00H
	DB	00H
	DB	00H
	DB	00H
	DB	00H
	DB	00H
	DB	00H
	DB	00H
	DB	00H
	DB	00H
	DB	00H
	DB	00H
	DB	00H
	DB	00H
	DB	00H
	DB	00H
	DB	00H
	DB	00H
	DB	00H
	DB	00H
	DB	00H
	DB	00H
	DB	00H
	DB	00H
	DB	00H
	DB	00H
	DB	00H
	DB	00H
	DB	00H
	DB	00H
	DB	00H
	DB	00H
	DB	00H
	DB	00H
	DB	00H
	DB	0c0H
	DB	098H
	DB	048H
	DB	020H
	DB	0c0H
	DB	094H
	DB	048H
	DB	0dfH
	DB	0c0H
	DB	098H
	DB	048H
	DB	0ffH
	DB	0c0H
	DB	094H
	DB	048H
	DB	0ffH
	DB	0c0H
	DB	094H
	DB	048H
	DB	0ffH
	DB	0c0H
	DB	094H
	DB	048H
	DB	0ffH
	DB	0c0H
	DB	098H
	DB	048H
	DB	0ffH
	DB	0c0H
	DB	094H
	DB	048H
	DB	0beH
	DB	00H
	DB	00H
	DB	00H
	DB	00H
	DB	0c0H
	DB	098H
	DB	048H
	DB	082H
	DB	0c0H
	DB	094H
	DB	048H
	DB	0ffH
	DB	0c0H
	DB	094H
	DB	048H
	DB	0ffH
	DB	0c0H
	DB	094H
	DB	048H
	DB	0ffH
	DB	0c0H
	DB	098H
	DB	048H
	DB	0ffH
	DB	0c0H
	DB	094H
	DB	048H
	DB	0ffH
	DB	0c0H
	DB	094H
	DB	048H
	DB	0ffH
	DB	0c0H
	DB	094H
	DB	048H
	DB	030H
	DB	00H
	DB	00H
	DB	00H
	DB	00H
	DB	00H
	DB	00H
	DB	00H
	DB	00H
	DB	00H
	DB	00H
	DB	00H
	DB	00H
	DB	00H
	DB	00H
	DB	00H
	DB	00H
	DB	00H
	DB	00H
	DB	00H
	DB	00H
	DB	00H
	DB	00H
	DB	00H
	DB	00H
	DB	00H
	DB	00H
	DB	00H
	DB	00H
	DB	00H
	DB	00H
	DB	00H
	DB	00H
	DB	00H
	DB	00H
	DB	00H
	DB	00H
	DB	00H
	DB	00H
	DB	00H
	DB	00H
	DB	00H
	DB	00H
	DB	00H
	DB	00H
	DB	00H
	DB	00H
	DB	00H
	DB	00H
	DB	00H
	DB	00H
	DB	00H
	DB	00H
	DB	00H
	DB	00H
	DB	00H
	DB	00H
	DB	00H
	DB	00H
	DB	00H
	DB	00H
	DB	0c0H
	DB	094H
	DB	048H
	DB	08eH
	DB	0c0H
	DB	098H
	DB	048H
	DB	0ffH
	DB	0c0H
	DB	098H
	DB	048H
	DB	0ffH
	DB	0c0H
	DB	098H
	DB	048H
	DB	0ffH
	DB	0c0H
	DB	094H
	DB	048H
	DB	0ffH
	DB	0c0H
	DB	098H
	DB	050H
	DB	0ffH
	DB	0c0H
	DB	094H
	DB	048H
	DB	0ffH
	DB	0c0H
	DB	094H
	DB	048H
	DB	0beH
	DB	00H
	DB	00H
	DB	00H
	DB	00H
	DB	00H
	DB	00H
	DB	00H
	DB	00H
	DB	0c0H
	DB	098H
	DB	048H
	DB	07dH
	DB	0c0H
	DB	098H
	DB	048H
	DB	0ffH
	DB	0c0H
	DB	094H
	DB	048H
	DB	0ffH
	DB	0c0H
	DB	098H
	DB	048H
	DB	0ffH
	DB	0c0H
	DB	098H
	DB	048H
	DB	0ffH
	DB	0c0H
	DB	094H
	DB	048H
	DB	0ffH
	DB	0c0H
	DB	094H
	DB	048H
	DB	0beH
	DB	00H
	DB	00H
	DB	00H
	DB	00H
	DB	00H
	DB	00H
	DB	00H
	DB	00H
	DB	00H
	DB	00H
	DB	00H
	DB	00H
	DB	00H
	DB	00H
	DB	00H
	DB	00H
	DB	00H
	DB	00H
	DB	00H
	DB	00H
	DB	00H
	DB	00H
	DB	00H
	DB	00H
	DB	00H
	DB	00H
	DB	00H
	DB	00H
	DB	00H
	DB	00H
	DB	00H
	DB	00H
	DB	00H
	DB	00H
	DB	00H
	DB	00H
	DB	00H
	DB	00H
	DB	00H
	DB	00H
	DB	00H
	DB	00H
	DB	00H
	DB	00H
	DB	00H
	DB	00H
	DB	00H
	DB	00H
	DB	00H
	DB	00H
	DB	00H
	DB	00H
	DB	00H
	DB	00H
	DB	00H
	DB	00H
	DB	00H
	DB	00H
	DB	00H
	DB	00H
	DB	0c0H
	DB	094H
	DB	048H
	DB	0dfH
	DB	0c0H
	DB	094H
	DB	048H
	DB	0ffH
	DB	0c0H
	DB	094H
	DB	048H
	DB	0ffH
	DB	0c0H
	DB	098H
	DB	048H
	DB	0ffH
	DB	0c0H
	DB	098H
	DB	048H
	DB	0ffH
	DB	0c0H
	DB	094H
	DB	048H
	DB	0ffH
	DB	0c0H
	DB	098H
	DB	048H
	DB	0ffH
	DB	0c0H
	DB	094H
	DB	048H
	DB	0beH
	DB	00H
	DB	00H
	DB	00H
	DB	00H
	DB	00H
	DB	00H
	DB	00H
	DB	00H
	DB	00H
	DB	00H
	DB	00H
	DB	00H
	DB	0c0H
	DB	098H
	DB	048H
	DB	082H
	DB	0c0H
	DB	094H
	DB	050H
	DB	0ffH
	DB	0c0H
	DB	098H
	DB	048H
	DB	0ffH
	DB	0c0H
	DB	098H
	DB	048H
	DB	0ffH
	DB	0c0H
	DB	094H
	DB	048H
	DB	0ffH
	DB	0c0H
	DB	098H
	DB	048H
	DB	0ffH
	DB	0c0H
	DB	090H
	DB	040H
	DB	010H
	DB	00H
	DB	00H
	DB	00H
	DB	00H
	DB	00H
	DB	00H
	DB	00H
	DB	00H
	DB	00H
	DB	00H
	DB	00H
	DB	00H
	DB	00H
	DB	00H
	DB	00H
	DB	00H
	DB	00H
	DB	00H
	DB	00H
	DB	00H
	DB	00H
	DB	00H
	DB	00H
	DB	00H
	DB	00H
	DB	00H
	DB	00H
	DB	00H
	DB	00H
	DB	00H
	DB	00H
	DB	00H
	DB	00H
	DB	00H
	DB	00H
	DB	00H
	DB	00H
	DB	00H
	DB	00H
	DB	00H
	DB	00H
	DB	00H
	DB	00H
	DB	00H
	DB	00H
	DB	00H
	DB	00H
	DB	00H
	DB	00H
	DB	00H
	DB	00H
	DB	00H
	DB	0c0H
	DB	098H
	DB	048H
	DB	041H
	DB	0c0H
	DB	098H
	DB	048H
	DB	0ffH
	DB	0c0H
	DB	094H
	DB	048H
	DB	0ffH
	DB	0c0H
	DB	094H
	DB	050H
	DB	0ffH
	DB	0c0H
	DB	098H
	DB	048H
	DB	0ffH
	DB	0c0H
	DB	094H
	DB	048H
	DB	0ffH
	DB	0c0H
	DB	094H
	DB	048H
	DB	0ffH
	DB	0c0H
	DB	098H
	DB	048H
	DB	0ffH
	DB	0c0H
	DB	094H
	DB	048H
	DB	0beH
	DB	00H
	DB	00H
	DB	00H
	DB	00H
	DB	0c0H
	DB	098H
	DB	048H
	DB	020H
	DB	00H
	DB	00H
	DB	00H
	DB	00H
	DB	00H
	DB	00H
	DB	00H
	DB	00H
	DB	0c0H
	DB	098H
	DB	048H
	DB	07dH
	DB	0c0H
	DB	094H
	DB	048H
	DB	0ffH
	DB	0c0H
	DB	094H
	DB	048H
	DB	0ffH
	DB	0c0H
	DB	098H
	DB	048H
	DB	0ffH
	DB	0c0H
	DB	094H
	DB	048H
	DB	0ffH
	DB	0c0H
	DB	094H
	DB	048H
	DB	071H
	DB	00H
	DB	00H
	DB	00H
	DB	00H
	DB	00H
	DB	00H
	DB	00H
	DB	00H
	DB	00H
	DB	00H
	DB	00H
	DB	00H
	DB	00H
	DB	00H
	DB	00H
	DB	00H
	DB	00H
	DB	00H
	DB	00H
	DB	00H
	DB	00H
	DB	00H
	DB	00H
	DB	00H
	DB	00H
	DB	00H
	DB	00H
	DB	00H
	DB	00H
	DB	00H
	DB	00H
	DB	00H
	DB	00H
	DB	00H
	DB	00H
	DB	00H
	DB	00H
	DB	00H
	DB	00H
	DB	00H
	DB	00H
	DB	00H
	DB	00H
	DB	00H
	DB	00H
	DB	00H
	DB	00H
	DB	00H
	DB	00H
	DB	00H
	DB	00H
	DB	00H
	DB	0c0H
	DB	098H
	DB	048H
	DB	07dH
	DB	0c0H
	DB	094H
	DB	048H
	DB	0ffH
	DB	0c0H
	DB	098H
	DB	048H
	DB	0ffH
	DB	0c0H
	DB	098H
	DB	048H
	DB	0ffH
	DB	0c0H
	DB	094H
	DB	048H
	DB	07dH
	DB	0c0H
	DB	098H
	DB	048H
	DB	082H
	DB	0c0H
	DB	098H
	DB	050H
	DB	0ffH
	DB	0c0H
	DB	094H
	DB	048H
	DB	0ffH
	DB	0c0H
	DB	094H
	DB	048H
	DB	0beH
	DB	00H
	DB	00H
	DB	00H
	DB	00H
	DB	0c0H
	DB	094H
	DB	048H
	DB	061H
	DB	0c0H
	DB	094H
	DB	050H
	DB	09eH
	DB	00H
	DB	00H
	DB	00H
	DB	00H
	DB	00H
	DB	00H
	DB	00H
	DB	00H
	DB	0c0H
	DB	098H
	DB	048H
	DB	082H
	DB	0c0H
	DB	094H
	DB	048H
	DB	0ffH
	DB	0c0H
	DB	098H
	DB	048H
	DB	0ffH
	DB	0c0H
	DB	098H
	DB	048H
	DB	0ffH
	DB	0c0H
	DB	094H
	DB	048H
	DB	0aeH
	DB	00H
	DB	00H
	DB	00H
	DB	00H
	DB	00H
	DB	00H
	DB	00H
	DB	00H
	DB	00H
	DB	00H
	DB	00H
	DB	00H
	DB	00H
	DB	00H
	DB	00H
	DB	00H
	DB	00H
	DB	00H
	DB	00H
	DB	00H
	DB	00H
	DB	00H
	DB	00H
	DB	00H
	DB	00H
	DB	00H
	DB	00H
	DB	00H
	DB	00H
	DB	00H
	DB	00H
	DB	00H
	DB	00H
	DB	00H
	DB	00H
	DB	00H
	DB	00H
	DB	00H
	DB	00H
	DB	00H
	DB	00H
	DB	00H
	DB	00H
	DB	00H
	DB	00H
	DB	00H
	DB	00H
	DB	00H
	DB	00H
	DB	00H
	DB	00H
	DB	00H
	DB	0c0H
	DB	098H
	DB	048H
	DB	0aeH
	DB	0c0H
	DB	094H
	DB	048H
	DB	0ffH
	DB	0c0H
	DB	098H
	DB	048H
	DB	0ffH
	DB	0c0H
	DB	094H
	DB	048H
	DB	0dfH
	DB	0c0H
	DB	090H
	DB	040H
	DB	010H
	DB	00H
	DB	00H
	DB	00H
	DB	00H
	DB	0c0H
	DB	098H
	DB	048H
	DB	07dH
	DB	0c0H
	DB	098H
	DB	048H
	DB	0ffH
	DB	0c0H
	DB	094H
	DB	048H
	DB	0beH
	DB	00H
	DB	00H
	DB	00H
	DB	00H
	DB	0c0H
	DB	094H
	DB	048H
	DB	061H
	DB	0c0H
	DB	098H
	DB	048H
	DB	0ffH
	DB	0c0H
	DB	094H
	DB	048H
	DB	07dH
	DB	00H
	DB	00H
	DB	00H
	DB	00H
	DB	00H
	DB	00H
	DB	00H
	DB	00H
	DB	0c0H
	DB	098H
	DB	048H
	DB	0beH
	DB	0c0H
	DB	094H
	DB	050H
	DB	0ffH
	DB	0c0H
	DB	098H
	DB	048H
	DB	0ffH
	DB	0c0H
	DB	098H
	DB	048H
	DB	0dfH
	DB	00H
	DB	00H
	DB	00H
	DB	00H
	DB	00H
	DB	00H
	DB	00H
	DB	00H
	DB	00H
	DB	00H
	DB	00H
	DB	00H
	DB	00H
	DB	00H
	DB	00H
	DB	00H
	DB	00H
	DB	00H
	DB	00H
	DB	00H
	DB	00H
	DB	00H
	DB	00H
	DB	00H
	DB	00H
	DB	00H
	DB	00H
	DB	00H
	DB	00H
	DB	00H
	DB	00H
	DB	00H
	DB	00H
	DB	00H
	DB	00H
	DB	00H
	DB	00H
	DB	00H
	DB	00H
	DB	00H
	DB	00H
	DB	00H
	DB	00H
	DB	00H
	DB	00H
	DB	00H
	DB	00H
	DB	00H
	DB	00H
	DB	00H
	DB	00H
	DB	00H
	DB	0c0H
	DB	094H
	DB	048H
	DB	0cfH
	DB	0c0H
	DB	098H
	DB	048H
	DB	0ffH
	DB	0c0H
	DB	094H
	DB	048H
	DB	0ffH
	DB	0c0H
	DB	094H
	DB	048H
	DB	0ffH
	DB	0c0H
	DB	098H
	DB	048H
	DB	0cfH
	DB	0c0H
	DB	090H
	DB	040H
	DB	010H
	DB	00H
	DB	00H
	DB	00H
	DB	00H
	DB	0c0H
	DB	098H
	DB	048H
	DB	082H
	DB	0c0H
	DB	094H
	DB	048H
	DB	0beH
	DB	00H
	DB	00H
	DB	00H
	DB	00H
	DB	0c0H
	DB	094H
	DB	048H
	DB	061H
	DB	0c0H
	DB	098H
	DB	048H
	DB	0cfH
	DB	0c0H
	DB	090H
	DB	040H
	DB	010H
	DB	00H
	DB	00H
	DB	00H
	DB	00H
	DB	0c0H
	DB	094H
	DB	048H
	DB	082H
	DB	0c0H
	DB	098H
	DB	048H
	DB	0ffH
	DB	0c0H
	DB	094H
	DB	048H
	DB	0ffH
	DB	0c0H
	DB	094H
	DB	048H
	DB	0ffH
	DB	0c0H
	DB	098H
	DB	048H
	DB	0ffH
	DB	00H
	DB	00H
	DB	00H
	DB	00H
	DB	00H
	DB	00H
	DB	00H
	DB	00H
	DB	00H
	DB	00H
	DB	00H
	DB	00H
	DB	00H
	DB	00H
	DB	00H
	DB	00H
	DB	00H
	DB	00H
	DB	00H
	DB	00H
	DB	00H
	DB	00H
	DB	00H
	DB	00H
	DB	00H
	DB	00H
	DB	00H
	DB	00H
	DB	00H
	DB	00H
	DB	00H
	DB	00H
	DB	00H
	DB	00H
	DB	00H
	DB	00H
	DB	00H
	DB	00H
	DB	00H
	DB	00H
	DB	00H
	DB	00H
	DB	00H
	DB	00H
	DB	00H
	DB	00H
	DB	00H
	DB	00H
	DB	00H
	DB	00H
	DB	00H
	DB	00H
	DB	0c0H
	DB	094H
	DB	048H
	DB	0dfH
	DB	0c0H
	DB	098H
	DB	048H
	DB	0ffH
	DB	0c0H
	DB	098H
	DB	050H
	DB	0ffH
	DB	0c0H
	DB	094H
	DB	048H
	DB	0ffH
	DB	0c0H
	DB	094H
	DB	048H
	DB	0ffH
	DB	0c0H
	DB	094H
	DB	048H
	DB	0cfH
	DB	0c0H
	DB	090H
	DB	040H
	DB	010H
	DB	00H
	DB	00H
	DB	00H
	DB	00H
	DB	0c0H
	DB	094H
	DB	048H
	DB	051H
	DB	00H
	DB	00H
	DB	00H
	DB	00H
	DB	0c0H
	DB	098H
	DB	048H
	DB	041H
	DB	0c0H
	DB	090H
	DB	040H
	DB	010H
	DB	00H
	DB	00H
	DB	00H
	DB	00H
	DB	0c0H
	DB	094H
	DB	050H
	DB	082H
	DB	0c0H
	DB	098H
	DB	048H
	DB	0ffH
	DB	0c0H
	DB	094H
	DB	048H
	DB	0ffH
	DB	0c0H
	DB	098H
	DB	048H
	DB	0ffH
	DB	0c0H
	DB	094H
	DB	048H
	DB	0ffH
	DB	0c0H
	DB	094H
	DB	048H
	DB	0ffH
	DB	0c8H
	DB	09cH
	DB	050H
	DB	020H
	DB	00H
	DB	00H
	DB	00H
	DB	00H
	DB	00H
	DB	00H
	DB	00H
	DB	00H
	DB	00H
	DB	00H
	DB	00H
	DB	00H
	DB	00H
	DB	00H
	DB	00H
	DB	00H
	DB	00H
	DB	00H
	DB	00H
	DB	00H
	DB	00H
	DB	00H
	DB	00H
	DB	00H
	DB	00H
	DB	00H
	DB	00H
	DB	00H
	DB	00H
	DB	00H
	DB	00H
	DB	00H
	DB	00H
	DB	00H
	DB	00H
	DB	00H
	DB	00H
	DB	00H
	DB	00H
	DB	00H
	DB	00H
	DB	00H
	DB	00H
	DB	00H
	DB	00H
	DB	00H
	DB	00H
	DB	00H
	DB	0c0H
	DB	094H
	DB	048H
	DB	0ffH
	DB	0c0H
	DB	098H
	DB	048H
	DB	0ffH
	DB	0c0H
	DB	098H
	DB	048H
	DB	0ffH
	DB	0c0H
	DB	094H
	DB	048H
	DB	0ffH
	DB	0c0H
	DB	098H
	DB	048H
	DB	0ffH
	DB	0c0H
	DB	098H
	DB	050H
	DB	0ffH
	DB	0c0H
	DB	094H
	DB	048H
	DB	0cfH
	DB	0c0H
	DB	090H
	DB	040H
	DB	010H
	DB	00H
	DB	00H
	DB	00H
	DB	00H
	DB	00H
	DB	00H
	DB	00H
	DB	00H
	DB	00H
	DB	00H
	DB	00H
	DB	00H
	DB	00H
	DB	00H
	DB	00H
	DB	00H
	DB	0c0H
	DB	094H
	DB	048H
	DB	082H
	DB	0c0H
	DB	094H
	DB	048H
	DB	0ffH
	DB	0c0H
	DB	098H
	DB	048H
	DB	0ffH
	DB	0c0H
	DB	094H
	DB	048H
	DB	0ffH
	DB	0c0H
	DB	098H
	DB	050H
	DB	0ffH
	DB	0c0H
	DB	098H
	DB	048H
	DB	0ffH
	DB	0c0H
	DB	094H
	DB	048H
	DB	0ffH
	DB	0c0H
	DB	09cH
	DB	048H
	DB	020H
	DB	00H
	DB	00H
	DB	00H
	DB	00H
	DB	00H
	DB	00H
	DB	00H
	DB	00H
	DB	00H
	DB	00H
	DB	00H
	DB	00H
	DB	00H
	DB	00H
	DB	00H
	DB	00H
	DB	00H
	DB	00H
	DB	00H
	DB	00H
	DB	00H
	DB	00H
	DB	00H
	DB	00H
	DB	00H
	DB	00H
	DB	00H
	DB	00H
	DB	00H
	DB	00H
	DB	00H
	DB	00H
	DB	00H
	DB	00H
	DB	00H
	DB	00H
	DB	00H
	DB	00H
	DB	00H
	DB	00H
	DB	00H
	DB	00H
	DB	00H
	DB	00H
	DB	00H
	DB	00H
	DB	00H
	DB	00H
	DB	0c0H
	DB	098H
	DB	048H
	DB	0ffH
	DB	0c0H
	DB	094H
	DB	048H
	DB	0ffH
	DB	0c0H
	DB	094H
	DB	048H
	DB	0ffH
	DB	0c0H
	DB	098H
	DB	048H
	DB	0ffH
	DB	0c0H
	DB	098H
	DB	048H
	DB	0ffH
	DB	0c0H
	DB	094H
	DB	048H
	DB	0ffH
	DB	0c0H
	DB	094H
	DB	048H
	DB	0ffH
	DB	0c0H
	DB	098H
	DB	048H
	DB	0cfH
	DB	0c0H
	DB	090H
	DB	040H
	DB	010H
	DB	00H
	DB	00H
	DB	00H
	DB	00H
	DB	00H
	DB	00H
	DB	00H
	DB	00H
	DB	0c0H
	DB	094H
	DB	050H
	DB	082H
	DB	0c0H
	DB	098H
	DB	048H
	DB	0ffH
	DB	0c0H
	DB	094H
	DB	048H
	DB	0ffH
	DB	0c0H
	DB	094H
	DB	048H
	DB	0ffH
	DB	0c0H
	DB	098H
	DB	048H
	DB	0ffH
	DB	0c0H
	DB	094H
	DB	048H
	DB	0ffH
	DB	0c0H
	DB	098H
	DB	048H
	DB	0ffH
	DB	0c0H
	DB	098H
	DB	048H
	DB	0ffH
	DB	0c8H
	DB	09cH
	DB	048H
	DB	020H
	DB	00H
	DB	00H
	DB	00H
	DB	00H
	DB	00H
	DB	00H
	DB	00H
	DB	00H
	DB	00H
	DB	00H
	DB	00H
	DB	00H
	DB	00H
	DB	00H
	DB	00H
	DB	00H
	DB	00H
	DB	00H
	DB	00H
	DB	00H
	DB	00H
	DB	00H
	DB	00H
	DB	00H
	DB	00H
	DB	00H
	DB	00H
	DB	00H
	DB	00H
	DB	00H
	DB	00H
	DB	00H
	DB	00H
	DB	00H
	DB	00H
	DB	00H
	DB	00H
	DB	00H
	DB	00H
	DB	00H
	DB	00H
	DB	00H
	DB	00H
	DB	00H
	DB	00H
	DB	00H
	DB	00H
	DB	00H
	DB	0c0H
	DB	094H
	DB	048H
	DB	0ffH
	DB	0c0H
	DB	098H
	DB	048H
	DB	0ffH
	DB	0c0H
	DB	094H
	DB	050H
	DB	0ffH
	DB	0c0H
	DB	094H
	DB	048H
	DB	0ffH
	DB	0c0H
	DB	098H
	DB	048H
	DB	0ffH
	DB	0c0H
	DB	094H
	DB	048H
	DB	0ffH
	DB	0c0H
	DB	098H
	DB	048H
	DB	0ffH
	DB	0c0H
	DB	094H
	DB	048H
	DB	0cfH
	DB	0c0H
	DB	090H
	DB	040H
	DB	010H
	DB	00H
	DB	00H
	DB	00H
	DB	00H
	DB	00H
	DB	00H
	DB	00H
	DB	00H
	DB	0c0H
	DB	098H
	DB	048H
	DB	07dH
	DB	0c0H
	DB	094H
	DB	048H
	DB	0ffH
	DB	0c0H
	DB	098H
	DB	048H
	DB	0ffH
	DB	0c0H
	DB	098H
	DB	048H
	DB	0ffH
	DB	0c0H
	DB	094H
	DB	048H
	DB	0ffH
	DB	0c0H
	DB	094H
	DB	048H
	DB	0ffH
	DB	0c0H
	DB	094H
	DB	048H
	DB	0ffH
	DB	0c0H
	DB	098H
	DB	048H
	DB	0ffH
	DB	0c8H
	DB	09cH
	DB	050H
	DB	020H
	DB	00H
	DB	00H
	DB	00H
	DB	00H
	DB	00H
	DB	00H
	DB	00H
	DB	00H
	DB	00H
	DB	00H
	DB	00H
	DB	00H
	DB	00H
	DB	00H
	DB	00H
	DB	00H
	DB	00H
	DB	00H
	DB	00H
	DB	00H
	DB	00H
	DB	00H
	DB	00H
	DB	00H
	DB	00H
	DB	00H
	DB	00H
	DB	00H
	DB	00H
	DB	00H
	DB	00H
	DB	00H
	DB	00H
	DB	00H
	DB	00H
	DB	00H
	DB	00H
	DB	00H
	DB	00H
	DB	00H
	DB	00H
	DB	00H
	DB	00H
	DB	00H
	DB	00H
	DB	00H
	DB	00H
	DB	00H
	DB	0c0H
	DB	098H
	DB	048H
	DB	0ffH
	DB	0c0H
	DB	098H
	DB	048H
	DB	0ffH
	DB	0c0H
	DB	094H
	DB	048H
	DB	0ffH
	DB	0c0H
	DB	098H
	DB	048H
	DB	0ffH
	DB	0c0H
	DB	094H
	DB	048H
	DB	0ffH
	DB	0c0H
	DB	098H
	DB	050H
	DB	0ffH
	DB	0c0H
	DB	098H
	DB	048H
	DB	0cfH
	DB	0c0H
	DB	090H
	DB	040H
	DB	010H
	DB	00H
	DB	00H
	DB	00H
	DB	00H
	DB	00H
	DB	00H
	DB	00H
	DB	00H
	DB	00H
	DB	00H
	DB	00H
	DB	00H
	DB	00H
	DB	00H
	DB	00H
	DB	00H
	DB	0c0H
	DB	098H
	DB	048H
	DB	07dH
	DB	0c0H
	DB	094H
	DB	048H
	DB	0ffH
	DB	0c0H
	DB	098H
	DB	050H
	DB	0ffH
	DB	0c0H
	DB	098H
	DB	048H
	DB	0ffH
	DB	0c0H
	DB	098H
	DB	048H
	DB	0ffH
	DB	0c0H
	DB	094H
	DB	050H
	DB	0ffH
	DB	0c0H
	DB	094H
	DB	048H
	DB	0ffH
	DB	0c0H
	DB	09cH
	DB	048H
	DB	01cH
	DB	00H
	DB	00H
	DB	00H
	DB	00H
	DB	00H
	DB	00H
	DB	00H
	DB	00H
	DB	00H
	DB	00H
	DB	00H
	DB	00H
	DB	00H
	DB	00H
	DB	00H
	DB	00H
	DB	00H
	DB	00H
	DB	00H
	DB	00H
	DB	00H
	DB	00H
	DB	00H
	DB	00H
	DB	00H
	DB	00H
	DB	00H
	DB	00H
	DB	00H
	DB	00H
	DB	00H
	DB	00H
	DB	00H
	DB	00H
	DB	00H
	DB	00H
	DB	00H
	DB	00H
	DB	00H
	DB	00H
	DB	00H
	DB	00H
	DB	00H
	DB	00H
	DB	00H
	DB	00H
	DB	00H
	DB	00H
	DB	0c0H
	DB	094H
	DB	048H
	DB	0dfH
	DB	0c0H
	DB	094H
	DB	048H
	DB	0ffH
	DB	0c0H
	DB	098H
	DB	048H
	DB	0ffH
	DB	0c0H
	DB	098H
	DB	048H
	DB	0ffH
	DB	0c0H
	DB	094H
	DB	048H
	DB	0ffH
	DB	0c0H
	DB	094H
	DB	048H
	DB	0cfH
	DB	0c0H
	DB	090H
	DB	040H
	DB	010H
	DB	00H
	DB	00H
	DB	00H
	DB	00H
	DB	0c0H
	DB	094H
	DB	048H
	DB	041H
	DB	00H
	DB	00H
	DB	00H
	DB	00H
	DB	0c0H
	DB	094H
	DB	048H
	DB	030H
	DB	0c0H
	DB	090H
	DB	040H
	DB	010H
	DB	00H
	DB	00H
	DB	00H
	DB	00H
	DB	0c0H
	DB	098H
	DB	048H
	DB	07dH
	DB	0c0H
	DB	094H
	DB	048H
	DB	0ffH
	DB	0c0H
	DB	094H
	DB	048H
	DB	0ffH
	DB	0c0H
	DB	098H
	DB	048H
	DB	0ffH
	DB	0c0H
	DB	098H
	DB	048H
	DB	0ffH
	DB	0c0H
	DB	094H
	DB	048H
	DB	0ffH
	DB	0c8H
	DB	09cH
	DB	048H
	DB	020H
	DB	00H
	DB	00H
	DB	00H
	DB	00H
	DB	00H
	DB	00H
	DB	00H
	DB	00H
	DB	00H
	DB	00H
	DB	00H
	DB	00H
	DB	00H
	DB	00H
	DB	00H
	DB	00H
	DB	00H
	DB	00H
	DB	00H
	DB	00H
	DB	00H
	DB	00H
	DB	00H
	DB	00H
	DB	00H
	DB	00H
	DB	00H
	DB	00H
	DB	00H
	DB	00H
	DB	00H
	DB	00H
	DB	00H
	DB	00H
	DB	00H
	DB	00H
	DB	00H
	DB	00H
	DB	00H
	DB	00H
	DB	00H
	DB	00H
	DB	00H
	DB	00H
	DB	00H
	DB	00H
	DB	00H
	DB	00H
	DB	0c0H
	DB	094H
	DB	048H
	DB	0dfH
	DB	0c0H
	DB	098H
	DB	048H
	DB	0ffH
	DB	0c0H
	DB	094H
	DB	050H
	DB	0ffH
	DB	0c0H
	DB	094H
	DB	048H
	DB	0ffH
	DB	0c0H
	DB	098H
	DB	048H
	DB	0cfH
	DB	0c0H
	DB	090H
	DB	040H
	DB	010H
	DB	00H
	DB	00H
	DB	00H
	DB	00H
	DB	0c0H
	DB	094H
	DB	050H
	DB	082H
	DB	0c0H
	DB	094H
	DB	048H
	DB	0beH
	DB	00H
	DB	00H
	DB	00H
	DB	00H
	DB	0c0H
	DB	094H
	DB	048H
	DB	061H
	DB	0c0H
	DB	094H
	DB	048H
	DB	0cfH
	DB	0c0H
	DB	090H
	DB	040H
	DB	010H
	DB	00H
	DB	00H
	DB	00H
	DB	00H
	DB	0c0H
	DB	098H
	DB	048H
	DB	07dH
	DB	0c0H
	DB	094H
	DB	048H
	DB	0ffH
	DB	0c0H
	DB	094H
	DB	048H
	DB	0ffH
	DB	0c0H
	DB	098H
	DB	048H
	DB	0ffH
	DB	0c0H
	DB	098H
	DB	048H
	DB	0ffH
	DB	00H
	DB	00H
	DB	00H
	DB	00H
	DB	00H
	DB	00H
	DB	00H
	DB	00H
	DB	00H
	DB	00H
	DB	00H
	DB	00H
	DB	00H
	DB	00H
	DB	00H
	DB	00H
	DB	00H
	DB	00H
	DB	00H
	DB	00H
	DB	00H
	DB	00H
	DB	00H
	DB	00H
	DB	00H
	DB	00H
	DB	00H
	DB	00H
	DB	00H
	DB	00H
	DB	00H
	DB	00H
	DB	00H
	DB	00H
	DB	00H
	DB	00H
	DB	00H
	DB	00H
	DB	00H
	DB	00H
	DB	00H
	DB	00H
	DB	00H
	DB	00H
	DB	00H
	DB	00H
	DB	00H
	DB	00H
	DB	00H
	DB	00H
	DB	00H
	DB	00H
	DB	0c0H
	DB	098H
	DB	048H
	DB	0aeH
	DB	0c0H
	DB	098H
	DB	048H
	DB	0ffH
	DB	0c0H
	DB	098H
	DB	048H
	DB	0ffH
	DB	0c0H
	DB	094H
	DB	048H
	DB	0efH
	DB	0c0H
	DB	090H
	DB	040H
	DB	010H
	DB	00H
	DB	00H
	DB	00H
	DB	00H
	DB	0c0H
	DB	094H
	DB	048H
	DB	082H
	DB	0c0H
	DB	094H
	DB	048H
	DB	0ffH
	DB	0c0H
	DB	094H
	DB	048H
	DB	0beH
	DB	00H
	DB	00H
	DB	00H
	DB	00H
	DB	0c0H
	DB	094H
	DB	048H
	DB	061H
	DB	0c0H
	DB	098H
	DB	048H
	DB	0ffH
	DB	0c0H
	DB	098H
	DB	048H
	DB	07dH
	DB	00H
	DB	00H
	DB	00H
	DB	00H
	DB	00H
	DB	00H
	DB	00H
	DB	00H
	DB	0c0H
	DB	098H
	DB	048H
	DB	0beH
	DB	0c0H
	DB	094H
	DB	050H
	DB	0ffH
	DB	0c0H
	DB	094H
	DB	048H
	DB	0ffH
	DB	0c0H
	DB	094H
	DB	048H
	DB	0cfH
	DB	00H
	DB	00H
	DB	00H
	DB	00H
	DB	00H
	DB	00H
	DB	00H
	DB	00H
	DB	00H
	DB	00H
	DB	00H
	DB	00H
	DB	00H
	DB	00H
	DB	00H
	DB	00H
	DB	00H
	DB	00H
	DB	00H
	DB	00H
	DB	00H
	DB	00H
	DB	00H
	DB	00H
	DB	00H
	DB	00H
	DB	00H
	DB	00H
	DB	00H
	DB	00H
	DB	00H
	DB	00H
	DB	00H
	DB	00H
	DB	00H
	DB	00H
	DB	00H
	DB	00H
	DB	00H
	DB	00H
	DB	00H
	DB	00H
	DB	00H
	DB	00H
	DB	00H
	DB	00H
	DB	00H
	DB	00H
	DB	00H
	DB	00H
	DB	00H
	DB	00H
	DB	0c0H
	DB	094H
	DB	048H
	DB	08eH
	DB	0c0H
	DB	094H
	DB	048H
	DB	0ffH
	DB	0c0H
	DB	098H
	DB	048H
	DB	0ffH
	DB	0c0H
	DB	094H
	DB	048H
	DB	0ffH
	DB	0c0H
	DB	094H
	DB	050H
	DB	082H
	DB	0c0H
	DB	094H
	DB	050H
	DB	082H
	DB	0c0H
	DB	098H
	DB	048H
	DB	0ffH
	DB	0c0H
	DB	098H
	DB	048H
	DB	0ffH
	DB	0c0H
	DB	094H
	DB	048H
	DB	0beH
	DB	00H
	DB	00H
	DB	00H
	DB	00H
	DB	0c0H
	DB	094H
	DB	048H
	DB	061H
	DB	0c0H
	DB	094H
	DB	048H
	DB	09eH
	DB	00H
	DB	00H
	DB	00H
	DB	00H
	DB	00H
	DB	00H
	DB	00H
	DB	00H
	DB	0c0H
	DB	094H
	DB	050H
	DB	082H
	DB	0c0H
	DB	098H
	DB	048H
	DB	0ffH
	DB	0c0H
	DB	098H
	DB	048H
	DB	0ffH
	DB	0c0H
	DB	098H
	DB	048H
	DB	0ffH
	DB	0c0H
	DB	094H
	DB	048H
	DB	0aeH
	DB	00H
	DB	00H
	DB	00H
	DB	00H
	DB	00H
	DB	00H
	DB	00H
	DB	00H
	DB	00H
	DB	00H
	DB	00H
	DB	00H
	DB	00H
	DB	00H
	DB	00H
	DB	00H
	DB	00H
	DB	00H
	DB	00H
	DB	00H
	DB	00H
	DB	00H
	DB	00H
	DB	00H
	DB	00H
	DB	00H
	DB	00H
	DB	00H
	DB	00H
	DB	00H
	DB	00H
	DB	00H
	DB	00H
	DB	00H
	DB	00H
	DB	00H
	DB	00H
	DB	00H
	DB	00H
	DB	00H
	DB	00H
	DB	00H
	DB	00H
	DB	00H
	DB	00H
	DB	00H
	DB	00H
	DB	00H
	DB	00H
	DB	00H
	DB	00H
	DB	00H
	DB	0c0H
	DB	098H
	DB	048H
	DB	041H
	DB	0c0H
	DB	098H
	DB	048H
	DB	0ffH
	DB	0c0H
	DB	094H
	DB	048H
	DB	0ffH
	DB	0c0H
	DB	094H
	DB	048H
	DB	0ffH
	DB	0c0H
	DB	098H
	DB	048H
	DB	0ffH
	DB	0c0H
	DB	094H
	DB	048H
	DB	0ffH
	DB	0c0H
	DB	094H
	DB	048H
	DB	0ffH
	DB	0c0H
	DB	098H
	DB	048H
	DB	0ffH
	DB	0c0H
	DB	094H
	DB	048H
	DB	0beH
	DB	00H
	DB	00H
	DB	00H
	DB	00H
	DB	0c0H
	DB	090H
	DB	048H
	DB	020H
	DB	00H
	DB	00H
	DB	00H
	DB	00H
	DB	00H
	DB	00H
	DB	00H
	DB	00H
	DB	0c0H
	DB	094H
	DB	048H
	DB	082H
	DB	0c0H
	DB	094H
	DB	048H
	DB	0ffH
	DB	0c0H
	DB	094H
	DB	048H
	DB	0ffH
	DB	0c0H
	DB	098H
	DB	048H
	DB	0ffH
	DB	0c0H
	DB	098H
	DB	048H
	DB	0ffH
	DB	0c0H
	DB	094H
	DB	048H
	DB	06dH
	DB	00H
	DB	00H
	DB	00H
	DB	00H
	DB	00H
	DB	00H
	DB	00H
	DB	00H
	DB	00H
	DB	00H
	DB	00H
	DB	00H
	DB	00H
	DB	00H
	DB	00H
	DB	00H
	DB	00H
	DB	00H
	DB	00H
	DB	00H
	DB	00H
	DB	00H
	DB	00H
	DB	00H
	DB	00H
	DB	00H
	DB	00H
	DB	00H
	DB	00H
	DB	00H
	DB	00H
	DB	00H
	DB	00H
	DB	00H
	DB	00H
	DB	00H
	DB	00H
	DB	00H
	DB	00H
	DB	00H
	DB	00H
	DB	00H
	DB	00H
	DB	00H
	DB	00H
	DB	00H
	DB	00H
	DB	00H
	DB	00H
	DB	00H
	DB	00H
	DB	00H
	DB	00H
	DB	00H
	DB	00H
	DB	00H
	DB	0c0H
	DB	094H
	DB	050H
	DB	0efH
	DB	0c0H
	DB	098H
	DB	048H
	DB	0ffH
	DB	0c0H
	DB	098H
	DB	048H
	DB	0ffH
	DB	0c0H
	DB	094H
	DB	048H
	DB	0ffH
	DB	0c0H
	DB	098H
	DB	048H
	DB	0ffH
	DB	0c0H
	DB	094H
	DB	048H
	DB	0ffH
	DB	0c0H
	DB	098H
	DB	048H
	DB	0ffH
	DB	0c0H
	DB	094H
	DB	048H
	DB	0beH
	DB	00H
	DB	00H
	DB	00H
	DB	00H
	DB	00H
	DB	00H
	DB	00H
	DB	00H
	DB	00H
	DB	00H
	DB	00H
	DB	00H
	DB	0c0H
	DB	094H
	DB	050H
	DB	082H
	DB	0c0H
	DB	098H
	DB	048H
	DB	0ffH
	DB	0c0H
	DB	098H
	DB	048H
	DB	0ffH
	DB	0c0H
	DB	094H
	DB	048H
	DB	0ffH
	DB	0c0H
	DB	094H
	DB	048H
	DB	0ffH
	DB	0c0H
	DB	094H
	DB	048H
	DB	0ffH
	DB	0c0H
	DB	090H
	DB	048H
	DB	020H
	DB	00H
	DB	00H
	DB	00H
	DB	00H
	DB	00H
	DB	00H
	DB	00H
	DB	00H
	DB	00H
	DB	00H
	DB	00H
	DB	00H
	DB	00H
	DB	00H
	DB	00H
	DB	00H
	DB	00H
	DB	00H
	DB	00H
	DB	00H
	DB	00H
	DB	00H
	DB	00H
	DB	00H
	DB	00H
	DB	00H
	DB	00H
	DB	00H
	DB	00H
	DB	00H
	DB	00H
	DB	00H
	DB	00H
	DB	00H
	DB	00H
	DB	00H
	DB	00H
	DB	00H
	DB	00H
	DB	00H
	DB	00H
	DB	00H
	DB	00H
	DB	00H
	DB	00H
	DB	00H
	DB	00H
	DB	00H
	DB	00H
	DB	00H
	DB	00H
	DB	00H
	DB	00H
	DB	00H
	DB	00H
	DB	00H
	DB	0c0H
	DB	098H
	DB	048H
	DB	07dH
	DB	0c0H
	DB	094H
	DB	048H
	DB	0ffH
	DB	0c0H
	DB	094H
	DB	048H
	DB	0ffH
	DB	0c0H
	DB	098H
	DB	050H
	DB	0ffH
	DB	0c0H
	DB	098H
	DB	048H
	DB	0ffH
	DB	0c0H
	DB	094H
	DB	048H
	DB	0ffH
	DB	0c0H
	DB	098H
	DB	048H
	DB	0ffH
	DB	0c0H
	DB	094H
	DB	048H
	DB	0beH
	DB	00H
	DB	00H
	DB	00H
	DB	00H
	DB	00H
	DB	00H
	DB	00H
	DB	00H
	DB	0c0H
	DB	094H
	DB	048H
	DB	082H
	DB	0c0H
	DB	098H
	DB	048H
	DB	0ffH
	DB	0c0H
	DB	094H
	DB	048H
	DB	0ffH
	DB	0c0H
	DB	098H
	DB	048H
	DB	0ffH
	DB	0c0H
	DB	098H
	DB	050H
	DB	0ffH
	DB	0c0H
	DB	094H
	DB	048H
	DB	0ffH
	DB	0c0H
	DB	094H
	DB	048H
	DB	09eH
	DB	00H
	DB	00H
	DB	00H
	DB	00H
	DB	00H
	DB	00H
	DB	00H
	DB	00H
	DB	00H
	DB	00H
	DB	00H
	DB	00H
	DB	00H
	DB	00H
	DB	00H
	DB	00H
	DB	00H
	DB	00H
	DB	00H
	DB	00H
	DB	00H
	DB	00H
	DB	00H
	DB	00H
	DB	00H
	DB	00H
	DB	00H
	DB	00H
	DB	00H
	DB	00H
	DB	00H
	DB	00H
	DB	00H
	DB	00H
	DB	00H
	DB	00H
	DB	00H
	DB	00H
	DB	00H
	DB	00H
	DB	00H
	DB	00H
	DB	00H
	DB	00H
	DB	00H
	DB	00H
	DB	00H
	DB	00H
	DB	00H
	DB	00H
	DB	00H
	DB	00H
	DB	00H
	DB	00H
	DB	00H
	DB	00H
	DB	00H
	DB	00H
	DB	00H
	DB	00H
	DB	0c0H
	DB	090H
	DB	050H
	DB	010H
	DB	0c0H
	DB	094H
	DB	048H
	DB	0dfH
	DB	0c0H
	DB	098H
	DB	048H
	DB	0ffH
	DB	0c0H
	DB	094H
	DB	048H
	DB	0ffH
	DB	0c0H
	DB	094H
	DB	048H
	DB	0ffH
	DB	0c0H
	DB	098H
	DB	048H
	DB	0ffH
	DB	0c0H
	DB	094H
	DB	050H
	DB	0ffH
	DB	0c0H
	DB	094H
	DB	048H
	DB	0beH
	DB	00H
	DB	00H
	DB	00H
	DB	00H
	DB	0c0H
	DB	094H
	DB	050H
	DB	082H
	DB	0c0H
	DB	098H
	DB	048H
	DB	0ffH
	DB	0c0H
	DB	094H
	DB	048H
	DB	0ffH
	DB	0c0H
	DB	094H
	DB	048H
	DB	0ffH
	DB	0c0H
	DB	098H
	DB	048H
	DB	0ffH
	DB	0c0H
	DB	098H
	DB	048H
	DB	0ffH
	DB	0c0H
	DB	098H
	DB	048H
	DB	0ffH
	DB	0c0H
	DB	090H
	DB	048H
	DB	020H
	DB	00H
	DB	00H
	DB	00H
	DB	00H
	DB	00H
	DB	00H
	DB	00H
	DB	00H
	DB	00H
	DB	00H
	DB	00H
	DB	00H
	DB	00H
	DB	00H
	DB	00H
	DB	00H
	DB	00H
	DB	00H
	DB	00H
	DB	00H
	DB	00H
	DB	00H
	DB	00H
	DB	00H
	DB	00H
	DB	00H
	DB	00H
	DB	00H
	DB	00H
	DB	00H
	DB	00H
	DB	00H
	DB	00H
	DB	00H
	DB	00H
	DB	00H
	DB	00H
	DB	00H
	DB	00H
	DB	00H
	DB	00H
	DB	00H
	DB	00H
	DB	00H
	DB	00H
	DB	00H
	DB	00H
	DB	00H
	DB	00H
	DB	00H
	DB	00H
	DB	00H
	DB	00H
	DB	00H
	DB	00H
	DB	00H
	DB	00H
	DB	00H
	DB	00H
	DB	00H
	DB	00H
	DB	00H
	DB	00H
	DB	00H
	DB	0c0H
	DB	094H
	DB	048H
	DB	030H
	DB	0c0H
	DB	094H
	DB	050H
	DB	0efH
	DB	0c0H
	DB	098H
	DB	048H
	DB	0ffH
	DB	0c0H
	DB	098H
	DB	048H
	DB	0ffH
	DB	0c0H
	DB	094H
	DB	048H
	DB	0ffH
	DB	0c0H
	DB	098H
	DB	048H
	DB	0ffH
	DB	0c0H
	DB	094H
	DB	048H
	DB	0beH
	DB	0c0H
	DB	094H
	DB	048H
	DB	082H
	DB	0c0H
	DB	098H
	DB	048H
	DB	0ffH
	DB	0c0H
	DB	098H
	DB	048H
	DB	0ffH
	DB	0c0H
	DB	094H
	DB	048H
	DB	0ffH
	DB	0c0H
	DB	098H
	DB	048H
	DB	0ffH
	DB	0c0H
	DB	094H
	DB	048H
	DB	0ffH
	DB	0c0H
	DB	094H
	DB	048H
	DB	0ffH
	DB	0c0H
	DB	094H
	DB	048H
	DB	06dH
	DB	00H
	DB	00H
	DB	00H
	DB	00H
	DB	00H
	DB	00H
	DB	00H
	DB	00H
	DB	00H
	DB	00H
	DB	00H
	DB	00H
	DB	00H
	DB	00H
	DB	00H
	DB	00H
	DB	00H
	DB	00H
	DB	00H
	DB	00H
	DB	00H
	DB	00H
	DB	00H
	DB	00H
	DB	00H
	DB	00H
	DB	00H
	DB	00H
	DB	00H
	DB	00H
	DB	00H
	DB	00H
	DB	00H
	DB	00H
	DB	00H
	DB	00H
	DB	00H
	DB	00H
	DB	00H
	DB	00H
	DB	00H
	DB	00H
	DB	00H
	DB	00H
	DB	00H
	DB	00H
	DB	00H
	DB	00H
	DB	00H
	DB	00H
	DB	00H
	DB	00H
	DB	00H
	DB	00H
	DB	00H
	DB	00H
	DB	00H
	DB	00H
	DB	00H
	DB	00H
	DB	00H
	DB	00H
	DB	00H
	DB	00H
	DB	00H
	DB	00H
	DB	00H
	DB	00H
	DB	00H
	DB	00H
	DB	00H
	DB	00H
	DB	0c0H
	DB	090H
	DB	048H
	DB	020H
	DB	0c0H
	DB	098H
	DB	048H
	DB	0dfH
	DB	0c0H
	DB	094H
	DB	048H
	DB	0ffH
	DB	0c0H
	DB	098H
	DB	048H
	DB	0ffH
	DB	0c0H
	DB	098H
	DB	048H
	DB	0ffH
	DB	0c0H
	DB	098H
	DB	048H
	DB	0ffH
	DB	0c0H
	DB	094H
	DB	048H
	DB	0ffH
	DB	0c0H
	DB	098H
	DB	048H
	DB	0ffH
	DB	0c0H
	DB	094H
	DB	048H
	DB	0ffH
	DB	0c0H
	DB	098H
	DB	050H
	DB	0ffH
	DB	0c0H
	DB	098H
	DB	048H
	DB	0ffH
	DB	0c0H
	DB	094H
	DB	050H
	DB	0efH
	DB	0c0H
	DB	094H
	DB	048H
	DB	051H
	DB	00H
	DB	00H
	DB	00H
	DB	00H
	DB	00H
	DB	00H
	DB	00H
	DB	00H
	DB	00H
	DB	00H
	DB	00H
	DB	00H
	DB	00H
	DB	00H
	DB	00H
	DB	00H
	DB	00H
	DB	00H
	DB	00H
	DB	00H
	DB	00H
	DB	00H
	DB	00H
	DB	00H
	DB	00H
	DB	00H
	DB	00H
	DB	00H
	DB	00H
	DB	00H
	DB	00H
	DB	00H
	DB	00H
	DB	00H
	DB	00H
	DB	00H
	DB	00H
	DB	00H
	DB	00H
	DB	00H
	DB	00H
	DB	00H
	DB	00H
	DB	00H
	DB	00H
	DB	00H
	DB	00H
	DB	00H
	DB	00H
	DB	00H
	DB	00H
	DB	00H
	DB	00H
	DB	00H
	DB	00H
	DB	00H
	DB	00H
	DB	00H
	DB	00H
	DB	00H
	DB	00H
	DB	00H
	DB	00H
	DB	00H
	DB	00H
	DB	00H
	DB	00H
	DB	00H
	DB	00H
	DB	00H
	DB	00H
	DB	00H
	DB	00H
	DB	00H
	DB	00H
	DB	00H
	DB	00H
	DB	00H
	DB	00H
	DB	00H
	DB	00H
	DB	00H
	DB	00H
	DB	00H
	DB	0c0H
	DB	094H
	DB	048H
	DB	061H
	DB	0c0H
	DB	094H
	DB	048H
	DB	0aeH
	DB	0c0H
	DB	094H
	DB	050H
	DB	0cfH
	DB	0c0H
	DB	098H
	DB	048H
	DB	0ffH
	DB	0c0H
	DB	094H
	DB	048H
	DB	0ffH
	DB	0c0H
	DB	094H
	DB	048H
	DB	0ffH
	DB	0c0H
	DB	098H
	DB	048H
	DB	0dfH
	DB	0c0H
	DB	094H
	DB	048H
	DB	0aeH
	DB	0c0H
	DB	094H
	DB	048H
	DB	06dH
	DB	0c0H
	DB	090H
	DB	040H
	DB	010H
	DB	00H
	DB	00H
	DB	00H
	DB	00H
	DB	00H
	DB	00H
	DB	00H
	DB	00H
	DB	00H
	DB	00H
	DB	00H
	DB	00H
	DB	00H
	DB	00H
	DB	00H
	DB	00H
	DB	00H
	DB	00H
	DB	00H
	DB	00H
	DB	00H
	DB	00H
	DB	00H
	DB	00H
	DB	00H
	DB	00H
	DB	00H
	DB	00H
	DB	00H
	DB	00H
	DB	00H
	DB	00H
	DB	00H
	DB	00H
	DB	00H
	DB	00H
	DB	00H
	DB	00H
	DB	00H
	DB	00H
	DB	00H
	DB	00H
	DB	00H
	DB	00H
	DB	00H
	DB	00H
	DB	00H
	DB	00H
	DB	00H
	DB	00H
	DB	00H
	DB	00H
	DB	00H
	DB	00H
	DB	00H
	DB	00H
	DB	00H
	DB	00H
	DB	00H
	DB	00H
	DB	00H
	DB	00H
	DB	00H
	DB	00H
	DB	00H
	DB	00H
	DB	00H
	DB	00H
	DB	00H
	DB	00H
	DB	00H
	DB	00H
	DB	00H
	DB	00H
	DB	00H
	DB	00H
	DB	00H
	DB	00H
	DB	00H
	DB	00H
	DB	00H
	DB	00H
	DB	00H
	DB	00H
	DB	00H
	DB	00H
	DB	00H
	DB	00H
	DB	00H
	DB	00H
	DB	00H
	DB	00H
	DB	00H
	DB	00H
	DB	00H
	DB	00H
	DB	00H
	DB	00H
	DB	00H
	DB	00H
	DB	00H
	DB	00H
	DB	00H
	DB	00H
	DB	00H
	DB	00H
	DB	00H
	DB	00H
	DB	00H
	DB	00H
	DB	00H
	DB	00H
	DB	00H
	DB	00H
	DB	00H
	DB	00H
	DB	00H
	DB	00H
	DB	00H
	DB	00H
	DB	00H
	DB	00H
	DB	00H
	DB	00H
	DB	00H
	DB	00H
	DB	00H
	DB	00H
	DB	00H
	DB	00H
	DB	00H
	DB	00H
	DB	00H
	DB	00H
	DB	00H
	DB	00H
	DB	00H
	DB	00H
	DB	00H
	DB	00H
	DB	00H
	DB	00H
	DB	00H
	DB	00H
	DB	00H
	DB	00H
	DB	00H
	DB	00H
	DB	00H
	DB	00H
	DB	00H
	DB	00H
	DB	00H
	DB	00H
	DB	00H
	DB	00H
	DB	00H
	DB	00H
	DB	00H
	DB	00H
	DB	00H
	DB	00H
	DB	00H
	DB	00H
	DB	00H
	DB	00H
	DB	00H
	DB	00H
	DB	00H
	DB	00H
	DB	00H
	DB	00H
	DB	00H
	DB	00H
	DB	00H
	DB	00H
	DB	00H
	DB	00H
	DB	00H
	DB	00H
	DB	00H
	DB	00H
	DB	00H
	DB	00H
	DB	00H
	DB	00H
	DB	00H
	DB	00H
	DB	00H
	DB	00H
	DB	00H
	DB	00H
	DB	00H
	DB	00H
	DB	00H
	DB	00H
	DB	00H
	DB	00H
	DB	00H
	DB	00H
	DB	00H
	DB	00H
	DB	00H
	DB	00H
	DB	00H
	DB	00H
	DB	00H
	DB	00H
	DB	00H
	DB	00H
	DB	00H
	DB	00H
	DB	00H
	DB	00H
	DB	00H
	DB	00H
	DB	00H
	DB	00H
	DB	00H
	DB	00H
	DB	00H
	DB	00H
	DB	00H
	DB	00H
	DB	00H
	DB	00H
	DB	00H
	DB	00H
	DB	00H
	DB	00H
	DB	00H
	DB	00H
	DB	00H
	DB	00H
	DB	00H
	DB	00H
	DB	00H
	DB	00H
	DB	00H
	DB	00H
	DB	00H
	DB	00H
	DB	00H
	DB	00H
	DB	00H
	DB	00H
	DB	00H
	DB	00H
	DB	00H
	DB	00H
	DB	00H
	DB	00H
	DB	00H
	DB	00H
	DB	00H
	DB	00H
	DB	00H
	DB	00H
	DB	00H
	DB	00H
	DB	00H
	DB	00H
	DB	00H
	DB	00H
	DB	00H
	DB	00H
	DB	00H
	DB	00H
	DB	00H
	DB	00H
	DB	00H
	DB	00H
	DB	00H
	DB	00H
	DB	00H
	DB	00H
	DB	00H
	DB	00H
	DB	00H
	DB	00H
	DB	00H
	DB	00H
	DB	00H
	DB	00H
	DB	00H
	DB	00H
	DB	00H
	DB	00H
	DB	00H
	DB	00H
	DB	00H
	DB	00H
	DB	00H
	DB	00H
	DB	00H
	DB	00H
	DB	00H
	DB	00H
	DB	00H
	DB	00H
	DB	00H
	DB	00H
	DB	00H
	DB	00H
	DB	00H
	DB	00H
	DB	00H
	DB	00H
	DB	00H
	DB	00H
	DB	00H
	DB	00H
	DB	00H
	DB	00H
	DB	00H
	DB	00H
	DB	00H
	DB	00H
	DB	00H
	DB	00H
	DB	00H
	DB	00H
	DB	00H
	DB	00H
	DB	00H
	DB	00H
	DB	00H
	DB	00H
	DB	00H
	DB	00H
	DB	00H
	DB	00H
	DB	00H
	DB	00H
	DB	00H
	DB	00H
	DB	00H
	DB	00H
	DB	00H
	DB	00H
	DB	00H
	DB	00H
	DB	00H
	DB	00H
	DB	00H
	DB	00H
	DB	00H
	DB	00H
	DB	00H
	DB	00H
	DB	00H
	DB	00H
	DB	00H
	DB	00H
	DB	00H
	DB	00H
	DB	00H
	DB	00H
	DB	00H
	DB	00H
	DB	00H
	DB	00H
	DB	00H
	DB	00H
	DB	00H
	DB	00H
	DB	00H
	DB	00H
	DB	00H
	DB	00H
	DB	00H
	DB	00H
	DB	00H
	DB	00H
	DB	00H
	DB	00H
	DB	00H
	DB	00H
	DB	00H
	DB	00H
	DB	00H
	DB	00H
	DB	00H
	DB	00H
	DB	00H
	DB	00H
	DB	00H
	DB	00H
	DB	00H
	DB	00H
	DB	00H
	DB	00H
	DB	00H
	DB	00H
	DB	00H
	DB	00H
	DB	00H
	DB	00H
	DB	00H
	DB	00H
	DB	00H
	DB	00H
	DB	00H
	DB	00H
	DB	00H
	DB	00H
	DB	00H
	DB	00H
	DB	00H
	DB	00H
	DB	00H
	DB	00H
	DB	00H
	DB	00H
	DB	00H
	DB	00H
	DB	00H
	DB	00H
	DB	00H
	DB	00H
	DB	00H
	DB	00H
	DB	00H
	DB	00H
	DB	00H
	DB	00H
	DB	00H
	DB	00H
CONST	ENDS
END
