; Listing generated by Microsoft (R) Optimizing Compiler Version 19.37.32822.0 

	TITLE	C:\TouchGFXProjects\KraftHeinz_DS3600\TouchGFX\build\Debug\obj\image_SplashLight.obj
	.686P
	.XMM
	include listing.inc
	.model	flat

INCLUDELIB MSVCRTD
INCLUDELIB OLDNAMES

PUBLIC	?image_splashlight@@3QBEB			; image_splashlight
msvcjmc	SEGMENT
__38966392_Config@hpp DB 01H
__86E06B61_image_SplashLight@cpp DB 01H
msvcjmc	ENDS
CONST	SEGMENT
?image_splashlight@@3QBEB DB 0c6H			; image_splashlight
	DB	0baH
	DB	033H
	DB	013H
	DB	034H
	DB	03H
	DB	034H
	DB	03H
	DB	054H
	DB	03H
	DB	034H
	DB	03H
	DB	034H
	DB	03H
	DB	054H
	DB	03H
	DB	054H
	DB	03H
	DB	054H
	DB	03H
	DB	054H
	DB	03H
	DB	054H
	DB	03H
	DB	054H
	DB	03H
	DB	054H
	DB	03H
	DB	054H
	DB	03H
	DB	054H
	DB	03H
	DB	054H
	DB	03H
	DB	054H
	DB	03H
	DB	054H
	DB	03H
	DB	054H
	DB	03H
	DB	054H
	DB	03H
	DB	054H
	DB	03H
	DB	054H
	DB	03H
	DB	055H
	DB	03H
	DB	054H
	DB	03H
	DB	054H
	DB	03H
	DB	054H
	DB	03H
	DB	055H
	DB	03H
	DB	054H
	DB	03H
	DB	054H
	DB	03H
	DB	055H
	DB	03H
	DB	054H
	DB	03H
	DB	054H
	DB	03H
	DB	054H
	DB	03H
	DB	034H
	DB	03H
	DB	054H
	DB	0bH
	DB	054H
	DB	03H
	DB	034H
	DB	03H
	DB	034H
	DB	0bH
	DB	054H
	DB	03H
	DB	054H
	DB	03H
	DB	054H
	DB	0bH
	DB	054H
	DB	0bH
	DB	054H
	DB	0bH
	DB	054H
	DB	0bH
	DB	054H
	DB	0bH
	DB	054H
	DB	0bH
	DB	054H
	DB	0bH
	DB	054H
	DB	0bH
	DB	054H
	DB	0bH
	DB	054H
	DB	0bH
	DB	074H
	DB	0bH
	DB	075H
	DB	0bH
	DB	075H
	DB	0bH
	DB	075H
	DB	0bH
	DB	075H
	DB	0bH
	DB	075H
	DB	0bH
	DB	075H
	DB	0bH
	DB	075H
	DB	0bH
	DB	075H
	DB	0bH
	DB	074H
	DB	0bH
	DB	075H
	DB	0bH
	DB	075H
	DB	0bH
	DB	075H
	DB	0bH
	DB	075H
	DB	0bH
	DB	075H
	DB	013H
	DB	075H
	DB	0bH
	DB	075H
	DB	0bH
	DB	095H
	DB	013H
	DB	075H
	DB	013H
	DB	074H
	DB	0bH
	DB	074H
	DB	013H
	DB	074H
	DB	013H
	DB	075H
	DB	013H
	DB	074H
	DB	0bH
	DB	074H
	DB	013H
	DB	075H
	DB	013H
	DB	075H
	DB	013H
	DB	074H
	DB	013H
	DB	075H
	DB	013H
	DB	075H
	DB	013H
	DB	075H
	DB	013H
	DB	075H
	DB	013H
	DB	095H
	DB	013H
	DB	095H
	DB	013H
	DB	095H
	DB	013H
	DB	095H
	DB	013H
	DB	095H
	DB	013H
	DB	095H
	DB	013H
	DB	095H
	DB	013H
	DB	095H
	DB	013H
	DB	095H
	DB	013H
	DB	095H
	DB	013H
	DB	095H
	DB	013H
	DB	094H
	DB	013H
	DB	095H
	DB	013H
	DB	095H
	DB	013H
	DB	095H
	DB	013H
	DB	095H
	DB	013H
	DB	095H
	DB	013H
	DB	095H
	DB	013H
	DB	095H
	DB	013H
	DB	095H
	DB	013H
	DB	074H
	DB	013H
	DB	074H
	DB	013H
	DB	095H
	DB	013H
	DB	095H
	DB	013H
	DB	095H
	DB	013H
	DB	095H
	DB	013H
	DB	0b5H
	DB	013H
	DB	095H
	DB	013H
	DB	095H
	DB	013H
	DB	095H
	DB	013H
	DB	095H
	DB	013H
	DB	095H
	DB	013H
	DB	095H
	DB	013H
	DB	0b5H
	DB	013H
	DB	095H
	DB	013H
	DB	095H
	DB	013H
	DB	0b5H
	DB	013H
	DB	095H
	DB	013H
	DB	095H
	DB	013H
	DB	0b5H
	DB	01bH
	DB	095H
	DB	013H
	DB	095H
	DB	013H
	DB	095H
	DB	01bH
	DB	095H
	DB	013H
	DB	0b5H
	DB	013H
	DB	095H
	DB	01bH
	DB	095H
	DB	013H
	DB	095H
	DB	013H
	DB	095H
	DB	01bH
	DB	095H
	DB	013H
	DB	095H
	DB	013H
	DB	0b5H
	DB	01bH
	DB	095H
	DB	013H
	DB	095H
	DB	013H
	DB	0b5H
	DB	01bH
	DB	0b5H
	DB	01bH
	DB	095H
	DB	013H
	DB	0b5H
	DB	013H
	DB	0b5H
	DB	01bH
	DB	0b5H
	DB	013H
	DB	0b5H
	DB	01bH
	DB	0b5H
	DB	01bH
	DB	0b5H
	DB	013H
	DB	0b5H
	DB	01bH
	DB	0b5H
	DB	013H
	DB	0b5H
	DB	01bH
	DB	0b5H
	DB	01bH
	DB	0b5H
	DB	013H
	DB	0b5H
	DB	01bH
	DB	095H
	DB	013H
	DB	095H
	DB	01bH
	DB	095H
	DB	013H
	DB	095H
	DB	013H
	DB	095H
	DB	01bH
	DB	095H
	DB	01bH
	DB	095H
	DB	013H
	DB	04fH
	DB	053H
	DB	07H
	DB	0b3H
	DB	0aH
	DB	093H
	DB	094H
	DB	023H
	DB	095H
	DB	01bH
	DB	095H
	DB	013H
	DB	095H
	DB	01bH
	DB	095H
	DB	01bH
	DB	095H
	DB	013H
	DB	0b5H
	DB	013H
	DB	0b6H
	DB	01bH
	DB	0b5H
	DB	01bH
	DB	0b5H
	DB	013H
	DB	0b5H
	DB	013H
	DB	0b5H
	DB	01bH
	DB	0b5H
	DB	01bH
	DB	0b5H
	DB	013H
	DB	0b5H
	DB	013H
	DB	0b5H
	DB	01bH
	DB	0b5H
	DB	013H
	DB	0b5H
	DB	013H
	DB	0b6H
	DB	01bH
	DB	0b5H
	DB	01bH
	DB	0b6H
	DB	013H
	DB	0b6H
	DB	013H
	DB	0b5H
	DB	01bH
	DB	0b6H
	DB	013H
	DB	0b6H
	DB	01bH
	DB	0b5H
	DB	013H
	DB	0b5H
	DB	013H
	DB	0b5H
	DB	01bH
	DB	095H
	DB	013H
	DB	0b5H
	DB	013H
	DB	0b5H
	DB	01bH
	DB	0b5H
	DB	013H
	DB	0b5H
	DB	013H
	DB	0b5H
	DB	01bH
	DB	0b5H
	DB	013H
	DB	0b5H
	DB	013H
	DB	0b6H
	DB	01bH
	DB	0b5H
	DB	013H
	DB	0b5H
	DB	013H
	DB	0b6H
	DB	013H
	DB	0b5H
	DB	013H
	DB	0b5H
	DB	013H
	DB	0b5H
	DB	013H
	DB	0b6H
	DB	013H
	DB	0b5H
	DB	013H
	DB	0b5H
	DB	013H
	DB	095H
	DB	013H
	DB	095H
	DB	013H
	DB	095H
	DB	013H
	DB	095H
	DB	013H
	DB	095H
	DB	013H
	DB	095H
	DB	013H
	DB	095H
	DB	013H
	DB	095H
	DB	013H
	DB	095H
	DB	013H
	DB	095H
	DB	013H
	DB	095H
	DB	013H
	DB	095H
	DB	013H
	DB	095H
	DB	013H
	DB	0b5H
	DB	013H
	DB	095H
	DB	013H
	DB	095H
	DB	013H
	DB	0b5H
	DB	013H
	DB	095H
	DB	013H
	DB	095H
	DB	013H
	DB	095H
	DB	013H
	DB	095H
	DB	013H
	DB	095H
	DB	013H
	DB	095H
	DB	013H
	DB	095H
	DB	013H
	DB	095H
	DB	013H
	DB	095H
	DB	013H
	DB	095H
	DB	013H
	DB	095H
	DB	013H
	DB	095H
	DB	013H
	DB	095H
	DB	013H
	DB	095H
	DB	013H
	DB	095H
	DB	013H
	DB	095H
	DB	013H
	DB	095H
	DB	013H
	DB	095H
	DB	013H
	DB	095H
	DB	013H
	DB	095H
	DB	013H
	DB	095H
	DB	013H
	DB	095H
	DB	013H
	DB	095H
	DB	013H
	DB	095H
	DB	0bH
	DB	095H
	DB	0bH
	DB	095H
	DB	013H
	DB	095H
	DB	0bH
	DB	095H
	DB	0bH
	DB	095H
	DB	0bH
	DB	095H
	DB	0bH
	DB	095H
	DB	013H
	DB	075H
	DB	0bH
	DB	075H
	DB	0bH
	DB	075H
	DB	0bH
	DB	075H
	DB	0bH
	DB	075H
	DB	0bH
	DB	075H
	DB	0bH
	DB	075H
	DB	0bH
	DB	075H
	DB	0bH
	DB	074H
	DB	0bH
	DB	075H
	DB	0bH
	DB	075H
	DB	0bH
	DB	074H
	DB	0bH
	DB	075H
	DB	0bH
	DB	075H
	DB	0bH
	DB	074H
	DB	0bH
	DB	054H
	DB	0bH
	DB	075H
	DB	0bH
	DB	054H
	DB	0bH
	DB	055H
	DB	0bH
	DB	075H
	DB	0bH
	DB	054H
	DB	0bH
	DB	055H
	DB	0bH
	DB	055H
	DB	03H
	DB	054H
	DB	0bH
	DB	055H
	DB	0bH
	DB	054H
	DB	03H
	DB	054H
	DB	03H
	DB	055H
	DB	0bH
	DB	054H
	DB	03H
	DB	054H
	DB	03H
	DB	054H
	DB	03H
	DB	054H
	DB	03H
	DB	054H
	DB	03H
	DB	054H
	DB	03H
	DB	054H
	DB	03H
	DB	054H
	DB	03H
	DB	054H
	DB	03H
	DB	055H
	DB	03H
	DB	054H
	DB	03H
	DB	054H
	DB	03H
	DB	054H
	DB	03H
	DB	034H
	DB	03H
	DB	034H
	DB	03H
	DB	034H
	DB	03H
	DB	054H
	DB	03H
	DB	054H
	DB	03H
	DB	054H
	DB	03H
	DB	034H
	DB	03H
	DB	034H
	DB	03H
	DB	034H
	DB	03H
	DB	054H
	DB	03H
	DB	034H
	DB	03H
	DB	034H
	DB	03H
	DB	054H
	DB	03H
	DB	054H
	DB	03H
	DB	054H
	DB	03H
	DB	055H
	DB	03H
	DB	054H
	DB	03H
	DB	054H
	DB	03H
	DB	054H
	DB	03H
	DB	055H
	DB	03H
	DB	055H
	DB	03H
	DB	075H
	DB	03H
	DB	055H
	DB	03H
	DB	033H
	DB	01bH
	DB	054H
	DB	03H
	DB	054H
	DB	0bH
	DB	034H
	DB	0bH
	DB	054H
	DB	03H
	DB	054H
	DB	0bH
	DB	054H
	DB	0bH
	DB	054H
	DB	03H
	DB	034H
	DB	0bH
	DB	054H
	DB	0bH
	DB	034H
	DB	03H
	DB	054H
	DB	0bH
	DB	034H
	DB	0bH
	DB	054H
	DB	03H
	DB	034H
	DB	0bH
	DB	054H
	DB	0bH
	DB	055H
	DB	03H
	DB	054H
	DB	0bH
	DB	054H
	DB	0bH
	DB	055H
	DB	03H
	DB	055H
	DB	0bH
	DB	055H
	DB	0bH
	DB	054H
	DB	03H
	DB	055H
	DB	0bH
	DB	054H
	DB	0bH
	DB	054H
	DB	03H
	DB	055H
	DB	0bH
	DB	055H
	DB	0bH
	DB	054H
	DB	03H
	DB	055H
	DB	0bH
	DB	055H
	DB	0bH
	DB	054H
	DB	03H
	DB	055H
	DB	0bH
	DB	034H
	DB	0bH
	DB	034H
	DB	03H
	DB	054H
	DB	0bH
	DB	034H
	DB	03H
	DB	054H
	DB	0bH
	DB	054H
	DB	0bH
	DB	054H
	DB	0bH
	DB	054H
	DB	0bH
	DB	054H
	DB	0bH
	DB	054H
	DB	0bH
	DB	054H
	DB	03H
	DB	054H
	DB	0bH
	DB	054H
	DB	0bH
	DB	054H
	DB	0bH
	DB	054H
	DB	0bH
	DB	074H
	DB	0bH
	DB	075H
	DB	0bH
	DB	054H
	DB	0bH
	DB	074H
	DB	0bH
	DB	074H
	DB	0bH
	DB	074H
	DB	0bH
	DB	075H
	DB	0bH
	DB	075H
	DB	0bH
	DB	074H
	DB	0bH
	DB	075H
	DB	0bH
	DB	075H
	DB	0bH
	DB	075H
	DB	013H
	DB	075H
	DB	0bH
	DB	075H
	DB	013H
	DB	075H
	DB	013H
	DB	074H
	DB	0bH
	DB	075H
	DB	013H
	DB	095H
	DB	013H
	DB	094H
	DB	0bH
	DB	075H
	DB	013H
	DB	095H
	DB	0bH
	DB	074H
	DB	013H
	DB	074H
	DB	013H
	DB	075H
	DB	0bH
	DB	075H
	DB	013H
	DB	074H
	DB	013H
	DB	075H
	DB	013H
	DB	074H
	DB	013H
	DB	075H
	DB	013H
	DB	074H
	DB	0bH
	DB	075H
	DB	013H
	DB	075H
	DB	013H
	DB	095H
	DB	013H
	DB	094H
	DB	013H
	DB	095H
	DB	013H
	DB	095H
	DB	013H
	DB	094H
	DB	013H
	DB	075H
	DB	013H
	DB	095H
	DB	013H
	DB	094H
	DB	013H
	DB	095H
	DB	013H
	DB	095H
	DB	013H
	DB	094H
	DB	013H
	DB	095H
	DB	013H
	DB	095H
	DB	013H
	DB	095H
	DB	013H
	DB	095H
	DB	013H
	DB	095H
	DB	013H
	DB	095H
	DB	013H
	DB	095H
	DB	013H
	DB	095H
	DB	013H
	DB	095H
	DB	013H
	DB	095H
	DB	013H
	DB	095H
	DB	013H
	DB	074H
	DB	01bH
	DB	074H
	DB	01bH
	DB	074H
	DB	013H
	DB	074H
	DB	01bH
	DB	074H
	DB	01bH
	DB	074H
	DB	01bH
	DB	095H
	DB	01bH
	DB	095H
	DB	01bH
	DB	0b5H
	DB	013H
	DB	0b5H
	DB	01bH
	DB	0b6H
	DB	01bH
	DB	0b5H
	DB	013H
	DB	0b5H
	DB	01bH
	DB	095H
	DB	01bH
	DB	0b5H
	DB	013H
	DB	095H
	DB	01bH
	DB	0b5H
	DB	01bH
	DB	0b5H
	DB	01bH
	DB	0b5H
	DB	01bH
	DB	0b5H
	DB	013H
	DB	095H
	DB	013H
	DB	095H
	DB	01bH
	DB	0b5H
	DB	01bH
	DB	095H
	DB	013H
	DB	095H
	DB	01bH
	DB	095H
	DB	01bH
	DB	0b5H
	DB	013H
	DB	095H
	DB	01bH
	DB	0b5H
	DB	01bH
	DB	0b5H
	DB	013H
	DB	095H
	DB	01bH
	DB	0b5H
	DB	01bH
	DB	0b5H
	DB	013H
	DB	095H
	DB	01bH
	DB	0b5H
	DB	01bH
	DB	0b5H
	DB	01bH
	DB	0b5H
	DB	013H
	DB	0b5H
	DB	01bH
	DB	0b5H
	DB	01bH
	DB	095H
	DB	01bH
	DB	0b5H
	DB	01bH
	DB	095H
	DB	013H
	DB	0b5H
	DB	01bH
	DB	095H
	DB	01bH
	DB	0b5H
	DB	013H
	DB	095H
	DB	01bH
	DB	0b6H
	DB	01bH
	DB	095H
	DB	013H
	DB	095H
	DB	01bH
	DB	095H
	DB	01bH
	DB	095H
	DB	013H
	DB	095H
	DB	01bH
	DB	095H
	DB	01bH
	DB	095H
	DB	01bH
	DB	095H
	DB	01bH
	DB	095H
	DB	013H
	DB	095H
	DB	013H
	DB	095H
	DB	01bH
	DB	095H
	DB	01bH
	DB	095H
	DB	013H
	DB	095H
	DB	01bH
	DB	095H
	DB	01bH
	DB	095H
	DB	013H
	DB	0b5H
	DB	01bH
	DB	095H
	DB	01bH
	DB	095H
	DB	01bH
	DB	095H
	DB	01bH
	DB	0b5H
	DB	01bH
	DB	0b6H
	DB	01bH
	DB	0b6H
	DB	01bH
	DB	0b6H
	DB	01bH
	DB	0b5H
	DB	013H
	DB	0b6H
	DB	01bH
	DB	0b6H
	DB	013H
	DB	0b5H
	DB	01bH
	DB	0b6H
	DB	01bH
	DB	096H
	DB	01bH
	DB	0b5H
	DB	013H
	DB	0b5H
	DB	01bH
	DB	0b6H
	DB	01bH
	DB	0b6H
	DB	01bH
	DB	0b5H
	DB	013H
	DB	0b6H
	DB	01bH
	DB	0b6H
	DB	01bH
	DB	0b5H
	DB	013H
	DB	095H
	DB	01bH
	DB	096H
	DB	01bH
	DB	0b6H
	DB	01bH
	DB	0b5H
	DB	01bH
	DB	0b6H
	DB	013H
	DB	0b6H
	DB	01bH
	DB	0b5H
	DB	01bH
	DB	0b6H
	DB	013H
	DB	096H
	DB	01bH
	DB	0b5H
	DB	01bH
	DB	0b5H
	DB	013H
	DB	096H
	DB	013H
	DB	0b5H
	DB	01bH
	DB	0b5H
	DB	01bH
	DB	0b6H
	DB	01bH
	DB	0b6H
	DB	013H
	DB	095H
	DB	01bH
	DB	0b5H
	DB	01bH
	DB	095H
	DB	013H
	DB	095H
	DB	01bH
	DB	095H
	DB	01bH
	DB	095H
	DB	013H
	DB	095H
	DB	01bH
	DB	095H
	DB	01bH
	DB	095H
	DB	013H
	DB	074H
	DB	01bH
	DB	094H
	DB	013H
	DB	074H
	DB	01bH
	DB	075H
	DB	013H
	DB	094H
	DB	013H
	DB	095H
	DB	013H
	DB	095H
	DB	013H
	DB	095H
	DB	013H
	DB	095H
	DB	013H
	DB	095H
	DB	013H
	DB	095H
	DB	013H
	DB	095H
	DB	013H
	DB	095H
	DB	013H
	DB	095H
	DB	013H
	DB	095H
	DB	013H
	DB	095H
	DB	013H
	DB	095H
	DB	013H
	DB	095H
	DB	013H
	DB	095H
	DB	013H
	DB	095H
	DB	013H
	DB	095H
	DB	013H
	DB	095H
	DB	013H
	DB	095H
	DB	013H
	DB	095H
	DB	013H
	DB	095H
	DB	013H
	DB	095H
	DB	013H
	DB	095H
	DB	013H
	DB	075H
	DB	013H
	DB	095H
	DB	013H
	DB	095H
	DB	013H
	DB	075H
	DB	013H
	DB	095H
	DB	013H
	DB	095H
	DB	0bH
	DB	095H
	DB	013H
	DB	096H
	DB	013H
	DB	096H
	DB	013H
	DB	095H
	DB	013H
	DB	095H
	DB	013H
	DB	0b5H
	DB	0bH
	DB	0b6H
	DB	013H
	DB	0b5H
	DB	0bH
	DB	0b5H
	DB	013H
	DB	095H
	DB	013H
	DB	075H
	DB	0bH
	DB	075H
	DB	013H
	DB	075H
	DB	0bH
	DB	074H
	DB	013H
	DB	075H
	DB	013H
	DB	075H
	DB	0bH
	DB	074H
	DB	013H
	DB	075H
	DB	0bH
	DB	075H
	DB	0bH
	DB	075H
	DB	0bH
	DB	075H
	DB	0bH
	DB	074H
	DB	0bH
	DB	075H
	DB	0bH
	DB	055H
	DB	0bH
	DB	075H
	DB	0bH
	DB	074H
	DB	0bH
	DB	075H
	DB	0bH
	DB	074H
	DB	0bH
	DB	074H
	DB	0bH
	DB	055H
	DB	0bH
	DB	075H
	DB	0bH
	DB	054H
	DB	0bH
	DB	075H
	DB	0bH
	DB	075H
	DB	0bH
	DB	054H
	DB	0bH
	DB	055H
	DB	03H
	DB	055H
	DB	0bH
	DB	054H
	DB	0bH
	DB	055H
	DB	03H
	DB	054H
	DB	03H
	DB	055H
	DB	0bH
	DB	055H
	DB	0bH
	DB	054H
	DB	03H
	DB	055H
	DB	0bH
	DB	055H
	DB	0bH
	DB	054H
	DB	03H
	DB	055H
	DB	0bH
	DB	055H
	DB	0bH
	DB	054H
	DB	03H
	DB	034H
	DB	0bH
	DB	034H
	DB	0bH
	DB	034H
	DB	03H
	DB	054H
	DB	0bH
	DB	054H
	DB	0bH
	DB	034H
	DB	03H
	DB	034H
	DB	0bH
	DB	034H
	DB	0bH
	DB	054H
	DB	03H
	DB	034H
	DB	0bH
	DB	054H
	DB	0bH
	DB	054H
	DB	03H
	DB	034H
	DB	0bH
	DB	054H
	DB	0bH
	DB	034H
	DB	03H
	DB	054H
	DB	0bH
	DB	034H
	DB	0bH
	DB	034H
	DB	03H
	DB	054H
	DB	0bH
	DB	054H
	DB	0bH
	DB	055H
	DB	03H
	DB	054H
	DB	0bH
	DB	055H
	DB	0bH
	DB	055H
	DB	03H
	DB	075H
	DB	0bH
	DB	055H
	DB	03H
	DB	034H
	DB	03H
	DB	054H
	DB	03H
	DB	054H
	DB	03H
	DB	054H
	DB	0bH
	DB	054H
	DB	03H
	DB	054H
	DB	03H
	DB	055H
	DB	0bH
	DB	034H
	DB	03H
	DB	055H
	DB	03H
	DB	055H
	DB	0bH
	DB	054H
	DB	03H
	DB	035H
	DB	03H
	DB	055H
	DB	0bH
	DB	054H
	DB	03H
	DB	055H
	DB	03H
	DB	034H
	DB	0bH
	DB	054H
	DB	03H
	DB	055H
	DB	03H
	DB	054H
	DB	0bH
	DB	054H
	DB	03H
	DB	055H
	DB	03H
	DB	074H
	DB	0bH
	DB	055H
	DB	03H
	DB	055H
	DB	03H
	DB	054H
	DB	0bH
	DB	055H
	DB	03H
	DB	055H
	DB	03H
	DB	054H
	DB	0bH
	DB	054H
	DB	03H
	DB	055H
	DB	03H
	DB	054H
	DB	0bH
	DB	054H
	DB	03H
	DB	054H
	DB	03H
	DB	034H
	DB	0bH
	DB	054H
	DB	03H
	DB	054H
	DB	03H
	DB	054H
	DB	0bH
	DB	054H
	DB	03H
	DB	054H
	DB	0bH
	DB	055H
	DB	03H
	DB	054H
	DB	0bH
	DB	054H
	DB	0bH
	DB	055H
	DB	03H
	DB	055H
	DB	0bH
	DB	054H
	DB	0bH
	DB	075H
	DB	0bH
	DB	075H
	DB	0bH
	DB	074H
	DB	0bH
	DB	055H
	DB	0bH
	DB	075H
	DB	0bH
	DB	054H
	DB	0bH
	DB	075H
	DB	0bH
	DB	074H
	DB	0bH
	DB	055H
	DB	0bH
	DB	074H
	DB	0bH
	DB	075H
	DB	0bH
	DB	075H
	DB	013H
	DB	074H
	DB	0bH
	DB	075H
	DB	013H
	DB	074H
	DB	0bH
	DB	075H
	DB	0bH
	DB	075H
	DB	013H
	DB	074H
	DB	0bH
	DB	095H
	DB	013H
	DB	095H
	DB	0bH
	DB	075H
	DB	0bH
	DB	095H
	DB	013H
	DB	074H
	DB	013H
	DB	075H
	DB	0bH
	DB	074H
	DB	013H
	DB	075H
	DB	013H
	DB	075H
	DB	0bH
	DB	074H
	DB	013H
	DB	075H
	DB	013H
	DB	075H
	DB	0bH
	DB	074H
	DB	013H
	DB	094H
	DB	013H
	DB	075H
	DB	013H
	DB	074H
	DB	0bH
	DB	095H
	DB	013H
	DB	095H
	DB	013H
	DB	094H
	DB	013H
	DB	095H
	DB	013H
	DB	095H
	DB	013H
	DB	074H
	DB	013H
	DB	095H
	DB	013H
	DB	095H
	DB	013H
	DB	094H
	DB	013H
	DB	095H
	DB	013H
	DB	095H
	DB	013H
	DB	095H
	DB	013H
	DB	094H
	DB	013H
	DB	095H
	DB	013H
	DB	095H
	DB	013H
	DB	095H
	DB	013H
	DB	095H
	DB	013H
	DB	095H
	DB	013H
	DB	095H
	DB	01bH
	DB	095H
	DB	013H
	DB	095H
	DB	01bH
	DB	095H
	DB	01bH
	DB	075H
	DB	013H
	DB	074H
	DB	013H
	DB	074H
	DB	013H
	DB	074H
	DB	01bH
	DB	074H
	DB	013H
	DB	074H
	DB	013H
	DB	074H
	DB	013H
	DB	074H
	DB	01bH
	DB	095H
	DB	013H
	DB	095H
	DB	01bH
	DB	095H
	DB	01bH
	DB	095H
	DB	013H
	DB	095H
	DB	013H
	DB	0b5H
	DB	01bH
	DB	0b6H
	DB	013H
	DB	0b6H
	DB	01bH
	DB	0b5H
	DB	013H
	DB	095H
	DB	013H
	DB	095H
	DB	01bH
	DB	095H
	DB	01bH
	DB	0b5H
	DB	013H
	DB	095H
	DB	01bH
	DB	095H
	DB	01bH
	DB	095H
	DB	013H
	DB	0b5H
	DB	013H
	DB	0b5H
	DB	01bH
	DB	0b5H
	DB	01bH
	DB	095H
	DB	013H
	DB	0b5H
	DB	01bH
	DB	095H
	DB	013H
	DB	0b5H
	DB	013H
	DB	0b5H
	DB	01bH
	DB	095H
	DB	01bH
	DB	095H
	DB	013H
	DB	0b5H
	DB	01bH
	DB	095H
	DB	013H
	DB	0b6H
	DB	013H
	DB	0b6H
	DB	01bH
	DB	095H
	DB	01bH
	DB	0b6H
	DB	013H
	DB	0b6H
	DB	01bH
	DB	0b5H
	DB	013H
	DB	0b6H
	DB	01bH
	DB	096H
	DB	013H
	DB	0b5H
	DB	01bH
	DB	0b6H
	DB	01bH
	DB	0b5H
	DB	013H
	DB	0b5H
	DB	01bH
	DB	095H
	DB	013H
	DB	095H
	DB	01bH
	DB	095H
	DB	013H
	DB	095H
	DB	01bH
	DB	095H
	DB	01bH
	DB	095H
	DB	013H
	DB	095H
	DB	01bH
	DB	094H
	DB	01bH
	DB	095H
	DB	01bH
	DB	0b5H
	DB	01bH
	DB	0b5H
	DB	01bH
	DB	095H
	DB	013H
	DB	095H
	DB	013H
	DB	095H
	DB	01bH
	DB	095H
	DB	013H
	DB	095H
	DB	01bH
	DB	0b5H
	DB	013H
	DB	0b5H
	DB	013H
	DB	095H
	DB	01bH
	DB	095H
	DB	013H
	DB	0b5H
	DB	013H
	DB	095H
	DB	013H
	DB	095H
	DB	01bH
	DB	0b5H
	DB	01bH
	DB	0b5H
	DB	013H
	DB	0b6H
	DB	01bH
	DB	0b6H
	DB	01bH
	DB	0b5H
	DB	01bH
	DB	0b6H
	DB	01bH
	DB	095H
	DB	013H
	DB	0b5H
	DB	01bH
	DB	0b6H
	DB	013H
	DB	0b5H
	DB	01bH
	DB	0b5H
	DB	01bH
	DB	0b6H
	DB	013H
	DB	0b6H
	DB	013H
	DB	0d5H
	DB	01bH
	DB	0b5H
	DB	013H
	DB	0b5H
	DB	01bH
	DB	0b6H
	DB	013H
	DB	0b5H
	DB	013H
	DB	0b5H
	DB	01bH
	DB	0b6H
	DB	01bH
	DB	0b5H
	DB	013H
	DB	0b5H
	DB	013H
	DB	0b6H
	DB	01bH
	DB	0b5H
	DB	013H
	DB	0b5H
	DB	01bH
	DB	0b6H
	DB	01bH
	DB	0b6H
	DB	013H
	DB	0b5H
	DB	01bH
	DB	095H
	DB	01bH
	DB	0b5H
	DB	013H
	DB	095H
	DB	01bH
	DB	095H
	DB	01bH
	DB	095H
	DB	013H
	DB	095H
	DB	01bH
	DB	095H
	DB	013H
	DB	095H
	DB	013H
	DB	095H
	DB	01bH
	DB	095H
	DB	013H
	DB	095H
	DB	013H
	DB	095H
	DB	01bH
	DB	094H
	DB	013H
	DB	095H
	DB	013H
	DB	095H
	DB	01bH
	DB	094H
	DB	01bH
	DB	094H
	DB	013H
	DB	095H
	DB	01bH
	DB	094H
	DB	01bH
	DB	074H
	DB	013H
	DB	074H
	DB	01bH
	DB	074H
	DB	013H
	DB	075H
	DB	013H
	DB	075H
	DB	013H
	DB	075H
	DB	013H
	DB	095H
	DB	013H
	DB	095H
	DB	013H
	DB	075H
	DB	013H
	DB	095H
	DB	013H
	DB	095H
	DB	013H
	DB	095H
	DB	013H
	DB	095H
	DB	013H
	DB	095H
	DB	013H
	DB	095H
	DB	013H
	DB	095H
	DB	013H
	DB	075H
	DB	013H
	DB	095H
	DB	013H
	DB	095H
	DB	013H
	DB	075H
	DB	013H
	DB	095H
	DB	013H
	DB	095H
	DB	013H
	DB	095H
	DB	013H
	DB	095H
	DB	013H
	DB	095H
	DB	0bH
	DB	095H
	DB	013H
	DB	095H
	DB	013H
	DB	095H
	DB	0bH
	DB	095H
	DB	013H
	DB	096H
	DB	013H
	DB	096H
	DB	0bH
	DB	0b6H
	DB	013H
	DB	096H
	DB	013H
	DB	095H
	DB	0bH
	DB	095H
	DB	013H
	DB	095H
	DB	0bH
	DB	095H
	DB	013H
	DB	095H
	DB	0bH
	DB	095H
	DB	013H
	DB	075H
	DB	0bH
	DB	074H
	DB	0bH
	DB	075H
	DB	013H
	DB	074H
	DB	0bH
	DB	075H
	DB	0bH
	DB	075H
	DB	013H
	DB	074H
	DB	0bH
	DB	075H
	DB	0bH
	DB	075H
	DB	0bH
	DB	074H
	DB	0bH
	DB	074H
	DB	0bH
	DB	074H
	DB	0bH
	DB	075H
	DB	0bH
	DB	075H
	DB	0bH
	DB	074H
	DB	0bH
	DB	074H
	DB	0bH
	DB	055H
	DB	0bH
	DB	055H
	DB	0bH
	DB	074H
	DB	03H
	DB	055H
	DB	03H
	DB	075H
	DB	0bH
	DB	074H
	DB	0bH
	DB	055H
	DB	0bH
	DB	075H
	DB	03H
	DB	054H
	DB	0bH
	DB	074H
	DB	0bH
	DB	055H
	DB	03H
	DB	054H
	DB	0bH
	DB	054H
	DB	03H
	DB	055H
	DB	03H
	DB	054H
	DB	0bH
	DB	055H
	DB	03H
	DB	054H
	DB	03H
	DB	054H
	DB	0bH
	DB	054H
	DB	03H
	DB	034H
	DB	03H
	DB	034H
	DB	0bH
	DB	054H
	DB	03H
	DB	034H
	DB	03H
	DB	054H
	DB	0bH
	DB	054H
	DB	03H
	DB	034H
	DB	03H
	DB	054H
	DB	0bH
	DB	054H
	DB	03H
	DB	034H
	DB	03H
	DB	054H
	DB	0bH
	DB	034H
	DB	03H
	DB	054H
	DB	03H
	DB	034H
	DB	0bH
	DB	054H
	DB	03H
	DB	054H
	DB	03H
	DB	034H
	DB	0bH
	DB	054H
	DB	03H
	DB	054H
	DB	03H
	DB	034H
	DB	0bH
	DB	034H
	DB	03H
	DB	034H
	DB	03H
	DB	054H
	DB	0bH
	DB	054H
	DB	03H
	DB	055H
	DB	03H
	DB	054H
	DB	0bH
	DB	054H
	DB	03H
	DB	034H
	DB	03H
	DB	034H
	DB	0bH
	DB	034H
	DB	03H
	DB	054H
	DB	03H
	DB	035H
	DB	03H
	DB	054H
	DB	03H
	DB	054H
	DB	0bH
	DB	054H
	DB	03H
	DB	054H
	DB	03H
	DB	054H
	DB	0bH
	DB	054H
	DB	03H
	DB	054H
	DB	03H
	DB	054H
	DB	0bH
	DB	054H
	DB	03H
	DB	054H
	DB	03H
	DB	034H
	DB	0bH
	DB	054H
	DB	03H
	DB	054H
	DB	03H
	DB	054H
	DB	0bH
	DB	054H
	DB	03H
	DB	054H
	DB	03H
	DB	055H
	DB	0bH
	DB	074H
	DB	03H
	DB	054H
	DB	03H
	DB	054H
	DB	0bH
	DB	055H
	DB	03H
	DB	054H
	DB	03H
	DB	054H
	DB	0bH
	DB	055H
	DB	03H
	DB	055H
	DB	03H
	DB	054H
	DB	0bH
	DB	054H
	DB	03H
	DB	034H
	DB	03H
	DB	054H
	DB	03H
	DB	054H
	DB	0bH
	DB	054H
	DB	0bH
	DB	054H
	DB	03H
	DB	054H
	DB	03H
	DB	055H
	DB	0bH
	DB	054H
	DB	03H
	DB	054H
	DB	03H
	DB	054H
	DB	0bH
	DB	054H
	DB	0bH
	DB	074H
	DB	0bH
	DB	054H
	DB	0bH
	DB	054H
	DB	03H
	DB	054H
	DB	0bH
	DB	075H
	DB	0bH
	DB	054H
	DB	0bH
	DB	054H
	DB	0bH
	DB	075H
	DB	0bH
	DB	074H
	DB	0bH
	DB	075H
	DB	0bH
	DB	074H
	DB	0bH
	DB	074H
	DB	0bH
	DB	075H
	DB	013H
	DB	075H
	DB	0bH
	DB	075H
	DB	0bH
	DB	075H
	DB	013H
	DB	074H
	DB	0bH
	DB	075H
	DB	0bH
	DB	095H
	DB	0bH
	DB	095H
	DB	013H
	DB	075H
	DB	0bH
	DB	075H
	DB	013H
	DB	095H
	DB	013H
	DB	075H
	DB	013H
	DB	074H
	DB	0bH
	DB	074H
	DB	013H
	DB	075H
	DB	0bH
	DB	074H
	DB	013H
	DB	074H
	DB	013H
	DB	075H
	DB	0bH
	DB	074H
	DB	013H
	DB	094H
	DB	013H
	DB	075H
	DB	0bH
	DB	075H
	DB	013H
	DB	095H
	DB	013H
	DB	094H
	DB	013H
	DB	095H
	DB	013H
	DB	095H
	DB	013H
	DB	075H
	DB	013H
	DB	095H
	DB	013H
	DB	095H
	DB	013H
	DB	095H
	DB	013H
	DB	095H
	DB	013H
	DB	095H
	DB	013H
	DB	095H
	DB	013H
	DB	095H
	DB	013H
	DB	094H
	DB	013H
	DB	095H
	DB	013H
	DB	095H
	DB	013H
	DB	095H
	DB	013H
	DB	095H
	DB	01bH
	DB	095H
	DB	013H
	DB	095H
	DB	013H
	DB	095H
	DB	01bH
	DB	095H
	DB	013H
	DB	095H
	DB	013H
	DB	095H
	DB	013H
	DB	094H
	DB	01bH
	DB	074H
	DB	013H
	DB	074H
	DB	013H
	DB	074H
	DB	013H
	DB	074H
	DB	01bH
	DB	074H
	DB	013H
	DB	074H
	DB	013H
	DB	074H
	DB	01bH
	DB	074H
	DB	013H
	DB	074H
	DB	013H
	DB	074H
	DB	01bH
	DB	095H
	DB	01bH
	DB	095H
	DB	013H
	DB	095H
	DB	01bH
	DB	095H
	DB	013H
	DB	0b5H
	DB	013H
	DB	095H
	DB	01bH
	DB	0b5H
	DB	013H
	DB	0b6H
	DB	013H
	DB	095H
	DB	01bH
	DB	0b5H
	DB	013H
	DB	095H
	DB	013H
	DB	0b5H
	DB	01bH
	DB	0b5H
	DB	013H
	DB	095H
	DB	01bH
	DB	0b5H
	DB	013H
	DB	095H
	DB	013H
	DB	095H
	DB	01bH
	DB	0b5H
	DB	013H
	DB	095H
	DB	01bH
	DB	095H
	DB	01bH
	DB	095H
	DB	01bH
	DB	0b5H
	DB	01bH
	DB	095H
	DB	013H
	DB	0b5H
	DB	01bH
	DB	095H
	DB	013H
	DB	095H
	DB	01bH
	DB	0b5H
	DB	01bH
	DB	0b5H
	DB	013H
	DB	095H
	DB	01bH
	DB	0b5H
	DB	01bH
	DB	0b5H
	DB	013H
	DB	095H
	DB	01bH
	DB	0b5H
	DB	01bH
	DB	0b5H
	DB	013H
	DB	0b5H
	DB	01bH
	DB	0b5H
	DB	01bH
	DB	096H
	DB	013H
	DB	095H
	DB	01bH
	DB	095H
	DB	01bH
	DB	095H
	DB	013H
	DB	095H
	DB	01bH
	DB	095H
	DB	01bH
	DB	095H
	DB	013H
	DB	095H
	DB	013H
	DB	0b5H
	DB	01bH
	DB	095H
	DB	013H
	DB	0b5H
	DB	013H
	DB	095H
	DB	01bH
	DB	095H
	DB	01bH
	DB	095H
	DB	013H
	DB	095H
	DB	01bH
	DB	095H
	DB	01bH
	DB	095H
	DB	01bH
	DB	0b5H
	DB	01bH
	DB	095H
	DB	01bH
	DB	095H
	DB	013H
	DB	095H
	DB	01bH
	DB	0b5H
	DB	01bH
	DB	095H
	DB	01bH
	DB	0b5H
	DB	013H
	DB	095H
	DB	01bH
	DB	095H
	DB	01bH
	DB	0b5H
	DB	013H
	DB	0b5H
	DB	01bH
	DB	0b6H
	DB	013H
	DB	0b5H
	DB	013H
	DB	0b5H
	DB	01bH
	DB	0b6H
	DB	01bH
	DB	0b5H
	DB	013H
	DB	095H
	DB	01bH
	DB	0b6H
	DB	013H
	DB	0b6H
	DB	01bH
	DB	0b5H
	DB	01bH
	DB	0b6H
	DB	01bH
	DB	0b6H
	DB	01bH
	DB	0b5H
	DB	01bH
	DB	0b5H
	DB	01bH
	DB	0b6H
	DB	01bH
	DB	0b5H
	DB	013H
	DB	0b5H
	DB	01bH
	DB	0b5H
	DB	013H
	DB	0b5H
	DB	01bH
	DB	0b6H
	DB	01bH
	DB	0b5H
	DB	01bH
	DB	0b6H
	DB	013H
	DB	0b6H
	DB	013H
	DB	095H
	DB	01bH
	DB	0b5H
	DB	013H
	DB	0b6H
	DB	01bH
	DB	0b5H
	DB	013H
	DB	095H
	DB	013H
	DB	095H
	DB	013H
	DB	095H
	DB	013H
	DB	095H
	DB	01bH
	DB	095H
	DB	013H
	DB	095H
	DB	013H
	DB	095H
	DB	01bH
	DB	095H
	DB	01bH
	DB	095H
	DB	013H
	DB	095H
	DB	01bH
	DB	094H
	DB	013H
	DB	095H
	DB	013H
	DB	094H
	DB	013H
	DB	095H
	DB	013H
	DB	095H
	DB	013H
	DB	094H
	DB	01bH
	DB	075H
	DB	013H
	DB	095H
	DB	013H
	DB	094H
	DB	01bH
	DB	075H
	DB	013H
	DB	094H
	DB	013H
	DB	095H
	DB	01bH
	DB	074H
	DB	01bH
	DB	094H
	DB	013H
	DB	074H
	DB	01bH
	DB	095H
	DB	013H
	DB	074H
	DB	01bH
	DB	095H
	DB	013H
	DB	095H
	DB	013H
	DB	074H
	DB	013H
	DB	095H
	DB	013H
	DB	095H
	DB	013H
	DB	095H
	DB	013H
	DB	095H
	DB	013H
	DB	095H
	DB	013H
	DB	095H
	DB	013H
	DB	095H
	DB	013H
	DB	095H
	DB	013H
	DB	095H
	DB	013H
	DB	095H
	DB	013H
	DB	095H
	DB	013H
	DB	095H
	DB	013H
	DB	075H
	DB	013H
	DB	095H
	DB	013H
	DB	095H
	DB	013H
	DB	095H
	DB	0bH
	DB	095H
	DB	013H
	DB	095H
	DB	013H
	DB	095H
	DB	0bH
	DB	095H
	DB	013H
	DB	0b5H
	DB	0bH
	DB	095H
	DB	013H
	DB	095H
	DB	013H
	DB	075H
	DB	013H
	DB	075H
	DB	0bH
	DB	095H
	DB	013H
	DB	095H
	DB	013H
	DB	075H
	DB	0bH
	DB	075H
	DB	013H
	DB	095H
	DB	0bH
	DB	075H
	DB	0bH
	DB	075H
	DB	013H
	DB	074H
	DB	013H
	DB	075H
	DB	0bH
	DB	075H
	DB	0bH
	DB	075H
	DB	013H
	DB	075H
	DB	0bH
	DB	075H
	DB	0bH
	DB	075H
	DB	0bH
	DB	074H
	DB	0bH
	DB	075H
	DB	0bH
	DB	075H
	DB	0bH
	DB	074H
	DB	0bH
	DB	074H
	DB	0bH
	DB	055H
	DB	0bH
	DB	074H
	DB	0bH
	DB	055H
	DB	0bH
	DB	054H
	DB	0bH
	DB	055H
	DB	0bH
	DB	055H
	DB	0bH
	DB	074H
	DB	0bH
	DB	055H
	DB	03H
	DB	075H
	DB	0bH
	DB	054H
	DB	0bH
	DB	054H
	DB	03H
	DB	054H
	DB	0bH
	DB	054H
	DB	03H
	DB	054H
	DB	03H
	DB	054H
	DB	03H
	DB	055H
	DB	0bH
	DB	054H
	DB	03H
	DB	054H
	DB	03H
	DB	034H
	DB	0bH
	DB	054H
	DB	03H
	DB	054H
	DB	03H
	DB	034H
	DB	0bH
	DB	034H
	DB	03H
	DB	054H
	DB	03H
	DB	034H
	DB	0bH
	DB	054H
	DB	03H
	DB	034H
	DB	03H
	DB	034H
	DB	0bH
	DB	054H
	DB	03H
	DB	034H
	DB	03H
	DB	034H
	DB	0bH
	DB	054H
	DB	03H
	DB	034H
	DB	03H
	DB	034H
	DB	0bH
	DB	054H
	DB	03H
	DB	034H
	DB	03H
	DB	054H
	DB	0bH
	DB	054H
	DB	03H
	DB	034H
	DB	03H
	DB	054H
	DB	0bH
	DB	034H
	DB	03H
	DB	034H
	DB	03H
	DB	054H
	DB	0bH
	DB	054H
	DB	03H
	DB	054H
	DB	03H
	DB	054H
	DB	03H
	DB	054H
	DB	0bH
	DB	054H
	DB	0bH
	DB	055H
	DB	03H
	DB	054H
	DB	0bH
	DB	034H
	DB	0bH
	DB	055H
	DB	03H
	DB	034H
	DB	03H
	DB	054H
	DB	0bH
	DB	034H
	DB	03H
	DB	035H
	DB	03H
	DB	054H
	DB	0bH
	DB	034H
	DB	03H
	DB	055H
	DB	03H
	DB	054H
	DB	0bH
	DB	055H
	DB	03H
	DB	034H
	DB	03H
	DB	055H
	DB	0bH
	DB	054H
	DB	03H
	DB	054H
	DB	03H
	DB	055H
	DB	0bH
	DB	055H
	DB	03H
	DB	054H
	DB	03H
	DB	075H
	DB	0bH
	DB	055H
	DB	03H
	DB	054H
	DB	03H
	DB	055H
	DB	0bH
	DB	055H
	DB	03H
	DB	054H
	DB	03H
	DB	054H
	DB	0bH
	DB	054H
	DB	03H
	DB	034H
	DB	0bH
	DB	034H
	DB	03H
	DB	054H
	DB	0bH
	DB	035H
	DB	0bH
	DB	055H
	DB	0bH
	DB	054H
	DB	03H
	DB	054H
	DB	0bH
	DB	054H
	DB	0bH
	DB	054H
	DB	0bH
	DB	055H
	DB	0bH
	DB	054H
	DB	0bH
	DB	074H
	DB	0bH
	DB	055H
	DB	0bH
	DB	054H
	DB	0bH
	DB	074H
	DB	0bH
	DB	055H
	DB	0bH
	DB	074H
	DB	0bH
	DB	075H
	DB	0bH
	DB	054H
	DB	0bH
	DB	074H
	DB	0bH
	DB	074H
	DB	0bH
	DB	055H
	DB	0bH
	DB	075H
	DB	0bH
	DB	074H
	DB	013H
	DB	075H
	DB	0bH
	DB	075H
	DB	0bH
	DB	074H
	DB	013H
	DB	075H
	DB	0bH
	DB	075H
	DB	013H
	DB	075H
	DB	013H
	DB	095H
	DB	013H
	DB	074H
	DB	0bH
	DB	075H
	DB	013H
	DB	094H
	DB	0bH
	DB	095H
	DB	013H
	DB	075H
	DB	0bH
	DB	074H
	DB	013H
	DB	075H
	DB	013H
	DB	075H
	DB	0bH
	DB	074H
	DB	013H
	DB	075H
	DB	013H
	DB	075H
	DB	013H
	DB	094H
	DB	013H
	DB	075H
	DB	013H
	DB	075H
	DB	013H
	DB	075H
	DB	013H
	DB	095H
	DB	013H
	DB	095H
	DB	013H
	DB	095H
	DB	013H
	DB	074H
	DB	013H
	DB	095H
	DB	013H
	DB	094H
	DB	013H
	DB	095H
	DB	013H
	DB	094H
	DB	013H
	DB	094H
	DB	013H
	DB	095H
	DB	013H
	DB	095H
	DB	013H
	DB	095H
	DB	013H
	DB	095H
	DB	013H
	DB	095H
	DB	013H
	DB	095H
	DB	013H
	DB	095H
	DB	01bH
	DB	095H
	DB	013H
	DB	095H
	DB	013H
	DB	095H
	DB	013H
	DB	095H
	DB	013H
	DB	095H
	DB	013H
	DB	095H
	DB	01bH
	DB	074H
	DB	013H
	DB	074H
	DB	01bH
	DB	074H
	DB	013H
	DB	075H
	DB	01bH
	DB	074H
	DB	013H
	DB	074H
	DB	01bH
	DB	074H
	DB	01bH
	DB	074H
	DB	01bH
	DB	074H
	DB	01bH
	DB	074H
	DB	013H
	DB	074H
	DB	01bH
	DB	074H
	DB	013H
	DB	074H
	DB	013H
	DB	074H
	DB	01bH
	DB	094H
	DB	01bH
	DB	095H
	DB	013H
	DB	095H
	DB	01bH
	DB	095H
	DB	01bH
	DB	095H
	DB	01bH
	DB	0b5H
	DB	013H
	DB	0b6H
	DB	01bH
	DB	095H
	DB	01bH
	DB	095H
	DB	01bH
	DB	0b6H
	DB	013H
	DB	0b5H
	DB	01bH
	DB	095H
	DB	01bH
	DB	0b5H
	DB	01bH
	DB	096H
	DB	01bH
	DB	0b5H
	DB	01bH
	DB	0b5H
	DB	013H
	DB	096H
	DB	01bH
	DB	0b5H
	DB	013H
	DB	0b5H
	DB	013H
	DB	096H
	DB	01bH
	DB	0b5H
	DB	01bH
	DB	0b5H
	DB	013H
	DB	096H
	DB	01bH
	DB	095H
	DB	01bH
	DB	0b5H
	DB	013H
	DB	0b5H
	DB	01bH
	DB	0b6H
	DB	013H
	DB	0b5H
	DB	01bH
	DB	0b5H
	DB	01bH
	DB	096H
	DB	013H
	DB	0b5H
	DB	01bH
	DB	0b6H
	DB	01bH
	DB	0b5H
	DB	013H
	DB	0b6H
	DB	01bH
	DB	0b5H
	DB	01bH
	DB	095H
	DB	01bH
	DB	095H
	DB	013H
	DB	095H
	DB	01bH
	DB	095H
	DB	01bH
	DB	0b5H
	DB	013H
	DB	095H
	DB	01bH
	DB	094H
	DB	01bH
	DB	095H
	DB	01bH
	DB	095H
	DB	013H
	DB	095H
	DB	01bH
	DB	0b5H
	DB	013H
	DB	095H
	DB	01bH
	DB	0b5H
	DB	01bH
	DB	0b5H
	DB	01bH
	DB	0b5H
	DB	01bH
	DB	0b5H
	DB	013H
	DB	095H
	DB	013H
	DB	0b5H
	DB	01bH
	DB	0b5H
	DB	01bH
	DB	0b5H
	DB	013H
	DB	095H
	DB	01bH
	DB	0b5H
	DB	01bH
	DB	0b5H
	DB	01bH
	DB	095H
	DB	013H
	DB	0b5H
	DB	01bH
	DB	0b5H
	DB	01bH
	DB	0b5H
	DB	013H
	DB	0b5H
	DB	01bH
	DB	0b6H
	DB	01bH
	DB	0b5H
	DB	01bH
	DB	0b6H
	DB	013H
	DB	0b5H
	DB	01bH
	DB	0b5H
	DB	01bH
	DB	0b6H
	DB	013H
	DB	0b5H
	DB	01bH
	DB	0d6H
	DB	013H
	DB	0b6H
	DB	013H
	DB	0b5H
	DB	01bH
	DB	0b5H
	DB	013H
	DB	0b6H
	DB	013H
	DB	0b5H
	DB	01bH
	DB	0b6H
	DB	01bH
	DB	0b6H
	DB	013H
	DB	0b5H
	DB	01bH
	DB	0b5H
	DB	013H
	DB	0b6H
	DB	013H
	DB	0b5H
	DB	01bH
	DB	0b6H
	DB	01bH
	DB	0b5H
	DB	013H
	DB	0b5H
	DB	01bH
	DB	095H
	DB	013H
	DB	095H
	DB	01bH
	DB	095H
	DB	01bH
	DB	095H
	DB	01bH
	DB	095H
	DB	013H
	DB	095H
	DB	01bH
	DB	0b5H
	DB	01bH
	DB	095H
	DB	013H
	DB	095H
	DB	01bH
	DB	095H
	DB	013H
	DB	0b5H
	DB	013H
	DB	094H
	DB	01bH
	DB	095H
	DB	013H
	DB	095H
	DB	01bH
	DB	095H
	DB	01bH
	DB	094H
	DB	01bH
	DB	095H
	DB	013H
	DB	075H
	DB	013H
	DB	094H
	DB	01bH
	DB	095H
	DB	013H
	DB	095H
	DB	013H
	DB	095H
	DB	013H
	DB	095H
	DB	01bH
	DB	095H
	DB	013H
	DB	095H
	DB	013H
	DB	095H
	DB	013H
	DB	095H
	DB	013H
	DB	095H
	DB	013H
	DB	094H
	DB	013H
	DB	095H
	DB	013H
	DB	094H
	DB	01bH
	DB	094H
	DB	013H
	DB	095H
	DB	013H
	DB	074H
	DB	01bH
	DB	094H
	DB	013H
	DB	074H
	DB	013H
	DB	074H
	DB	013H
	DB	074H
	DB	013H
	DB	074H
	DB	013H
	DB	074H
	DB	013H
	DB	074H
	DB	013H
	DB	074H
	DB	013H
	DB	074H
	DB	013H
	DB	074H
	DB	013H
	DB	074H
	DB	013H
	DB	075H
	DB	013H
	DB	075H
	DB	013H
	DB	075H
	DB	013H
	DB	074H
	DB	013H
	DB	075H
	DB	013H
	DB	095H
	DB	013H
	DB	095H
	DB	013H
	DB	095H
	DB	013H
	DB	095H
	DB	0bH
	DB	095H
	DB	013H
	DB	075H
	DB	013H
	DB	095H
	DB	0bH
	DB	075H
	DB	0bH
	DB	075H
	DB	013H
	DB	094H
	DB	013H
	DB	075H
	DB	0bH
	DB	095H
	DB	013H
	DB	074H
	DB	0bH
	DB	075H
	DB	0bH
	DB	075H
	DB	0bH
	DB	075H
	DB	0bH
	DB	075H
	DB	0bH
	DB	074H
	DB	013H
	DB	075H
	DB	0bH
	DB	074H
	DB	0bH
	DB	075H
	DB	013H
	DB	074H
	DB	0bH
	DB	074H
	DB	0bH
	DB	074H
	DB	0bH
	DB	055H
	DB	0bH
	DB	055H
	DB	0bH
	DB	074H
	DB	0bH
	DB	075H
	DB	0bH
	DB	055H
	DB	0bH
	DB	074H
	DB	0bH
	DB	075H
	DB	0bH
	DB	075H
	DB	03H
	DB	054H
	DB	0bH
	DB	074H
	DB	0bH
	DB	055H
	DB	03H
	DB	054H
	DB	03H
	DB	055H
	DB	0bH
	DB	055H
	DB	03H
	DB	075H
	DB	0bH
	DB	055H
	DB	0bH
	DB	055H
	DB	03H
	DB	054H
	DB	0bH
	DB	034H
	DB	03H
	DB	034H
	DB	03H
	DB	034H
	DB	0bH
	DB	054H
	DB	03H
	DB	034H
	DB	03H
	DB	054H
	DB	0bH
	DB	034H
	DB	03H
	DB	053H
	DB	03H
	DB	034H
	DB	0bH
	DB	054H
	DB	03H
	DB	034H
	DB	03H
	DB	054H
	DB	0bH
	DB	054H
	DB	03H
	DB	034H
	DB	03H
	DB	054H
	DB	0bH
	DB	054H
	DB	03H
	DB	034H
	DB	03H
	DB	054H
	DB	0bH
	DB	034H
	DB	03H
	DB	054H
	DB	03H
	DB	034H
	DB	0bH
	DB	034H
	DB	03H
	DB	054H
	DB	03H
	DB	054H
	DB	0bH
	DB	034H
	DB	03H
	DB	034H
	DB	03H
	DB	034H
	DB	0bH
	DB	034H
	DB	03H
	DB	034H
	DB	0bH
	DB	034H
	DB	03H
	DB	054H
	DB	03H
	DB	054H
	DB	03H
	DB	054H
	DB	03H
	DB	054H
	DB	03H
	DB	054H
	DB	0bH
	DB	054H
	DB	03H
	DB	055H
	DB	03H
	DB	054H
	DB	0bH
	DB	054H
	DB	03H
	DB	055H
	DB	03H
	DB	054H
	DB	0bH
	DB	054H
	DB	03H
	DB	055H
	DB	03H
	DB	034H
	DB	0bH
	DB	054H
	DB	03H
	DB	054H
	DB	03H
	DB	055H
	DB	0bH
	DB	034H
	DB	03H
	DB	054H
	DB	03H
	DB	054H
	DB	0bH
	DB	055H
	DB	03H
	DB	054H
	DB	03H
	DB	055H
	DB	0bH
	DB	055H
	DB	03H
	DB	054H
	DB	03H
	DB	054H
	DB	0bH
	DB	055H
	DB	03H
	DB	055H
	DB	03H
	DB	054H
	DB	0bH
	DB	054H
	DB	03H
	DB	034H
	DB	03H
	DB	054H
	DB	0bH
	DB	054H
	DB	0bH
	DB	054H
	DB	03H
	DB	054H
	DB	03H
	DB	054H
	DB	0bH
	DB	054H
	DB	03H
	DB	055H
	DB	0bH
	DB	054H
	DB	0bH
	DB	054H
	DB	0bH
	DB	055H
	DB	0bH
	DB	054H
	DB	0bH
	DB	054H
	DB	03H
	DB	055H
	DB	0bH
	DB	075H
	DB	0bH
	DB	074H
	DB	0bH
	DB	054H
	DB	0bH
	DB	055H
	DB	0bH
	DB	074H
	DB	0bH
	DB	075H
	DB	0bH
	DB	075H
	DB	0bH
	DB	074H
	DB	0bH
	DB	055H
	DB	0bH
	DB	075H
	DB	013H
	DB	074H
	DB	0bH
	DB	075H
	DB	0bH
	DB	074H
	DB	013H
	DB	075H
	DB	0bH
	DB	075H
	DB	0bH
	DB	094H
	DB	0bH
	DB	095H
	DB	013H
	DB	075H
	DB	0bH
	DB	075H
	DB	013H
	DB	095H
	DB	013H
	DB	074H
	DB	0bH
	DB	095H
	DB	013H
	DB	075H
	DB	013H
	DB	074H
	DB	013H
	DB	074H
	DB	013H
	DB	075H
	DB	013H
	DB	094H
	DB	013H
	DB	075H
	DB	0bH
	DB	075H
	DB	013H
	DB	075H
	DB	013H
	DB	094H
	DB	013H
	DB	095H
	DB	013H
	DB	094H
	DB	013H
	DB	095H
	DB	013H
	DB	075H
	DB	013H
	DB	094H
	DB	013H
	DB	095H
	DB	013H
	DB	095H
	DB	013H
	DB	095H
	DB	013H
	DB	075H
	DB	013H
	DB	095H
	DB	013H
	DB	095H
	DB	013H
	DB	094H
	DB	013H
	DB	095H
	DB	013H
	DB	075H
	DB	013H
	DB	095H
	DB	013H
	DB	095H
	DB	013H
	DB	095H
	DB	01bH
	DB	095H
	DB	013H
	DB	095H
	DB	013H
	DB	095H
	DB	01bH
	DB	095H
	DB	013H
	DB	095H
	DB	013H
	DB	095H
	DB	01bH
	DB	095H
	DB	013H
	DB	074H
	DB	01bH
	DB	074H
	DB	013H
	DB	095H
	DB	01bH
	DB	095H
	DB	013H
	DB	074H
	DB	013H
	DB	075H
	DB	01bH
	DB	074H
	DB	013H
	DB	075H
	DB	01bH
	DB	074H
	DB	013H
	DB	094H
	DB	01bH
	DB	095H
	DB	01bH
	DB	074H
	DB	013H
	DB	094H
	DB	01bH
	DB	074H
	DB	013H
	DB	074H
	DB	01bH
	DB	074H
	DB	01bH
	DB	094H
	DB	013H
	DB	074H
	DB	01bH
	DB	095H
	DB	01bH
	DB	095H
	DB	013H
	DB	095H
	DB	013H
	DB	095H
	DB	01bH
	DB	0b5H
	DB	01bH
	DB	0b5H
	DB	013H
	DB	096H
	DB	01bH
	DB	095H
	DB	013H
	DB	0b5H
	DB	013H
	DB	0b5H
	DB	01bH
	DB	095H
	DB	013H
	DB	095H
	DB	01bH
	DB	0b5H
	DB	01bH
	DB	0b5H
	DB	013H
	DB	095H
	DB	01bH
	DB	095H
	DB	01bH
	DB	0b5H
	DB	013H
	DB	095H
	DB	01bH
	DB	0b5H
	DB	01bH
	DB	0b6H
	DB	013H
	DB	0b6H
	DB	01bH
	DB	0b5H
	DB	01bH
	DB	095H
	DB	013H
	DB	0b6H
	DB	01bH
	DB	0b5H
	DB	01bH
	DB	0b5H
	DB	013H
	DB	0b5H
	DB	01bH
	DB	0b6H
	DB	013H
	DB	0b5H
	DB	01bH
	DB	095H
	DB	013H
	DB	095H
	DB	01bH
	DB	095H
	DB	013H
	DB	0b5H
	DB	01bH
	DB	095H
	DB	01bH
	DB	095H
	DB	01bH
	DB	095H
	DB	013H
	DB	095H
	DB	01bH
	DB	0b5H
	DB	01bH
	DB	0b5H
	DB	01bH
	DB	0b5H
	DB	01bH
	DB	095H
	DB	01bH
	DB	0b5H
	DB	01bH
	DB	0b5H
	DB	013H
	DB	095H
	DB	01bH
	DB	095H
	DB	01bH
	DB	0b5H
	DB	013H
	DB	095H
	DB	01bH
	DB	095H
	DB	01bH
	DB	0b5H
	DB	01bH
	DB	095H
	DB	01bH
	DB	095H
	DB	013H
	DB	0b5H
	DB	01bH
	DB	095H
	DB	013H
	DB	095H
	DB	01bH
	DB	0b5H
	DB	01bH
	DB	095H
	DB	01bH
	DB	095H
	DB	013H
	DB	095H
	DB	01bH
	DB	095H
	DB	01bH
	DB	095H
	DB	01bH
	DB	0b5H
	DB	013H
	DB	096H
	DB	01bH
	DB	0b5H
	DB	01bH
	DB	0b5H
	DB	013H
	DB	0b5H
	DB	01bH
	DB	0b6H
	DB	01bH
	DB	0d6H
	DB	01bH
	DB	0b5H
	DB	013H
	DB	0b5H
	DB	01bH
	DB	0b6H
	DB	01bH
	DB	0b6H
	DB	013H
	DB	0b5H
	DB	01bH
	DB	0b5H
	DB	01bH
	DB	0b6H
	DB	013H
	DB	0b5H
	DB	01bH
	DB	0b5H
	DB	01bH
	DB	0b5H
	DB	013H
	DB	095H
	DB	01bH
	DB	095H
	DB	01bH
	DB	095H
	DB	01bH
	DB	095H
	DB	01bH
	DB	095H
	DB	01bH
	DB	095H
	DB	013H
	DB	095H
	DB	01bH
	DB	095H
	DB	013H
	DB	095H
	DB	01bH
	DB	095H
	DB	013H
	DB	095H
	DB	013H
	DB	095H
	DB	01bH
	DB	095H
	DB	01bH
	DB	095H
	DB	013H
	DB	095H
	DB	013H
	DB	095H
	DB	01bH
	DB	094H
	DB	013H
	DB	095H
	DB	013H
	DB	095H
	DB	01bH
	DB	094H
	DB	013H
	DB	095H
	DB	01bH
	DB	095H
	DB	013H
	DB	094H
	DB	013H
	DB	095H
	DB	01bH
	DB	075H
	DB	013H
	DB	094H
	DB	01bH
	DB	094H
	DB	013H
	DB	075H
	DB	013H
	DB	095H
	DB	01bH
	DB	094H
	DB	013H
	DB	095H
	DB	01bH
	DB	095H
	DB	013H
	DB	095H
	DB	013H
	DB	095H
	DB	013H
	DB	095H
	DB	013H
	DB	075H
	DB	013H
	DB	075H
	DB	013H
	DB	095H
	DB	013H
	DB	095H
	DB	013H
	DB	094H
	DB	013H
	DB	075H
	DB	013H
	DB	095H
	DB	013H
	DB	095H
	DB	013H
	DB	094H
	DB	013H
	DB	095H
	DB	013H
	DB	075H
	DB	013H
	DB	094H
	DB	013H
	DB	095H
	DB	013H
	DB	094H
	DB	013H
	DB	095H
	DB	013H
	DB	094H
	DB	013H
	DB	074H
	DB	013H
	DB	074H
	DB	013H
	DB	075H
	DB	013H
	DB	075H
	DB	013H
	DB	074H
	DB	013H
	DB	074H
	DB	013H
	DB	074H
	DB	013H
	DB	075H
	DB	013H
	DB	075H
	DB	013H
	DB	075H
	DB	0bH
	DB	095H
	DB	013H
	DB	075H
	DB	013H
	DB	095H
	DB	0bH
	DB	095H
	DB	0bH
	DB	075H
	DB	013H
	DB	095H
	DB	013H
	DB	094H
	DB	013H
	DB	075H
	DB	0bH
	DB	095H
	DB	013H
	DB	074H
	DB	013H
	DB	075H
	DB	0bH
	DB	074H
	DB	0bH
	DB	075H
	DB	0bH
	DB	075H
	DB	013H
	DB	074H
	DB	0bH
	DB	075H
	DB	0bH
	DB	074H
	DB	0bH
	DB	074H
	DB	0bH
	DB	075H
	DB	0bH
	DB	054H
	DB	0bH
	DB	055H
	DB	0bH
	DB	075H
	DB	0bH
	DB	054H
	DB	0bH
	DB	075H
	DB	0bH
	DB	055H
	DB	0bH
	DB	074H
	DB	03H
	DB	055H
	DB	0bH
	DB	054H
	DB	0bH
	DB	074H
	DB	0bH
	DB	055H
	DB	0bH
	DB	055H
	DB	0bH
	DB	054H
	DB	03H
	DB	054H
	DB	0bH
	DB	054H
	DB	0bH
	DB	054H
	DB	03H
	DB	034H
	DB	03H
	DB	054H
	DB	0bH
	DB	054H
	DB	03H
	DB	034H
	DB	03H
	DB	034H
	DB	0bH
	DB	054H
	DB	03H
	DB	054H
	DB	03H
	DB	034H
	DB	0bH
	DB	054H
	DB	03H
	DB	034H
	DB	03H
	DB	034H
	DB	0bH
	DB	054H
	DB	03H
	DB	034H
	DB	03H
	DB	034H
	DB	0bH
	DB	054H
	DB	03H
	DB	034H
	DB	03H
	DB	054H
	DB	0bH
	DB	054H
	DB	03H
	DB	034H
	DB	03H
	DB	054H
	DB	0bH
	DB	054H
	DB	03H
	DB	034H
	DB	03H
	DB	034H
	DB	0bH
	DB	054H
	DB	03H
	DB	054H
	DB	03H
	DB	034H
	DB	0bH
	DB	034H
	DB	03H
	DB	034H
	DB	03H
	DB	054H
	DB	0bH
	DB	054H
	DB	03H
	DB	054H
	DB	03H
	DB	035H
	DB	0bH
	DB	054H
	DB	03H
	DB	035H
	DB	03H
	DB	034H
	DB	0bH
	DB	054H
	DB	03H
	DB	054H
	DB	03H
	DB	034H
	DB	0bH
	DB	055H
	DB	03H
	DB	054H
	DB	0bH
	DB	034H
	DB	0bH
	DB	054H
	DB	03H
	DB	054H
	DB	0bH
	DB	054H
	DB	03H
	DB	034H
	DB	0bH
	DB	054H
	DB	03H
	DB	054H
	DB	0bH
	DB	054H
	DB	03H
	DB	055H
	DB	0bH
	DB	054H
	DB	0bH
	DB	054H
	DB	03H
	DB	055H
	DB	0bH
	DB	074H
	DB	03H
	DB	054H
	DB	0bH
	DB	055H
	DB	03H
	DB	054H
	DB	0bH
	DB	054H
	DB	03H
	DB	055H
	DB	0bH
	DB	054H
	DB	03H
	DB	034H
	DB	03H
	DB	055H
	DB	0bH
	DB	054H
	DB	03H
	DB	054H
	DB	03H
	DB	054H
	DB	0bH
	DB	054H
	DB	0bH
	DB	054H
	DB	03H
	DB	054H
	DB	0bH
	DB	055H
	DB	0bH
	DB	054H
	DB	03H
	DB	054H
	DB	03H
	DB	054H
	DB	0bH
	DB	074H
	DB	0bH
	DB	054H
	DB	0bH
	DB	075H
	DB	0bH
	DB	074H
	DB	0bH
	DB	054H
	DB	0bH
	DB	075H
	DB	0bH
	DB	054H
	DB	0bH
	DB	074H
	DB	0bH
	DB	075H
	DB	0bH
	DB	075H
	DB	0bH
	DB	074H
	DB	0bH
	DB	075H
	DB	013H
	DB	054H
	DB	0bH
	DB	075H
	DB	0bH
	DB	075H
	DB	013H
	DB	074H
	DB	0bH
	DB	075H
	DB	0bH
	DB	075H
	DB	013H
	DB	075H
	DB	013H
	DB	094H
	DB	0bH
	DB	075H
	DB	013H
	DB	095H
	DB	0bH
	DB	095H
	DB	013H
	DB	075H
	DB	013H
	DB	074H
	DB	013H
	DB	074H
	DB	0bH
	DB	075H
	DB	013H
	DB	095H
	DB	0bH
	DB	074H
	DB	013H
	DB	074H
	DB	013H
	DB	094H
	DB	0bH
	DB	075H
	DB	013H
	DB	095H
	DB	013H
	DB	095H
	DB	013H
	DB	095H
	DB	013H
	DB	095H
	DB	013H
	DB	094H
	DB	013H
	DB	095H
	DB	013H
	DB	075H
	DB	013H
	DB	095H
	DB	013H
	DB	095H
	DB	013H
	DB	094H
	DB	013H
	DB	095H
	DB	013H
	DB	095H
	DB	013H
	DB	095H
	DB	013H
	DB	095H
	DB	013H
	DB	095H
	DB	013H
	DB	095H
	DB	013H
	DB	095H
	DB	01bH
	DB	095H
	DB	013H
	DB	095H
	DB	013H
	DB	095H
	DB	013H
	DB	095H
	DB	013H
	DB	095H
	DB	013H
	DB	095H
	DB	01bH
	DB	095H
	DB	01bH
	DB	095H
	DB	013H
	DB	094H
	DB	01bH
	DB	074H
	DB	013H
	DB	094H
	DB	01bH
	DB	094H
	DB	01bH
	DB	074H
	DB	013H
	DB	075H
	DB	01bH
	DB	094H
	DB	013H
	DB	074H
	DB	01bH
	DB	094H
	DB	013H
	DB	095H
	DB	013H
	DB	094H
	DB	01bH
	DB	094H
	DB	01bH
	DB	094H
	DB	01bH
	DB	094H
	DB	01bH
	DB	095H
	DB	013H
	DB	074H
	DB	01bH
	DB	094H
	DB	01bH
	DB	095H
	DB	013H
	DB	075H
	DB	01bH
	DB	074H
	DB	01bH
	DB	095H
	DB	01bH
	DB	095H
	DB	013H
	DB	095H
	DB	01bH
	DB	095H
	DB	01bH
	DB	095H
	DB	01bH
	DB	095H
	DB	013H
	DB	0b5H
	DB	01bH
	DB	096H
	DB	01bH
	DB	095H
	DB	013H
	DB	0b5H
	DB	01bH
	DB	0b5H
	DB	01bH
	DB	095H
	DB	013H
	DB	0b5H
	DB	01bH
	DB	095H
	DB	01bH
	DB	0b5H
	DB	013H
	DB	095H
	DB	01bH
	DB	0b5H
	DB	01bH
	DB	0b5H
	DB	01bH
	DB	0b5H
	DB	013H
	DB	0b5H
	DB	01bH
	DB	0b6H
	DB	01bH
	DB	0b5H
	DB	01bH
	DB	0b5H
	DB	013H
	DB	0b5H
	DB	01bH
	DB	0b5H
	DB	01bH
	DB	0b6H
	DB	013H
	DB	0b5H
	DB	01bH
	DB	095H
	DB	01bH
	DB	0b5H
	DB	01bH
	DB	095H
	DB	01bH
	DB	095H
	DB	013H
	DB	095H
	DB	01bH
	DB	0b5H
	DB	01bH
	DB	095H
	DB	01bH
	DB	095H
	DB	01bH
	DB	0b5H
	DB	01bH
	DB	0b5H
	DB	013H
	DB	095H
	DB	01bH
	DB	095H
	DB	01bH
	DB	0b5H
	DB	013H
	DB	095H
	DB	01bH
	DB	095H
	DB	01bH
	DB	0b5H
	DB	01bH
	DB	095H
	DB	013H
	DB	0b5H
	DB	01bH
	DB	095H
	DB	01bH
	DB	0b5H
	DB	01bH
	DB	0b5H
	DB	01bH
	DB	095H
	DB	01bH
	DB	095H
	DB	01bH
	DB	0b5H
	DB	013H
	DB	0b5H
	DB	01bH
	DB	095H
	DB	01bH
	DB	0b5H
	DB	01bH
	DB	095H
	DB	013H
	DB	095H
	DB	01bH
	DB	0b5H
	DB	01bH
	DB	095H
	DB	01bH
	DB	095H
	DB	013H
	DB	0b5H
	DB	01bH
	DB	0b5H
	DB	01bH
	DB	096H
	DB	01bH
	DB	0b5H
	DB	013H
	DB	0b5H
	DB	01bH
	DB	0b6H
	DB	01bH
	DB	0b6H
	DB	013H
	DB	0b6H
	DB	01bH
	DB	0b5H
	DB	01bH
	DB	0b5H
	DB	01bH
	DB	0b5H
	DB	013H
	DB	0b5H
	DB	01bH
	DB	0b6H
	DB	01bH
	DB	0b5H
	DB	013H
	DB	0b5H
	DB	01bH
	DB	095H
	DB	01bH
	DB	095H
	DB	013H
	DB	0b5H
	DB	01bH
	DB	095H
	DB	013H
	DB	095H
	DB	013H
	DB	095H
	DB	01bH
	DB	095H
	DB	013H
	DB	095H
	DB	013H
	DB	0b5H
	DB	01bH
	DB	095H
	DB	013H
	DB	095H
	DB	01bH
	DB	0b5H
	DB	01bH
	DB	095H
	DB	013H
	DB	095H
	DB	013H
	DB	0b4H
	DB	01bH
	DB	095H
	DB	01bH
	DB	095H
	DB	01bH
	DB	095H
	DB	013H
	DB	094H
	DB	01bH
	DB	095H
	DB	01bH
	DB	095H
	DB	013H
	DB	095H
	DB	013H
	DB	095H
	DB	01bH
	DB	095H
	DB	01bH
	DB	074H
	DB	013H
	DB	095H
	DB	013H
	DB	095H
	DB	01bH
	DB	095H
	DB	013H
	DB	095H
	DB	013H
	DB	094H
	DB	01bH
	DB	094H
	DB	013H
	DB	095H
	DB	01bH
	DB	094H
	DB	013H
	DB	094H
	DB	013H
	DB	095H
	DB	01bH
	DB	095H
	DB	01bH
	DB	094H
	DB	013H
	DB	094H
	DB	013H
	DB	095H
	DB	01bH
	DB	095H
	DB	013H
	DB	094H
	DB	013H
	DB	095H
	DB	013H
	DB	095H
	DB	013H
	DB	095H
	DB	013H
	DB	095H
	DB	013H
	DB	074H
	DB	013H
	DB	095H
	DB	013H
	DB	095H
	DB	013H
	DB	075H
	DB	013H
	DB	075H
	DB	013H
	DB	095H
	DB	013H
	DB	075H
	DB	013H
	DB	095H
	DB	013H
	DB	095H
	DB	013H
	DB	074H
	DB	013H
	DB	074H
	DB	013H
	DB	074H
	DB	013H
	DB	074H
	DB	013H
	DB	054H
	DB	013H
	DB	054H
	DB	013H
	DB	054H
	DB	013H
	DB	054H
	DB	013H
	DB	054H
	DB	013H
	DB	074H
	DB	013H
	DB	074H
	DB	013H
	DB	074H
	DB	0bH
	DB	075H
	DB	013H
	DB	075H
	DB	0bH
	DB	095H
	DB	013H
	DB	095H
	DB	0bH
	DB	095H
	DB	013H
	DB	074H
	DB	0bH
	DB	075H
	DB	0bH
	DB	075H
	DB	013H
	DB	075H
	DB	0bH
	DB	074H
	DB	013H
	DB	075H
	DB	0bH
	DB	075H
	DB	0bH
	DB	075H
	DB	0bH
	DB	075H
	DB	0bH
	DB	074H
	DB	0bH
	DB	075H
	DB	0bH
	DB	054H
	DB	0bH
	DB	074H
	DB	0bH
	DB	075H
	DB	0bH
	DB	075H
	DB	0bH
	DB	054H
	DB	0bH
	DB	054H
	DB	0bH
	DB	075H
	DB	0bH
	DB	075H
	DB	0bH
	DB	054H
	DB	0bH
	DB	074H
	DB	0bH
	DB	075H
	DB	0bH
	DB	054H
	DB	03H
	DB	054H
	DB	0bH
	DB	054H
	DB	03H
	DB	054H
	DB	03H
	DB	054H
	DB	0bH
	DB	034H
	DB	0bH
	DB	054H
	DB	03H
	DB	054H
	DB	0bH
	DB	034H
	DB	03H
	DB	054H
	DB	0bH
	DB	033H
	DB	03H
	DB	034H
	DB	0bH
	DB	054H
	DB	0bH
	DB	054H
	DB	03H
	DB	034H
	DB	0bH
	DB	054H
	DB	03H
	DB	054H
	DB	0bH
	DB	034H
	DB	03H
	DB	054H
	DB	0bH
	DB	034H
	DB	03H
	DB	034H
	DB	0bH
	DB	054H
	DB	0bH
	DB	034H
	DB	03H
	DB	034H
	DB	0bH
	DB	054H
	DB	03H
	DB	034H
	DB	0bH
	DB	054H
	DB	03H
	DB	034H
	DB	0bH
	DB	034H
	DB	03H
	DB	034H
	DB	0bH
	DB	033H
	DB	0bH
	DB	033H
	DB	03H
	DB	034H
	DB	03H
	DB	054H
	DB	0bH
	DB	034H
	DB	03H
	DB	054H
	DB	03H
	DB	054H
	DB	0bH
	DB	054H
	DB	0bH
	DB	055H
	DB	03H
	DB	054H
	DB	03H
	DB	054H
	DB	0bH
	DB	035H
	DB	03H
	DB	054H
	DB	03H
	DB	054H
	DB	0bH
	DB	034H
	DB	03H
	DB	055H
	DB	03H
	DB	054H
	DB	03H
	DB	034H
	DB	03H
	DB	055H
	DB	0bH
	DB	055H
	DB	03H
	DB	034H
	DB	03H
	DB	054H
	DB	03H
	DB	055H
	DB	0bH
	DB	034H
	DB	03H
	DB	054H
	DB	03H
	DB	054H
	DB	03H
	DB	055H
	DB	03H
	DB	055H
	DB	0bH
	DB	074H
	DB	03H
	DB	055H
	DB	03H
	DB	055H
	DB	03H
	DB	054H
	DB	0bH
	DB	054H
	DB	03H
	DB	054H
	DB	0bH
	DB	034H
	DB	03H
	DB	054H
	DB	0bH
	DB	054H
	DB	0bH
	DB	055H
	DB	03H
	DB	055H
	DB	03H
	DB	054H
	DB	0bH
	DB	054H
	DB	0bH
	DB	055H
	DB	0bH
	DB	054H
	DB	0bH
	DB	054H
	DB	0bH
	DB	055H
	DB	0bH
	DB	074H
	DB	0bH
	DB	054H
	DB	0bH
	DB	075H
	DB	0bH
	DB	054H
	DB	0bH
	DB	054H
	DB	0bH
	DB	075H
	DB	0bH
	DB	074H
	DB	0bH
	DB	075H
	DB	0bH
	DB	074H
	DB	0bH
	DB	054H
	DB	0bH
	DB	075H
	DB	0bH
	DB	075H
	DB	013H
	DB	074H
	DB	013H
	DB	075H
	DB	0bH
	DB	075H
	DB	0bH
	DB	074H
	DB	013H
	DB	075H
	DB	0bH
	DB	095H
	DB	013H
	DB	075H
	DB	013H
	DB	095H
	DB	0bH
	DB	075H
	DB	0bH
	DB	074H
	DB	013H
	DB	095H
	DB	013H
	DB	074H
	DB	0bH
	DB	075H
	DB	0bH
	DB	074H
	DB	013H
	DB	075H
	DB	013H
	DB	074H
	DB	0bH
	DB	075H
	DB	013H
	DB	075H
	DB	013H
	DB	075H
	DB	013H
	DB	075H
	DB	013H
	DB	094H
	DB	013H
	DB	095H
	DB	013H
	DB	075H
	DB	013H
	DB	094H
	DB	013H
	DB	075H
	DB	013H
	DB	095H
	DB	013H
	DB	095H
	DB	013H
	DB	094H
	DB	013H
	DB	095H
	DB	013H
	DB	095H
	DB	013H
	DB	095H
	DB	013H
	DB	095H
	DB	013H
	DB	095H
	DB	013H
	DB	095H
	DB	013H
	DB	095H
	DB	013H
	DB	095H
	DB	013H
	DB	095H
	DB	013H
	DB	095H
	DB	013H
	DB	095H
	DB	013H
	DB	095H
	DB	01bH
	DB	095H
	DB	013H
	DB	095H
	DB	013H
	DB	095H
	DB	01bH
	DB	095H
	DB	013H
	DB	095H
	DB	013H
	DB	094H
	DB	01bH
	DB	074H
	DB	013H
	DB	075H
	DB	013H
	DB	075H
	DB	01bH
	DB	094H
	DB	013H
	DB	094H
	DB	01bH
	DB	075H
	DB	013H
	DB	074H
	DB	01bH
	DB	074H
	DB	01bH
	DB	094H
	DB	01bH
	DB	074H
	DB	01bH
	DB	075H
	DB	013H
	DB	074H
	DB	013H
	DB	074H
	DB	01bH
	DB	075H
	DB	013H
	DB	094H
	DB	01bH
	DB	075H
	DB	01bH
	DB	075H
	DB	013H
	DB	094H
	DB	01bH
	DB	094H
	DB	01bH
	DB	075H
	DB	013H
	DB	074H
	DB	01bH
	DB	074H
	DB	01bH
	DB	094H
	DB	01bH
	DB	095H
	DB	01bH
	DB	095H
	DB	01bH
	DB	095H
	DB	01bH
	DB	095H
	DB	01bH
	DB	0b5H
	DB	013H
	DB	095H
	DB	01bH
	DB	0b5H
	DB	01bH
	DB	096H
	DB	013H
	DB	0b6H
	DB	01bH
	DB	0b5H
	DB	01bH
	DB	0b6H
	DB	01bH
	DB	0b5H
	DB	013H
	DB	0b6H
	DB	013H
	DB	0b5H
	DB	01bH
	DB	0b5H
	DB	01bH
	DB	095H
	DB	013H
	DB	0b5H
	DB	01bH
	DB	0b5H
	DB	01bH
	DB	0b6H
	DB	01bH
	DB	0b5H
	DB	013H
	DB	0b6H
	DB	01bH
	DB	0b5H
	DB	01bH
	DB	0b5H
	DB	01bH
	DB	0b5H
	DB	013H
	DB	095H
	DB	01bH
	DB	095H
	DB	01bH
	DB	095H
	DB	013H
	DB	0b5H
	DB	01bH
	DB	095H
	DB	01bH
	DB	095H
	DB	013H
	DB	0b4H
	DB	013H
	DB	095H
	DB	01bH
	DB	0b5H
	DB	01bH
	DB	095H
	DB	013H
	DB	095H
	DB	01bH
	DB	0b5H
	DB	01bH
	DB	0b5H
	DB	013H
	DB	095H
	DB	01bH
	DB	0b5H
	DB	01bH
	DB	0b5H
	DB	01bH
	DB	095H
	DB	01bH
	DB	0b5H
	DB	01bH
	DB	095H
	DB	013H
	DB	095H
	DB	013H
	DB	0b5H
	DB	01bH
	DB	0b5H
	DB	01bH
	DB	095H
	DB	01bH
	DB	0b5H
	DB	01bH
	DB	095H
	DB	01bH
	DB	0b5H
	DB	013H
	DB	0b5H
	DB	013H
	DB	095H
	DB	01bH
	DB	0b5H
	DB	01bH
	DB	0b5H
	DB	01bH
	DB	0b5H
	DB	013H
	DB	095H
	DB	01bH
	DB	0b5H
	DB	01bH
	DB	095H
	DB	013H
	DB	0b5H
	DB	01bH
	DB	0b5H
	DB	01bH
	DB	0b6H
	DB	01bH
	DB	0b5H
	DB	01bH
	DB	0b6H
	DB	01bH
	DB	0b6H
	DB	01bH
	DB	0b5H
	DB	013H
	DB	0b5H
	DB	013H
	DB	0b5H
	DB	01bH
	DB	0b6H
	DB	01bH
	DB	0b5H
	DB	013H
	DB	095H
	DB	01bH
	DB	095H
	DB	01bH
	DB	095H
	DB	013H
	DB	095H
	DB	01bH
	DB	095H
	DB	01bH
	DB	0b5H
	DB	013H
	DB	095H
	DB	01bH
	DB	0b5H
	DB	01bH
	DB	0b5H
	DB	013H
	DB	095H
	DB	01bH
	DB	095H
	DB	01bH
	DB	095H
	DB	01bH
	DB	0b5H
	DB	013H
	DB	095H
	DB	01bH
	DB	095H
	DB	01bH
	DB	095H
	DB	013H
	DB	0b5H
	DB	013H
	DB	094H
	DB	01bH
	DB	095H
	DB	013H
	DB	0b5H
	DB	013H
	DB	095H
	DB	01bH
	DB	094H
	DB	01bH
	DB	095H
	DB	013H
	DB	095H
	DB	01bH
	DB	094H
	DB	013H
	DB	095H
	DB	013H
	DB	095H
	DB	01bH
	DB	095H
	DB	01bH
	DB	094H
	DB	013H
	DB	095H
	DB	013H
	DB	095H
	DB	01bH
	DB	095H
	DB	013H
	DB	095H
	DB	013H
	DB	095H
	DB	013H
	DB	095H
	DB	013H
	DB	094H
	DB	01bH
	DB	095H
	DB	013H
	DB	094H
	DB	013H
	DB	095H
	DB	013H
	DB	095H
	DB	01bH
	DB	094H
	DB	013H
	DB	094H
	DB	013H
	DB	075H
	DB	013H
	DB	094H
	DB	01bH
	DB	074H
	DB	013H
	DB	095H
	DB	013H
	DB	074H
	DB	013H
	DB	095H
	DB	013H
	DB	094H
	DB	013H
	DB	095H
	DB	013H
	DB	075H
	DB	013H
	DB	074H
	DB	013H
	DB	095H
	DB	013H
	DB	074H
	DB	013H
	DB	074H
	DB	013H
	DB	075H
	DB	013H
	DB	074H
	DB	013H
	DB	074H
	DB	013H
	DB	074H
	DB	013H
	DB	074H
	DB	013H
	DB	074H
	DB	013H
	DB	054H
	DB	013H
	DB	053H
	DB	013H
	DB	054H
	DB	013H
	DB	054H
	DB	013H
	DB	054H
	DB	013H
	DB	054H
	DB	013H
	DB	074H
	DB	013H
	DB	074H
	DB	013H
	DB	074H
	DB	013H
	DB	074H
	DB	0bH
	DB	075H
	DB	013H
	DB	075H
	DB	0bH
	DB	095H
	DB	013H
	DB	095H
	DB	0bH
	DB	074H
	DB	0bH
	DB	095H
	DB	013H
	DB	075H
	DB	0bH
	DB	074H
	DB	0bH
	DB	074H
	DB	013H
	DB	075H
	DB	0bH
	DB	075H
	DB	0bH
	DB	075H
	DB	0bH
	DB	074H
	DB	0bH
	DB	075H
	DB	0bH
	DB	074H
	DB	0bH
	DB	075H
	DB	0bH
	DB	075H
	DB	0bH
	DB	054H
	DB	0bH
	DB	075H
	DB	0bH
	DB	074H
	DB	0bH
	DB	055H
	DB	03H
	DB	055H
	DB	03H
	DB	054H
	DB	03H
	DB	055H
	DB	0bH
	DB	054H
	DB	03H
	DB	054H
	DB	0bH
	DB	054H
	DB	0bH
	DB	054H
	DB	03H
	DB	054H
	DB	0bH
	DB	054H
	DB	0bH
	DB	034H
	DB	03H
	DB	034H
	DB	03H
	DB	054H
	DB	0bH
	DB	054H
	DB	03H
	DB	034H
	DB	03H
	DB	034H
	DB	03H
	DB	054H
	DB	03H
	DB	034H
	DB	03H
	DB	034H
	DB	0bH
	DB	054H
	DB	03H
	DB	034H
	DB	03H
	DB	054H
	DB	0bH
	DB	054H
	DB	03H
	DB	034H
	DB	03H
	DB	054H
	DB	03H
	DB	054H
	DB	03H
	DB	034H
	DB	03H
	DB	054H
	DB	0bH
	DB	034H
	DB	03H
	DB	054H
	DB	03H
	DB	034H
	DB	0bH
	DB	054H
	DB	03H
	DB	034H
	DB	03H
	DB	033H
	DB	0bH
	DB	013H
	DB	03H
	DB	034H
	DB	03H
	DB	054H
	DB	0bH
	DB	054H
	DB	03H
	DB	034H
	DB	03H
	DB	054H
	DB	03H
	DB	034H
	DB	03H
	DB	054H
	DB	0bH
	DB	054H
	DB	03H
	DB	054H
	DB	03H
	DB	035H
	DB	0bH
	DB	054H
	DB	03H
	DB	054H
	DB	03H
	DB	054H
	DB	0bH
	DB	055H
	DB	03H
	DB	054H
	DB	03H
	DB	054H
	DB	0bH
	DB	054H
	DB	03H
	DB	054H
	DB	03H
	DB	054H
	DB	0bH
	DB	055H
	DB	03H
	DB	034H
	DB	0bH
	DB	054H
	DB	03H
	DB	054H
	DB	03H
	DB	054H
	DB	0bH
	DB	054H
	DB	03H
	DB	055H
	DB	0bH
	DB	054H
	DB	03H
	DB	054H
	DB	0bH
	DB	055H
	DB	03H
	DB	055H
	DB	0bH
	DB	054H
	DB	03H
	DB	034H
	DB	03H
	DB	054H
	DB	0bH
	DB	054H
	DB	03H
	DB	054H
	DB	03H
	DB	054H
	DB	0bH
	DB	054H
	DB	0bH
	DB	054H
	DB	03H
	DB	054H
	DB	0bH
	DB	055H
	DB	0bH
	DB	054H
	DB	03H
	DB	054H
	DB	0bH
	DB	054H
	DB	0bH
	DB	054H
	DB	0bH
	DB	055H
	DB	0bH
	DB	054H
	DB	0bH
	DB	075H
	DB	0bH
	DB	074H
	DB	0bH
	DB	055H
	DB	0bH
	DB	074H
	DB	0bH
	DB	075H
	DB	0bH
	DB	075H
	DB	0bH
	DB	074H
	DB	0bH
	DB	075H
	DB	0bH
	DB	055H
	DB	0bH
	DB	074H
	DB	0bH
	DB	075H
	DB	0bH
	DB	075H
	DB	0bH
	DB	074H
	DB	013H
	DB	075H
	DB	0bH
	DB	074H
	DB	0bH
	DB	075H
	DB	013H
	DB	094H
	DB	0bH
	DB	095H
	DB	013H
	DB	075H
	DB	013H
	DB	095H
	DB	0bH
	DB	095H
	DB	013H
	DB	074H
	DB	013H
	DB	074H
	DB	0bH
	DB	095H
	DB	013H
	DB	075H
	DB	013H
	DB	074H
	DB	013H
	DB	094H
	DB	013H
	DB	074H
	DB	0bH
	DB	095H
	DB	013H
	DB	095H
	DB	013H
	DB	095H
	DB	013H
	DB	094H
	DB	013H
	DB	095H
	DB	013H
	DB	075H
	DB	013H
	DB	094H
	DB	013H
	DB	095H
	DB	013H
	DB	095H
	DB	013H
	DB	074H
	DB	013H
	DB	095H
	DB	013H
	DB	095H
	DB	013H
	DB	094H
	DB	013H
	DB	095H
	DB	013H
	DB	095H
	DB	013H
	DB	095H
	DB	013H
	DB	095H
	DB	013H
	DB	095H
	DB	01bH
	DB	095H
	DB	013H
	DB	095H
	DB	013H
	DB	095H
	DB	01bH
	DB	095H
	DB	013H
	DB	095H
	DB	01bH
	DB	095H
	DB	013H
	DB	095H
	DB	013H
	DB	095H
	DB	013H
	DB	074H
	DB	01bH
	DB	074H
	DB	01bH
	DB	074H
	DB	013H
	DB	074H
	DB	01bH
	DB	095H
	DB	013H
	DB	074H
	DB	013H
	DB	095H
	DB	01bH
	DB	094H
	DB	01bH
	DB	074H
	DB	013H
	DB	095H
	DB	01bH
	DB	074H
	DB	01bH
	DB	094H
	DB	013H
	DB	094H
	DB	01bH
	DB	075H
	DB	01bH
	DB	095H
	DB	013H
	DB	074H
	DB	01bH
	DB	094H
	DB	01bH
	DB	095H
	DB	01bH
	DB	074H
	DB	013H
	DB	074H
	DB	01bH
	DB	095H
	DB	01bH
	DB	094H
	DB	01bH
	DB	095H
	DB	01bH
	DB	094H
	DB	013H
	DB	094H
	DB	01bH
	DB	094H
	DB	013H
	DB	094H
	DB	01bH
	DB	094H
	DB	01bH
	DB	095H
	DB	013H
	DB	095H
	DB	01bH
	DB	095H
	DB	01bH
	DB	0b5H
	DB	013H
	DB	0b5H
	DB	01bH
	DB	0b5H
	DB	01bH
	DB	0b5H
	DB	01bH
	DB	0b5H
	DB	01bH
	DB	0b6H
	DB	013H
	DB	095H
	DB	01bH
	DB	0b5H
	DB	01bH
	DB	0b6H
	DB	01bH
	DB	0b6H
	DB	013H
	DB	0b5H
	DB	01bH
	DB	0b5H
	DB	01bH
	DB	0b5H
	DB	013H
	DB	0b6H
	DB	01bH
	DB	0b5H
	DB	01bH
	DB	0b5H
	DB	01bH
	DB	0b5H
	DB	01bH
	DB	095H
	DB	01bH
	DB	095H
	DB	013H
	DB	095H
	DB	01bH
	DB	0b5H
	DB	01bH
	DB	095H
	DB	01bH
	DB	095H
	DB	01bH
	DB	0b5H
	DB	01bH
	DB	095H
	DB	01bH
	DB	0b5H
	DB	01bH
	DB	095H
	DB	01bH
	DB	0b5H
	DB	01bH
	DB	0b5H
	DB	01bH
	DB	095H
	DB	01bH
	DB	095H
	DB	01bH
	DB	0b5H
	DB	013H
	DB	095H
	DB	01bH
	DB	095H
	DB	013H
	DB	0b5H
	DB	01bH
	DB	0b5H
	DB	01bH
	DB	095H
	DB	01bH
	DB	095H
	DB	01bH
	DB	0b5H
	DB	013H
	DB	095H
	DB	013H
	DB	0b5H
	DB	01bH
	DB	095H
	DB	01bH
	DB	095H
	DB	01bH
	DB	0b5H
	DB	01bH
	DB	095H
	DB	01bH
	DB	095H
	DB	01bH
	DB	0b5H
	DB	013H
	DB	095H
	DB	01bH
	DB	095H
	DB	01bH
	DB	0b5H
	DB	01bH
	DB	095H
	DB	01bH
	DB	095H
	DB	013H
	DB	0b5H
	DB	01bH
	DB	095H
	DB	01bH
	DB	095H
	DB	013H
	DB	0b5H
	DB	01bH
	DB	0b5H
	DB	01bH
	DB	0b5H
	DB	013H
	DB	0b5H
	DB	01bH
	DB	0b5H
	DB	01bH
	DB	095H
	DB	01bH
	DB	095H
	DB	013H
	DB	095H
	DB	01bH
	DB	0b5H
	DB	01bH
	DB	095H
	DB	013H
	DB	0b5H
	DB	01bH
	DB	0b5H
	DB	01bH
	DB	095H
	DB	013H
	DB	0b5H
	DB	01bH
	DB	0b5H
	DB	01bH
	DB	095H
	DB	013H
	DB	095H
	DB	01bH
	DB	095H
	DB	01bH
	DB	0b5H
	DB	013H
	DB	095H
	DB	01bH
	DB	095H
	DB	013H
	DB	0b5H
	DB	01bH
	DB	094H
	DB	01bH
	DB	095H
	DB	013H
	DB	095H
	DB	01bH
	DB	094H
	DB	013H
	DB	095H
	DB	01bH
	DB	095H
	DB	013H
	DB	095H
	DB	013H
	DB	095H
	DB	01bH
	DB	094H
	DB	013H
	DB	095H
	DB	01bH
	DB	095H
	DB	01bH
	DB	094H
	DB	013H
	DB	095H
	DB	01bH
	DB	095H
	DB	01bH
	DB	095H
	DB	013H
	DB	094H
	DB	01bH
	DB	095H
	DB	01bH
	DB	095H
	DB	013H
	DB	094H
	DB	01bH
	DB	095H
	DB	01bH
	DB	095H
	DB	013H
	DB	095H
	DB	013H
	DB	094H
	DB	01bH
	DB	095H
	DB	013H
	DB	095H
	DB	013H
	DB	095H
	DB	013H
	DB	094H
	DB	01bH
	DB	095H
	DB	013H
	DB	095H
	DB	013H
	DB	095H
	DB	01bH
	DB	095H
	DB	013H
	DB	094H
	DB	01bH
	DB	095H
	DB	013H
	DB	095H
	DB	013H
	DB	075H
	DB	013H
	DB	075H
	DB	013H
	DB	094H
	DB	013H
	DB	095H
	DB	013H
	DB	075H
	DB	013H
	DB	074H
	DB	013H
	DB	074H
	DB	013H
	DB	074H
	DB	013H
	DB	074H
	DB	013H
	DB	074H
	DB	013H
	DB	074H
	DB	013H
	DB	074H
	DB	013H
	DB	054H
	DB	013H
	DB	054H
	DB	013H
	DB	054H
	DB	013H
	DB	054H
	DB	0bH
	DB	054H
	DB	013H
	DB	054H
	DB	013H
	DB	054H
	DB	013H
	DB	054H
	DB	0bH
	DB	054H
	DB	013H
	DB	054H
	DB	013H
	DB	054H
	DB	013H
	DB	054H
	DB	013H
	DB	074H
	DB	013H
	DB	074H
	DB	0bH
	DB	074H
	DB	013H
	DB	075H
	DB	013H
	DB	095H
	DB	0bH
	DB	075H
	DB	0bH
	DB	074H
	DB	013H
	DB	075H
	DB	0bH
	DB	074H
	DB	0bH
	DB	075H
	DB	013H
	DB	054H
	DB	0bH
	DB	075H
	DB	0bH
	DB	075H
	DB	0bH
	DB	054H
	DB	0bH
	DB	074H
	DB	0bH
	DB	075H
	DB	0bH
	DB	075H
	DB	0bH
	DB	075H
	DB	0bH
	DB	054H
	DB	0bH
	DB	075H
	DB	0bH
	DB	074H
	DB	0bH
	DB	075H
	DB	0bH
	DB	054H
	DB	0bH
	DB	054H
	DB	0bH
	DB	054H
	DB	03H
	DB	054H
	DB	0bH
	DB	054H
	DB	0bH
	DB	054H
	DB	03H
	DB	054H
	DB	03H
	DB	034H
	DB	03H
	DB	034H
	DB	0bH
	DB	053H
	DB	03H
	DB	034H
	DB	03H
	DB	054H
	DB	0bH
	DB	054H
	DB	0bH
	DB	034H
	DB	03H
	DB	054H
	DB	03H
	DB	054H
	DB	0bH
	DB	034H
	DB	03H
	DB	034H
	DB	03H
	DB	054H
	DB	0bH
	DB	034H
	DB	03H
	DB	034H
	DB	0bH
	DB	054H
	DB	0bH
	DB	034H
	DB	03H
	DB	054H
	DB	03H
	DB	034H
	DB	0bH
	DB	054H
	DB	03H
	DB	034H
	DB	03H
	DB	054H
	DB	0bH
	DB	034H
	DB	0bH
	DB	033H
	DB	03H
	DB	033H
	DB	03H
	DB	034H
	DB	0bH
	DB	034H
	DB	03H
	DB	034H
	DB	0bH
	DB	034H
	DB	03H
	DB	054H
	DB	03H
	DB	054H
	DB	03H
	DB	055H
	DB	03H
	DB	034H
	DB	0bH
	DB	055H
	DB	03H
	DB	055H
	DB	0bH
	DB	034H
	DB	03H
	DB	055H
	DB	0bH
	DB	054H
	DB	03H
	DB	055H
	DB	03H
	DB	054H
	DB	0bH
	DB	035H
	DB	0bH
	DB	055H
	DB	03H
	DB	035H
	DB	0bH
	DB	054H
	DB	03H
	DB	054H
	DB	0bH
	DB	034H
	DB	03H
	DB	055H
	DB	03H
	DB	054H
	DB	0bH
	DB	035H
	DB	03H
	DB	054H
	DB	0bH
	DB	054H
	DB	03H
	DB	055H
	DB	03H
	DB	054H
	DB	0bH
	DB	054H
	DB	03H
	DB	055H
	DB	03H
	DB	054H
	DB	0bH
	DB	034H
	DB	03H
	DB	054H
	DB	03H
	DB	055H
	DB	0bH
	DB	034H
	DB	0bH
	DB	054H
	DB	03H
	DB	054H
	DB	03H
	DB	055H
	DB	0bH
	DB	054H
	DB	0bH
	DB	054H
	DB	03H
	DB	054H
	DB	0bH
	DB	054H
	DB	0bH
	DB	055H
	DB	03H
	DB	074H
	DB	0bH
	DB	075H
	DB	0bH
	DB	074H
	DB	0bH
	DB	054H
	DB	0bH
	DB	074H
	DB	0bH
	DB	055H
	DB	0bH
	DB	074H
	DB	0bH
	DB	074H
	DB	0bH
	DB	055H
	DB	0bH
	DB	075H
	DB	0bH
	DB	074H
	DB	013H
	DB	055H
	DB	0bH
	DB	075H
	DB	013H
	DB	074H
	DB	013H
	DB	075H
	DB	0bH
	DB	074H
	DB	0bH
	DB	075H
	DB	013H
	DB	075H
	DB	013H
	DB	075H
	DB	0bH
	DB	075H
	DB	0bH
	DB	074H
	DB	013H
	DB	075H
	DB	013H
	DB	095H
	DB	0bH
	DB	075H
	DB	013H
	DB	095H
	DB	013H
	DB	074H
	DB	013H
	DB	074H
	DB	013H
	DB	075H
	DB	013H
	DB	074H
	DB	0bH
	DB	095H
	DB	013H
	DB	075H
	DB	013H
	DB	095H
	DB	013H
	DB	094H
	DB	013H
	DB	075H
	DB	013H
	DB	095H
	DB	013H
	DB	095H
	DB	013H
	DB	095H
	DB	013H
	DB	095H
	DB	013H
	DB	095H
	DB	013H
	DB	075H
	DB	013H
	DB	095H
	DB	013H
	DB	095H
	DB	013H
	DB	095H
	DB	013H
	DB	095H
	DB	013H
	DB	095H
	DB	013H
	DB	095H
	DB	013H
	DB	095H
	DB	013H
	DB	095H
	DB	013H
	DB	095H
	DB	01bH
	DB	095H
	DB	013H
	DB	095H
	DB	013H
	DB	095H
	DB	01bH
	DB	095H
	DB	013H
	DB	095H
	DB	013H
	DB	095H
	DB	01bH
	DB	095H
	DB	013H
	DB	095H
	DB	01bH
	DB	094H
	DB	01bH
	DB	074H
	DB	01bH
	DB	074H
	DB	013H
	DB	074H
	DB	01bH
	DB	074H
	DB	01bH
	DB	094H
	DB	013H
	DB	075H
	DB	013H
	DB	095H
	DB	01bH
	DB	094H
	DB	01bH
	DB	074H
	DB	013H
	DB	095H
	DB	013H
	DB	074H
	DB	01bH
	DB	094H
	DB	01bH
	DB	075H
	DB	01bH
	DB	094H
	DB	01bH
	DB	094H
	DB	013H
	DB	075H
	DB	01bH
	DB	075H
	DB	013H
	DB	094H
	DB	01bH
	DB	095H
	DB	01bH
	DB	095H
	DB	013H
	DB	094H
	DB	01bH
	DB	095H
	DB	01bH
	DB	095H
	DB	013H
	DB	075H
	DB	01bH
	DB	094H
	DB	01bH
	DB	095H
	DB	01bH
	DB	095H
	DB	01bH
	DB	094H
	DB	013H
	DB	095H
	DB	01bH
	DB	095H
	DB	01bH
	DB	095H
	DB	01bH
	DB	095H
	DB	01bH
	DB	095H
	DB	01bH
	DB	095H
	DB	013H
	DB	095H
	DB	013H
	DB	095H
	DB	01bH
	DB	0b5H
	DB	01bH
	DB	0b6H
	DB	01bH
	DB	095H
	DB	01bH
	DB	0b5H
	DB	013H
	DB	0b5H
	DB	01bH
	DB	0b5H
	DB	01bH
	DB	0b6H
	DB	01bH
	DB	0b5H
	DB	013H
	DB	0b5H
	DB	01bH
	DB	0b5H
	DB	01bH
	DB	0b5H
	DB	013H
	DB	095H
	DB	01bH
	DB	095H
	DB	01bH
	DB	095H
	DB	01bH
	DB	095H
	DB	013H
	DB	095H
	DB	01bH
	DB	0b4H
	DB	01bH
	DB	0b5H
	DB	013H
	DB	095H
	DB	01bH
	DB	0b5H
	DB	01bH
	DB	0b5H
	DB	013H
	DB	095H
	DB	01bH
	DB	0b5H
	DB	013H
	DB	0b5H
	DB	01bH
	DB	095H
	DB	01bH
	DB	0b5H
	DB	013H
	DB	0b5H
	DB	01bH
	DB	095H
	DB	01bH
	DB	0b5H
	DB	01bH
	DB	095H
	DB	013H
	DB	0b5H
	DB	01bH
	DB	0b5H
	DB	01bH
	DB	0b5H
	DB	01bH
	DB	095H
	DB	01bH
	DB	0b5H
	DB	01bH
	DB	095H
	DB	013H
	DB	0b5H
	DB	01bH
	DB	0b5H
	DB	013H
	DB	095H
	DB	01bH
	DB	0b5H
	DB	01bH
	DB	0b5H
	DB	01bH
	DB	095H
	DB	01bH
	DB	095H
	DB	013H
	DB	0b5H
	DB	01bH
	DB	0b6H
	DB	01bH
	DB	095H
	DB	01bH
	DB	0b5H
	DB	01bH
	DB	0b6H
	DB	01bH
	DB	095H
	DB	013H
	DB	0b5H
	DB	01bH
	DB	095H
	DB	01bH
	DB	095H
	DB	013H
	DB	095H
	DB	01bH
	DB	095H
	DB	01bH
	DB	095H
	DB	01bH
	DB	0b5H
	DB	01bH
	DB	0b5H
	DB	01bH
	DB	095H
	DB	01bH
	DB	0b5H
	DB	01bH
	DB	0b5H
	DB	01bH
	DB	095H
	DB	01bH
	DB	0b5H
	DB	01bH
	DB	095H
	DB	01bH
	DB	095H
	DB	01bH
	DB	095H
	DB	013H
	DB	0b5H
	DB	01bH
	DB	095H
	DB	01bH
	DB	095H
	DB	013H
	DB	0b5H
	DB	01bH
	DB	0b5H
	DB	01bH
	DB	0b5H
	DB	013H
	DB	0b5H
	DB	01bH
	DB	0b5H
	DB	01bH
	DB	094H
	DB	01bH
	DB	0b5H
	DB	01bH
	DB	095H
	DB	01bH
	DB	0b4H
	DB	01bH
	DB	095H
	DB	013H
	DB	0b5H
	DB	01bH
	DB	094H
	DB	013H
	DB	095H
	DB	01bH
	DB	095H
	DB	013H
	DB	095H
	DB	01bH
	DB	095H
	DB	013H
	DB	094H
	DB	013H
	DB	095H
	DB	013H
	DB	095H
	DB	01bH
	DB	095H
	DB	013H
	DB	094H
	DB	013H
	DB	095H
	DB	013H
	DB	095H
	DB	01bH
	DB	094H
	DB	013H
	DB	094H
	DB	013H
	DB	095H
	DB	01bH
	DB	095H
	DB	013H
	DB	094H
	DB	01bH
	DB	095H
	DB	013H
	DB	094H
	DB	013H
	DB	095H
	DB	013H
	DB	095H
	DB	01bH
	DB	094H
	DB	013H
	DB	095H
	DB	013H
	DB	095H
	DB	013H
	DB	074H
	DB	013H
	DB	095H
	DB	013H
	DB	095H
	DB	013H
	DB	095H
	DB	013H
	DB	074H
	DB	013H
	DB	074H
	DB	013H
	DB	094H
	DB	013H
	DB	074H
	DB	013H
	DB	074H
	DB	013H
	DB	074H
	DB	013H
	DB	075H
	DB	013H
	DB	075H
	DB	013H
	DB	075H
	DB	013H
	DB	074H
	DB	013H
	DB	074H
	DB	013H
	DB	054H
	DB	013H
	DB	074H
	DB	013H
	DB	074H
	DB	013H
	DB	054H
	DB	013H
	DB	054H
	DB	013H
	DB	054H
	DB	013H
	DB	054H
	DB	013H
	DB	054H
	DB	0bH
	DB	054H
	DB	013H
	DB	054H
	DB	013H
	DB	054H
	DB	0bH
	DB	054H
	DB	013H
	DB	054H
	DB	013H
	DB	074H
	DB	013H
	DB	054H
	DB	013H
	DB	074H
	DB	013H
	DB	074H
	DB	0bH
	DB	074H
	DB	0bH
	DB	075H
	DB	013H
	DB	075H
	DB	0bH
	DB	075H
	DB	013H
	DB	075H
	DB	0bH
	DB	075H
	DB	0bH
	DB	074H
	DB	013H
	DB	055H
	DB	0bH
	DB	054H
	DB	0bH
	DB	074H
	DB	0bH
	DB	075H
	DB	0bH
	DB	075H
	DB	0bH
	DB	074H
	DB	0bH
	DB	075H
	DB	0bH
	DB	074H
	DB	0bH
	DB	054H
	DB	0bH
	DB	054H
	DB	0bH
	DB	054H
	DB	0bH
	DB	054H
	DB	0bH
	DB	054H
	DB	0bH
	DB	054H
	DB	03H
	DB	034H
	DB	0bH
	DB	054H
	DB	0bH
	DB	054H
	DB	03H
	DB	034H
	DB	0bH
	DB	054H
	DB	03H
	DB	034H
	DB	03H
	DB	034H
	DB	0bH
	DB	054H
	DB	03H
	DB	034H
	DB	0bH
	DB	034H
	DB	03H
	DB	054H
	DB	0bH
	DB	054H
	DB	03H
	DB	034H
	DB	03H
	DB	054H
	DB	0bH
	DB	054H
	DB	03H
	DB	034H
	DB	03H
	DB	054H
	DB	03H
	DB	034H
	DB	0bH
	DB	054H
	DB	03H
	DB	034H
	DB	0bH
	DB	054H
	DB	03H
	DB	034H
	DB	03H
	DB	054H
	DB	0bH
	DB	034H
	DB	03H
	DB	033H
	DB	0bH
	DB	033H
	DB	0bH
	DB	014H
	DB	03H
	DB	033H
	DB	03H
	DB	034H
	DB	0bH
	DB	034H
	DB	03H
	DB	054H
	DB	0bH
	DB	034H
	DB	03H
	DB	034H
	DB	03H
	DB	034H
	DB	0bH
	DB	034H
	DB	03H
	DB	034H
	DB	03H
	DB	034H
	DB	03H
	DB	054H
	DB	0bH
	DB	034H
	DB	03H
	DB	054H
	DB	0bH
	DB	054H
	DB	03H
	DB	034H
	DB	03H
	DB	034H
	DB	03H
	DB	034H
	DB	03H
	DB	034H
	DB	0bH
	DB	034H
	DB	03H
	DB	035H
	DB	03H
	DB	054H
	DB	0bH
	DB	054H
	DB	03H
	DB	054H
	DB	03H
	DB	054H
	DB	0bH
	DB	035H
	DB	03H
	DB	055H
	DB	03H
	DB	054H
	DB	0bH
	DB	054H
	DB	03H
	DB	055H
	DB	03H
	DB	055H
	DB	0bH
	DB	054H
	DB	03H
	DB	034H
	DB	0bH
	DB	054H
	DB	0bH
	DB	054H
	DB	03H
	DB	054H
	DB	0bH
	DB	054H
	DB	0bH
	DB	055H
	DB	0bH
	DB	054H
	DB	03H
	DB	054H
	DB	0bH
	DB	055H
	DB	0bH
	DB	054H
	DB	0bH
	DB	054H
	DB	0bH
	DB	054H
	DB	0bH
	DB	054H
	DB	0bH
	DB	075H
	DB	0bH
	DB	054H
	DB	0bH
	DB	074H
	DB	0bH
	DB	055H
	DB	0bH
	DB	075H
	DB	0bH
	DB	054H
	DB	0bH
	DB	075H
	DB	0bH
	DB	075H
	DB	0bH
	DB	055H
	DB	0bH
	DB	075H
	DB	0bH
	DB	075H
	DB	013H
	DB	074H
	DB	0bH
	DB	075H
	DB	0bH
	DB	075H
	DB	013H
	DB	075H
	DB	0bH
	DB	075H
	DB	013H
	DB	074H
	DB	013H
	DB	075H
	DB	0bH
	DB	075H
	DB	013H
	DB	074H
	DB	013H
	DB	095H
	DB	0bH
	DB	075H
	DB	013H
	DB	095H
	DB	013H
	DB	074H
	DB	0bH
	DB	075H
	DB	013H
	DB	075H
	DB	013H
	DB	075H
	DB	0bH
	DB	074H
	DB	013H
	DB	095H
	DB	013H
	DB	075H
	DB	013H
	DB	075H
	DB	013H
	DB	095H
	DB	013H
	DB	094H
	DB	013H
	DB	075H
	DB	013H
	DB	095H
	DB	013H
	DB	074H
	DB	013H
	DB	094H
	DB	013H
	DB	095H
	DB	013H
	DB	095H
	DB	013H
	DB	094H
	DB	013H
	DB	095H
	DB	013H
	DB	095H
	DB	013H
	DB	095H
	DB	013H
	DB	095H
	DB	013H
	DB	095H
	DB	013H
	DB	094H
	DB	013H
	DB	094H
	DB	013H
	DB	095H
	DB	013H
	DB	095H
	DB	013H
	DB	095H
	DB	013H
	DB	095H
	DB	013H
	DB	095H
	DB	013H
	DB	095H
	DB	01bH
	DB	0b5H
	DB	013H
	DB	095H
	DB	013H
	DB	094H
	DB	01bH
	DB	074H
	DB	01bH
	DB	094H
	DB	013H
	DB	094H
	DB	013H
	DB	095H
	DB	01bH
	DB	095H
	DB	013H
	DB	094H
	DB	01bH
	DB	095H
	DB	013H
	DB	094H
	DB	01bH
	DB	094H
	DB	01bH
	DB	075H
	DB	013H
	DB	074H
	DB	01bH
	DB	094H
	DB	013H
	DB	075H
	DB	013H
	DB	074H
	DB	01bH
	DB	094H
	DB	013H
	DB	075H
	DB	01bH
	DB	094H
	DB	01bH
	DB	094H
	DB	01bH
	DB	095H
	DB	01bH
	DB	094H
	DB	01bH
	DB	094H
	DB	01bH
	DB	075H
	DB	013H
	DB	094H
	DB	01bH
	DB	094H
	DB	01bH
	DB	095H
	DB	01bH
	DB	094H
	DB	013H
	DB	095H
	DB	01bH
	DB	095H
	DB	01bH
	DB	095H
	DB	01bH
	DB	094H
	DB	01bH
	DB	094H
	DB	01bH
	DB	095H
	DB	013H
	DB	095H
	DB	01bH
	DB	095H
	DB	01bH
	DB	095H
	DB	01bH
	DB	095H
	DB	01bH
	DB	095H
	DB	013H
	DB	095H
	DB	01bH
	DB	0b5H
	DB	01bH
	DB	0b5H
	DB	013H
	DB	095H
	DB	01bH
	DB	0b5H
	DB	01bH
	DB	0b6H
	DB	01bH
	DB	0b6H
	DB	01bH
	DB	0b6H
	DB	01bH
	DB	095H
	DB	01bH
	DB	095H
	DB	013H
	DB	095H
	DB	01bH
	DB	095H
	DB	013H
	DB	095H
	DB	01bH
	DB	0b5H
	DB	01bH
	DB	0b5H
	DB	01bH
	DB	0b5H
	DB	013H
	DB	095H
	DB	01bH
	DB	0b5H
	DB	01bH
	DB	0b5H
	DB	013H
	DB	095H
	DB	01bH
	DB	0b5H
	DB	01bH
	DB	095H
	DB	01bH
	DB	0b5H
	DB	013H
	DB	095H
	DB	01bH
	DB	0b5H
	DB	01bH
	DB	0b5H
	DB	01bH
	DB	0b5H
	DB	01bH
	DB	0b5H
	DB	01bH
	DB	095H
	DB	01bH
	DB	0b5H
	DB	01bH
	DB	0b5H
	DB	013H
	DB	0b5H
	DB	01bH
	DB	0b5H
	DB	01bH
	DB	0b5H
	DB	01bH
	DB	0b5H
	DB	01bH
	DB	095H
	DB	01bH
	DB	0b5H
	DB	01bH
	DB	0b5H
	DB	013H
	DB	0b5H
	DB	01bH
	DB	095H
	DB	013H
	DB	0b5H
	DB	01bH
	DB	0b5H
	DB	01bH
	DB	095H
	DB	01bH
	DB	0b5H
	DB	013H
	DB	0b5H
	DB	01bH
	DB	096H
	DB	013H
	DB	0b5H
	DB	01bH
	DB	095H
	DB	01bH
	DB	095H
	DB	01bH
	DB	095H
	DB	01bH
	DB	095H
	DB	01bH
	DB	095H
	DB	01bH
	DB	095H
	DB	01bH
	DB	095H
	DB	013H
	DB	095H
	DB	01bH
	DB	095H
	DB	013H
	DB	0b5H
	DB	01bH
	DB	095H
	DB	013H
	DB	095H
	DB	01bH
	DB	0b5H
	DB	013H
	DB	095H
	DB	013H
	DB	095H
	DB	01bH
	DB	0b5H
	DB	01bH
	DB	0b5H
	DB	013H
	DB	095H
	DB	01bH
	DB	0b5H
	DB	01bH
	DB	0b5H
	DB	013H
	DB	0b5H
	DB	01bH
	DB	095H
	DB	01bH
	DB	094H
	DB	013H
	DB	095H
	DB	01bH
	DB	095H
	DB	013H
	DB	0b5H
	DB	013H
	DB	0b5H
	DB	013H
	DB	0b5H
	DB	01bH
	DB	095H
	DB	013H
	DB	095H
	DB	01bH
	DB	0b5H
	DB	01bH
	DB	0b5H
	DB	01bH
	DB	095H
	DB	013H
	DB	095H
	DB	013H
	DB	0b4H
	DB	01bH
	DB	095H
	DB	013H
	DB	095H
	DB	01bH
	DB	095H
	DB	01bH
	DB	094H
	DB	013H
	DB	095H
	DB	01bH
	DB	095H
	DB	01bH
	DB	095H
	DB	013H
	DB	095H
	DB	01bH
	DB	095H
	DB	013H
	DB	095H
	DB	013H
	DB	095H
	DB	01bH
	DB	095H
	DB	013H
	DB	095H
	DB	01bH
	DB	095H
	DB	013H
	DB	094H
	DB	01bH
	DB	095H
	DB	01bH
	DB	095H
	DB	013H
	DB	095H
	DB	013H
	DB	095H
	DB	01bH
	DB	095H
	DB	013H
	DB	075H
	DB	013H
	DB	095H
	DB	01bH
	DB	075H
	DB	01bH
	DB	074H
	DB	013H
	DB	094H
	DB	01bH
	DB	074H
	DB	01bH
	DB	074H
	DB	013H
	DB	074H
	DB	013H
	DB	074H
	DB	013H
	DB	074H
	DB	013H
	DB	074H
	DB	013H
	DB	074H
	DB	013H
	DB	074H
	DB	013H
	DB	074H
	DB	013H
	DB	054H
	DB	013H
	DB	074H
	DB	013H
	DB	074H
	DB	013H
	DB	054H
	DB	013H
	DB	074H
	DB	013H
	DB	054H
	DB	013H
	DB	074H
	DB	013H
	DB	054H
	DB	013H
	DB	073H
	DB	013H
	DB	074H
	DB	013H
	DB	054H
	DB	013H
	DB	054H
	DB	013H
	DB	074H
	DB	013H
	DB	054H
	DB	0bH
	DB	054H
	DB	013H
	DB	054H
	DB	0bH
	DB	054H
	DB	0bH
	DB	054H
	DB	013H
	DB	054H
	DB	013H
	DB	054H
	DB	013H
	DB	054H
	DB	0bH
	DB	074H
	DB	013H
	DB	054H
	DB	013H
	DB	074H
	DB	0bH
	DB	075H
	DB	0bH
	DB	075H
	DB	0bH
	DB	054H
	DB	0bH
	DB	075H
	DB	0bH
	DB	074H
	DB	0bH
	DB	075H
	DB	0bH
	DB	054H
	DB	0bH
	DB	075H
	DB	0bH
	DB	054H
	DB	0bH
	DB	054H
	DB	0bH
	DB	054H
	DB	0bH
	DB	054H
	DB	0bH
	DB	054H
	DB	03H
	DB	054H
	DB	0bH
	DB	054H
	DB	0bH
	DB	054H
	DB	0bH
	DB	054H
	DB	03H
	DB	054H
	DB	0bH
	DB	054H
	DB	0bH
	DB	054H
	DB	0bH
	DB	054H
	DB	03H
	DB	054H
	DB	0bH
	DB	034H
	DB	03H
	DB	053H
	DB	03H
	DB	054H
	DB	03H
	DB	034H
	DB	0bH
	DB	034H
	DB	03H
	DB	054H
	DB	03H
	DB	034H
	DB	0bH
	DB	034H
	DB	0bH
	DB	054H
	DB	03H
	DB	054H
	DB	03H
	DB	034H
	DB	0bH
	DB	054H
	DB	03H
	DB	034H
	DB	03H
	DB	054H
	DB	0bH
	DB	034H
	DB	03H
	DB	034H
	DB	0bH
	DB	034H
	DB	0bH
	DB	033H
	DB	03H
	DB	033H
	DB	03H
	DB	014H
	DB	03H
	DB	034H
	DB	0bH
	DB	033H
	DB	03H
	DB	034H
	DB	03H
	DB	034H
	DB	03H
	DB	054H
	DB	0bH
	DB	034H
	DB	03H
	DB	034H
	DB	03H
	DB	034H
	DB	0bH
	DB	034H
	DB	03H
	DB	034H
	DB	0bH
	DB	034H
	DB	03H
	DB	034H
	DB	03H
	DB	034H
	DB	0bH
	DB	034H
	DB	03H
	DB	034H
	DB	0bH
	DB	054H
	DB	03H
	DB	054H
	DB	0bH
	DB	054H
	DB	03H
	DB	054H
	DB	03H
	DB	054H
	DB	0bH
	DB	034H
	DB	03H
	DB	034H
	DB	0bH
	DB	034H
	DB	03H
	DB	034H
	DB	03H
	DB	054H
	DB	0bH
	DB	054H
	DB	03H
	DB	054H
	DB	0bH
	DB	054H
	DB	03H
	DB	055H
	DB	03H
	DB	055H
	DB	0bH
	DB	054H
	DB	03H
	DB	054H
	DB	03H
	DB	054H
	DB	03H
	DB	055H
	DB	0bH
	DB	054H
	DB	03H
	DB	054H
	DB	03H
	DB	054H
	DB	0bH
	DB	054H
	DB	0bH
	DB	054H
	DB	03H
	DB	054H
	DB	0bH
	DB	055H
	DB	0bH
	DB	054H
	DB	03H
	DB	054H
	DB	0bH
	DB	075H
	DB	0bH
	DB	054H
	DB	0bH
	DB	054H
	DB	0bH
	DB	075H
	DB	0bH
	DB	054H
	DB	0bH
	DB	074H
	DB	0bH
	DB	075H
	DB	0bH
	DB	074H
	DB	0bH
	DB	074H
	DB	0bH
	DB	075H
	DB	0bH
	DB	074H
	DB	0bH
	DB	074H
	DB	0bH
	DB	075H
	DB	013H
	DB	074H
	DB	0bH
	DB	075H
	DB	0bH
	DB	074H
	DB	013H
	DB	074H
	DB	0bH
	DB	075H
	DB	0bH
	DB	075H
	DB	013H
	DB	075H
	DB	013H
	DB	075H
	DB	0bH
	DB	074H
	DB	013H
	DB	075H
	DB	013H
	DB	095H
	DB	013H
	DB	074H
	DB	013H
	DB	074H
	DB	0bH
	DB	075H
	DB	013H
	DB	094H
	DB	013H
	DB	075H
	DB	013H
	DB	095H
	DB	013H
	DB	094H
	DB	013H
	DB	075H
	DB	013H
	DB	095H
	DB	013H
	DB	095H
	DB	013H
	DB	095H
	DB	013H
	DB	094H
	DB	013H
	DB	095H
	DB	013H
	DB	095H
	DB	013H
	DB	095H
	DB	013H
	DB	095H
	DB	013H
	DB	095H
	DB	013H
	DB	095H
	DB	013H
	DB	095H
	DB	013H
	DB	095H
	DB	013H
	DB	094H
	DB	013H
	DB	095H
	DB	013H
	DB	095H
	DB	01bH
	DB	095H
	DB	013H
	DB	095H
	DB	013H
	DB	095H
	DB	01bH
	DB	095H
	DB	013H
	DB	095H
	DB	013H
	DB	095H
	DB	01bH
	DB	095H
	DB	013H
	DB	0b5H
	DB	013H
	DB	095H
	DB	01bH
	DB	094H
	DB	013H
	DB	074H
	DB	013H
	DB	074H
	DB	01bH
	DB	075H
	DB	01bH
	DB	074H
	DB	013H
	DB	094H
	DB	01bH
	DB	095H
	DB	01bH
	DB	074H
	DB	013H
	DB	094H
	DB	013H
	DB	095H
	DB	01bH
	DB	095H
	DB	01bH
	DB	094H
	DB	01bH
	DB	094H
	DB	01bH
	DB	095H
	DB	01bH
	DB	094H
	DB	01bH
	DB	074H
	DB	013H
	DB	095H
	DB	01bH
	DB	095H
	DB	01bH
	DB	094H
	DB	01bH
	DB	095H
	DB	013H
	DB	075H
	DB	013H
	DB	094H
	DB	01bH
	DB	095H
	DB	01bH
	DB	095H
	DB	01bH
	DB	074H
	DB	01bH
	DB	094H
	DB	01bH
	DB	095H
	DB	01bH
	DB	094H
	DB	01bH
	DB	094H
	DB	01bH
	DB	095H
	DB	013H
	DB	095H
	DB	01bH
	DB	094H
	DB	01bH
	DB	095H
	DB	013H
	DB	095H
	DB	01bH
	DB	094H
	DB	01bH
	DB	094H
	DB	01bH
	DB	095H
	DB	01bH
	DB	094H
	DB	01bH
	DB	095H
	DB	01bH
	DB	095H
	DB	013H
	DB	0b5H
	DB	01bH
	DB	0b5H
	DB	01bH
	DB	095H
	DB	01bH
	DB	0b6H
	DB	013H
	DB	0b5H
	DB	013H
	DB	0b5H
	DB	01bH
	DB	0b5H
	DB	01bH
	DB	0b5H
	DB	013H
	DB	0b5H
	DB	01bH
	DB	095H
	DB	01bH
	DB	0b5H
	DB	01bH
	DB	095H
	DB	013H
	DB	0b5H
	DB	01bH
	DB	095H
	DB	01bH
	DB	095H
	DB	01bH
	DB	0b5H
	DB	01bH
	DB	0b5H
	DB	01bH
	DB	0b5H
	DB	01bH
	DB	0b5H
	DB	01bH
	DB	0b5H
	DB	01bH
	DB	0b5H
	DB	01bH
	DB	0b5H
	DB	01bH
	DB	0b5H
	DB	013H
	DB	0b5H
	DB	01bH
	DB	0b5H
	DB	01bH
	DB	0b5H
	DB	013H
	DB	0b5H
	DB	01bH
	DB	0b5H
	DB	01bH
	DB	0b5H
	DB	013H
	DB	0b5H
	DB	01bH
	DB	095H
	DB	01bH
	DB	095H
	DB	013H
	DB	0b5H
	DB	01bH
	DB	0b5H
	DB	013H
	DB	095H
	DB	01bH
	DB	095H
	DB	01bH
	DB	0b5H
	DB	01bH
	DB	0b5H
	DB	01bH
	DB	0b5H
	DB	01bH
	DB	0b5H
	DB	013H
	DB	0b6H
	DB	01bH
	DB	0b5H
	DB	01bH
	DB	0b5H
	DB	01bH
	DB	095H
	DB	01bH
	DB	0b5H
	DB	013H
	DB	095H
	DB	01bH
	DB	0b5H
	DB	01bH
	DB	095H
	DB	01bH
	DB	095H
	DB	01bH
	DB	094H
	DB	01bH
	DB	094H
	DB	01bH
	DB	094H
	DB	013H
	DB	0b5H
	DB	01bH
	DB	095H
	DB	01bH
	DB	095H
	DB	01bH
	DB	095H
	DB	01bH
	DB	095H
	DB	01bH
	DB	0b5H
	DB	01bH
	DB	0b5H
	DB	01bH
	DB	095H
	DB	01bH
	DB	0b5H
	DB	01bH
	DB	0b5H
	DB	013H
	DB	095H
	DB	013H
	DB	0b5H
	DB	01bH
	DB	095H
	DB	01bH
	DB	095H
	DB	01bH
	DB	0b5H
	DB	01bH
	DB	095H
	DB	013H
	DB	0b5H
	DB	01bH
	DB	095H
	DB	01bH
	DB	095H
	DB	01bH
	DB	095H
	DB	01bH
	DB	095H
	DB	01bH
	DB	095H
	DB	013H
	DB	094H
	DB	01bH
	DB	0b5H
	DB	013H
	DB	095H
	DB	01bH
	DB	094H
	DB	01bH
	DB	095H
	DB	01bH
	DB	0b5H
	DB	01bH
	DB	094H
	DB	013H
	DB	095H
	DB	01bH
	DB	095H
	DB	01bH
	DB	095H
	DB	013H
	DB	095H
	DB	013H
	DB	094H
	DB	01bH
	DB	095H
	DB	013H
	DB	095H
	DB	01bH
	DB	094H
	DB	01bH
	DB	095H
	DB	013H
	DB	095H
	DB	01bH
	DB	094H
	DB	01bH
	DB	095H
	DB	013H
	DB	095H
	DB	013H
	DB	095H
	DB	013H
	DB	095H
	DB	013H
	DB	094H
	DB	01bH
	DB	095H
	DB	013H
	DB	095H
	DB	013H
	DB	095H
	DB	01bH
	DB	095H
	DB	01bH
	DB	094H
	DB	013H
	DB	095H
	DB	013H
	DB	075H
	DB	01bH
	DB	074H
	DB	013H
	DB	075H
	DB	013H
	DB	094H
	DB	01bH
	DB	074H
	DB	013H
	DB	075H
	DB	013H
	DB	075H
	DB	01bH
	DB	075H
	DB	013H
	DB	095H
	DB	013H
	DB	074H
	DB	013H
	DB	074H
	DB	013H
	DB	074H
	DB	013H
	DB	054H
	DB	013H
	DB	054H
	DB	013H
	DB	074H
	DB	013H
	DB	054H
	DB	013H
	DB	054H
	DB	013H
	DB	074H
	DB	013H
	DB	074H
	DB	013H
	DB	074H
	DB	013H
	DB	054H
	DB	013H
	DB	074H
	DB	013H
	DB	074H
	DB	013H
	DB	073H
	DB	013H
	DB	054H
	DB	013H
	DB	054H
	DB	013H
	DB	074H
	DB	013H
	DB	054H
	DB	0bH
	DB	054H
	DB	013H
	DB	054H
	DB	013H
	DB	054H
	DB	0bH
	DB	054H
	DB	013H
	DB	054H
	DB	013H
	DB	054H
	DB	0bH
	DB	054H
	DB	0bH
	DB	054H
	DB	013H
	DB	054H
	DB	0bH
	DB	074H
	DB	0bH
	DB	074H
	DB	013H
	DB	074H
	DB	0bH
	DB	075H
	DB	0bH
	DB	075H
	DB	0bH
	DB	075H
	DB	0bH
	DB	075H
	DB	0bH
	DB	054H
	DB	0bH
	DB	054H
	DB	0bH
	DB	054H
	DB	0bH
	DB	054H
	DB	0bH
	DB	054H
	DB	0bH
	DB	054H
	DB	0bH
	DB	054H
	DB	03H
	DB	054H
	DB	0bH
	DB	054H
	DB	03H
	DB	054H
	DB	0bH
	DB	034H
	DB	0bH
	DB	054H
	DB	03H
	DB	053H
	DB	0bH
	DB	054H
	DB	0bH
	DB	034H
	DB	03H
	DB	034H
	DB	03H
	DB	054H
	DB	0bH
	DB	054H
	DB	03H
	DB	034H
	DB	03H
	DB	054H
	DB	0bH
	DB	034H
	DB	03H
	DB	034H
	DB	03H
	DB	054H
	DB	0bH
	DB	034H
	DB	03H
	DB	034H
	DB	0bH
	DB	054H
	DB	03H
	DB	054H
	DB	03H
	DB	054H
	DB	0bH
	DB	034H
	DB	03H
	DB	034H
	DB	03H
	DB	033H
	DB	0bH
	DB	033H
	DB	0bH
	DB	034H
	DB	03H
	DB	034H
	DB	03H
	DB	033H
	DB	0bH
	DB	033H
	DB	0bH
	DB	034H
	DB	03H
	DB	054H
	DB	03H
	DB	034H
	DB	0bH
	DB	054H
	DB	03H
	DB	034H
	DB	03H
	DB	033H
	DB	03H
	DB	033H
	DB	0bH
	DB	034H
	DB	03H
	DB	033H
	DB	0bH
	DB	033H
	DB	03H
	DB	034H
	DB	03H
	DB	033H
	DB	0bH
	DB	034H
	DB	03H
	DB	033H
	DB	0bH
	DB	034H
	DB	03H
	DB	034H
	DB	0bH
	DB	033H
	DB	03H
	DB	034H
	DB	03H
	DB	034H
	DB	0bH
	DB	034H
	DB	03H
	DB	034H
	DB	0bH
	DB	034H
	DB	03H
	DB	034H
	DB	03H
	DB	034H
	DB	0bH
	DB	034H
	DB	0bH
	DB	034H
	DB	03H
	DB	034H
	DB	0bH
	DB	034H
	DB	0bH
	DB	034H
	DB	03H
	DB	054H
	DB	03H
	DB	034H
	DB	0bH
	DB	054H
	DB	0bH
	DB	054H
	DB	03H
	DB	034H
	DB	0bH
	DB	054H
	DB	03H
	DB	054H
	DB	0bH
	DB	054H
	DB	0bH
	DB	054H
	DB	0bH
	DB	054H
	DB	0bH
	DB	054H
	DB	03H
	DB	054H
	DB	0bH
	DB	054H
	DB	0bH
	DB	054H
	DB	0bH
	DB	054H
	DB	0bH
	DB	054H
	DB	0bH
	DB	074H
	DB	0bH
	DB	054H
	DB	0bH
	DB	054H
	DB	0bH
	DB	054H
	DB	0bH
	DB	054H
	DB	0bH
	DB	074H
	DB	013H
	DB	054H
	DB	0bH
	DB	054H
	DB	013H
	DB	074H
	DB	0bH
	DB	054H
	DB	0bH
	DB	074H
	DB	013H
	DB	074H
	DB	013H
	DB	074H
	DB	0bH
	DB	074H
	DB	013H
	DB	074H
	DB	0bH
	DB	074H
	DB	013H
	DB	074H
	DB	0bH
	DB	074H
	DB	013H
	DB	074H
	DB	0bH
	DB	074H
	DB	013H
	DB	074H
	DB	013H
	DB	074H
	DB	013H
	DB	074H
	DB	0bH
	DB	074H
	DB	013H
	DB	074H
	DB	013H
	DB	075H
	DB	013H
	DB	094H
	DB	013H
	DB	094H
	DB	013H
	DB	095H
	DB	013H
	DB	095H
	DB	013H
	DB	074H
	DB	013H
	DB	095H
	DB	013H
	DB	095H
	DB	013H
	DB	095H
	DB	013H
	DB	095H
	DB	013H
	DB	095H
	DB	013H
	DB	095H
	DB	013H
	DB	095H
	DB	013H
	DB	095H
	DB	013H
	DB	095H
	DB	013H
	DB	095H
	DB	013H
	DB	095H
	DB	013H
	DB	095H
	DB	01bH
	DB	095H
	DB	013H
	DB	095H
	DB	013H
	DB	095H
	DB	01bH
	DB	095H
	DB	013H
	DB	095H
	DB	01bH
	DB	095H
	DB	013H
	DB	0b5H
	DB	01bH
	DB	095H
	DB	013H
	DB	094H
	DB	01bH
	DB	074H
	DB	01bH
	DB	074H
	DB	013H
	DB	095H
	DB	01bH
	DB	074H
	DB	013H
	DB	074H
	DB	01bH
	DB	075H
	DB	013H
	DB	094H
	DB	01bH
	DB	095H
	DB	01bH
	DB	074H
	DB	013H
	DB	095H
	DB	01bH
	DB	095H
	DB	013H
	DB	094H
	DB	01bH
	DB	074H
	DB	013H
	DB	075H
	DB	01bH
	DB	094H
	DB	01bH
	DB	094H
	DB	01bH
	DB	095H
	DB	01bH
	DB	094H
	DB	01bH
	DB	074H
	DB	013H
	DB	095H
	DB	01bH
	DB	094H
	DB	01bH
	DB	074H
	DB	01bH
	DB	095H
	DB	013H
	DB	094H
	DB	01bH
	DB	095H
	DB	013H
	DB	095H
	DB	01bH
	DB	094H
	DB	01bH
	DB	095H
	DB	013H
	DB	095H
	DB	01bH
	DB	094H
	DB	01bH
	DB	095H
	DB	01bH
	DB	095H
	DB	01bH
	DB	094H
	DB	01bH
	DB	095H
	DB	01bH
	DB	095H
	DB	01bH
	DB	095H
	DB	013H
	DB	095H
	DB	013H
	DB	094H
	DB	01bH
	DB	095H
	DB	01bH
	DB	095H
	DB	01bH
	DB	095H
	DB	01bH
	DB	095H
	DB	01bH
	DB	095H
	DB	01bH
	DB	0b5H
	DB	01bH
	DB	0b5H
	DB	01bH
	DB	0b5H
	DB	01bH
	DB	0b5H
	DB	01bH
	DB	095H
	DB	01bH
	DB	0b5H
	DB	01bH
	DB	0b5H
	DB	01bH
	DB	0b5H
	DB	01bH
	DB	095H
	DB	01bH
	DB	095H
	DB	01bH
	DB	0b5H
	DB	013H
	DB	0b5H
	DB	01bH
	DB	0b5H
	DB	01bH
	DB	0b5H
	DB	013H
	DB	095H
	DB	01bH
	DB	0b5H
	DB	01bH
	DB	0b5H
	DB	01bH
	DB	0b5H
	DB	013H
	DB	0b5H
	DB	01bH
	DB	095H
	DB	01bH
	DB	0b5H
	DB	01bH
	DB	0b5H
	DB	01bH
	DB	095H
	DB	01bH
	DB	0b5H
	DB	01bH
	DB	0b5H
	DB	013H
	DB	095H
	DB	01bH
	DB	0b5H
	DB	01bH
	DB	0b5H
	DB	01bH
	DB	0b5H
	DB	01bH
	DB	0b5H
	DB	01bH
	DB	0b5H
	DB	01bH
	DB	0b5H
	DB	013H
	DB	0b5H
	DB	01bH
	DB	0b5H
	DB	01bH
	DB	095H
	DB	01bH
	DB	0b5H
	DB	01bH
	DB	095H
	DB	01bH
	DB	0b5H
	DB	013H
	DB	0b5H
	DB	01bH
	DB	0b6H
	DB	01bH
	DB	095H
	DB	01bH
	DB	095H
	DB	01bH
	DB	095H
	DB	01bH
	DB	095H
	DB	01bH
	DB	094H
	DB	01bH
	DB	095H
	DB	01bH
	DB	094H
	DB	013H
	DB	094H
	DB	01bH
	DB	095H
	DB	01bH
	DB	095H
	DB	01bH
	DB	094H
	DB	013H
	DB	094H
	DB	01bH
	DB	095H
	DB	01bH
	DB	094H
	DB	013H
	DB	095H
	DB	01bH
	DB	095H
	DB	01bH
	DB	095H
	DB	01bH
	DB	0b5H
	DB	01bH
	DB	0b5H
	DB	01bH
	DB	095H
	DB	01bH
	DB	0b5H
	DB	01bH
	DB	095H
	DB	013H
	DB	0b5H
	DB	01bH
	DB	095H
	DB	01bH
	DB	0b5H
	DB	013H
	DB	0b5H
	DB	01bH
	DB	094H
	DB	013H
	DB	0b5H
	DB	01bH
	DB	0b5H
	DB	01bH
	DB	095H
	DB	013H
	DB	0b5H
	DB	01bH
	DB	0b4H
	DB	01bH
	DB	095H
	DB	013H
	DB	0b5H
	DB	013H
	DB	095H
	DB	01bH
	DB	0b5H
	DB	013H
	DB	0b5H
	DB	01bH
	DB	095H
	DB	01bH
	DB	094H
	DB	013H
	DB	0b5H
	DB	013H
	DB	095H
	DB	01bH
	DB	094H
	DB	01bH
	DB	0b5H
	DB	013H
	DB	095H
	DB	013H
	DB	094H
	DB	01bH
	DB	095H
	DB	013H
	DB	095H
	DB	013H
	DB	094H
	DB	01bH
	DB	095H
	DB	013H
	DB	095H
	DB	01bH
	DB	094H
	DB	01bH
	DB	095H
	DB	013H
	DB	095H
	DB	013H
	DB	095H
	DB	01bH
	DB	095H
	DB	01bH
	DB	095H
	DB	013H
	DB	094H
	DB	013H
	DB	094H
	DB	013H
	DB	094H
	DB	013H
	DB	074H
	DB	01bH
	DB	094H
	DB	013H
	DB	094H
	DB	013H
	DB	074H
	DB	013H
	DB	074H
	DB	01bH
	DB	075H
	DB	013H
	DB	094H
	DB	01bH
	DB	074H
	DB	013H
	DB	074H
	DB	013H
	DB	075H
	DB	01bH
	DB	075H
	DB	013H
	DB	074H
	DB	013H
	DB	074H
	DB	013H
	DB	074H
	DB	013H
	DB	054H
	DB	013H
	DB	074H
	DB	013H
	DB	074H
	DB	013H
	DB	054H
	DB	013H
	DB	054H
	DB	013H
	DB	074H
	DB	013H
	DB	054H
	DB	013H
	DB	054H
	DB	013H
	DB	074H
	DB	013H
	DB	054H
	DB	013H
	DB	074H
	DB	013H
	DB	054H
	DB	013H
	DB	074H
	DB	013H
	DB	054H
	DB	013H
	DB	054H
	DB	013H
	DB	074H
	DB	013H
	DB	054H
	DB	013H
	DB	054H
	DB	0bH
	DB	074H
	DB	013H
	DB	054H
	DB	013H
	DB	054H
	DB	0bH
	DB	054H
	DB	013H
	DB	054H
	DB	013H
	DB	054H
	DB	0bH
	DB	054H
	DB	0bH
	DB	054H
	DB	013H
	DB	054H
	DB	0bH
	DB	054H
	DB	0bH
	DB	074H
	DB	0bH
	DB	074H
	DB	0bH
	DB	054H
	DB	0bH
	DB	074H
	DB	0bH
	DB	054H
	DB	0bH
	DB	054H
	DB	0bH
	DB	054H
	DB	0bH
	DB	054H
	DB	0bH
	DB	054H
	DB	0bH
	DB	054H
	DB	0bH
	DB	054H
	DB	0bH
	DB	034H
	DB	0bH
	DB	054H
	DB	0bH
	DB	054H
	DB	03H
	DB	034H
	DB	03H
	DB	054H
	DB	0bH
	DB	054H
	DB	0bH
	DB	054H
	DB	03H
	DB	034H
	DB	0bH
	DB	034H
	DB	03H
	DB	054H
	DB	03H
	DB	054H
	DB	0bH
	DB	034H
	DB	03H
	DB	054H
	DB	03H
	DB	054H
	DB	0bH
	DB	034H
	DB	03H
	DB	054H
	DB	03H
	DB	034H
	DB	0bH
	DB	034H
	DB	03H
	DB	055H
	DB	03H
	DB	034H
	DB	0bH
	DB	034H
	DB	03H
	DB	033H
	DB	03H
	DB	033H
	DB	0bH
	DB	014H
	DB	03H
	DB	033H
	DB	03H
	DB	013H
	DB	0bH
	DB	034H
	DB	03H
	DB	033H
	DB	03H
	DB	034H
	DB	0bH
	DB	034H
	DB	03H
	DB	054H
	DB	03H
	DB	034H
	DB	0bH
	DB	034H
	DB	03H
	DB	033H
	DB	0bH
	DB	034H
	DB	03H
	DB	034H
	DB	03H
	DB	033H
	DB	0bH
	DB	034H
	DB	03H
	DB	034H
	DB	03H
	DB	034H
	DB	03H
	DB	033H
	DB	03H
	DB	034H
	DB	03H
	DB	034H
	DB	0bH
	DB	033H
	DB	03H
	DB	034H
	DB	0bH
	DB	034H
	DB	03H
	DB	034H
	DB	03H
	DB	033H
	DB	0bH
	DB	034H
	DB	03H
	DB	034H
	DB	0bH
	DB	033H
	DB	0bH
	DB	034H
	DB	03H
	DB	033H
	DB	03H
	DB	033H
	DB	0bH
	DB	033H
	DB	03H
	DB	033H
	DB	03H
	DB	034H
	DB	0bH
	DB	034H
	DB	0bH
	DB	034H
	DB	03H
	DB	034H
	DB	0bH
	DB	034H
	DB	0bH
	DB	034H
	DB	0bH
	DB	054H
	DB	03H
	DB	054H
	DB	0bH
	DB	034H
	DB	0bH
	DB	054H
	DB	03H
	DB	054H
	DB	0bH
	DB	054H
	DB	0bH
	DB	054H
	DB	0bH
	DB	054H
	DB	0bH
	DB	054H
	DB	0bH
	DB	054H
	DB	0bH
	DB	054H
	DB	0bH
	DB	054H
	DB	0bH
	DB	054H
	DB	0bH
	DB	054H
	DB	0bH
	DB	054H
	DB	0bH
	DB	054H
	DB	0bH
	DB	074H
	DB	013H
	DB	054H
	DB	013H
	DB	054H
	DB	0bH
	DB	054H
	DB	0bH
	DB	054H
	DB	013H
	DB	054H
	DB	013H
	DB	074H
	DB	0bH
	DB	074H
	DB	013H
	DB	074H
	DB	0bH
	DB	074H
	DB	013H
	DB	074H
	DB	013H
	DB	074H
	DB	013H
	DB	074H
	DB	013H
	DB	074H
	DB	013H
	DB	054H
	DB	0bH
	DB	074H
	DB	013H
	DB	074H
	DB	013H
	DB	074H
	DB	013H
	DB	074H
	DB	013H
	DB	074H
	DB	013H
	DB	074H
	DB	013H
	DB	095H
	DB	013H
	DB	074H
	DB	013H
	DB	074H
	DB	013H
	DB	074H
	DB	013H
	DB	074H
	DB	013H
	DB	094H
	DB	013H
	DB	075H
	DB	013H
	DB	074H
	DB	013H
	DB	094H
	DB	013H
	DB	094H
	DB	013H
	DB	094H
	DB	013H
	DB	095H
	DB	013H
	DB	094H
	DB	013H
	DB	095H
	DB	013H
	DB	095H
	DB	01bH
	DB	095H
	DB	013H
	DB	095H
	DB	013H
	DB	095H
	DB	01bH
	DB	095H
	DB	013H
	DB	095H
	DB	013H
	DB	095H
	DB	01bH
	DB	0b5H
	DB	013H
	DB	0b5H
	DB	013H
	DB	095H
	DB	01bH
	DB	094H
	DB	013H
	DB	074H
	DB	013H
	DB	074H
	DB	01bH
	DB	095H
	DB	01bH
	DB	094H
	DB	013H
	DB	094H
	DB	01bH
	DB	095H
	DB	01bH
	DB	074H
	DB	013H
	DB	094H
	DB	013H
	DB	095H
	DB	01bH
	DB	094H
	DB	013H
	DB	095H
	DB	01bH
	DB	074H
	DB	01bH
	DB	094H
	DB	013H
	DB	095H
	DB	01bH
	DB	094H
	DB	01bH
	DB	095H
	DB	013H
	DB	094H
	DB	01bH
	DB	075H
	DB	01bH
	DB	095H
	DB	013H
	DB	094H
	DB	01bH
	DB	095H
	DB	01bH
	DB	094H
	DB	01bH
	DB	095H
	DB	01bH
	DB	094H
	DB	01bH
	DB	094H
	DB	01bH
	DB	095H
	DB	01bH
	DB	094H
	DB	013H
	DB	095H
	DB	01bH
	DB	095H
	DB	01bH
	DB	095H
	DB	01bH
	DB	095H
	DB	01bH
	DB	094H
	DB	01bH
	DB	095H
	DB	01bH
	DB	095H
	DB	01bH
	DB	095H
	DB	013H
	DB	095H
	DB	01bH
	DB	095H
	DB	01bH
	DB	095H
	DB	01bH
	DB	095H
	DB	013H
	DB	095H
	DB	01bH
	DB	095H
	DB	01bH
	DB	095H
	DB	013H
	DB	095H
	DB	01bH
	DB	0b5H
	DB	013H
	DB	095H
	DB	01bH
	DB	095H
	DB	01bH
	DB	095H
	DB	01bH
	DB	095H
	DB	01bH
	DB	095H
	DB	01bH
	DB	095H
	DB	01bH
	DB	095H
	DB	01bH
	DB	095H
	DB	013H
	DB	095H
	DB	01bH
	DB	0b5H
	DB	01bH
	DB	0b5H
	DB	01bH
	DB	0b5H
	DB	01bH
	DB	095H
	DB	013H
	DB	0b5H
	DB	01bH
	DB	0b5H
	DB	01bH
	DB	095H
	DB	013H
	DB	0b5H
	DB	01bH
	DB	0b5H
	DB	01bH
	DB	095H
	DB	01bH
	DB	0b5H
	DB	01bH
	DB	0b5H
	DB	01bH
	DB	095H
	DB	01bH
	DB	0b5H
	DB	01bH
	DB	0b5H
	DB	01bH
	DB	095H
	DB	01bH
	DB	0b5H
	DB	01bH
	DB	0b5H
	DB	01bH
	DB	0b5H
	DB	013H
	DB	095H
	DB	01bH
	DB	0b5H
	DB	01bH
	DB	0b5H
	DB	01bH
	DB	095H
	DB	01bH
	DB	0b5H
	DB	01bH
	DB	0b5H
	DB	013H
	DB	0b5H
	DB	01bH
	DB	095H
	DB	01bH
	DB	0b6H
	DB	01bH
	DB	095H
	DB	01bH
	DB	0b5H
	DB	01bH
	DB	095H
	DB	01bH
	DB	095H
	DB	01bH
	DB	095H
	DB	01bH
	DB	095H
	DB	01bH
	DB	095H
	DB	01bH
	DB	0b4H
	DB	01bH
	DB	095H
	DB	01bH
	DB	095H
	DB	013H
	DB	094H
	DB	01bH
	DB	094H
	DB	01bH
	DB	095H
	DB	013H
	DB	095H
	DB	01bH
	DB	0b4H
	DB	01bH
	DB	095H
	DB	013H
	DB	094H
	DB	01bH
	DB	094H
	DB	013H
	DB	095H
	DB	013H
	DB	095H
	DB	01bH
	DB	095H
	DB	013H
	DB	095H
	DB	01bH
	DB	095H
	DB	01bH
	DB	0b5H
	DB	01bH
	DB	0b5H
	DB	013H
	DB	0b5H
	DB	01bH
	DB	094H
	DB	013H
	DB	095H
	DB	01bH
	DB	0b5H
	DB	01bH
	DB	095H
	DB	013H
	DB	0b5H
	DB	01bH
	DB	095H
	DB	013H
	DB	0b5H
	DB	013H
	DB	095H
	DB	01bH
	DB	0b5H
	DB	01bH
	DB	095H
	DB	01bH
	DB	0b5H
	DB	01bH
	DB	095H
	DB	013H
	DB	095H
	DB	01bH
	DB	095H
	DB	013H
	DB	094H
	DB	01bH
	DB	095H
	DB	01bH
	DB	0b5H
	DB	01bH
	DB	094H
	DB	013H
	DB	095H
	DB	01bH
	DB	0b5H
	DB	01bH
	DB	095H
	DB	013H
	DB	095H
	DB	01bH
	DB	0b5H
	DB	01bH
	DB	095H
	DB	013H
	DB	095H
	DB	01bH
	DB	095H
	DB	013H
	DB	094H
	DB	013H
	DB	095H
	DB	01bH
	DB	095H
	DB	01bH
	DB	095H
	DB	013H
	DB	095H
	DB	013H
	DB	095H
	DB	01bH
	DB	094H
	DB	01bH
	DB	074H
	DB	013H
	DB	075H
	DB	01bH
	DB	094H
	DB	01bH
	DB	074H
	DB	01bH
	DB	094H
	DB	013H
	DB	094H
	DB	01bH
	DB	074H
	DB	013H
	DB	075H
	DB	013H
	DB	094H
	DB	01bH
	DB	074H
	DB	013H
	DB	094H
	DB	013H
	DB	074H
	DB	013H
	DB	074H
	DB	01bH
	DB	094H
	DB	013H
	DB	075H
	DB	013H
	DB	054H
	DB	013H
	DB	074H
	DB	013H
	DB	054H
	DB	013H
	DB	054H
	DB	013H
	DB	074H
	DB	013H
	DB	074H
	DB	013H
	DB	054H
	DB	013H
	DB	074H
	DB	013H
	DB	074H
	DB	013H
	DB	074H
	DB	013H
	DB	074H
	DB	013H
	DB	054H
	DB	013H
	DB	054H
	DB	013H
	DB	074H
	DB	0bH
	DB	074H
	DB	0bH
	DB	054H
	DB	013H
	DB	054H
	DB	013H
	DB	074H
	DB	0bH
	DB	054H
	DB	013H
	DB	054H
	DB	013H
	DB	054H
	DB	0bH
	DB	074H
	DB	013H
	DB	054H
	DB	013H
	DB	054H
	DB	0bH
	DB	054H
	DB	0bH
	DB	054H
	DB	013H
	DB	054H
	DB	0bH
	DB	054H
	DB	0bH
	DB	054H
	DB	0bH
	DB	054H
	DB	013H
	DB	054H
	DB	0bH
	DB	054H
	DB	0bH
	DB	054H
	DB	0bH
	DB	074H
	DB	0bH
	DB	054H
	DB	0bH
	DB	054H
	DB	0bH
	DB	074H
	DB	0bH
	DB	054H
	DB	0bH
	DB	054H
	DB	0bH
	DB	054H
	DB	0bH
	DB	054H
	DB	03H
	DB	054H
	DB	0bH
	DB	054H
	DB	0bH
	DB	054H
	DB	0bH
	DB	054H
	DB	03H
	DB	034H
	DB	03H
	DB	054H
	DB	0bH
	DB	054H
	DB	03H
	DB	033H
	DB	03H
	DB	054H
	DB	0bH
	DB	034H
	DB	03H
	DB	034H
	DB	0bH
	DB	054H
	DB	03H
	DB	034H
	DB	03H
	DB	054H
	DB	0bH
	DB	034H
	DB	03H
	DB	054H
	DB	03H
	DB	054H
	DB	0bH
	DB	034H
	DB	03H
	DB	034H
	DB	0bH
	DB	033H
	DB	0bH
	DB	033H
	DB	03H
	DB	034H
	DB	03H
	DB	034H
	DB	0bH
	DB	033H
	DB	03H
	DB	034H
	DB	03H
	DB	014H
	DB	0bH
	DB	033H
	DB	03H
	DB	034H
	DB	03H
	DB	034H
	DB	0bH
	DB	034H
	DB	03H
	DB	054H
	DB	03H
	DB	034H
	DB	0bH
	DB	034H
	DB	03H
	DB	034H
	DB	0bH
	DB	033H
	DB	03H
	DB	034H
	DB	03H
	DB	034H
	DB	0bH
	DB	033H
	DB	0bH
	DB	034H
	DB	03H
	DB	034H
	DB	0bH
	DB	033H
	DB	0bH
	DB	034H
	DB	03H
	DB	033H
	DB	03H
	DB	034H
	DB	0bH
	DB	033H
	DB	03H
	DB	034H
	DB	03H
	DB	033H
	DB	0bH
	DB	034H
	DB	03H
	DB	034H
	DB	03H
	DB	033H
	DB	0bH
	DB	033H
	DB	03H
	DB	033H
	DB	0bH
	DB	034H
	DB	0bH
	DB	013H
	DB	03H
	DB	013H
	DB	0bH
	DB	033H
	DB	03H
	DB	033H
	DB	03H
	DB	054H
	DB	0bH
	DB	034H
	DB	03H
	DB	054H
	DB	03H
	DB	054H
	DB	0bH
	DB	034H
	DB	03H
	DB	054H
	DB	0bH
	DB	054H
	DB	0bH
	DB	054H
	DB	0bH
	DB	054H
	DB	03H
	DB	054H
	DB	0bH
	DB	054H
	DB	0bH
	DB	054H
	DB	0bH
	DB	054H
	DB	0bH
	DB	054H
	DB	0bH
	DB	054H
	DB	0bH
	DB	054H
	DB	0bH
	DB	074H
	DB	0bH
	DB	054H
	DB	0bH
	DB	074H
	DB	0bH
	DB	054H
	DB	0bH
	DB	054H
	DB	013H
	DB	054H
	DB	0bH
	DB	074H
	DB	0bH
	DB	074H
	DB	0bH
	DB	074H
	DB	013H
	DB	054H
	DB	0bH
	DB	054H
	DB	0bH
	DB	074H
	DB	013H
	DB	074H
	DB	013H
	DB	054H
	DB	0bH
	DB	074H
	DB	013H
	DB	074H
	DB	0bH
	DB	074H
	DB	0bH
	DB	074H
	DB	013H
	DB	074H
	DB	013H
	DB	074H
	DB	013H
	DB	074H
	DB	0bH
	DB	074H
	DB	013H
	DB	074H
	DB	013H
	DB	075H
	DB	013H
	DB	074H
	DB	0bH
	DB	074H
	DB	013H
	DB	074H
	DB	013H
	DB	074H
	DB	013H
	DB	074H
	DB	013H
	DB	075H
	DB	013H
	DB	074H
	DB	013H
	DB	074H
	DB	013H
	DB	074H
	DB	013H
	DB	074H
	DB	013H
	DB	074H
	DB	013H
	DB	074H
	DB	013H
	DB	074H
	DB	013H
	DB	095H
	DB	013H
	DB	094H
	DB	013H
	DB	074H
	DB	01bH
	DB	094H
	DB	013H
	DB	094H
	DB	013H
	DB	094H
	DB	01bH
	DB	095H
	DB	013H
	DB	094H
	DB	013H
	DB	094H
	DB	013H
	DB	095H
	DB	01bH
	DB	095H
	DB	013H
	DB	095H
	DB	01bH
	DB	095H
	DB	01bH
	DB	094H
	DB	013H
	DB	074H
	DB	01bH
	DB	074H
	DB	01bH
	DB	094H
	DB	013H
	DB	074H
	DB	01bH
	DB	075H
	DB	01bH
	DB	094H
	DB	01bH
	DB	095H
	DB	01bH
	DB	094H
	DB	013H
	DB	095H
	DB	013H
	DB	095H
	DB	01bH
	DB	095H
	DB	01bH
	DB	094H
	DB	013H
	DB	074H
	DB	01bH
	DB	075H
	DB	01bH
	DB	094H
	DB	01bH
	DB	094H
	DB	013H
	DB	095H
	DB	01bH
	DB	094H
	DB	01bH
	DB	095H
	DB	01bH
	DB	094H
	DB	01bH
	DB	095H
	DB	013H
	DB	075H
	DB	01bH
	DB	094H
	DB	01bH
	DB	095H
	DB	01bH
	DB	095H
	DB	01bH
	DB	094H
	DB	01bH
	DB	095H
	DB	01bH
	DB	094H
	DB	01bH
	DB	094H
	DB	01bH
	DB	095H
	DB	01bH
	DB	094H
	DB	01bH
	DB	095H
	DB	013H
	DB	095H
	DB	01bH
	DB	094H
	DB	01bH
	DB	095H
	DB	01bH
	DB	094H
	DB	01bH
	DB	094H
	DB	01bH
	DB	0b5H
	DB	01bH
	DB	095H
	DB	01bH
	DB	094H
	DB	013H
	DB	0b5H
	DB	01bH
	DB	095H
	DB	01bH
	DB	0b5H
	DB	01bH
	DB	095H
	DB	01bH
	DB	094H
	DB	01bH
	DB	094H
	DB	01bH
	DB	074H
	DB	013H
	DB	094H
	DB	01bH
	DB	094H
	DB	01bH
	DB	094H
	DB	013H
	DB	094H
	DB	01bH
	DB	095H
	DB	01bH
	DB	095H
	DB	01bH
	DB	095H
	DB	01bH
	DB	095H
	DB	01bH
	DB	0b5H
	DB	01bH
	DB	0b5H
	DB	01bH
	DB	0b5H
	DB	01bH
	DB	0b5H
	DB	01bH
	DB	0b5H
	DB	01bH
	DB	095H
	DB	01bH
	DB	0b5H
	DB	01bH
	DB	0b5H
	DB	01bH
	DB	0b5H
	DB	01bH
	DB	0b5H
	DB	013H
	DB	0b5H
	DB	01bH
	DB	0b5H
	DB	01bH
	DB	0b5H
	DB	01bH
	DB	0b5H
	DB	01bH
	DB	0b5H
	DB	01bH
	DB	095H
	DB	01bH
	DB	095H
	DB	01bH
	DB	0b5H
	DB	01bH
	DB	0b5H
	DB	01bH
	DB	095H
	DB	01bH
	DB	0b5H
	DB	01bH
	DB	0b5H
	DB	01bH
	DB	0b5H
	DB	01bH
	DB	0b5H
	DB	01bH
	DB	0b6H
	DB	013H
	DB	0b5H
	DB	01bH
	DB	095H
	DB	01bH
	DB	095H
	DB	01bH
	DB	0b5H
	DB	013H
	DB	095H
	DB	01bH
	DB	0b4H
	DB	01bH
	DB	095H
	DB	013H
	DB	094H
	DB	01bH
	DB	095H
	DB	01bH
	DB	094H
	DB	01bH
	DB	095H
	DB	01bH
	DB	094H
	DB	01bH
	DB	094H
	DB	01bH
	DB	095H
	DB	01bH
	DB	095H
	DB	01bH
	DB	0b5H
	DB	01bH
	DB	095H
	DB	01bH
	DB	0b5H
	DB	01bH
	DB	094H
	DB	01bH
	DB	094H
	DB	01bH
	DB	0b5H
	DB	01bH
	DB	094H
	DB	01bH
	DB	094H
	DB	013H
	DB	095H
	DB	01bH
	DB	094H
	DB	01bH
	DB	095H
	DB	01bH
	DB	095H
	DB	01bH
	DB	0b5H
	DB	01bH
	DB	095H
	DB	01bH
	DB	095H
	DB	01bH
	DB	0b5H
	DB	01bH
	DB	094H
	DB	01bH
	DB	095H
	DB	01bH
	DB	0b5H
	DB	01bH
	DB	095H
	DB	013H
	DB	095H
	DB	013H
	DB	0b5H
	DB	01bH
	DB	095H
	DB	01bH
	DB	0b4H
	DB	01bH
	DB	0b5H
	DB	013H
	DB	0b5H
	DB	01bH
	DB	0b5H
	DB	013H
	DB	095H
	DB	01bH
	DB	0b5H
	DB	01bH
	DB	095H
	DB	013H
	DB	095H
	DB	013H
	DB	0b4H
	DB	01bH
	DB	095H
	DB	01bH
	DB	094H
	DB	013H
	DB	095H
	DB	01bH
	DB	0b4H
	DB	013H
	DB	095H
	DB	01bH
	DB	095H
	DB	01bH
	DB	095H
	DB	013H
	DB	095H
	DB	013H
	DB	095H
	DB	01bH
	DB	094H
	DB	01bH
	DB	094H
	DB	013H
	DB	095H
	DB	013H
	DB	094H
	DB	01bH
	DB	074H
	DB	013H
	DB	094H
	DB	01bH
	DB	075H
	DB	013H
	DB	074H
	DB	013H
	DB	095H
	DB	013H
	DB	075H
	DB	01bH
	DB	094H
	DB	013H
	DB	075H
	DB	013H
	DB	075H
	DB	01bH
	DB	075H
	DB	013H
	DB	075H
	DB	01bH
	DB	095H
	DB	013H
	DB	074H
	DB	013H
	DB	074H
	DB	01bH
	DB	074H
	DB	013H
	DB	074H
	DB	01bH
	DB	074H
	DB	013H
	DB	054H
	DB	013H
	DB	054H
	DB	013H
	DB	074H
	DB	013H
	DB	054H
	DB	013H
	DB	054H
	DB	013H
	DB	074H
	DB	013H
	DB	054H
	DB	013H
	DB	074H
	DB	013H
	DB	074H
	DB	013H
	DB	074H
	DB	013H
	DB	054H
	DB	013H
	DB	074H
	DB	013H
	DB	074H
	DB	013H
	DB	054H
	DB	013H
	DB	074H
	DB	013H
	DB	054H
	DB	013H
	DB	054H
	DB	0bH
	DB	054H
	DB	013H
	DB	054H
	DB	0bH
	DB	054H
	DB	013H
	DB	054H
	DB	013H
	DB	054H
	DB	0bH
	DB	074H
	DB	013H
	DB	054H
	DB	0bH
	DB	054H
	DB	013H
	DB	074H
	DB	0bH
	DB	054H
	DB	0bH
	DB	054H
	DB	013H
	DB	054H
	DB	013H
	DB	054H
	DB	0bH
	DB	054H
	DB	0bH
	DB	054H
	DB	0bH
	DB	074H
	DB	0bH
	DB	075H
	DB	0bH
	DB	054H
	DB	0bH
	DB	054H
	DB	0bH
	DB	054H
	DB	0bH
	DB	054H
	DB	0bH
	DB	054H
	DB	0bH
	DB	054H
	DB	03H
	DB	054H
	DB	0bH
	DB	054H
	DB	0bH
	DB	054H
	DB	0bH
	DB	054H
	DB	0bH
	DB	054H
	DB	03H
	DB	054H
	DB	0bH
	DB	054H
	DB	0bH
	DB	034H
	DB	03H
	DB	054H
	DB	0bH
	DB	054H
	DB	03H
	DB	034H
	DB	0bH
	DB	054H
	DB	03H
	DB	034H
	DB	0bH
	DB	034H
	DB	03H
	DB	054H
	DB	0bH
	DB	034H
	DB	03H
	DB	034H
	DB	03H
	DB	034H
	DB	03H
	DB	033H
	DB	0bH
	DB	033H
	DB	0bH
	DB	033H
	DB	03H
	DB	014H
	DB	03H
	DB	033H
	DB	0bH
	DB	034H
	DB	03H
	DB	033H
	DB	03H
	DB	033H
	DB	0bH
	DB	034H
	DB	03H
	DB	034H
	DB	03H
	DB	053H
	DB	0bH
	DB	034H
	DB	03H
	DB	054H
	DB	03H
	DB	033H
	DB	03H
	DB	034H
	DB	03H
	DB	034H
	DB	0bH
	DB	033H
	DB	03H
	DB	034H
	DB	03H
	DB	033H
	DB	03H
	DB	034H
	DB	0bH
	DB	033H
	DB	03H
	DB	034H
	DB	03H
	DB	034H
	DB	0bH
	DB	033H
	DB	03H
	DB	034H
	DB	03H
	DB	034H
	DB	0bH
	DB	033H
	DB	03H
	DB	034H
	DB	0bH
	DB	034H
	DB	03H
	DB	033H
	DB	0bH
	DB	034H
	DB	03H
	DB	033H
	DB	03H
	DB	033H
	DB	0bH
	DB	013H
	DB	03H
	DB	013H
	DB	03H
	DB	013H
	DB	0bH
	DB	034H
	DB	03H
	DB	034H
	DB	0bH
	DB	033H
	DB	03H
	DB	053H
	DB	0bH
	DB	054H
	DB	0bH
	DB	034H
	DB	03H
	DB	054H
	DB	0bH
	DB	034H
	DB	0bH
	DB	054H
	DB	0bH
	DB	054H
	DB	0bH
	DB	034H
	DB	0bH
	DB	054H
	DB	0bH
	DB	054H
	DB	0bH
	DB	054H
	DB	0bH
	DB	054H
	DB	0bH
	DB	054H
	DB	0bH
	DB	054H
	DB	0bH
	DB	054H
	DB	0bH
	DB	054H
	DB	0bH
	DB	054H
	DB	0bH
	DB	054H
	DB	0bH
	DB	074H
	DB	013H
	DB	074H
	DB	0bH
	DB	054H
	DB	0bH
	DB	054H
	DB	013H
	DB	074H
	DB	0bH
	DB	074H
	DB	013H
	DB	074H
	DB	013H
	DB	074H
	DB	0bH
	DB	074H
	DB	013H
	DB	074H
	DB	013H
	DB	054H
	DB	013H
	DB	074H
	DB	0bH
	DB	074H
	DB	013H
	DB	054H
	DB	013H
	DB	054H
	DB	013H
	DB	054H
	DB	0bH
	DB	074H
	DB	013H
	DB	074H
	DB	013H
	DB	074H
	DB	013H
	DB	074H
	DB	013H
	DB	075H
	DB	013H
	DB	074H
	DB	013H
	DB	094H
	DB	013H
	DB	075H
	DB	013H
	DB	075H
	DB	013H
	DB	094H
	DB	013H
	DB	095H
	DB	013H
	DB	075H
	DB	013H
	DB	074H
	DB	013H
	DB	094H
	DB	013H
	DB	074H
	DB	013H
	DB	074H
	DB	013H
	DB	074H
	DB	013H
	DB	074H
	DB	013H
	DB	074H
	DB	01bH
	DB	074H
	DB	013H
	DB	074H
	DB	013H
	DB	075H
	DB	013H
	DB	074H
	DB	01bH
	DB	094H
	DB	013H
	DB	075H
	DB	01bH
	DB	094H
	DB	013H
	DB	094H
	DB	01bH
	DB	095H
	DB	01bH
	DB	094H
	DB	013H
	DB	094H
	DB	013H
	DB	074H
	DB	01bH
	DB	074H
	DB	01bH
	DB	075H
	DB	013H
	DB	094H
	DB	01bH
	DB	074H
	DB	013H
	DB	075H
	DB	01bH
	DB	095H
	DB	01bH
	DB	094H
	DB	013H
	DB	095H
	DB	01bH
	DB	095H
	DB	01bH
	DB	074H
	DB	01bH
	DB	095H
	DB	013H
	DB	095H
	DB	01bH
	DB	094H
	DB	01bH
	DB	094H
	DB	013H
	DB	095H
	DB	01bH
	DB	074H
	DB	01bH
	DB	095H
	DB	01bH
	DB	075H
	DB	013H
	DB	094H
	DB	01bH
	DB	094H
	DB	01bH
	DB	095H
	DB	01bH
	DB	094H
	DB	01bH
	DB	094H
	DB	013H
	DB	075H
	DB	01bH
	DB	094H
	DB	01bH
	DB	095H
	DB	013H
	DB	094H
	DB	01bH
	DB	095H
	DB	01bH
	DB	095H
	DB	01bH
	DB	095H
	DB	01bH
	DB	095H
	DB	01bH
	DB	095H
	DB	01bH
	DB	095H
	DB	01bH
	DB	095H
	DB	01bH
	DB	095H
	DB	013H
	DB	095H
	DB	01bH
	DB	095H
	DB	013H
	DB	095H
	DB	013H
	DB	094H
	DB	01bH
	DB	0b5H
	DB	01bH
	DB	095H
	DB	01bH
	DB	095H
	DB	01bH
	DB	0b5H
	DB	01bH
	DB	094H
	DB	01bH
	DB	094H
	DB	013H
	DB	094H
	DB	01bH
	DB	074H
	DB	01bH
	DB	074H
	DB	01bH
	DB	074H
	DB	01bH
	DB	074H
	DB	01bH
	DB	074H
	DB	013H
	DB	094H
	DB	01bH
	DB	094H
	DB	01bH
	DB	094H
	DB	01bH
	DB	094H
	DB	01bH
	DB	095H
	DB	013H
	DB	095H
	DB	01bH
	DB	095H
	DB	01bH
	DB	0b5H
	DB	01bH
	DB	0b5H
	DB	01bH
	DB	095H
	DB	01bH
	DB	0b5H
	DB	01bH
	DB	0b5H
	DB	013H
	DB	0b5H
	DB	01bH
	DB	095H
	DB	01bH
	DB	0b5H
	DB	01bH
	DB	095H
	DB	01bH
	DB	0b5H
	DB	01bH
	DB	095H
	DB	013H
	DB	0b5H
	DB	01bH
	DB	0b5H
	DB	01bH
	DB	0b5H
	DB	01bH
	DB	0b5H
	DB	01bH
	DB	0b5H
	DB	01bH
	DB	0b6H
	DB	013H
	DB	0b5H
	DB	01bH
	DB	0b5H
	DB	01bH
	DB	096H
	DB	01bH
	DB	095H
	DB	01bH
	DB	0b5H
	DB	01bH
	DB	0b5H
	DB	01bH
	DB	095H
	DB	01bH
	DB	095H
	DB	013H
	DB	095H
	DB	01bH
	DB	095H
	DB	01bH
	DB	094H
	DB	01bH
	DB	095H
	DB	01bH
	DB	0b4H
	DB	01bH
	DB	095H
	DB	01bH
	DB	095H
	DB	013H
	DB	094H
	DB	01bH
	DB	094H
	DB	01bH
	DB	095H
	DB	013H
	DB	094H
	DB	01bH
	DB	094H
	DB	01bH
	DB	095H
	DB	01bH
	DB	094H
	DB	01bH
	DB	094H
	DB	01bH
	DB	095H
	DB	01bH
	DB	0b5H
	DB	01bH
	DB	095H
	DB	01bH
	DB	094H
	DB	01bH
	DB	095H
	DB	01bH
	DB	094H
	DB	013H
	DB	095H
	DB	01bH
	DB	095H
	DB	01bH
	DB	094H
	DB	013H
	DB	095H
	DB	01bH
	DB	095H
	DB	01bH
	DB	0b5H
	DB	013H
	DB	0b5H
	DB	01bH
	DB	095H
	DB	01bH
	DB	0b5H
	DB	013H
	DB	0b5H
	DB	01bH
	DB	094H
	DB	01bH
	DB	0b5H
	DB	01bH
	DB	0b5H
	DB	01bH
	DB	095H
	DB	013H
	DB	0b5H
	DB	01bH
	DB	095H
	DB	013H
	DB	095H
	DB	01bH
	DB	0b5H
	DB	01bH
	DB	095H
	DB	013H
	DB	095H
	DB	01bH
	DB	0b5H
	DB	01bH
	DB	095H
	DB	013H
	DB	095H
	DB	01bH
	DB	095H
	DB	01bH
	DB	0b5H
	DB	013H
	DB	095H
	DB	013H
	DB	0b4H
	DB	01bH
	DB	095H
	DB	013H
	DB	095H
	DB	013H
	DB	095H
	DB	01bH
	DB	095H
	DB	01bH
	DB	094H
	DB	013H
	DB	095H
	DB	013H
	DB	094H
	DB	01bH
	DB	094H
	DB	01bH
	DB	094H
	DB	01bH
	DB	074H
	DB	013H
	DB	095H
	DB	01bH
	DB	094H
	DB	013H
	DB	074H
	DB	01bH
	DB	095H
	DB	013H
	DB	074H
	DB	01bH
	DB	094H
	DB	013H
	DB	094H
	DB	01bH
	DB	094H
	DB	01bH
	DB	094H
	DB	013H
	DB	094H
	DB	013H
	DB	074H
	DB	01bH
	DB	075H
	DB	013H
	DB	075H
	DB	013H
	DB	074H
	DB	013H
	DB	074H
	DB	013H
	DB	074H
	DB	013H
	DB	075H
	DB	01bH
	DB	074H
	DB	013H
	DB	074H
	DB	013H
	DB	054H
	DB	013H
	DB	074H
	DB	013H
	DB	074H
	DB	013H
	DB	054H
	DB	013H
	DB	054H
	DB	013H
	DB	054H
	DB	013H
	DB	074H
	DB	013H
	DB	074H
	DB	013H
	DB	054H
	DB	013H
	DB	054H
	DB	013H
	DB	074H
	DB	013H
	DB	074H
	DB	013H
	DB	054H
	DB	013H
	DB	074H
	DB	013H
	DB	054H
	DB	013H
	DB	074H
	DB	013H
	DB	074H
	DB	013H
	DB	054H
	DB	0bH
	DB	074H
	DB	013H
	DB	054H
	DB	0bH
	DB	074H
	DB	013H
	DB	054H
	DB	0bH
	DB	054H
	DB	013H
	DB	054H
	DB	0bH
	DB	054H
	DB	0bH
	DB	054H
	DB	0bH
	DB	034H
	DB	0bH
	DB	033H
	DB	0bH
	DB	054H
	DB	0bH
	DB	054H
	DB	0bH
	DB	054H
	DB	0bH
	DB	054H
	DB	0bH
	DB	054H
	DB	0bH
	DB	055H
	DB	0bH
	DB	054H
	DB	0bH
	DB	054H
	DB	0bH
	DB	054H
	DB	0bH
	DB	054H
	DB	0bH
	DB	054H
	DB	03H
	DB	054H
	DB	0bH
	DB	054H
	DB	0bH
	DB	034H
	DB	03H
	DB	054H
	DB	0bH
	DB	054H
	DB	0bH
	DB	054H
	DB	03H
	DB	054H
	DB	0bH
	DB	034H
	DB	03H
	DB	054H
	DB	03H
	DB	034H
	DB	03H
	DB	054H
	DB	0bH
	DB	054H
	DB	03H
	DB	034H
	DB	03H
	DB	054H
	DB	0bH
	DB	034H
	DB	03H
	DB	034H
	DB	0bH
	DB	033H
	DB	0bH
	DB	033H
	DB	03H
	DB	034H
	DB	0bH
	DB	034H
	DB	03H
	DB	013H
	DB	03H
	DB	034H
	DB	0bH
	DB	033H
	DB	03H
	DB	014H
	DB	03H
	DB	033H
	DB	0bH
	DB	034H
	DB	03H
	DB	034H
	DB	0bH
	DB	034H
	DB	03H
	DB	054H
	DB	0bH
	DB	034H
	DB	03H
	DB	034H
	DB	03H
	DB	033H
	DB	0bH
	DB	034H
	DB	03H
	DB	034H
	DB	0bH
	DB	033H
	DB	03H
	DB	034H
	DB	03H
	DB	034H
	DB	0bH
	DB	033H
	DB	03H
	DB	034H
	DB	03H
	DB	034H
	DB	0bH
	DB	033H
	DB	03H
	DB	034H
	DB	03H
	DB	034H
	DB	0bH
	DB	033H
	DB	0bH
	DB	033H
	DB	03H
	DB	033H
	DB	0bH
	DB	034H
	DB	0bH
	DB	033H
	DB	03H
	DB	013H
	DB	03H
	DB	014H
	DB	0bH
	DB	033H
	DB	03H
	DB	033H
	DB	03H
	DB	013H
	DB	03H
	DB	034H
	DB	0bH
	DB	033H
	DB	03H
	DB	033H
	DB	0bH
	DB	034H
	DB	0bH
	DB	054H
	DB	0bH
	DB	033H
	DB	03H
	DB	054H
	DB	0bH
	DB	054H
	DB	0bH
	DB	054H
	DB	0bH
	DB	034H
	DB	03H
	DB	054H
	DB	0bH
	DB	054H
	DB	0bH
	DB	054H
	DB	0bH
	DB	054H
	DB	0bH
	DB	054H
	DB	0bH
	DB	054H
	DB	0bH
	DB	074H
	DB	0bH
	DB	054H
	DB	0bH
	DB	054H
	DB	0bH
	DB	074H
	DB	0bH
	DB	054H
	DB	013H
	DB	074H
	DB	0bH
	DB	074H
	DB	0bH
	DB	054H
	DB	013H
	DB	054H
	DB	013H
	DB	054H
	DB	0bH
	DB	074H
	DB	013H
	DB	074H
	DB	0bH
	DB	074H
	DB	013H
	DB	074H
	DB	0bH
	DB	054H
	DB	0bH
	DB	074H
	DB	013H
	DB	054H
	DB	013H
	DB	054H
	DB	0bH
	DB	074H
	DB	013H
	DB	054H
	DB	013H
	DB	074H
	DB	013H
	DB	054H
	DB	013H
	DB	074H
	DB	013H
	DB	074H
	DB	013H
	DB	074H
	DB	013H
	DB	074H
	DB	013H
	DB	074H
	DB	013H
	DB	074H
	DB	013H
	DB	075H
	DB	013H
	DB	074H
	DB	013H
	DB	074H
	DB	013H
	DB	074H
	DB	013H
	DB	075H
	DB	013H
	DB	094H
	DB	013H
	DB	074H
	DB	013H
	DB	075H
	DB	013H
	DB	095H
	DB	013H
	DB	074H
	DB	013H
	DB	075H
	DB	013H
	DB	094H
	DB	013H
	DB	094H
	DB	01bH
	DB	095H
	DB	013H
	DB	074H
	DB	013H
	DB	094H
	DB	01bH
	DB	075H
	DB	013H
	DB	094H
	DB	013H
	DB	074H
	DB	01bH
	DB	095H
	DB	01bH
	DB	074H
	DB	013H
	DB	074H
	DB	01bH
	DB	074H
	DB	013H
	DB	074H
	DB	01bH
	DB	094H
	DB	01bH
	DB	094H
	DB	013H
	DB	075H
	DB	01bH
	DB	094H
	DB	01bH
	DB	094H
	DB	013H
	DB	075H
	DB	01bH
	DB	074H
	DB	013H
	DB	094H
	DB	013H
	DB	095H
	DB	01bH
	DB	094H
	DB	013H
	DB	074H
	DB	01bH
	DB	095H
	DB	013H
	DB	094H
	DB	01bH
	DB	095H
	DB	01bH
	DB	094H
	DB	013H
	DB	095H
	DB	01bH
	DB	094H
	DB	01bH
	DB	095H
	DB	01bH
	DB	074H
	DB	013H
	DB	095H
	DB	01bH
	DB	075H
	DB	01bH
	DB	094H
	DB	01bH
	DB	095H
	DB	01bH
	DB	094H
	DB	01bH
	DB	094H
	DB	01bH
	DB	095H
	DB	01bH
	DB	095H
	DB	01bH
	DB	095H
	DB	01bH
	DB	095H
	DB	01bH
	DB	095H
	DB	013H
	DB	094H
	DB	01bH
	DB	095H
	DB	01bH
	DB	094H
	DB	013H
	DB	094H
	DB	01bH
	DB	095H
	DB	01bH
	DB	0b5H
	DB	01bH
	DB	095H
	DB	01bH
	DB	095H
	DB	01bH
	DB	095H
	DB	01bH
	DB	095H
	DB	01bH
	DB	095H
	DB	013H
	DB	094H
	DB	01bH
	DB	094H
	DB	01bH
	DB	094H
	DB	01bH
	DB	094H
	DB	01bH
	DB	095H
	DB	01bH
	DB	094H
	DB	01bH
	DB	094H
	DB	01bH
	DB	094H
	DB	013H
	DB	095H
	DB	01bH
	DB	074H
	DB	01bH
	DB	095H
	DB	01bH
	DB	094H
	DB	01bH
	DB	094H
	DB	01bH
	DB	074H
	DB	01bH
	DB	094H
	DB	01bH
	DB	074H
	DB	01bH
	DB	094H
	DB	01bH
	DB	094H
	DB	01bH
	DB	095H
	DB	013H
	DB	095H
	DB	01bH
	DB	095H
	DB	01bH
	DB	095H
	DB	01bH
	DB	0b5H
	DB	01bH
	DB	0b5H
	DB	01bH
	DB	095H
	DB	01bH
	DB	0b5H
	DB	01bH
	DB	0b5H
	DB	01bH
	DB	0b6H
	DB	01bH
	DB	095H
	DB	01bH
	DB	0b5H
	DB	013H
	DB	0b5H
	DB	01bH
	DB	095H
	DB	01bH
	DB	0b5H
	DB	01bH
	DB	095H
	DB	01bH
	DB	0b5H
	DB	01bH
	DB	0b6H
	DB	01bH
	DB	0b5H
	DB	013H
	DB	0b5H
	DB	01bH
	DB	0b5H
	DB	01bH
	DB	0b5H
	DB	01bH
	DB	095H
	DB	01bH
	DB	095H
	DB	01bH
	DB	0b4H
	DB	01bH
	DB	095H
	DB	01bH
	DB	095H
	DB	01bH
	DB	095H
	DB	01bH
	DB	0b5H
	DB	01bH
	DB	094H
	DB	013H
	DB	095H
	DB	01bH
	DB	0b4H
	DB	01bH
	DB	094H
	DB	01bH
	DB	095H
	DB	013H
	DB	094H
	DB	01bH
	DB	094H
	DB	01bH
	DB	095H
	DB	013H
	DB	0b5H
	DB	01bH
	DB	094H
	DB	013H
	DB	095H
	DB	01bH
	DB	095H
	DB	01bH
	DB	094H
	DB	013H
	DB	095H
	DB	01bH
	DB	095H
	DB	01bH
	DB	095H
	DB	01bH
	DB	094H
	DB	013H
	DB	095H
	DB	01bH
	DB	094H
	DB	01bH
	DB	094H
	DB	013H
	DB	094H
	DB	01bH
	DB	094H
	DB	01bH
	DB	095H
	DB	013H
	DB	0b4H
	DB	01bH
	DB	095H
	DB	01bH
	DB	095H
	DB	013H
	DB	0b5H
	DB	01bH
	DB	095H
	DB	01bH
	DB	0b5H
	DB	013H
	DB	094H
	DB	01bH
	DB	0b5H
	DB	01bH
	DB	095H
	DB	01bH
	DB	095H
	DB	01bH
	DB	0b4H
	DB	013H
	DB	095H
	DB	01bH
	DB	095H
	DB	013H
	DB	0b4H
	DB	01bH
	DB	0b5H
	DB	01bH
	DB	095H
	DB	013H
	DB	094H
	DB	01bH
	DB	095H
	DB	01bH
	DB	095H
	DB	01bH
	DB	095H
	DB	013H
	DB	0b5H
	DB	01bH
	DB	095H
	DB	01bH
	DB	095H
	DB	01bH
	DB	094H
	DB	01bH
	DB	094H
	DB	01bH
	DB	094H
	DB	01bH
	DB	094H
	DB	013H
	DB	095H
	DB	01bH
	DB	075H
	DB	013H
	DB	094H
	DB	01bH
	DB	095H
	DB	01bH
	DB	075H
	DB	013H
	DB	094H
	DB	01bH
	DB	074H
	DB	01bH
	DB	095H
	DB	013H
	DB	075H
	DB	01bH
	DB	075H
	DB	013H
	DB	074H
	DB	013H
	DB	074H
	DB	01bH
	DB	094H
	DB	01bH
	DB	094H
	DB	013H
	DB	074H
	DB	01bH
	DB	074H
	DB	013H
	DB	074H
	DB	01bH
	DB	074H
	DB	01bH
	DB	074H
	DB	013H
	DB	074H
	DB	013H
	DB	074H
	DB	01bH
	DB	054H
	DB	013H
	DB	074H
	DB	013H
	DB	054H
	DB	013H
	DB	074H
	DB	013H
	DB	074H
	DB	013H
	DB	054H
	DB	013H
	DB	074H
	DB	013H
	DB	074H
	DB	013H
	DB	074H
	DB	013H
	DB	074H
	DB	013H
	DB	074H
	DB	013H
	DB	054H
	DB	013H
	DB	054H
	DB	013H
	DB	074H
	DB	013H
	DB	074H
	DB	013H
	DB	054H
	DB	013H
	DB	054H
	DB	013H
	DB	054H
	DB	013H
	DB	054H
	DB	0bH
	DB	074H
	DB	0bH
	DB	074H
	DB	013H
	DB	054H
	DB	0bH
	DB	054H
	DB	013H
	DB	074H
	DB	0bH
	DB	054H
	DB	013H
	DB	054H
	DB	013H
	DB	054H
	DB	0bH
	DB	054H
	DB	013H
	DB	034H
	DB	013H
	DB	054H
	DB	013H
	DB	034H
	DB	0bH
	DB	054H
	DB	0bH
	DB	054H
	DB	0bH
	DB	074H
	DB	0bH
	DB	074H
	DB	0bH
	DB	054H
	DB	0bH
	DB	054H
	DB	0bH
	DB	054H
	DB	0bH
	DB	054H
	DB	0bH
	DB	054H
	DB	0bH
	DB	054H
	DB	0bH
	DB	054H
	DB	03H
	DB	034H
	DB	0bH
	DB	054H
	DB	0bH
	DB	034H
	DB	03H
	DB	054H
	DB	0bH
	DB	054H
	DB	03H
	DB	034H
	DB	0bH
	DB	034H
	DB	03H
	DB	054H
	DB	0bH
	DB	034H
	DB	03H
	DB	054H
	DB	03H
	DB	054H
	DB	0bH
	DB	034H
	DB	0bH
	DB	034H
	DB	03H
	DB	033H
	DB	0bH
	DB	033H
	DB	03H
	DB	034H
	DB	03H
	DB	014H
	DB	03H
	DB	033H
	DB	0bH
	DB	033H
	DB	03H
	DB	034H
	DB	0bH
	DB	014H
	DB	0bH
	DB	033H
	DB	03H
	DB	034H
	DB	03H
	DB	033H
	DB	0bH
	DB	034H
	DB	03H
	DB	034H
	DB	03H
	DB	034H
	DB	0bH
	DB	034H
	DB	03H
	DB	034H
	DB	03H
	DB	033H
	DB	03H
	DB	034H
	DB	0bH
	DB	034H
	DB	03H
	DB	033H
	DB	0bH
	DB	034H
	DB	03H
	DB	034H
	DB	03H
	DB	033H
	DB	0bH
	DB	034H
	DB	03H
	DB	033H
	DB	0bH
	DB	034H
	DB	03H
	DB	034H
	DB	03H
	DB	033H
	DB	0bH
	DB	034H
	DB	03H
	DB	034H
	DB	03H
	DB	033H
	DB	0bH
	DB	033H
	DB	03H
	DB	013H
	DB	03H
	DB	033H
	DB	0bH
	DB	014H
	DB	03H
	DB	033H
	DB	0bH
	DB	013H
	DB	03H
	DB	034H
	DB	0bH
	DB	033H
	DB	0bH
	DB	034H
	DB	03H
	DB	034H
	DB	03H
	DB	034H
	DB	0bH
	DB	033H
	DB	03H
	DB	054H
	DB	0bH
	DB	054H
	DB	0bH
	DB	054H
	DB	0bH
	DB	054H
	DB	0bH
	DB	054H
	DB	0bH
	DB	054H
	DB	0bH
	DB	054H
	DB	0bH
	DB	054H
	DB	0bH
	DB	054H
	DB	0bH
	DB	054H
	DB	0bH
	DB	054H
	DB	0bH
	DB	074H
	DB	0bH
	DB	054H
	DB	0bH
	DB	054H
	DB	0bH
	DB	054H
	DB	0bH
	DB	054H
	DB	0bH
	DB	074H
	DB	013H
	DB	054H
	DB	0bH
	DB	074H
	DB	013H
	DB	074H
	DB	0bH
	DB	054H
	DB	013H
	DB	074H
	DB	0bH
	DB	074H
	DB	0bH
	DB	054H
	DB	013H
	DB	074H
	DB	013H
	DB	074H
	DB	0bH
	DB	074H
	DB	013H
	DB	054H
	DB	013H
	DB	074H
	DB	013H
	DB	074H
	DB	013H
	DB	054H
	DB	0bH
	DB	074H
	DB	013H
	DB	074H
	DB	013H
	DB	074H
	DB	013H
	DB	074H
	DB	013H
	DB	074H
	DB	013H
	DB	075H
	DB	013H
	DB	094H
	DB	013H
	DB	074H
	DB	013H
	DB	094H
	DB	013H
	DB	075H
	DB	013H
	DB	074H
	DB	013H
	DB	074H
	DB	013H
	DB	074H
	DB	013H
	DB	074H
	DB	013H
	DB	074H
	DB	013H
	DB	074H
	DB	013H
	DB	094H
	DB	01bH
	DB	094H
	DB	013H
	DB	074H
	DB	013H
	DB	095H
	DB	013H
	DB	074H
	DB	013H
	DB	075H
	DB	01bH
	DB	094H
	DB	013H
	DB	094H
	DB	013H
	DB	075H
	DB	01bH
	DB	074H
	DB	013H
	DB	094H
	DB	013H
	DB	094H
	DB	01bH
	DB	074H
	DB	01bH
	DB	074H
	DB	01bH
	DB	074H
	DB	01bH
	DB	074H
	DB	013H
	DB	074H
	DB	01bH
	DB	094H
	DB	01bH
	DB	074H
	DB	013H
	DB	075H
	DB	01bH
	DB	095H
	DB	01bH
	DB	074H
	DB	01bH
	DB	095H
	DB	01bH
	DB	094H
	DB	013H
	DB	095H
	DB	01bH
	DB	095H
	DB	01bH
	DB	095H
	DB	013H
	DB	094H
	DB	01bH
	DB	074H
	DB	01bH
	DB	095H
	DB	01bH
	DB	075H
	DB	01bH
	DB	094H
	DB	01bH
	DB	094H
	DB	01bH
	DB	095H
	DB	01bH
	DB	094H
	DB	01bH
	DB	094H
	DB	01bH
	DB	095H
	DB	01bH
	DB	094H
	DB	01bH
	DB	095H
	DB	01bH
	DB	095H
	DB	01bH
	DB	094H
	DB	01bH
	DB	095H
	DB	01bH
	DB	095H
	DB	01bH
	DB	094H
	DB	01bH
	DB	095H
	DB	01bH
	DB	095H
	DB	01bH
	DB	094H
	DB	01bH
	DB	095H
	DB	01bH
	DB	0b5H
	DB	013H
	DB	095H
	DB	01bH
	DB	094H
	DB	01bH
	DB	0b4H
	DB	01bH
	DB	095H
	DB	01bH
	DB	0b5H
	DB	01bH
	DB	0b5H
	DB	013H
	DB	095H
	DB	01bH
	DB	095H
	DB	01bH
	DB	094H
	DB	01bH
	DB	094H
	DB	01bH
	DB	095H
	DB	013H
	DB	094H
	DB	01bH
	DB	095H
	DB	01bH
	DB	095H
	DB	01bH
	DB	094H
	DB	01bH
	DB	075H
	DB	01bH
	DB	094H
	DB	01bH
	DB	094H
	DB	01bH
	DB	095H
	DB	01bH
	DB	095H
	DB	01bH
	DB	094H
	DB	013H
	DB	095H
	DB	01bH
	DB	094H
	DB	01bH
	DB	094H
	DB	01bH
	DB	095H
	DB	01bH
	DB	094H
	DB	01bH
	DB	095H
	DB	01bH
	DB	094H
	DB	01bH
	DB	095H
	DB	01bH
	DB	095H
	DB	01bH
	DB	095H
	DB	01bH
	DB	095H
	DB	01bH
	DB	095H
	DB	013H
	DB	0b5H
	DB	01bH
	DB	095H
	DB	01bH
	DB	0b5H
	DB	01bH
	DB	0b5H
	DB	01bH
	DB	0b5H
	DB	01bH
	DB	095H
	DB	01bH
	DB	0b5H
	DB	01bH
	DB	0b6H
	DB	013H
	DB	0b5H
	DB	01bH
	DB	095H
	DB	01bH
	DB	0b5H
	DB	01bH
	DB	0b5H
	DB	01bH
	DB	095H
	DB	01bH
	DB	095H
	DB	01bH
	DB	095H
	DB	013H
	DB	095H
	DB	01bH
	DB	0b5H
	DB	01bH
	DB	094H
	DB	01bH
	DB	095H
	DB	01bH
	DB	0b4H
	DB	013H
	DB	094H
	DB	01bH
	DB	095H
	DB	01bH
	DB	094H
	DB	01bH
	DB	095H
	DB	01bH
	DB	094H
	DB	01bH
	DB	095H
	DB	01bH
	DB	095H
	DB	01bH
	DB	094H
	DB	01bH
	DB	094H
	DB	01bH
	DB	095H
	DB	01bH
	DB	095H
	DB	01bH
	DB	0b4H
	DB	01bH
	DB	095H
	DB	01bH
	DB	094H
	DB	01bH
	DB	095H
	DB	013H
	DB	094H
	DB	01bH
	DB	095H
	DB	01bH
	DB	094H
	DB	01bH
	DB	095H
	DB	01bH
	DB	095H
	DB	01bH
	DB	095H
	DB	01bH
	DB	094H
	DB	01bH
	DB	095H
	DB	01bH
	DB	094H
	DB	01bH
	DB	094H
	DB	01bH
	DB	095H
	DB	01bH
	DB	094H
	DB	01bH
	DB	095H
	DB	01bH
	DB	0b5H
	DB	01bH
	DB	095H
	DB	013H
	DB	095H
	DB	01bH
	DB	0b5H
	DB	01bH
	DB	0b5H
	DB	01bH
	DB	0b5H
	DB	01bH
	DB	095H
	DB	013H
	DB	0b5H
	DB	01bH
	DB	0b5H
	DB	01bH
	DB	095H
	DB	013H
	DB	095H
	DB	01bH
	DB	0b5H
	DB	01bH
	DB	095H
	DB	013H
	DB	0b5H
	DB	013H
	DB	0b5H
	DB	01bH
	DB	095H
	DB	01bH
	DB	095H
	DB	01bH
	DB	095H
	DB	013H
	DB	094H
	DB	01bH
	DB	094H
	DB	013H
	DB	095H
	DB	013H
	DB	094H
	DB	01bH
	DB	095H
	DB	01bH
	DB	095H
	DB	013H
	DB	074H
	DB	01bH
	DB	094H
	DB	01bH
	DB	094H
	DB	013H
	DB	094H
	DB	01bH
	DB	095H
	DB	01bH
	DB	095H
	DB	013H
	DB	074H
	DB	013H
	DB	094H
	DB	01bH
	DB	074H
	DB	01bH
	DB	095H
	DB	013H
	DB	075H
	DB	01bH
	DB	075H
	DB	013H
	DB	095H
	DB	013H
	DB	075H
	DB	013H
	DB	075H
	DB	01bH
	DB	074H
	DB	013H
	DB	074H
	DB	013H
	DB	075H
	DB	01bH
	DB	074H
	DB	013H
	DB	054H
	DB	013H
	DB	074H
	DB	013H
	DB	074H
	DB	01bH
	DB	074H
	DB	013H
	DB	054H
	DB	01bH
	DB	054H
	DB	013H
	DB	074H
	DB	013H
	DB	074H
	DB	013H
	DB	074H
	DB	013H
	DB	074H
	DB	013H
	DB	054H
	DB	013H
	DB	074H
	DB	013H
	DB	074H
	DB	013H
	DB	054H
	DB	013H
	DB	054H
	DB	013H
	DB	074H
	DB	013H
	DB	054H
	DB	013H
	DB	074H
	DB	0bH
	DB	054H
	DB	013H
	DB	074H
	DB	013H
	DB	074H
	DB	013H
	DB	054H
	DB	013H
	DB	074H
	DB	013H
	DB	074H
	DB	0bH
	DB	074H
	DB	0bH
	DB	074H
	DB	013H
	DB	054H
	DB	0bH
	DB	054H
	DB	0bH
	DB	054H
	DB	013H
	DB	054H
	DB	0bH
	DB	053H
	DB	0bH
	DB	033H
	DB	013H
	DB	054H
	DB	013H
	DB	054H
	DB	0bH
	DB	054H
	DB	0bH
	DB	054H
	DB	0bH
	DB	074H
	DB	0bH
	DB	054H
	DB	0bH
	DB	055H
	DB	0bH
	DB	074H
	DB	0bH
	DB	054H
	DB	0bH
	DB	054H
	DB	0bH
	DB	054H
	DB	03H
	DB	054H
	DB	0bH
	DB	054H
	DB	0bH
	DB	054H
	DB	03H
	DB	054H
	DB	0bH
	DB	054H
	DB	0bH
	DB	054H
	DB	03H
	DB	054H
	DB	0bH
	DB	054H
	DB	0bH
	DB	034H
	DB	03H
	DB	054H
	DB	03H
	DB	034H
	DB	0bH
	DB	034H
	DB	0bH
	DB	034H
	DB	03H
	DB	033H
	DB	03H
	DB	033H
	DB	0bH
	DB	033H
	DB	0bH
	DB	014H
	DB	03H
	DB	033H
	DB	0bH
	DB	033H
	DB	03H
	DB	034H
	DB	03H
	DB	013H
	DB	03H
	DB	033H
	DB	0bH
	DB	034H
	DB	03H
	DB	033H
	DB	03H
	DB	034H
	DB	0bH
	DB	034H
	DB	03H
	DB	034H
	DB	03H
	DB	033H
	DB	0bH
	DB	034H
	DB	03H
	DB	034H
	DB	03H
	DB	033H
	DB	0bH
	DB	034H
	DB	03H
	DB	033H
	DB	03H
	DB	034H
	DB	0bH
	DB	034H
	DB	03H
	DB	033H
	DB	03H
	DB	034H
	DB	0bH
	DB	034H
	DB	03H
	DB	033H
	DB	03H
	DB	034H
	DB	0bH
	DB	033H
	DB	03H
	DB	033H
	DB	0bH
	DB	034H
	DB	03H
	DB	033H
	DB	0bH
	DB	033H
	DB	0bH
	DB	034H
	DB	03H
	DB	013H
	DB	03H
	DB	033H
	DB	0bH
	DB	033H
	DB	03H
	DB	013H
	DB	03H
	DB	034H
	DB	0bH
	DB	033H
	DB	03H
	DB	033H
	DB	0bH
	DB	033H
	DB	03H
	DB	054H
	DB	0bH
	DB	033H
	DB	0bH
	DB	034H
	DB	0bH
	DB	033H
	DB	0bH
	DB	054H
	DB	03H
	DB	034H
	DB	0bH
	DB	054H
	DB	0bH
	DB	054H
	DB	0bH
	DB	054H
	DB	0bH
	DB	054H
	DB	0bH
	DB	054H
	DB	0bH
	DB	054H
	DB	0bH
	DB	054H
	DB	0bH
	DB	054H
	DB	0bH
	DB	054H
	DB	0bH
	DB	074H
	DB	0bH
	DB	054H
	DB	013H
	DB	074H
	DB	013H
	DB	074H
	DB	0bH
	DB	054H
	DB	0bH
	DB	054H
	DB	013H
	DB	074H
	DB	0bH
	DB	074H
	DB	013H
	DB	074H
	DB	0bH
	DB	074H
	DB	013H
	DB	054H
	DB	013H
	DB	054H
	DB	013H
	DB	054H
	DB	013H
	DB	054H
	DB	013H
	DB	075H
	DB	0bH
	DB	054H
	DB	013H
	DB	074H
	DB	013H
	DB	054H
	DB	013H
	DB	054H
	DB	013H
	DB	074H
	DB	013H
	DB	074H
	DB	013H
	DB	054H
	DB	013H
	DB	074H
	DB	013H
	DB	074H
	DB	013H
	DB	075H
	DB	013H
	DB	074H
	DB	013H
	DB	075H
	DB	013H
	DB	094H
	DB	013H
	DB	074H
	DB	013H
	DB	074H
	DB	013H
	DB	095H
	DB	013H
	DB	074H
	DB	013H
	DB	094H
	DB	013H
	DB	075H
	DB	013H
	DB	094H
	DB	013H
	DB	074H
	DB	01bH
	DB	075H
	DB	013H
	DB	074H
	DB	01bH
	DB	094H
	DB	013H
	DB	075H
	DB	013H
	DB	074H
	DB	01bH
	DB	095H
	DB	013H
	DB	074H
	DB	013H
	DB	094H
	DB	01bH
	DB	075H
	DB	01bH
	DB	095H
	DB	013H
	DB	074H
	DB	01bH
	DB	074H
	DB	013H
	DB	074H
	DB	013H
	DB	074H
	DB	01bH
	DB	074H
	DB	013H
	DB	074H
	DB	01bH
	DB	094H
	DB	013H
	DB	075H
	DB	01bH
	DB	094H
	DB	013H
	DB	094H
	DB	013H
	DB	095H
	DB	01bH
	DB	094H
	DB	01bH
	DB	095H
	DB	013H
	DB	095H
	DB	01bH
	DB	094H
	DB	01bH
	DB	095H
	DB	013H
	DB	095H
	DB	01bH
	DB	094H
	DB	01bH
	DB	094H
	DB	013H
	DB	095H
	DB	01bH
	DB	074H
	DB	01bH
	DB	095H
	DB	013H
	DB	075H
	DB	01bH
	DB	094H
	DB	01bH
	DB	095H
	DB	01bH
	DB	094H
	DB	013H
	DB	095H
	DB	01bH
	DB	095H
	DB	01bH
	DB	095H
	DB	013H
	DB	094H
	DB	01bH
	DB	095H
	DB	01bH
	DB	095H
	DB	013H
	DB	094H
	DB	01bH
	DB	095H
	DB	01bH
	DB	0b4H
	DB	01bH
	DB	095H
	DB	01bH
	DB	095H
	DB	01bH
	DB	095H
	DB	01bH
	DB	0b5H
	DB	01bH
	DB	095H
	DB	01bH
	DB	095H
	DB	013H
	DB	095H
	DB	01bH
	DB	095H
	DB	01bH
	DB	095H
	DB	01bH
	DB	0b4H
	DB	01bH
	DB	095H
	DB	01bH
	DB	094H
	DB	01bH
	DB	094H
	DB	01bH
	DB	095H
	DB	01bH
	DB	094H
	DB	01bH
	DB	094H
	DB	01bH
	DB	094H
	DB	013H
	DB	095H
	DB	01bH
	DB	094H
	DB	01bH
	DB	094H
	DB	01bH
	DB	094H
	DB	01bH
	DB	094H
	DB	01bH
	DB	094H
	DB	01bH
	DB	094H
	DB	01bH
	DB	095H
	DB	01bH
	DB	094H
	DB	01bH
	DB	094H
	DB	013H
	DB	095H
	DB	01bH
	DB	094H
	DB	01bH
	DB	094H
	DB	01bH
	DB	094H
	DB	01bH
	DB	094H
	DB	01bH
	DB	094H
	DB	013H
	DB	094H
	DB	01bH
	DB	094H
	DB	01bH
	DB	095H
	DB	01bH
	DB	095H
	DB	01bH
	DB	095H
	DB	01bH
	DB	095H
	DB	013H
	DB	0b5H
	DB	01bH
	DB	095H
	DB	01bH
	DB	0b5H
	DB	01bH
	DB	0b5H
	DB	01bH
	DB	0b5H
	DB	01bH
	DB	0b6H
	DB	01bH
	DB	0b5H
	DB	01bH
	DB	0b5H
	DB	013H
	DB	095H
	DB	01bH
	DB	095H
	DB	01bH
	DB	095H
	DB	01bH
	DB	095H
	DB	01bH
	DB	0b4H
	DB	01bH
	DB	0b5H
	DB	01bH
	DB	095H
	DB	01bH
	DB	0b5H
	DB	01bH
	DB	0b4H
	DB	01bH
	DB	0b5H
	DB	01bH
	DB	095H
	DB	01bH
	DB	094H
	DB	01bH
	DB	094H
	DB	01bH
	DB	095H
	DB	01bH
	DB	094H
	DB	01bH
	DB	094H
	DB	01bH
	DB	095H
	DB	01bH
	DB	095H
	DB	01bH
	DB	094H
	DB	01bH
	DB	095H
	DB	01bH
	DB	094H
	DB	013H
	DB	0b5H
	DB	01bH
	DB	095H
	DB	01bH
	DB	094H
	DB	01bH
	DB	095H
	DB	013H
	DB	095H
	DB	01bH
	DB	094H
	DB	01bH
	DB	095H
	DB	013H
	DB	095H
	DB	01bH
	DB	094H
	DB	01bH
	DB	095H
	DB	013H
	DB	095H
	DB	01bH
	DB	094H
	DB	01bH
	DB	094H
	DB	013H
	DB	095H
	DB	01bH
	DB	094H
	DB	01bH
	DB	094H
	DB	01bH
	DB	095H
	DB	013H
	DB	094H
	DB	01bH
	DB	0b5H
	DB	01bH
	DB	095H
	DB	013H
	DB	095H
	DB	01bH
	DB	0b5H
	DB	01bH
	DB	095H
	DB	01bH
	DB	095H
	DB	01bH
	DB	0b5H
	DB	01bH
	DB	0b5H
	DB	01bH
	DB	095H
	DB	01bH
	DB	0b5H
	DB	013H
	DB	095H
	DB	01bH
	DB	095H
	DB	01bH
	DB	095H
	DB	013H
	DB	095H
	DB	01bH
	DB	094H
	DB	013H
	DB	095H
	DB	01bH
	DB	094H
	DB	01bH
	DB	094H
	DB	01bH
	DB	095H
	DB	013H
	DB	094H
	DB	01bH
	DB	095H
	DB	01bH
	DB	095H
	DB	013H
	DB	094H
	DB	01bH
	DB	095H
	DB	01bH
	DB	074H
	DB	013H
	DB	075H
	DB	013H
	DB	094H
	DB	01bH
	DB	095H
	DB	01bH
	DB	075H
	DB	013H
	DB	074H
	DB	01bH
	DB	094H
	DB	013H
	DB	095H
	DB	01bH
	DB	094H
	DB	01bH
	DB	094H
	DB	013H
	DB	074H
	DB	01bH
	DB	094H
	DB	013H
	DB	074H
	DB	01bH
	DB	074H
	DB	013H
	DB	074H
	DB	013H
	DB	074H
	DB	013H
	DB	074H
	DB	01bH
	DB	074H
	DB	013H
	DB	055H
	DB	013H
	DB	074H
	DB	013H
	DB	054H
	DB	013H
	DB	074H
	DB	013H
	DB	054H
	DB	013H
	DB	054H
	DB	013H
	DB	074H
	DB	013H
	DB	074H
	DB	013H
	DB	074H
	DB	013H
	DB	054H
	DB	013H
	DB	074H
	DB	013H
	DB	074H
	DB	013H
	DB	074H
	DB	013H
	DB	074H
	DB	013H
	DB	054H
	DB	013H
	DB	074H
	DB	013H
	DB	054H
	DB	013H
	DB	074H
	DB	013H
	DB	074H
	DB	0bH
	DB	054H
	DB	0bH
	DB	054H
	DB	013H
	DB	054H
	DB	013H
	DB	054H
	DB	0bH
	DB	054H
	DB	013H
	DB	054H
	DB	0bH
	DB	054H
	DB	0bH
	DB	054H
	DB	013H
	DB	053H
	DB	013H
	DB	054H
	DB	0bH
	DB	033H
	DB	0bH
	DB	054H
	DB	013H
	DB	054H
	DB	0bH
	DB	033H
	DB	0bH
	DB	054H
	DB	0bH
	DB	054H
	DB	0bH
	DB	054H
	DB	0bH
	DB	074H
	DB	0bH
	DB	054H
	DB	0bH
	DB	054H
	DB	0bH
	DB	054H
	DB	0bH
	DB	054H
	DB	0bH
	DB	054H
	DB	0bH
	DB	054H
	DB	0bH
	DB	054H
	DB	0bH
	DB	054H
	DB	0bH
	DB	054H
	DB	03H
	DB	034H
	DB	0bH
	DB	054H
	DB	03H
	DB	054H
	DB	03H
	DB	054H
	DB	0bH
	DB	054H
	DB	03H
	DB	034H
	DB	03H
	DB	034H
	DB	0bH
	DB	034H
	DB	03H
	DB	033H
	DB	03H
	DB	033H
	DB	0bH
	DB	033H
	DB	03H
	DB	014H
	DB	0bH
	DB	034H
	DB	03H
	DB	033H
	DB	03H
	DB	034H
	DB	0bH
	DB	014H
	DB	03H
	DB	033H
	DB	03H
	DB	034H
	DB	0bH
	DB	013H
	DB	03H
	DB	033H
	DB	03H
	DB	034H
	DB	0bH
	DB	034H
	DB	03H
	DB	034H
	DB	0bH
	DB	054H
	DB	03H
	DB	034H
	DB	03H
	DB	034H
	DB	03H
	DB	034H
	DB	0bH
	DB	033H
	DB	03H
	DB	034H
	DB	03H
	DB	034H
	DB	0bH
	DB	033H
	DB	03H
	DB	033H
	DB	0bH
	DB	034H
	DB	03H
	DB	034H
	DB	03H
	DB	033H
	DB	0bH
	DB	033H
	DB	0bH
	DB	034H
	DB	0bH
	DB	033H
	DB	03H
	DB	033H
	DB	0bH
	DB	013H
	DB	03H
	DB	013H
	DB	03H
	DB	034H
	DB	0bH
	DB	013H
	DB	03H
	DB	013H
	DB	03H
	DB	034H
	DB	0bH
	DB	013H
	DB	03H
	DB	013H
	DB	03H
	DB	034H
	DB	0bH
	DB	033H
	DB	03H
	DB	034H
	DB	0bH
	DB	034H
	DB	0bH
	DB	053H
	DB	0bH
	DB	034H
	DB	0bH
	DB	034H
	DB	0bH
	DB	053H
	DB	03H
	DB	054H
	DB	0bH
	DB	034H
	DB	0bH
	DB	053H
	DB	0bH
	DB	054H
	DB	0bH
	DB	054H
	DB	0bH
	DB	054H
	DB	0bH
	DB	054H
	DB	0bH
	DB	054H
	DB	0bH
	DB	074H
	DB	0bH
	DB	054H
	DB	0bH
	DB	054H
	DB	0bH
	DB	074H
	DB	0bH
	DB	054H
	DB	013H
	DB	074H
	DB	0bH
	DB	054H
	DB	0bH
	DB	074H
	DB	013H
	DB	054H
	DB	0bH
	DB	074H
	DB	0bH
	DB	054H
	DB	013H
	DB	054H
	DB	013H
	DB	074H
	DB	0bH
	DB	074H
	DB	0bH
	DB	054H
	DB	013H
	DB	074H
	DB	013H
	DB	074H
	DB	013H
	DB	054H
	DB	0bH
	DB	074H
	DB	013H
	DB	074H
	DB	013H
	DB	054H
	DB	013H
	DB	054H
	DB	013H
	DB	054H
	DB	013H
	DB	054H
	DB	013H
	DB	074H
	DB	013H
	DB	074H
	DB	013H
	DB	094H
	DB	013H
	DB	075H
	DB	013H
	DB	074H
	DB	013H
	DB	075H
	DB	013H
	DB	074H
	DB	013H
	DB	094H
	DB	013H
	DB	074H
	DB	013H
	DB	075H
	DB	013H
	DB	074H
	DB	013H
	DB	094H
	DB	013H
	DB	095H
	DB	01bH
	DB	094H
	DB	013H
	DB	074H
	DB	013H
	DB	095H
	DB	01bH
	DB	094H
	DB	01bH
	DB	074H
	DB	013H
	DB	095H
	DB	01bH
	DB	074H
	DB	013H
	DB	095H
	DB	01bH
	DB	094H
	DB	01bH
	DB	095H
	DB	013H
	DB	074H
	DB	013H
	DB	074H
	DB	01bH
	DB	074H
	DB	01bH
	DB	074H
	DB	013H
	DB	074H
	DB	01bH
	DB	074H
	DB	01bH
	DB	074H
	DB	013H
	DB	095H
	DB	01bH
	DB	074H
	DB	01bH
	DB	074H
	DB	01bH
	DB	095H
	DB	01bH
	DB	095H
	DB	01bH
	DB	094H
	DB	01bH
	DB	094H
	DB	013H
	DB	095H
	DB	01bH
	DB	094H
	DB	01bH
	DB	095H
	DB	013H
	DB	095H
	DB	01bH
	DB	094H
	DB	01bH
	DB	095H
	DB	01bH
	DB	094H
	DB	01bH
	DB	095H
	DB	013H
	DB	095H
	DB	01bH
	DB	094H
	DB	01bH
	DB	095H
	DB	013H
	DB	095H
	DB	01bH
	DB	095H
	DB	01bH
	DB	094H
	DB	01bH
	DB	094H
	DB	01bH
	DB	095H
	DB	01bH
	DB	095H
	DB	01bH
	DB	095H
	DB	01bH
	DB	095H
	DB	01bH
	DB	095H
	DB	01bH
	DB	095H
	DB	013H
	DB	095H
	DB	01bH
	DB	095H
	DB	013H
	DB	094H
	DB	01bH
	DB	095H
	DB	01bH
	DB	095H
	DB	01bH
	DB	0b4H
	DB	01bH
	DB	095H
	DB	01bH
	DB	095H
	DB	01bH
	DB	095H
	DB	01bH
	DB	094H
	DB	01bH
	DB	094H
	DB	01bH
	DB	094H
	DB	013H
	DB	094H
	DB	01bH
	DB	095H
	DB	01bH
	DB	094H
	DB	01bH
	DB	094H
	DB	01bH
	DB	095H
	DB	01bH
	DB	094H
	DB	01bH
	DB	094H
	DB	01bH
	DB	095H
	DB	01bH
	DB	095H
	DB	01bH
	DB	095H
	DB	013H
	DB	094H
	DB	01bH
	DB	094H
	DB	01bH
	DB	095H
	DB	01bH
	DB	094H
	DB	01bH
	DB	095H
	DB	01bH
	DB	094H
	DB	01bH
	DB	095H
	DB	01bH
	DB	095H
	DB	01bH
	DB	095H
	DB	013H
	DB	095H
	DB	01bH
	DB	095H
	DB	01bH
	DB	094H
	DB	01bH
	DB	095H
	DB	01bH
	DB	095H
	DB	01bH
	DB	094H
	DB	01bH
	DB	094H
	DB	01bH
	DB	094H
	DB	01bH
	DB	095H
	DB	01bH
	DB	095H
	DB	01bH
	DB	095H
	DB	01bH
	DB	095H
	DB	013H
	DB	095H
	DB	01bH
	DB	095H
	DB	01bH
	DB	0b5H
	DB	01bH
	DB	0b5H
	DB	01bH
	DB	0b5H
	DB	01bH
	DB	095H
	DB	01bH
	DB	095H
	DB	01bH
	DB	0b5H
	DB	01bH
	DB	094H
	DB	01bH
	DB	095H
	DB	01bH
	DB	094H
	DB	013H
	DB	0b5H
	DB	01bH
	DB	095H
	DB	01bH
	DB	095H
	DB	01bH
	DB	095H
	DB	01bH
	DB	094H
	DB	01bH
	DB	0b5H
	DB	013H
	DB	095H
	DB	01bH
	DB	094H
	DB	01bH
	DB	094H
	DB	01bH
	DB	094H
	DB	013H
	DB	094H
	DB	01bH
	DB	094H
	DB	01bH
	DB	094H
	DB	01bH
	DB	095H
	DB	01bH
	DB	095H
	DB	01bH
	DB	094H
	DB	01bH
	DB	095H
	DB	01bH
	DB	095H
	DB	01bH
	DB	094H
	DB	01bH
	DB	095H
	DB	01bH
	DB	095H
	DB	01bH
	DB	094H
	DB	01bH
	DB	094H
	DB	01bH
	DB	094H
	DB	013H
	DB	095H
	DB	01bH
	DB	094H
	DB	01bH
	DB	095H
	DB	01bH
	DB	095H
	DB	013H
	DB	094H
	DB	01bH
	DB	094H
	DB	01bH
	DB	095H
	DB	01bH
	DB	094H
	DB	01bH
	DB	094H
	DB	01bH
	DB	095H
	DB	01bH
	DB	094H
	DB	01bH
	DB	0b5H
	DB	013H
	DB	0b5H
	DB	01bH
	DB	095H
	DB	013H
	DB	0b4H
	DB	01bH
	DB	095H
	DB	01bH
	DB	095H
	DB	013H
	DB	0b5H
	DB	01bH
	DB	0b4H
	DB	01bH
	DB	095H
	DB	013H
	DB	095H
	DB	01bH
	DB	094H
	DB	01bH
	DB	094H
	DB	01bH
	DB	094H
	DB	01bH
	DB	094H
	DB	01bH
	DB	095H
	DB	01bH
	DB	095H
	DB	01bH
	DB	094H
	DB	01bH
	DB	094H
	DB	013H
	DB	094H
	DB	01bH
	DB	075H
	DB	01bH
	DB	094H
	DB	013H
	DB	094H
	DB	01bH
	DB	095H
	DB	01bH
	DB	095H
	DB	013H
	DB	094H
	DB	01bH
	DB	094H
	DB	01bH
	DB	075H
	DB	013H
	DB	095H
	DB	013H
	DB	074H
	DB	01bH
	DB	075H
	DB	013H
	DB	094H
	DB	013H
	DB	074H
	DB	01bH
	DB	075H
	DB	01bH
	DB	094H
	DB	013H
	DB	074H
	DB	013H
	DB	075H
	DB	01bH
	DB	074H
	DB	013H
	DB	074H
	DB	01bH
	DB	074H
	DB	013H
	DB	074H
	DB	013H
	DB	074H
	DB	01bH
	DB	074H
	DB	013H
	DB	075H
	DB	013H
	DB	074H
	DB	01bH
	DB	074H
	DB	013H
	DB	074H
	DB	013H
	DB	074H
	DB	01bH
	DB	054H
	DB	013H
	DB	074H
	DB	013H
	DB	074H
	DB	013H
	DB	074H
	DB	013H
	DB	074H
	DB	013H
	DB	074H
	DB	013H
	DB	054H
	DB	013H
	DB	074H
	DB	013H
	DB	074H
	DB	013H
	DB	054H
	DB	013H
	DB	074H
	DB	013H
	DB	054H
	DB	013H
	DB	074H
	DB	0bH
	DB	074H
	DB	013H
	DB	074H
	DB	0bH
	DB	054H
	DB	013H
	DB	074H
	DB	013H
	DB	074H
	DB	013H
	DB	054H
	DB	013H
	DB	054H
	DB	013H
	DB	054H
	DB	0bH
	DB	054H
	DB	013H
	DB	054H
	DB	013H
	DB	053H
	DB	0bH
	DB	054H
	DB	0bH
	DB	033H
	DB	013H
	DB	033H
	DB	013H
	DB	034H
	DB	0bH
	DB	054H
	DB	0bH
	DB	074H
	DB	0bH
	DB	074H
	DB	0bH
	DB	055H
	DB	0bH
	DB	054H
	DB	0bH
	DB	054H
	DB	0bH
	DB	054H
	DB	0bH
	DB	054H
	DB	0bH
	DB	054H
	DB	03H
	DB	054H
	DB	0bH
	DB	054H
	DB	0bH
	DB	034H
	DB	03H
	DB	054H
	DB	0bH
	DB	054H
	DB	0bH
	DB	034H
	DB	03H
	DB	054H
	DB	0bH
	DB	054H
	DB	0bH
	DB	033H
	DB	03H
	DB	033H
	DB	0bH
	DB	033H
	DB	0bH
	DB	033H
	DB	03H
	DB	014H
	DB	03H
	DB	034H
	DB	03H
	DB	033H
	DB	0bH
	DB	033H
	DB	03H
	DB	014H
	DB	0bH
	DB	033H
	DB	0bH
	DB	034H
	DB	03H
	DB	034H
	DB	03H
	DB	033H
	DB	0bH
	DB	013H
	DB	03H
	DB	034H
	DB	03H
	DB	034H
	DB	0bH
	DB	034H
	DB	03H
	DB	034H
	DB	03H
	DB	034H
	DB	0bH
	DB	033H
	DB	03H
	DB	034H
	DB	03H
	DB	034H
	DB	0bH
	DB	033H
	DB	03H
	DB	034H
	DB	03H
	DB	034H
	DB	0bH
	DB	033H
	DB	03H
	DB	034H
	DB	0bH
	DB	034H
	DB	0bH
	DB	033H
	DB	03H
	DB	034H
	DB	03H
	DB	033H
	DB	0bH
	DB	034H
	DB	03H
	DB	013H
	DB	03H
	DB	013H
	DB	03H
	DB	034H
	DB	03H
	DB	033H
	DB	0bH
	DB	013H
	DB	03H
	DB	034H
	DB	03H
	DB	033H
	DB	0bH
	DB	013H
	DB	03H
	DB	033H
	DB	0bH
	DB	034H
	DB	0bH
	DB	034H
	DB	0bH
	DB	034H
	DB	03H
	DB	033H
	DB	03H
	DB	034H
	DB	0bH
	DB	034H
	DB	0bH
	DB	033H
	DB	0bH
	DB	034H
	DB	0bH
	DB	033H
	DB	0bH
	DB	054H
	DB	0bH
	DB	054H
	DB	0bH
	DB	054H
	DB	0bH
	DB	054H
	DB	0bH
	DB	054H
	DB	0bH
	DB	053H
	DB	0bH
	DB	054H
	DB	0bH
	DB	054H
	DB	0bH
	DB	074H
	DB	013H
	DB	054H
	DB	0bH
	DB	074H
	DB	0bH
	DB	054H
	DB	013H
	DB	054H
	DB	0bH
	DB	054H
	DB	013H
	DB	074H
	DB	013H
	DB	054H
	DB	0bH
	DB	054H
	DB	013H
	DB	074H
	DB	013H
	DB	054H
	DB	0bH
	DB	074H
	DB	013H
	DB	075H
	DB	013H
	DB	074H
	DB	0bH
	DB	054H
	DB	013H
	DB	074H
	DB	013H
	DB	054H
	DB	013H
	DB	074H
	DB	013H
	DB	074H
	DB	013H
	DB	074H
	DB	0bH
	DB	074H
	DB	013H
	DB	054H
	DB	013H
	DB	054H
	DB	013H
	DB	074H
	DB	013H
	DB	074H
	DB	013H
	DB	094H
	DB	013H
	DB	074H
	DB	013H
	DB	074H
	DB	013H
	DB	074H
	DB	013H
	DB	075H
	DB	013H
	DB	074H
	DB	013H
	DB	094H
	DB	013H
	DB	074H
	DB	013H
	DB	094H
	DB	01bH
	DB	074H
	DB	013H
	DB	075H
	DB	013H
	DB	094H
	DB	013H
	DB	074H
	DB	013H
	DB	095H
	DB	013H
	DB	074H
	DB	013H
	DB	094H
	DB	013H
	DB	095H
	DB	01bH
	DB	074H
	DB	01bH
	DB	094H
	DB	013H
	DB	095H
	DB	013H
	DB	074H
	DB	01bH
	DB	074H
	DB	013H
	DB	074H
	DB	01bH
	DB	074H
	DB	01bH
	DB	074H
	DB	013H
	DB	074H
	DB	01bH
	DB	074H
	DB	01bH
	DB	074H
	DB	01bH
	DB	074H
	DB	01bH
	DB	074H
	DB	01bH
	DB	095H
	DB	01bH
	DB	094H
	DB	013H
	DB	095H
	DB	013H
	DB	074H
	DB	01bH
	DB	095H
	DB	01bH
	DB	095H
	DB	01bH
	DB	094H
	DB	013H
	DB	095H
	DB	01bH
	DB	095H
	DB	01bH
	DB	094H
	DB	013H
	DB	075H
	DB	01bH
	DB	094H
	DB	01bH
	DB	094H
	DB	01bH
	DB	095H
	DB	01bH
	DB	094H
	DB	01bH
	DB	095H
	DB	01bH
	DB	094H
	DB	01bH
	DB	094H
	DB	01bH
	DB	095H
	DB	01bH
	DB	095H
	DB	01bH
	DB	095H
	DB	01bH
	DB	094H
	DB	01bH
	DB	095H
	DB	013H
	DB	0b5H
	DB	01bH
	DB	094H
	DB	01bH
	DB	094H
	DB	01bH
	DB	0b5H
	DB	01bH
	DB	095H
	DB	01bH
	DB	094H
	DB	013H
	DB	0b5H
	DB	01bH
	DB	095H
	DB	01bH
	DB	0b5H
	DB	01bH
	DB	0b5H
	DB	01bH
	DB	095H
	DB	01bH
	DB	094H
	DB	013H
	DB	094H
	DB	01bH
	DB	094H
	DB	01bH
	DB	094H
	DB	01bH
	DB	095H
	DB	01bH
	DB	094H
	DB	01bH
	DB	094H
	DB	013H
	DB	095H
	DB	01bH
	DB	095H
	DB	01bH
	DB	094H
	DB	01bH
	DB	094H
	DB	01bH
	DB	094H
	DB	01bH
	DB	094H
	DB	01bH
	DB	095H
	DB	01bH
	DB	094H
	DB	01bH
	DB	095H
	DB	01bH
	DB	094H
	DB	013H
	DB	095H
	DB	01bH
	DB	095H
	DB	01bH
	DB	094H
	DB	01bH
	DB	094H
	DB	01bH
	DB	095H
	DB	01bH
	DB	094H
	DB	01bH
	DB	094H
	DB	01bH
	DB	095H
	DB	01bH
	DB	095H
	DB	01bH
	DB	094H
	DB	01bH
	DB	095H
	DB	01bH
	DB	095H
	DB	013H
	DB	095H
	DB	01bH
	DB	094H
	DB	01bH
	DB	095H
	DB	01bH
	DB	094H
	DB	01bH
	DB	095H
	DB	01bH
	DB	095H
	DB	01bH
	DB	094H
	DB	01bH
	DB	094H
	DB	01bH
	DB	095H
	DB	01bH
	DB	095H
	DB	01bH
	DB	095H
	DB	01bH
	DB	095H
	DB	01bH
	DB	095H
	DB	01bH
	DB	0b5H
	DB	013H
	DB	0b5H
	DB	01bH
	DB	095H
	DB	01bH
	DB	095H
	DB	01bH
	DB	095H
	DB	01bH
	DB	0b4H
	DB	01bH
	DB	095H
	DB	013H
	DB	094H
	DB	01bH
	DB	095H
	DB	01bH
	DB	095H
	DB	01bH
	DB	094H
	DB	01bH
	DB	094H
	DB	01bH
	DB	095H
	DB	01bH
	DB	095H
	DB	01bH
	DB	094H
	DB	01bH
	DB	095H
	DB	013H
	DB	095H
	DB	01bH
	DB	094H
	DB	01bH
	DB	094H
	DB	01bH
	DB	095H
	DB	01bH
	DB	095H
	DB	013H
	DB	094H
	DB	01bH
	DB	095H
	DB	01bH
	DB	094H
	DB	01bH
	DB	095H
	DB	01bH
	DB	094H
	DB	01bH
	DB	095H
	DB	01bH
	DB	095H
	DB	01bH
	DB	094H
	DB	01bH
	DB	095H
	DB	01bH
	DB	094H
	DB	01bH
	DB	095H
	DB	01bH
	DB	095H
	DB	01bH
	DB	095H
	DB	01bH
	DB	095H
	DB	01bH
	DB	094H
	DB	01bH
	DB	094H
	DB	01bH
	DB	094H
	DB	01bH
	DB	094H
	DB	01bH
	DB	094H
	DB	01bH
	DB	094H
	DB	01bH
	DB	094H
	DB	01bH
	DB	0b5H
	DB	013H
	DB	0b5H
	DB	01bH
	DB	095H
	DB	01bH
	DB	095H
	DB	01bH
	DB	094H
	DB	01bH
	DB	094H
	DB	01bH
	DB	094H
	DB	01bH
	DB	095H
	DB	01bH
	DB	095H
	DB	013H
	DB	095H
	DB	01bH
	DB	094H
	DB	01bH
	DB	095H
	DB	013H
	DB	095H
	DB	01bH
	DB	094H
	DB	01bH
	DB	095H
	DB	01bH
	DB	095H
	DB	01bH
	DB	095H
	DB	013H
	DB	094H
	DB	01bH
	DB	075H
	DB	01bH
	DB	095H
	DB	013H
	DB	094H
	DB	01bH
	DB	075H
	DB	01bH
	DB	094H
	DB	013H
	DB	094H
	DB	01bH
	DB	095H
	DB	01bH
	DB	094H
	DB	013H
	DB	075H
	DB	01bH
	DB	095H
	DB	01bH
	DB	074H
	DB	013H
	DB	095H
	DB	013H
	DB	075H
	DB	01bH
	DB	074H
	DB	01bH
	DB	074H
	DB	013H
	DB	075H
	DB	01bH
	DB	074H
	DB	01bH
	DB	074H
	DB	013H
	DB	074H
	DB	013H
	DB	074H
	DB	01bH
	DB	074H
	DB	01bH
	DB	054H
	DB	013H
	DB	074H
	DB	013H
	DB	074H
	DB	013H
	DB	075H
	DB	013H
	DB	074H
	DB	01bH
	DB	074H
	DB	013H
	DB	074H
	DB	013H
	DB	074H
	DB	013H
	DB	054H
	DB	013H
	DB	074H
	DB	013H
	DB	074H
	DB	013H
	DB	074H
	DB	013H
	DB	074H
	DB	013H
	DB	074H
	DB	013H
	DB	074H
	DB	013H
	DB	074H
	DB	0bH
	DB	074H
	DB	013H
	DB	074H
	DB	013H
	DB	074H
	DB	013H
	DB	054H
	DB	0bH
	DB	074H
	DB	013H
	DB	074H
	DB	0bH
	DB	054H
	DB	0bH
	DB	054H
	DB	013H
	DB	054H
	DB	0bH
	DB	054H
	DB	013H
	DB	054H
	DB	013H
	DB	053H
	DB	0bH
	DB	054H
	DB	0bH
	DB	054H
	DB	013H
	DB	034H
	DB	0bH
	DB	054H
	DB	013H
	DB	034H
	DB	0bH
	DB	033H
	DB	0bH
	DB	054H
	DB	0bH
	DB	054H
	DB	0bH
	DB	074H
	DB	0bH
	DB	055H
	DB	0bH
	DB	054H
	DB	0bH
	DB	054H
	DB	0bH
	DB	054H
	DB	0bH
	DB	054H
	DB	03H
	DB	054H
	DB	0bH
	DB	054H
	DB	0bH
	DB	054H
	DB	03H
	DB	054H
	DB	0bH
	DB	054H
	DB	0bH
	DB	054H
	DB	03H
	DB	034H
	DB	0bH
	DB	033H
	DB	0bH
	DB	033H
	DB	03H
	DB	034H
	DB	03H
	DB	033H
	DB	0bH
	DB	013H
	DB	03H
	DB	034H
	DB	0bH
	DB	033H
	DB	03H
	DB	033H
	DB	03H
	DB	014H
	DB	03H
	DB	033H
	DB	03H
	DB	033H
	DB	0bH
	DB	034H
	DB	03H
	DB	014H
	DB	03H
	DB	033H
	DB	0bH
	DB	033H
	DB	0bH
	DB	034H
	DB	03H
	DB	034H
	DB	03H
	DB	034H
	DB	0bH
	DB	034H
	DB	03H
	DB	034H
	DB	03H
	DB	034H
	DB	03H
	DB	033H
	DB	0bH
	DB	034H
	DB	03H
	DB	033H
	DB	0bH
	DB	034H
	DB	03H
	DB	034H
	DB	03H
	DB	033H
	DB	03H
	DB	033H
	DB	03H
	DB	034H
	DB	0bH
	DB	033H
	DB	03H
	DB	033H
	DB	0bH
	DB	034H
	DB	03H
	DB	013H
	DB	03H
	DB	033H
	DB	0bH
	DB	033H
	DB	0bH
	DB	013H
	DB	03H
	DB	013H
	DB	0bH
	DB	033H
	DB	03H
	DB	013H
	DB	0bH
	DB	013H
	DB	03H
	DB	033H
	DB	0bH
	DB	033H
	DB	03H
	DB	033H
	DB	03H
	DB	033H
	DB	0bH
	DB	034H
	DB	0bH
	DB	033H
	DB	0bH
	DB	054H
	DB	03H
	DB	034H
	DB	0bH
	DB	033H
	DB	0bH
	DB	034H
	DB	0bH
	DB	034H
	DB	0bH
	DB	053H
	DB	0bH
	DB	054H
	DB	0bH
	DB	054H
	DB	0bH
	DB	054H
	DB	0bH
	DB	054H
	DB	0bH
	DB	054H
	DB	0bH
	DB	074H
	DB	0bH
	DB	054H
	DB	0bH
	DB	074H
	DB	013H
	DB	054H
	DB	013H
	DB	074H
	DB	0bH
	DB	074H
	DB	0bH
	DB	054H
	DB	013H
	DB	054H
	DB	0bH
	DB	074H
	DB	0bH
	DB	074H
	DB	013H
	DB	054H
	DB	0bH
	DB	074H
	DB	013H
	DB	074H
	DB	013H
	DB	055H
	DB	013H
	DB	074H
	DB	013H
	DB	054H
	DB	013H
	DB	074H
	DB	0bH
	DB	074H
	DB	013H
	DB	054H
	DB	013H
	DB	054H
	DB	013H
	DB	074H
	DB	013H
	DB	074H
	DB	013H
	DB	053H
	DB	013H
	DB	074H
	DB	013H
	DB	074H
	DB	013H
	DB	074H
	DB	013H
	DB	074H
	DB	013H
	DB	074H
	DB	013H
	DB	075H
	DB	013H
	DB	094H
	DB	013H
	DB	094H
	DB	013H
	DB	074H
	DB	013H
	DB	075H
	DB	013H
	DB	074H
	DB	013H
	DB	074H
	DB	013H
	DB	095H
	DB	013H
	DB	074H
	DB	01bH
	DB	095H
	DB	013H
	DB	074H
	DB	01bH
	DB	095H
	DB	013H
	DB	074H
	DB	013H
	DB	075H
	DB	01bH
	DB	094H
	DB	01bH
	DB	074H
	DB	013H
	DB	075H
	DB	01bH
	DB	094H
	DB	01bH
	DB	074H
	DB	013H
	DB	074H
	DB	01bH
	DB	074H
	DB	01bH
	DB	074H
	DB	01bH
	DB	074H
	DB	013H
	DB	074H
	DB	01bH
	DB	074H
	DB	013H
	DB	074H
	DB	013H
	DB	074H
	DB	01bH
	DB	074H
	DB	013H
	DB	074H
	DB	01bH
	DB	095H
	DB	01bH
	DB	094H
	DB	01bH
	DB	094H
	DB	013H
	DB	095H
	DB	01bH
	DB	095H
	DB	01bH
	DB	094H
	DB	013H
	DB	095H
	DB	013H
	DB	094H
	DB	01bH
	DB	095H
	DB	01bH
	DB	095H
	DB	01bH
	DB	095H
	DB	01bH
	DB	094H
	DB	01bH
	DB	095H
	DB	01bH
	DB	094H
	DB	01bH
	DB	095H
	DB	01bH
	DB	095H
	DB	01bH
	DB	094H
	DB	01bH
	DB	095H
	DB	01bH
	DB	095H
	DB	013H
	DB	095H
	DB	01bH
	DB	095H
	DB	01bH
	DB	094H
	DB	01bH
	DB	0b5H
	DB	01bH
	DB	095H
	DB	01bH
	DB	095H
	DB	01bH
	DB	0b5H
	DB	01bH
	DB	095H
	DB	01bH
	DB	095H
	DB	01bH
	DB	0b5H
	DB	01bH
	DB	095H
	DB	01bH
	DB	095H
	DB	01bH
	DB	095H
	DB	013H
	DB	094H
	DB	01bH
	DB	094H
	DB	01bH
	DB	094H
	DB	01bH
	DB	094H
	DB	01bH
	DB	095H
	DB	01bH
	DB	095H
	DB	01bH
	DB	094H
	DB	01bH
	DB	094H
	DB	01bH
	DB	095H
	DB	01bH
	DB	094H
	DB	01bH
	DB	094H
	DB	013H
	DB	095H
	DB	01bH
	DB	095H
	DB	01bH
	DB	094H
	DB	013H
	DB	094H
	DB	01bH
	DB	094H
	DB	01bH
	DB	095H
	DB	01bH
	DB	094H
	DB	01bH
	DB	094H
	DB	01bH
	DB	095H
	DB	01bH
	DB	094H
	DB	01bH
	DB	095H
	DB	013H
	DB	094H
	DB	01bH
	DB	094H
	DB	01bH
	DB	095H
	DB	01bH
	DB	094H
	DB	01bH
	DB	094H
	DB	01bH
	DB	095H
	DB	013H
	DB	094H
	DB	01bH
	DB	094H
	DB	01bH
	DB	095H
	DB	01bH
	DB	095H
	DB	01bH
	DB	095H
	DB	01bH
	DB	094H
	DB	013H
	DB	095H
	DB	01bH
	DB	0b4H
	DB	01bH
	DB	095H
	DB	01bH
	DB	094H
	DB	01bH
	DB	094H
	DB	01bH
	DB	074H
	DB	01bH
	DB	095H
	DB	01bH
	DB	095H
	DB	01bH
	DB	095H
	DB	01bH
	DB	0b4H
	DB	01bH
	DB	0b5H
	DB	01bH
	DB	095H
	DB	01bH
	DB	094H
	DB	01bH
	DB	095H
	DB	01bH
	DB	095H
	DB	01bH
	DB	095H
	DB	01bH
	DB	0b4H
	DB	01bH
	DB	095H
	DB	01bH
	DB	094H
	DB	01bH
	DB	094H
	DB	01bH
	DB	095H
	DB	01bH
	DB	095H
	DB	01bH
	DB	094H
	DB	01bH
	DB	095H
	DB	01bH
	DB	095H
	DB	01bH
	DB	094H
	DB	01bH
	DB	094H
	DB	01bH
	DB	095H
	DB	01bH
	DB	094H
	DB	01bH
	DB	095H
	DB	01bH
	DB	095H
	DB	01bH
	DB	094H
	DB	01bH
	DB	095H
	DB	01bH
	DB	095H
	DB	013H
	DB	094H
	DB	01bH
	DB	095H
	DB	01bH
	DB	095H
	DB	01bH
	DB	095H
	DB	01bH
	DB	095H
	DB	01bH
	DB	094H
	DB	01bH
	DB	094H
	DB	01bH
	DB	094H
	DB	01bH
	DB	095H
	DB	013H
	DB	094H
	DB	01bH
	DB	094H
	DB	01bH
	DB	095H
	DB	013H
	DB	095H
	DB	01bH
	DB	094H
	DB	01bH
	DB	095H
	DB	01bH
	DB	095H
	DB	01bH
	DB	094H
	DB	01bH
	DB	095H
	DB	01bH
	DB	094H
	DB	01bH
	DB	094H
	DB	013H
	DB	095H
	DB	01bH
	DB	094H
	DB	01bH
	DB	095H
	DB	01bH
	DB	095H
	DB	01bH
	DB	094H
	DB	01bH
	DB	094H
	DB	013H
	DB	095H
	DB	01bH
	DB	094H
	DB	01bH
	DB	094H
	DB	013H
	DB	095H
	DB	01bH
	DB	094H
	DB	01bH
	DB	094H
	DB	013H
	DB	095H
	DB	01bH
	DB	094H
	DB	01bH
	DB	095H
	DB	01bH
	DB	095H
	DB	01bH
	DB	094H
	DB	013H
	DB	095H
	DB	01bH
	DB	075H
	DB	01bH
	DB	094H
	DB	013H
	DB	095H
	DB	01bH
	DB	095H
	DB	01bH
	DB	094H
	DB	01bH
	DB	094H
	DB	013H
	DB	075H
	DB	013H
	DB	094H
	DB	01bH
	DB	094H
	DB	01bH
	DB	075H
	DB	013H
	DB	074H
	DB	01bH
	DB	074H
	DB	013H
	DB	074H
	DB	013H
	DB	074H
	DB	01bH
	DB	075H
	DB	013H
	DB	074H
	DB	013H
	DB	074H
	DB	01bH
	DB	075H
	DB	013H
	DB	074H
	DB	013H
	DB	074H
	DB	01bH
	DB	074H
	DB	013H
	DB	074H
	DB	013H
	DB	074H
	DB	013H
	DB	074H
	DB	013H
	DB	074H
	DB	013H
	DB	054H
	DB	013H
	DB	074H
	DB	013H
	DB	074H
	DB	013H
	DB	054H
	DB	013H
	DB	074H
	DB	013H
	DB	054H
	DB	013H
	DB	074H
	DB	013H
	DB	074H
	DB	013H
	DB	054H
	DB	013H
	DB	074H
	DB	013H
	DB	074H
	DB	0bH
	DB	054H
	DB	013H
	DB	075H
	DB	013H
	DB	054H
	DB	013H
	DB	054H
	DB	013H
	DB	074H
	DB	0bH
	DB	054H
	DB	013H
	DB	054H
	DB	013H
	DB	054H
	DB	0bH
	DB	053H
	DB	013H
	DB	054H
	DB	013H
	DB	034H
	DB	0bH
	DB	053H
	DB	013H
	DB	054H
	DB	0bH
	DB	054H
	DB	013H
	DB	033H
	DB	0bH
	DB	054H
	DB	0bH
	DB	034H
	DB	0bH
	DB	054H
	DB	0bH
	DB	054H
	DB	0bH
	DB	054H
	DB	0bH
	DB	054H
	DB	0bH
	DB	054H
	DB	0bH
	DB	054H
	DB	0bH
	DB	054H
	DB	0bH
	DB	054H
	DB	0bH
	DB	054H
	DB	0bH
	DB	054H
	DB	0bH
	DB	054H
	DB	0bH
	DB	034H
	DB	03H
	DB	054H
	DB	0bH
	DB	034H
	DB	0bH
	DB	034H
	DB	03H
	DB	033H
	DB	0bH
	DB	034H
	DB	03H
	DB	034H
	DB	0bH
	DB	013H
	DB	03H
	DB	034H
	DB	03H
	DB	034H
	DB	0bH
	DB	033H
	DB	0bH
	DB	014H
	DB	03H
	DB	034H
	DB	0bH
	DB	034H
	DB	03H
	DB	033H
	DB	03H
	DB	013H
	DB	0bH
	DB	034H
	DB	03H
	DB	034H
	DB	03H
	DB	033H
	DB	0bH
	DB	034H
	DB	03H
	DB	034H
	DB	03H
	DB	034H
	DB	0bH
	DB	054H
	DB	0bH
	DB	034H
	DB	03H
	DB	034H
	DB	03H
	DB	034H
	DB	03H
	DB	033H
	DB	0bH
	DB	034H
	DB	03H
	DB	033H
	DB	0bH
	DB	034H
	DB	0bH
	DB	033H
	DB	03H
	DB	034H
	DB	0bH
	DB	034H
	DB	03H
	DB	033H
	DB	0bH
	DB	033H
	DB	0bH
	DB	013H
	DB	03H
	DB	013H
	DB	03H
	DB	034H
	DB	0bH
	DB	033H
	DB	03H
	DB	014H
	DB	03H
	DB	033H
	DB	03H
	DB	034H
	DB	0bH
	DB	013H
	DB	03H
	DB	034H
	DB	0bH
	DB	034H
	DB	0bH
	DB	033H
	DB	03H
	DB	033H
	DB	0bH
	DB	034H
	DB	0bH
	DB	034H
	DB	0bH
	DB	033H
	DB	0bH
	DB	034H
	DB	0bH
	DB	054H
	DB	0bH
	DB	033H
	DB	0bH
	DB	034H
	DB	03H
	DB	054H
	DB	0bH
	DB	033H
	DB	0bH
	DB	054H
	DB	0bH
	DB	054H
	DB	0bH
	DB	053H
	DB	0bH
	DB	054H
	DB	0bH
	DB	054H
	DB	0bH
	DB	054H
	DB	013H
	DB	074H
	DB	0bH
	DB	054H
	DB	0bH
	DB	054H
	DB	0bH
	DB	074H
	DB	013H
	DB	074H
	DB	0bH
	DB	054H
	DB	013H
	DB	074H
	DB	0bH
	DB	054H
	DB	013H
	DB	074H
	DB	013H
	DB	054H
	DB	0bH
	DB	054H
	DB	0bH
	DB	074H
	DB	013H
	DB	054H
	DB	0bH
	DB	074H
	DB	013H
	DB	074H
	DB	013H
	DB	054H
	DB	013H
	DB	074H
	DB	013H
	DB	054H
	DB	013H
	DB	074H
	DB	013H
	DB	074H
	DB	013H
	DB	054H
	DB	013H
	DB	054H
	DB	013H
	DB	074H
	DB	013H
	DB	054H
	DB	013H
	DB	054H
	DB	013H
	DB	074H
	DB	013H
	DB	074H
	DB	013H
	DB	075H
	DB	013H
	DB	074H
	DB	013H
	DB	074H
	DB	013H
	DB	074H
	DB	013H
	DB	094H
	DB	013H
	DB	075H
	DB	013H
	DB	094H
	DB	01bH
	DB	094H
	DB	013H
	DB	074H
	DB	013H
	DB	094H
	DB	01bH
	DB	095H
	DB	013H
	DB	074H
	DB	01bH
	DB	094H
	DB	013H
	DB	095H
	DB	01bH
	DB	074H
	DB	013H
	DB	094H
	DB	013H
	DB	095H
	DB	01bH
	DB	074H
	DB	01bH
	DB	074H
	DB	01bH
	DB	074H
	DB	013H
	DB	074H
	DB	01bH
	DB	074H
	DB	013H
	DB	074H
	DB	01bH
	DB	074H
	DB	01bH
	DB	074H
	DB	01bH
	DB	074H
	DB	01bH
	DB	074H
	DB	013H
	DB	074H
	DB	01bH
	DB	094H
	DB	01bH
	DB	095H
	DB	013H
	DB	095H
	DB	01bH
	DB	094H
	DB	01bH
	DB	094H
	DB	013H
	DB	095H
	DB	01bH
	DB	095H
	DB	01bH
	DB	094H
	DB	01bH
	DB	095H
	DB	013H
	DB	094H
	DB	01bH
	DB	095H
	DB	01bH
	DB	094H
	DB	01bH
	DB	095H
	DB	01bH
	DB	095H
	DB	01bH
	DB	095H
	DB	01bH
	DB	094H
	DB	01bH
	DB	095H
	DB	01bH
	DB	095H
	DB	01bH
	DB	094H
	DB	01bH
	DB	094H
	DB	01bH
	DB	095H
	DB	01bH
	DB	095H
	DB	01bH
	DB	0b5H
	DB	013H
	DB	094H
	DB	01bH
	DB	095H
	DB	01bH
	DB	095H
	DB	01bH
	DB	094H
	DB	01bH
	DB	095H
	DB	013H
	DB	094H
	DB	01bH
	DB	095H
	DB	01bH
	DB	095H
	DB	01bH
	DB	095H
	DB	01bH
	DB	094H
	DB	01bH
	DB	094H
	DB	01bH
	DB	094H
	DB	01bH
	DB	095H
	DB	01bH
	DB	095H
	DB	01bH
	DB	094H
	DB	013H
	DB	094H
	DB	01bH
	DB	095H
	DB	01bH
	DB	094H
	DB	013H
	DB	095H
	DB	01bH
	DB	094H
	DB	01bH
	DB	094H
	DB	01bH
	DB	094H
	DB	01bH
	DB	095H
	DB	01bH
	DB	095H
	DB	01bH
	DB	094H
	DB	01bH
	DB	095H
	DB	01bH
	DB	094H
	DB	01bH
	DB	094H
	DB	01bH
	DB	095H
	DB	01bH
	DB	094H
	DB	01bH
	DB	095H
	DB	01bH
	DB	095H
	DB	01bH
	DB	094H
	DB	01bH
	DB	095H
	DB	01bH
	DB	095H
	DB	01bH
	DB	094H
	DB	01bH
	DB	095H
	DB	01bH
	DB	094H
	DB	01bH
	DB	095H
	DB	01bH
	DB	094H
	DB	01bH
	DB	094H
	DB	01bH
	DB	095H
	DB	01bH
	DB	0b4H
	DB	01bH
	DB	095H
	DB	01bH
	DB	095H
	DB	01bH
	DB	095H
	DB	01bH
	DB	094H
	DB	01bH
	DB	095H
	DB	01bH
	DB	074H
	DB	01bH
	DB	074H
	DB	01bH
	DB	094H
	DB	01bH
	DB	095H
	DB	013H
	DB	0b5H
	DB	01bH
	DB	094H
	DB	01bH
	DB	095H
	DB	01bH
	DB	0b5H
	DB	01bH
	DB	0b4H
	DB	01bH
	DB	0b5H
	DB	013H
	DB	0b5H
	DB	01bH
	DB	095H
	DB	01bH
	DB	095H
	DB	01bH
	DB	095H
	DB	01bH
	DB	095H
	DB	013H
	DB	094H
	DB	01bH
	DB	0b5H
	DB	01bH
	DB	094H
	DB	013H
	DB	094H
	DB	01bH
	DB	095H
	DB	01bH
	DB	0b4H
	DB	01bH
	DB	094H
	DB	01bH
	DB	095H
	DB	01bH
	DB	094H
	DB	013H
	DB	094H
	DB	01bH
	DB	095H
	DB	01bH
	DB	0b5H
	DB	01bH
	DB	094H
	DB	01bH
	DB	095H
	DB	01bH
	DB	0b5H
	DB	01bH
	DB	094H
	DB	01bH
	DB	094H
	DB	013H
	DB	094H
	DB	01bH
	DB	094H
	DB	01bH
	DB	095H
	DB	013H
	DB	095H
	DB	01bH
	DB	094H
	DB	013H
	DB	095H
	DB	01bH
	DB	095H
	DB	01bH
	DB	094H
	DB	01bH
	DB	095H
	DB	01bH
	DB	095H
	DB	01bH
	DB	094H
	DB	01bH
	DB	095H
	DB	01bH
	DB	095H
	DB	013H
	DB	094H
	DB	01bH
	DB	094H
	DB	01bH
	DB	094H
	DB	01bH
	DB	074H
	DB	01bH
	DB	094H
	DB	01bH
	DB	094H
	DB	01bH
	DB	095H
	DB	01bH
	DB	094H
	DB	013H
	DB	095H
	DB	01bH
	DB	094H
	DB	01bH
	DB	095H
	DB	01bH
	DB	094H
	DB	01bH
	DB	095H
	DB	01bH
	DB	095H
	DB	01bH
	DB	094H
	DB	01bH
	DB	095H
	DB	01bH
	DB	094H
	DB	013H
	DB	094H
	DB	01bH
	DB	095H
	DB	01bH
	DB	094H
	DB	013H
	DB	095H
	DB	01bH
	DB	094H
	DB	01bH
	DB	095H
	DB	01bH
	DB	094H
	DB	013H
	DB	094H
	DB	01bH
	DB	095H
	DB	013H
	DB	075H
	DB	01bH
	DB	094H
	DB	01bH
	DB	095H
	DB	01bH
	DB	095H
	DB	013H
	DB	094H
	DB	01bH
	DB	074H
	DB	013H
	DB	095H
	DB	01bH
	DB	074H
	DB	013H
	DB	074H
	DB	01bH
	DB	074H
	DB	01bH
	DB	074H
	DB	013H
	DB	074H
	DB	01bH
	DB	074H
	DB	013H
	DB	075H
	DB	013H
	DB	074H
	DB	01bH
	DB	074H
	DB	013H
	DB	074H
	DB	013H
	DB	075H
	DB	01bH
	DB	074H
	DB	01bH
	DB	074H
	DB	013H
	DB	074H
	DB	013H
	DB	074H
	DB	01bH
	DB	075H
	DB	013H
	DB	074H
	DB	013H
	DB	075H
	DB	013H
	DB	074H
	DB	013H
	DB	054H
	DB	013H
	DB	075H
	DB	013H
	DB	075H
	DB	013H
	DB	074H
	DB	013H
	DB	075H
	DB	013H
	DB	074H
	DB	013H
	DB	054H
	DB	013H
	DB	074H
	DB	013H
	DB	074H
	DB	0bH
	DB	054H
	DB	013H
	DB	074H
	DB	013H
	DB	054H
	DB	0bH
	DB	054H
	DB	013H
	DB	054H
	DB	013H
	DB	054H
	DB	0bH
	DB	053H
	DB	013H
	DB	054H
	DB	0bH
	DB	034H
	DB	0bH
	DB	054H
	DB	013H
	DB	053H
	DB	0bH
	DB	053H
	DB	013H
	DB	054H
	DB	0bH
	DB	053H
	DB	013H
	DB	053H
	DB	0bH
	DB	054H
	DB	0bH
	DB	054H
	DB	0bH
	DB	034H
	DB	0bH
	DB	054H
	DB	0bH
	DB	074H
	DB	0bH
	DB	054H
	DB	0bH
	DB	074H
	DB	0bH
	DB	054H
	DB	0bH
	DB	054H
	DB	0bH
	DB	054H
	DB	0bH
	DB	054H
	DB	0bH
	DB	054H
	DB	0bH
	DB	034H
	DB	0bH
	DB	034H
	DB	0bH
	DB	033H
	DB	0bH
	DB	033H
	DB	03H
	DB	033H
	DB	0bH
	DB	033H
	DB	0bH
	DB	034H
	DB	0bH
	DB	033H
	DB	03H
	DB	034H
	DB	03H
	DB	013H
	DB	03H
	DB	033H
	DB	0bH
	DB	034H
	DB	03H
	DB	033H
	DB	0bH
	DB	014H
	DB	03H
	DB	033H
	DB	0bH
	DB	033H
	DB	03H
	DB	034H
	DB	03H
	DB	013H
	DB	0bH
	DB	034H
	DB	03H
	DB	034H
	DB	03H
	DB	034H
	DB	0bH
	DB	034H
	DB	03H
	DB	034H
	DB	03H
	DB	033H
	DB	03H
	DB	034H
	DB	0bH
	DB	034H
	DB	03H
	DB	033H
	DB	03H
	DB	034H
	DB	0bH
	DB	033H
	DB	0bH
	DB	034H
	DB	03H
	DB	033H
	DB	0bH
	DB	033H
	DB	03H
	DB	013H
	DB	03H
	DB	034H
	DB	03H
	DB	013H
	DB	0bH
	DB	033H
	DB	03H
	DB	013H
	DB	03H
	DB	014H
	DB	0bH
	DB	033H
	DB	03H
	DB	013H
	DB	0bH
	DB	013H
	DB	03H
	DB	033H
	DB	03H
	DB	033H
	DB	0bH
	DB	033H
	DB	03H
	DB	014H
	DB	0bH
	DB	033H
	DB	0bH
	DB	034H
	DB	03H
	DB	034H
	DB	03H
	DB	033H
	DB	03H
	DB	034H
	DB	0bH
	DB	034H
	DB	0bH
	DB	053H
	DB	0bH
	DB	054H
	DB	0bH
	DB	054H
	DB	0bH
	DB	033H
	DB	0bH
	DB	034H
	DB	0bH
	DB	054H
	DB	0bH
	DB	054H
	DB	0bH
	DB	054H
	DB	0bH
	DB	074H
	DB	0bH
	DB	054H
	DB	013H
	DB	054H
	DB	0bH
	DB	074H
	DB	0bH
	DB	054H
	DB	013H
	DB	054H
	DB	0bH
	DB	054H
	DB	0bH
	DB	054H
	DB	013H
	DB	074H
	DB	0bH
	DB	054H
	DB	013H
	DB	074H
	DB	0bH
	DB	074H
	DB	013H
	DB	075H
	DB	013H
	DB	074H
	DB	013H
	DB	074H
	DB	013H
	DB	054H
	DB	0bH
	DB	054H
	DB	013H
	DB	074H
	DB	013H
	DB	054H
	DB	0bH
	DB	074H
	DB	013H
	DB	053H
	DB	013H
	DB	074H
	DB	013H
	DB	054H
	DB	013H
	DB	074H
	DB	013H
	DB	054H
	DB	013H
	DB	054H
	DB	013H
	DB	074H
	DB	013H
	DB	074H
	DB	013H
	DB	074H
	DB	013H
	DB	074H
	DB	013H
	DB	074H
	DB	013H
	DB	075H
	DB	013H
	DB	074H
	DB	013H
	DB	094H
	DB	01bH
	DB	074H
	DB	013H
	DB	095H
	DB	01bH
	DB	075H
	DB	013H
	DB	074H
	DB	013H
	DB	074H
	DB	013H
	DB	095H
	DB	01bH
	DB	074H
	DB	013H
	DB	074H
	DB	01bH
	DB	095H
	DB	013H
	DB	074H
	DB	01bH
	DB	095H
	DB	013H
	DB	094H
	DB	01bH
	DB	074H
	DB	013H
	DB	074H
	DB	01bH
	DB	074H
	DB	01bH
	DB	074H
	DB	013H
	DB	074H
	DB	01bH
	DB	074H
	DB	01bH
	DB	074H
	DB	01bH
	DB	074H
	DB	013H
	DB	074H
	DB	01bH
	DB	094H
	DB	01bH
	DB	094H
	DB	01bH
	DB	074H
	DB	01bH
	DB	094H
	DB	01bH
	DB	095H
	DB	01bH
	DB	095H
	DB	01bH
	DB	094H
	DB	013H
	DB	095H
	DB	01bH
	DB	095H
	DB	01bH
	DB	095H
	DB	01bH
	DB	094H
	DB	01bH
	DB	095H
	DB	013H
	DB	095H
	DB	01bH
	DB	094H
	DB	01bH
	DB	095H
	DB	013H
	DB	095H
	DB	01bH
	DB	094H
	DB	01bH
	DB	095H
	DB	013H
	DB	095H
	DB	01bH
	DB	094H
	DB	01bH
	DB	095H
	DB	01bH
	DB	095H
	DB	01bH
	DB	094H
	DB	01bH
	DB	095H
	DB	01bH
	DB	095H
	DB	01bH
	DB	095H
	DB	01bH
	DB	0b4H
	DB	01bH
	DB	095H
	DB	01bH
	DB	095H
	DB	01bH
	DB	0b5H
	DB	01bH
	DB	095H
	DB	01bH
	DB	0b5H
	DB	01bH
	DB	094H
	DB	013H
	DB	094H
	DB	01bH
	DB	094H
	DB	01bH
	DB	094H
	DB	01bH
	DB	095H
	DB	013H
	DB	094H
	DB	01bH
	DB	094H
	DB	01bH
	DB	094H
	DB	01bH
	DB	095H
	DB	01bH
	DB	094H
	DB	01bH
	DB	094H
	DB	01bH
	DB	095H
	DB	01bH
	DB	094H
	DB	01bH
	DB	095H
	DB	01bH
	DB	094H
	DB	01bH
	DB	094H
	DB	01bH
	DB	094H
	DB	01bH
	DB	095H
	DB	013H
	DB	094H
	DB	01bH
	DB	094H
	DB	01bH
	DB	095H
	DB	01bH
	DB	095H
	DB	01bH
	DB	095H
	DB	01bH
	DB	094H
	DB	01bH
	DB	094H
	DB	01bH
	DB	095H
	DB	01bH
	DB	095H
	DB	01bH
	DB	094H
	DB	01bH
	DB	095H
	DB	01bH
	DB	094H
	DB	01bH
	DB	095H
	DB	01bH
	DB	095H
	DB	01bH
	DB	095H
	DB	01bH
	DB	095H
	DB	013H
	DB	0b5H
	DB	01bH
	DB	0b5H
	DB	01bH
	DB	094H
	DB	01bH
	DB	094H
	DB	01bH
	DB	094H
	DB	01bH
	DB	094H
	DB	01bH
	DB	094H
	DB	01bH
	DB	075H
	DB	01bH
	DB	094H
	DB	01bH
	DB	094H
	DB	01bH
	DB	095H
	DB	01bH
	DB	0b5H
	DB	01bH
	DB	0b5H
	DB	01bH
	DB	095H
	DB	01bH
	DB	095H
	DB	01bH
	DB	095H
	DB	01bH
	DB	0b4H
	DB	01bH
	DB	0b4H
	DB	01bH
	DB	095H
	DB	01bH
	DB	094H
	DB	01bH
	DB	0b4H
	DB	01bH
	DB	095H
	DB	01bH
	DB	094H
	DB	01bH
	DB	095H
	DB	01bH
	DB	095H
	DB	01bH
	DB	094H
	DB	01bH
	DB	095H
	DB	013H
	DB	095H
	DB	01bH
	DB	094H
	DB	01bH
	DB	095H
	DB	01bH
	DB	094H
	DB	01bH
	DB	094H
	DB	01bH
	DB	095H
	DB	013H
	DB	095H
	DB	01bH
	DB	095H
	DB	01bH
	DB	094H
	DB	013H
	DB	094H
	DB	01bH
	DB	095H
	DB	01bH
	DB	095H
	DB	01bH
	DB	0b5H
	DB	01bH
	DB	094H
	DB	01bH
	DB	094H
	DB	01bH
	DB	095H
	DB	01bH
	DB	095H
	DB	01bH
	DB	094H
	DB	01bH
	DB	095H
	DB	01bH
	DB	095H
	DB	01bH
	DB	094H
	DB	01bH
	DB	094H
	DB	01bH
	DB	095H
	DB	01bH
	DB	094H
	DB	01bH
	DB	094H
	DB	01bH
	DB	095H
	DB	01bH
	DB	095H
	DB	01bH
	DB	094H
	DB	01bH
	DB	074H
	DB	01bH
	DB	074H
	DB	01bH
	DB	074H
	DB	01bH
	DB	094H
	DB	01bH
	DB	095H
	DB	01bH
	DB	094H
	DB	01bH
	DB	094H
	DB	01bH
	DB	094H
	DB	01bH
	DB	095H
	DB	01bH
	DB	095H
	DB	01bH
	DB	095H
	DB	013H
	DB	094H
	DB	01bH
	DB	095H
	DB	01bH
	DB	095H
	DB	01bH
	DB	095H
	DB	01bH
	DB	095H
	DB	013H
	DB	094H
	DB	013H
	DB	095H
	DB	01bH
	DB	095H
	DB	013H
	DB	094H
	DB	01bH
	DB	095H
	DB	01bH
	DB	095H
	DB	01bH
	DB	094H
	DB	01bH
	DB	075H
	DB	013H
	DB	095H
	DB	01bH
	DB	094H
	DB	01bH
	DB	075H
	DB	01bH
	DB	095H
	DB	013H
	DB	074H
	DB	01bH
	DB	094H
	DB	013H
	DB	074H
	DB	01bH
	DB	075H
	DB	013H
	DB	075H
	DB	013H
	DB	074H
	DB	01bH
	DB	074H
	DB	01bH
	DB	074H
	DB	013H
	DB	074H
	DB	013H
	DB	074H
	DB	01bH
	DB	074H
	DB	013H
	DB	074H
	DB	013H
	DB	074H
	DB	01bH
	DB	074H
	DB	013H
	DB	074H
	DB	013H
	DB	074H
	DB	01bH
	DB	074H
	DB	013H
	DB	074H
	DB	013H
	DB	054H
	DB	01bH
	DB	074H
	DB	013H
	DB	075H
	DB	013H
	DB	074H
	DB	013H
	DB	074H
	DB	013H
	DB	074H
	DB	013H
	DB	074H
	DB	013H
	DB	074H
	DB	013H
	DB	075H
	DB	013H
	DB	074H
	DB	013H
	DB	074H
	DB	0bH
	DB	074H
	DB	013H
	DB	075H
	DB	013H
	DB	054H
	DB	0bH
	DB	074H
	DB	013H
	DB	054H
	DB	013H
	DB	054H
	DB	013H
	DB	054H
	DB	013H
	DB	054H
	DB	013H
	DB	054H
	DB	013H
	DB	054H
	DB	013H
	DB	053H
	DB	013H
	DB	034H
	DB	0bH
	DB	054H
	DB	0bH
	DB	054H
	DB	013H
	DB	054H
	DB	0bH
	DB	054H
	DB	0bH
	DB	033H
	DB	0bH
	DB	033H
	DB	0bH
	DB	053H
	DB	0bH
	DB	054H
	DB	0bH
	DB	054H
	DB	0bH
	DB	074H
	DB	0bH
	DB	054H
	DB	0bH
	DB	055H
	DB	03H
	DB	054H
	DB	0bH
	DB	054H
	DB	0bH
	DB	055H
	DB	03H
	DB	054H
	DB	0bH
	DB	034H
	DB	03H
	DB	033H
	DB	0bH
	DB	034H
	DB	0bH
	DB	033H
	DB	0bH
	DB	034H
	DB	03H
	DB	034H
	DB	0bH
	DB	033H
	DB	03H
	DB	013H
	DB	03H
	DB	034H
	DB	0bH
	DB	034H
	DB	03H
	DB	033H
	DB	03H
	DB	033H
	DB	0bH
	DB	014H
	DB	03H
	DB	034H
	DB	03H
	DB	034H
	DB	0bH
	DB	033H
	DB	03H
	DB	014H
	DB	03H
	DB	033H
	DB	0bH
	DB	034H
	DB	03H
	DB	034H
	DB	03H
	DB	054H
	DB	0bH
	DB	034H
	DB	03H
	DB	033H
	DB	03H
	DB	034H
	DB	03H
	DB	033H
	DB	0bH
	DB	033H
	DB	03H
	DB	034H
	DB	0bH
	DB	033H
	DB	03H
	DB	034H
	DB	03H
	DB	033H
	DB	0bH
	DB	013H
	DB	03H
	DB	013H
	DB	0bH
	DB	033H
	DB	03H
	DB	014H
	DB	03H
	DB	033H
	DB	0bH
	DB	033H
	DB	03H
	DB	013H
	DB	03H
	DB	033H
	DB	0bH
	DB	033H
	DB	03H
	DB	014H
	DB	03H
	DB	033H
	DB	0bH
	DB	033H
	DB	0bH
	DB	033H
	DB	03H
	DB	034H
	DB	0bH
	DB	033H
	DB	03H
	DB	033H
	DB	0bH
	DB	034H
	DB	0bH
	DB	034H
	DB	0bH
	DB	053H
	DB	0bH
	DB	034H
	DB	0bH
	DB	053H
	DB	0bH
	DB	034H
	DB	0bH
	DB	053H
	DB	0bH
	DB	034H
	DB	0bH
	DB	053H
	DB	0bH
	DB	053H
	DB	0bH
	DB	054H
	DB	0bH
	DB	054H
	DB	013H
	DB	054H
	DB	013H
	DB	054H
	DB	0bH
	DB	074H
	DB	0bH
	DB	054H
	DB	013H
	DB	054H
	DB	0bH
	DB	054H
	DB	013H
	DB	054H
	DB	0bH
	DB	054H
	DB	013H
	DB	074H
	DB	013H
	DB	054H
	DB	0bH
	DB	054H
	DB	013H
	DB	074H
	DB	013H
	DB	054H
	DB	0bH
	DB	074H
	DB	013H
	DB	074H
	DB	013H
	DB	054H
	DB	013H
	DB	074H
	DB	013H
	DB	074H
	DB	013H
	DB	074H
	DB	013H
	DB	054H
	DB	013H
	DB	074H
	DB	013H
	DB	054H
	DB	013H
	DB	054H
	DB	013H
	DB	074H
	DB	013H
	DB	074H
	DB	013H
	DB	074H
	DB	013H
	DB	054H
	DB	013H
	DB	074H
	DB	013H
	DB	074H
	DB	013H
	DB	074H
	DB	013H
	DB	094H
	DB	013H
	DB	074H
	DB	013H
	DB	095H
	DB	013H
	DB	094H
	DB	01bH
	DB	074H
	DB	013H
	DB	075H
	DB	013H
	DB	094H
	DB	013H
	DB	074H
	DB	01bH
	DB	095H
	DB	013H
	DB	094H
	DB	013H
	DB	074H
	DB	01bH
	DB	095H
	DB	013H
	DB	074H
	DB	01bH
	DB	094H
	DB	01bH
	DB	095H
	DB	013H
	DB	074H
	DB	01bH
	DB	074H
	DB	01bH
	DB	074H
	DB	013H
	DB	074H
	DB	01bH
	DB	074H
	DB	01bH
	DB	074H
	DB	01bH
	DB	074H
	DB	01bH
	DB	074H
	DB	01bH
	DB	074H
	DB	013H
	DB	094H
	DB	01bH
	DB	094H
	DB	01bH
	DB	074H
	DB	01bH
	DB	094H
	DB	013H
	DB	074H
	DB	01bH
	DB	074H
	DB	013H
	DB	095H
	DB	01bH
	DB	095H
	DB	01bH
	DB	094H
	DB	01bH
	DB	095H
	DB	013H
	DB	094H
	DB	01bH
	DB	095H
	DB	01bH
	DB	095H
	DB	01bH
	DB	095H
	DB	01bH
	DB	095H
	DB	01bH
	DB	094H
	DB	01bH
	DB	095H
	DB	01bH
	DB	094H
	DB	01bH
	DB	094H
	DB	01bH
	DB	095H
	DB	01bH
	DB	095H
	DB	01bH
	DB	095H
	DB	013H
	DB	0b5H
	DB	01bH
	DB	095H
	DB	01bH
	DB	0b5H
	DB	013H
	DB	094H
	DB	01bH
	DB	095H
	DB	01bH
	DB	095H
	DB	01bH
	DB	0b5H
	DB	013H
	DB	094H
	DB	01bH
	DB	095H
	DB	01bH
	DB	0b5H
	DB	013H
	DB	0b5H
	DB	01bH
	DB	094H
	DB	01bH
	DB	094H
	DB	01bH
	DB	095H
	DB	01bH
	DB	095H
	DB	01bH
	DB	094H
	DB	01bH
	DB	094H
	DB	01bH
	DB	095H
	DB	01bH
	DB	094H
	DB	01bH
	DB	095H
	DB	01bH
	DB	094H
	DB	01bH
	DB	094H
	DB	01bH
	DB	095H
	DB	01bH
	DB	094H
	DB	01bH
	DB	094H
	DB	01bH
	DB	095H
	DB	013H
	DB	094H
	DB	01bH
	DB	094H
	DB	01bH
	DB	095H
	DB	01bH
	DB	094H
	DB	01bH
	DB	095H
	DB	01bH
	DB	095H
	DB	01bH
	DB	094H
	DB	01bH
	DB	094H
	DB	01bH
	DB	095H
	DB	01bH
	DB	094H
	DB	01bH
	DB	094H
	DB	01bH
	DB	095H
	DB	01bH
	DB	094H
	DB	013H
	DB	094H
	DB	01bH
	DB	095H
	DB	01bH
	DB	094H
	DB	01bH
	DB	095H
	DB	01bH
	DB	094H
	DB	01bH
	DB	094H
	DB	01bH
	DB	095H
	DB	01bH
	DB	094H
	DB	01bH
	DB	094H
	DB	01bH
	DB	094H
	DB	01bH
	DB	094H
	DB	01bH
	DB	094H
	DB	01bH
	DB	074H
	DB	01bH
	DB	094H
	DB	01bH
	DB	094H
	DB	01bH
	DB	094H
	DB	01bH
	DB	094H
	DB	01bH
	DB	094H
	DB	01bH
	DB	094H
	DB	01bH
	DB	0b5H
	DB	01bH
	DB	094H
	DB	013H
	DB	095H
	DB	01bH
	DB	0b5H
	DB	01bH
	DB	095H
	DB	01bH
	DB	095H
	DB	01bH
	DB	094H
	DB	01bH
	DB	095H
	DB	01bH
	DB	0b5H
	DB	01bH
	DB	094H
	DB	01bH
	DB	094H
	DB	01bH
	DB	095H
	DB	01bH
	DB	094H
	DB	01bH
	DB	094H
	DB	01bH
	DB	094H
	DB	01bH
	DB	095H
	DB	01bH
	DB	094H
	DB	01bH
	DB	094H
	DB	013H
	DB	095H
	DB	01bH
	DB	094H
	DB	01bH
	DB	094H
	DB	01bH
	DB	095H
	DB	01bH
	DB	095H
	DB	01bH
	DB	095H
	DB	01bH
	DB	095H
	DB	01bH
	DB	095H
	DB	01bH
	DB	095H
	DB	01bH
	DB	094H
	DB	01bH
	DB	095H
	DB	01bH
	DB	095H
	DB	01bH
	DB	094H
	DB	01bH
	DB	094H
	DB	01bH
	DB	095H
	DB	01bH
	DB	095H
	DB	013H
	DB	094H
	DB	01bH
	DB	0b5H
	DB	013H
	DB	094H
	DB	01bH
	DB	095H
	DB	01bH
	DB	094H
	DB	01bH
	DB	094H
	DB	01bH
	DB	095H
	DB	013H
	DB	094H
	DB	01bH
	DB	094H
	DB	01bH
	DB	074H
	DB	013H
	DB	074H
	DB	01bH
	DB	074H
	DB	01bH
	DB	074H
	DB	01bH
	DB	094H
	DB	01bH
	DB	094H
	DB	01bH
	DB	094H
	DB	013H
	DB	094H
	DB	01bH
	DB	094H
	DB	01bH
	DB	094H
	DB	01bH
	DB	094H
	DB	013H
	DB	095H
	DB	01bH
	DB	095H
	DB	01bH
	DB	095H
	DB	01bH
	DB	095H
	DB	01bH
	DB	094H
	DB	01bH
	DB	095H
	DB	01bH
	DB	095H
	DB	01bH
	DB	094H
	DB	01bH
	DB	095H
	DB	013H
	DB	095H
	DB	01bH
	DB	095H
	DB	013H
	DB	094H
	DB	01bH
	DB	095H
	DB	013H
	DB	094H
	DB	013H
	DB	094H
	DB	01bH
	DB	094H
	DB	013H
	DB	095H
	DB	01bH
	DB	074H
	DB	01bH
	DB	075H
	DB	013H
	DB	074H
	DB	01bH
	DB	074H
	DB	013H
	DB	094H
	DB	01bH
	DB	074H
	DB	013H
	DB	075H
	DB	013H
	DB	074H
	DB	01bH
	DB	074H
	DB	01bH
	DB	075H
	DB	013H
	DB	075H
	DB	013H
	DB	074H
	DB	01bH
	DB	074H
	DB	013H
	DB	074H
	DB	013H
	DB	075H
	DB	01bH
	DB	074H
	DB	013H
	DB	074H
	DB	013H
	DB	074H
	DB	013H
	DB	074H
	DB	01bH
	DB	054H
	DB	013H
	DB	074H
	DB	013H
	DB	074H
	DB	013H
	DB	074H
	DB	013H
	DB	074H
	DB	013H
	DB	075H
	DB	013H
	DB	074H
	DB	013H
	DB	074H
	DB	013H
	DB	075H
	DB	013H
	DB	074H
	DB	013H
	DB	074H
	DB	013H
	DB	074H
	DB	013H
	DB	074H
	DB	013H
	DB	054H
	DB	0bH
	DB	054H
	DB	013H
	DB	054H
	DB	013H
	DB	054H
	DB	0bH
	DB	053H
	DB	013H
	DB	053H
	DB	0bH
	DB	054H
	DB	013H
	DB	054H
	DB	013H
	DB	054H
	DB	0bH
	DB	054H
	DB	0bH
	DB	054H
	DB	0bH
	DB	054H
	DB	013H
	DB	054H
	DB	0bH
	DB	054H
	DB	0bH
	DB	054H
	DB	0bH
	DB	054H
	DB	0bH
	DB	034H
	DB	0bH
	DB	054H
	DB	0bH
	DB	054H
	DB	0bH
	DB	054H
	DB	0bH
	DB	074H
	DB	0bH
	DB	054H
	DB	0bH
	DB	054H
	DB	0bH
	DB	054H
	DB	0bH
	DB	034H
	DB	0bH
	DB	033H
	DB	0bH
	DB	034H
	DB	0bH
	DB	033H
	DB	0bH
	DB	034H
	DB	0bH
	DB	033H
	DB	03H
	DB	034H
	DB	03H
	DB	014H
	DB	03H
	DB	033H
	DB	0bH
	DB	034H
	DB	0bH
	DB	014H
	DB	03H
	DB	033H
	DB	03H
	DB	034H
	DB	0bH
	DB	033H
	DB	03H
	DB	033H
	DB	03H
	DB	014H
	DB	0bH
	DB	033H
	DB	03H
	DB	034H
	DB	0bH
	DB	033H
	DB	03H
	DB	034H
	DB	0bH
	DB	034H
	DB	03H
	DB	034H
	DB	03H
	DB	053H
	DB	0bH
	DB	034H
	DB	03H
	DB	034H
	DB	03H
	DB	033H
	DB	03H
	DB	034H
	DB	0bH
	DB	034H
	DB	0bH
	DB	033H
	DB	03H
	DB	033H
	DB	0bH
	DB	033H
	DB	03H
	DB	014H
	DB	03H
	DB	033H
	DB	0bH
	DB	033H
	DB	03H
	DB	013H
	DB	0bH
	DB	014H
	DB	03H
	DB	033H
	DB	0bH
	DB	014H
	DB	03H
	DB	013H
	DB	0bH
	DB	033H
	DB	03H
	DB	014H
	DB	03H
	DB	033H
	DB	0bH
	DB	033H
	DB	03H
	DB	014H
	DB	0bH
	DB	034H
	DB	0bH
	DB	033H
	DB	03H
	DB	033H
	DB	0bH
	DB	034H
	DB	0bH
	DB	033H
	DB	0bH
	DB	033H
	DB	0bH
	DB	034H
	DB	0bH
	DB	054H
	DB	0bH
	DB	033H
	DB	0bH
	DB	034H
	DB	0bH
	DB	054H
	DB	0bH
	DB	054H
	DB	0bH
	DB	054H
	DB	0bH
	DB	053H
	DB	0bH
	DB	053H
	DB	013H
	DB	054H
	DB	0bH
	DB	054H
	DB	0bH
	DB	054H
	DB	013H
	DB	054H
	DB	0bH
	DB	054H
	DB	0bH
	DB	074H
	DB	013H
	DB	074H
	DB	013H
	DB	054H
	DB	0bH
	DB	074H
	DB	0bH
	DB	074H
	DB	013H
	DB	054H
	DB	013H
	DB	054H
	DB	0bH
	DB	054H
	DB	013H
	DB	074H
	DB	013H
	DB	074H
	DB	0bH
	DB	054H
	DB	013H
	DB	074H
	DB	013H
	DB	074H
	DB	013H
	DB	074H
	DB	013H
	DB	053H
	DB	013H
	DB	074H
	DB	013H
	DB	074H
	DB	013H
	DB	054H
	DB	013H
	DB	054H
	DB	013H
	DB	074H
	DB	013H
	DB	074H
	DB	013H
	DB	074H
	DB	013H
	DB	074H
	DB	01bH
	DB	074H
	DB	013H
	DB	074H
	DB	013H
	DB	074H
	DB	01bH
	DB	074H
	DB	013H
	DB	074H
	DB	013H
	DB	095H
	DB	013H
	DB	094H
	DB	013H
	DB	074H
	DB	013H
	DB	074H
	DB	01bH
	DB	094H
	DB	013H
	DB	075H
	DB	01bH
	DB	094H
	DB	013H
	DB	094H
	DB	01bH
	DB	075H
	DB	013H
	DB	094H
	DB	01bH
	DB	094H
	DB	01bH
	DB	074H
	DB	013H
	DB	074H
	DB	01bH
	DB	074H
	DB	01bH
	DB	074H
	DB	013H
	DB	074H
	DB	013H
	DB	074H
	DB	01bH
	DB	074H
	DB	01bH
	DB	074H
	DB	013H
	DB	074H
	DB	01bH
	DB	094H
	DB	01bH
	DB	094H
	DB	01bH
	DB	074H
	DB	01bH
	DB	074H
	DB	013H
	DB	095H
	DB	01bH
	DB	094H
	DB	01bH
	DB	094H
	DB	01bH
	DB	094H
	DB	013H
	DB	095H
	DB	01bH
	DB	095H
	DB	013H
	DB	094H
	DB	01bH
	DB	095H
	DB	01bH
	DB	095H
	DB	013H
	DB	095H
	DB	013H
	DB	094H
	DB	01bH
	DB	095H
	DB	01bH
	DB	095H
	DB	01bH
	DB	095H
	DB	01bH
	DB	095H
	DB	01bH
	DB	094H
	DB	01bH
	DB	095H
	DB	01bH
	DB	094H
	DB	01bH
	DB	095H
	DB	01bH
	DB	095H
	DB	01bH
	DB	094H
	DB	01bH
	DB	095H
	DB	01bH
	DB	0b5H
	DB	01bH
	DB	094H
	DB	01bH
	DB	095H
	DB	01bH
	DB	095H
	DB	01bH
	DB	0b5H
	DB	01bH
	DB	095H
	DB	01bH
	DB	094H
	DB	01bH
	DB	094H
	DB	01bH
	DB	094H
	DB	01bH
	DB	095H
	DB	01bH
	DB	094H
	DB	01bH
	DB	094H
	DB	01bH
	DB	095H
	DB	01bH
	DB	094H
	DB	01bH
	DB	094H
	DB	01bH
	DB	095H
	DB	01bH
	DB	094H
	DB	013H
	DB	094H
	DB	01bH
	DB	095H
	DB	01bH
	DB	094H
	DB	013H
	DB	094H
	DB	01bH
	DB	095H
	DB	01bH
	DB	094H
	DB	01bH
	DB	095H
	DB	01bH
	DB	094H
	DB	01bH
	DB	094H
	DB	01bH
	DB	095H
	DB	01bH
	DB	094H
	DB	01bH
	DB	095H
	DB	013H
	DB	094H
	DB	01bH
	DB	095H
	DB	01bH
	DB	095H
	DB	013H
	DB	094H
	DB	01bH
	DB	095H
	DB	01bH
	DB	095H
	DB	01bH
	DB	094H
	DB	01bH
	DB	095H
	DB	01bH
	DB	094H
	DB	01bH
	DB	095H
	DB	01bH
	DB	095H
	DB	01bH
	DB	095H
	DB	01bH
	DB	0b4H
	DB	01bH
	DB	095H
	DB	01bH
	DB	095H
	DB	01bH
	DB	094H
	DB	01bH
	DB	095H
	DB	01bH
	DB	075H
	DB	01bH
	DB	094H
	DB	01bH
	DB	095H
	DB	01bH
	DB	095H
	DB	01bH
	DB	094H
	DB	01bH
	DB	094H
	DB	01bH
	DB	095H
	DB	01bH
	DB	094H
	DB	01bH
	DB	095H
	DB	01bH
	DB	095H
	DB	01bH
	DB	0b5H
	DB	01bH
	DB	0b4H
	DB	01bH
	DB	095H
	DB	01bH
	DB	0b5H
	DB	01bH
	DB	0b5H
	DB	01bH
	DB	094H
	DB	01bH
	DB	095H
	DB	01bH
	DB	095H
	DB	013H
	DB	095H
	DB	01bH
	DB	094H
	DB	01bH
	DB	095H
	DB	01bH
	DB	095H
	DB	01bH
	DB	094H
	DB	01bH
	DB	095H
	DB	01bH
	DB	095H
	DB	01bH
	DB	094H
	DB	01bH
	DB	094H
	DB	01bH
	DB	095H
	DB	01bH
	DB	094H
	DB	01bH
	DB	094H
	DB	01bH
	DB	095H
	DB	01bH
	DB	0b4H
	DB	01bH
	DB	095H
	DB	01bH
	DB	094H
	DB	01bH
	DB	0b4H
	DB	01bH
	DB	095H
	DB	013H
	DB	094H
	DB	01bH
	DB	095H
	DB	01bH
	DB	095H
	DB	013H
	DB	094H
	DB	01bH
	DB	094H
	DB	01bH
	DB	0b5H
	DB	01bH
	DB	094H
	DB	01bH
	DB	094H
	DB	01bH
	DB	095H
	DB	01bH
	DB	095H
	DB	01bH
	DB	094H
	DB	013H
	DB	095H
	DB	01bH
	DB	095H
	DB	01bH
	DB	094H
	DB	01bH
	DB	094H
	DB	01bH
	DB	074H
	DB	01bH
	DB	074H
	DB	01bH
	DB	074H
	DB	01bH
	DB	074H
	DB	01bH
	DB	074H
	DB	01bH
	DB	094H
	DB	013H
	DB	075H
	DB	01bH
	DB	095H
	DB	01bH
	DB	094H
	DB	01bH
	DB	094H
	DB	01bH
	DB	094H
	DB	01bH
	DB	094H
	DB	01bH
	DB	095H
	DB	01bH
	DB	094H
	DB	01bH
	DB	094H
	DB	013H
	DB	095H
	DB	01bH
	DB	094H
	DB	01bH
	DB	095H
	DB	01bH
	DB	095H
	DB	01bH
	DB	094H
	DB	01bH
	DB	095H
	DB	01bH
	DB	094H
	DB	01bH
	DB	094H
	DB	01bH
	DB	095H
	DB	01bH
	DB	095H
	DB	01bH
	DB	095H
	DB	01bH
	DB	075H
	DB	01bH
	DB	095H
	DB	013H
	DB	094H
	DB	01bH
	DB	074H
	DB	01bH
	DB	074H
	DB	01bH
	DB	074H
	DB	013H
	DB	074H
	DB	01bH
	DB	074H
	DB	01bH
	DB	075H
	DB	013H
	DB	074H
	DB	01bH
	DB	074H
	DB	013H
	DB	075H
	DB	01bH
	DB	074H
	DB	013H
	DB	074H
	DB	01bH
	DB	074H
	DB	013H
	DB	074H
	DB	013H
	DB	074H
	DB	01bH
	DB	074H
	DB	013H
	DB	074H
	DB	01bH
	DB	074H
	DB	013H
	DB	075H
	DB	013H
	DB	074H
	DB	013H
	DB	074H
	DB	013H
	DB	074H
	DB	01bH
	DB	075H
	DB	013H
	DB	074H
	DB	013H
	DB	074H
	DB	013H
	DB	075H
	DB	013H
	DB	074H
	DB	013H
	DB	074H
	DB	013H
	DB	074H
	DB	013H
	DB	055H
	DB	013H
	DB	054H
	DB	013H
	DB	074H
	DB	013H
	DB	074H
	DB	0bH
	DB	054H
	DB	013H
	DB	054H
	DB	013H
	DB	054H
	DB	0bH
	DB	054H
	DB	013H
	DB	054H
	DB	013H
	DB	053H
	DB	0bH
	DB	054H
	DB	0bH
	DB	054H
	DB	013H
	DB	053H
	DB	013H
	DB	054H
	DB	0bH
	DB	053H
	DB	013H
	DB	054H
	DB	013H
	DB	053H
	DB	0bH
	DB	054H
	DB	013H
	DB	054H
	DB	013H
	DB	053H
	DB	0bH
	DB	053H
	DB	0bH
	DB	054H
	DB	0bH
	DB	054H
	DB	0bH
	DB	054H
	DB	0bH
	DB	054H
	DB	0bH
	DB	054H
	DB	0bH
	DB	054H
	DB	0bH
	DB	054H
	DB	0bH
	DB	034H
	DB	0bH
	DB	033H
	DB	0bH
	DB	033H
	DB	0bH
	DB	034H
	DB	03H
	DB	033H
	DB	0bH
	DB	033H
	DB	0bH
	DB	034H
	DB	03H
	DB	033H
	DB	0bH
	DB	033H
	DB	03H
	DB	034H
	DB	03H
	DB	013H
	DB	0bH
	DB	033H
	DB	03H
	DB	034H
	DB	03H
	DB	014H
	DB	0bH
	DB	033H
	DB	03H
	DB	033H
	DB	03H
	DB	034H
	DB	0bH
	DB	033H
	DB	03H
	DB	034H
	DB	03H
	DB	034H
	DB	0bH
	DB	033H
	DB	03H
	DB	034H
	DB	03H
	DB	034H
	DB	0bH
	DB	034H
	DB	03H
	DB	034H
	DB	0bH
	DB	033H
	DB	03H
	DB	033H
	DB	0bH
	DB	034H
	DB	03H
	DB	034H
	DB	0bH
	DB	033H
	DB	0bH
	DB	013H
	DB	03H
	DB	033H
	DB	03H
	DB	014H
	DB	03H
	DB	033H
	DB	0bH
	DB	013H
	DB	03H
	DB	033H
	DB	03H
	DB	033H
	DB	0bH
	DB	014H
	DB	03H
	DB	033H
	DB	03H
	DB	013H
	DB	0bH
	DB	013H
	DB	03H
	DB	033H
	DB	0bH
	DB	033H
	DB	03H
	DB	034H
	DB	0bH
	DB	013H
	DB	0bH
	DB	034H
	DB	0bH
	DB	033H
	DB	03H
	DB	034H
	DB	0bH
	DB	034H
	DB	03H
	DB	034H
	DB	0bH
	DB	054H
	DB	0bH
	DB	033H
	DB	0bH
	DB	054H
	DB	0bH
	DB	054H
	DB	0bH
	DB	053H
	DB	0bH
	DB	054H
	DB	0bH
	DB	034H
	DB	013H
	DB	054H
	DB	0bH
	DB	053H
	DB	0bH
	DB	053H
	DB	013H
	DB	054H
	DB	0bH
	DB	054H
	DB	013H
	DB	074H
	DB	0bH
	DB	054H
	DB	013H
	DB	074H
	DB	0bH
	DB	074H
	DB	0bH
	DB	054H
	DB	013H
	DB	054H
	DB	0bH
	DB	074H
	DB	013H
	DB	074H
	DB	013H
	DB	075H
	DB	0bH
	DB	074H
	DB	013H
	DB	054H
	DB	013H
	DB	054H
	DB	013H
	DB	074H
	DB	0bH
	DB	074H
	DB	013H
	DB	054H
	DB	013H
	DB	074H
	DB	013H
	DB	054H
	DB	013H
	DB	054H
	DB	013H
	DB	074H
	DB	013H
	DB	073H
	DB	013H
	DB	054H
	DB	013H
	DB	054H
	DB	013H
	DB	053H
	DB	013H
	DB	074H
	DB	013H
	DB	074H
	DB	01bH
	DB	074H
	DB	013H
	DB	074H
	DB	013H
	DB	074H
	DB	01bH
	DB	075H
	DB	013H
	DB	094H
	DB	013H
	DB	074H
	DB	01bH
	DB	095H
	DB	01bH
	DB	075H
	DB	013H
	DB	094H
	DB	013H
	DB	095H
	DB	013H
	DB	074H
	DB	013H
	DB	095H
	DB	01bH
	DB	074H
	DB	013H
	DB	095H
	DB	01bH
	DB	095H
	DB	013H
	DB	074H
	DB	01bH
	DB	074H
	DB	01bH
	DB	074H
	DB	013H
	DB	074H
	DB	01bH
	DB	074H
	DB	01bH
	DB	074H
	DB	013H
	DB	074H
	DB	01bH
	DB	074H
	DB	013H
	DB	074H
	DB	013H
	DB	094H
	DB	01bH
	DB	074H
	DB	013H
	DB	074H
	DB	01bH
	DB	095H
	DB	01bH
	DB	074H
	DB	01bH
	DB	074H
	DB	01bH
	DB	095H
	DB	01bH
	DB	074H
	DB	01bH
	DB	094H
	DB	01bH
	DB	095H
	DB	01bH
	DB	095H
	DB	01bH
	DB	095H
	DB	01bH
	DB	094H
	DB	01bH
	DB	095H
	DB	01bH
	DB	095H
	DB	01bH
	DB	095H
	DB	013H
	DB	094H
	DB	01bH
	DB	095H
	DB	01bH
	DB	094H
	DB	013H
	DB	095H
	DB	01bH
	DB	095H
	DB	01bH
	DB	095H
	DB	013H
	DB	0b5H
	DB	01bH
	DB	094H
	DB	01bH
	DB	094H
	DB	013H
	DB	095H
	DB	01bH
	DB	095H
	DB	01bH
	DB	0b5H
	DB	01bH
	DB	095H
	DB	013H
	DB	095H
	DB	01bH
	DB	0b5H
	DB	01bH
	DB	0b5H
	DB	01bH
	DB	094H
	DB	01bH
	DB	095H
	DB	01bH
	DB	094H
	DB	01bH
	DB	094H
	DB	013H
	DB	095H
	DB	01bH
	DB	094H
	DB	01bH
	DB	094H
	DB	013H
	DB	095H
	DB	01bH
	DB	094H
	DB	01bH
	DB	094H
	DB	01bH
	DB	095H
	DB	01bH
	DB	094H
	DB	01bH
	DB	095H
	DB	01bH
	DB	094H
	DB	01bH
	DB	095H
	DB	01bH
	DB	094H
	DB	01bH
	DB	094H
	DB	01bH
	DB	095H
	DB	01bH
	DB	094H
	DB	01bH
	DB	095H
	DB	01bH
	DB	094H
	DB	01bH
	DB	095H
	DB	01bH
	DB	094H
	DB	01bH
	DB	094H
	DB	01bH
	DB	095H
	DB	01bH
	DB	094H
	DB	01bH
	DB	094H
	DB	01bH
	DB	095H
	DB	01bH
	DB	094H
	DB	01bH
	DB	094H
	DB	01bH
	DB	095H
	DB	01bH
	DB	095H
	DB	01bH
	DB	094H
	DB	01bH
	DB	095H
	DB	01bH
	DB	0b5H
	DB	01bH
	DB	094H
	DB	013H
	DB	095H
	DB	01bH
	DB	094H
	DB	01bH
	DB	094H
	DB	01bH
	DB	094H
	DB	01bH
	DB	074H
	DB	01bH
	DB	095H
	DB	01bH
	DB	094H
	DB	01bH
	DB	094H
	DB	01bH
	DB	094H
	DB	01bH
	DB	095H
	DB	01bH
	DB	095H
	DB	01bH
	DB	094H
	DB	01bH
	DB	094H
	DB	01bH
	DB	095H
	DB	01bH
	DB	0b5H
	DB	01bH
	DB	095H
	DB	01bH
	DB	095H
	DB	01bH
	DB	0b4H
	DB	01bH
	DB	095H
	DB	01bH
	DB	0b4H
	DB	013H
	DB	095H
	DB	01bH
	DB	094H
	DB	01bH
	DB	0b5H
	DB	01bH
	DB	094H
	DB	01bH
	DB	095H
	DB	01bH
	DB	094H
	DB	01bH
	DB	095H
	DB	01bH
	DB	094H
	DB	013H
	DB	095H
	DB	01bH
	DB	094H
	DB	01bH
	DB	094H
	DB	01bH
	DB	095H
	DB	01bH
	DB	094H
	DB	01bH
	DB	095H
	DB	01bH
	DB	095H
	DB	01bH
	DB	095H
	DB	01bH
	DB	094H
	DB	013H
	DB	095H
	DB	01bH
	DB	0b5H
	DB	01bH
	DB	094H
	DB	01bH
	DB	095H
	DB	01bH
	DB	0b5H
	DB	01bH
	DB	094H
	DB	01bH
	DB	095H
	DB	01bH
	DB	095H
	DB	01bH
	DB	095H
	DB	01bH
	DB	095H
	DB	01bH
	DB	094H
	DB	013H
	DB	094H
	DB	01bH
	DB	095H
	DB	01bH
	DB	094H
	DB	01bH
	DB	094H
	DB	01bH
	DB	095H
	DB	01bH
	DB	094H
	DB	01bH
	DB	094H
	DB	01bH
	DB	074H
	DB	01bH
	DB	094H
	DB	01bH
	DB	094H
	DB	01bH
	DB	074H
	DB	01bH
	DB	074H
	DB	01bH
	DB	074H
	DB	01bH
	DB	094H
	DB	01bH
	DB	094H
	DB	01bH
	DB	074H
	DB	01bH
	DB	074H
	DB	01bH
	DB	095H
	DB	01bH
	DB	074H
	DB	01bH
	DB	074H
	DB	01bH
	DB	094H
	DB	01bH
	DB	094H
	DB	01bH
	DB	095H
	DB	01bH
	DB	095H
	DB	01bH
	DB	094H
	DB	01bH
	DB	095H
	DB	013H
	DB	094H
	DB	013H
	DB	095H
	DB	01bH
	DB	095H
	DB	01bH
	DB	095H
	DB	013H
	DB	094H
	DB	01bH
	DB	095H
	DB	01bH
	DB	094H
	DB	01bH
	DB	094H
	DB	01bH
	DB	095H
	DB	01bH
	DB	094H
	DB	013H
	DB	074H
	DB	013H
	DB	075H
	DB	01bH
	DB	094H
	DB	01bH
	DB	075H
	DB	013H
	DB	075H
	DB	013H
	DB	094H
	DB	01bH
	DB	074H
	DB	01bH
	DB	074H
	DB	013H
	DB	074H
	DB	01bH
	DB	094H
	DB	013H
	DB	074H
	DB	01bH
	DB	074H
	DB	01bH
	DB	095H
	DB	013H
	DB	074H
	DB	013H
	DB	074H
	DB	01bH
	DB	074H
	DB	013H
	DB	074H
	DB	013H
	DB	074H
	DB	01bH
	DB	074H
	DB	01bH
	DB	074H
	DB	013H
	DB	074H
	DB	013H
	DB	074H
	DB	013H
	DB	074H
	DB	013H
	DB	074H
	DB	013H
	DB	075H
	DB	013H
	DB	074H
	DB	013H
	DB	074H
	DB	013H
	DB	074H
	DB	013H
	DB	074H
	DB	013H
	DB	074H
	DB	0bH
	DB	075H
	DB	013H
	DB	075H
	DB	013H
	DB	074H
	DB	013H
	DB	054H
	DB	013H
	DB	054H
	DB	013H
	DB	054H
	DB	013H
	DB	054H
	DB	013H
	DB	054H
	DB	013H
	DB	054H
	DB	013H
	DB	053H
	DB	0bH
	DB	054H
	DB	013H
	DB	054H
	DB	0bH
	DB	054H
	DB	013H
	DB	054H
	DB	0bH
	DB	054H
	DB	0bH
	DB	054H
	DB	0bH
	DB	054H
	DB	0bH
	DB	034H
	DB	0bH
	DB	054H
	DB	0bH
	DB	054H
	DB	0bH
	DB	034H
	DB	0bH
	DB	053H
	DB	0bH
	DB	034H
	DB	0bH
	DB	054H
	DB	0bH
	DB	054H
	DB	0bH
	DB	054H
	DB	0bH
	DB	034H
	DB	0bH
	DB	034H
	DB	0bH
	DB	034H
	DB	0bH
	DB	053H
	DB	0bH
	DB	034H
	DB	03H
	DB	034H
	DB	0bH
	DB	034H
	DB	0bH
	DB	033H
	DB	03H
	DB	034H
	DB	0bH
	DB	033H
	DB	0bH
	DB	034H
	DB	03H
	DB	033H
	DB	03H
	DB	034H
	DB	0bH
	DB	013H
	DB	03H
	DB	034H
	DB	0bH
	DB	034H
	DB	03H
	DB	013H
	DB	03H
	DB	034H
	DB	0bH
	DB	033H
	DB	03H
	DB	033H
	DB	03H
	DB	034H
	DB	0bH
	DB	054H
	DB	03H
	DB	034H
	DB	0bH
	DB	034H
	DB	03H
	DB	033H
	DB	03H
	DB	033H
	DB	03H
	DB	034H
	DB	0bH
	DB	033H
	DB	03H
	DB	013H
	DB	03H
	DB	013H
	DB	03H
	DB	033H
	DB	03H
	DB	013H
	DB	0bH
	DB	013H
	DB	03H
	DB	034H
	DB	0bH
	DB	013H
	DB	03H
	DB	033H
	DB	03H
	DB	014H
	DB	0bH
	DB	013H
	DB	03H
	DB	033H
	DB	03H
	DB	033H
	DB	0bH
	DB	014H
	DB	03H
	DB	033H
	DB	0bH
	DB	034H
	DB	03H
	DB	034H
	DB	0bH
	DB	033H
	DB	03H
	DB	033H
	DB	0bH
	DB	033H
	DB	0bH
	DB	034H
	DB	0bH
	DB	054H
	DB	0bH
	DB	033H
	DB	0bH
	DB	054H
	DB	0bH
	DB	033H
	DB	0bH
	DB	054H
	DB	0bH
	DB	034H
	DB	0bH
	DB	033H
	DB	0bH
	DB	053H
	DB	0bH
	DB	054H
	DB	013H
	DB	033H
	DB	013H
	DB	054H
	DB	0bH
	DB	054H
	DB	0bH
	DB	054H
	DB	013H
	DB	053H
	DB	013H
	DB	054H
	DB	0bH
	DB	054H
	DB	0bH
	DB	054H
	DB	013H
	DB	074H
	DB	013H
	DB	054H
	DB	0bH
	DB	074H
	DB	013H
	DB	054H
	DB	013H
	DB	074H
	DB	0bH
	DB	054H
	DB	013H
	DB	054H
	DB	013H
	DB	074H
	DB	0bH
	DB	074H
	DB	013H
	DB	054H
	DB	013H
	DB	074H
	DB	013H
	DB	074H
	DB	013H
	DB	054H
	DB	013H
	DB	054H
	DB	013H
	DB	074H
	DB	013H
	DB	054H
	DB	013H
	DB	074H
	DB	013H
	DB	074H
	DB	013H
	DB	074H
	DB	013H
	DB	054H
	DB	013H
	DB	074H
	DB	013H
	DB	074H
	DB	013H
	DB	074H
	DB	01bH
	DB	074H
	DB	013H
	DB	074H
	DB	013H
	DB	074H
	DB	013H
	DB	074H
	DB	01bH
	DB	095H
	DB	013H
	DB	094H
	DB	01bH
	DB	074H
	DB	013H
	DB	074H
	DB	01bH
	DB	095H
	DB	01bH
	DB	074H
	DB	013H
	DB	074H
	DB	01bH
	DB	095H
	DB	01bH
	DB	094H
	DB	01bH
	DB	094H
	DB	01bH
	DB	074H
	DB	013H
	DB	074H
	DB	01bH
	DB	074H
	DB	01bH
	DB	074H
	DB	013H
	DB	074H
	DB	01bH
	DB	074H
	DB	01bH
	DB	074H
	DB	01bH
	DB	074H
	DB	01bH
	DB	074H
	DB	01bH
	DB	094H
	DB	01bH
	DB	094H
	DB	01bH
	DB	074H
	DB	01bH
	DB	094H
	DB	013H
	DB	094H
	DB	01bH
	DB	074H
	DB	01bH
	DB	094H
	DB	01bH
	DB	074H
	DB	013H
	DB	094H
	DB	01bH
	DB	074H
	DB	01bH
	DB	094H
	DB	01bH
	DB	094H
	DB	01bH
	DB	095H
	DB	013H
	DB	095H
	DB	01bH
	DB	095H
	DB	01bH
	DB	095H
	DB	01bH
	DB	095H
	DB	01bH
	DB	095H
	DB	01bH
	DB	094H
	DB	01bH
	DB	095H
	DB	01bH
	DB	094H
	DB	01bH
	DB	094H
	DB	01bH
	DB	095H
	DB	01bH
	DB	095H
	DB	01bH
	DB	0b5H
	DB	01bH
	DB	095H
	DB	01bH
	DB	0b5H
	DB	01bH
	DB	095H
	DB	01bH
	DB	0b5H
	DB	01bH
	DB	0b5H
	DB	01bH
	DB	095H
	DB	01bH
	DB	095H
	DB	013H
	DB	094H
	DB	01bH
	DB	094H
	DB	01bH
	DB	095H
	DB	013H
	DB	094H
	DB	01bH
	DB	094H
	DB	01bH
	DB	095H
	DB	01bH
	DB	094H
	DB	01bH
	DB	095H
	DB	01bH
	DB	094H
	DB	01bH
	DB	095H
	DB	01bH
	DB	094H
	DB	013H
	DB	094H
	DB	01bH
	DB	095H
	DB	01bH
	DB	094H
	DB	01bH
	DB	094H
	DB	01bH
	DB	095H
	DB	01bH
	DB	095H
	DB	01bH
	DB	094H
	DB	01bH
	DB	094H
	DB	01bH
	DB	095H
	DB	01bH
	DB	094H
	DB	01bH
	DB	095H
	DB	013H
	DB	095H
	DB	01bH
	DB	094H
	DB	01bH
	DB	095H
	DB	01bH
	DB	095H
	DB	01bH
	DB	094H
	DB	01bH
	DB	095H
	DB	01bH
	DB	095H
	DB	01bH
	DB	094H
	DB	01bH
	DB	094H
	DB	01bH
	DB	095H
	DB	01bH
	DB	095H
	DB	01bH
	DB	094H
	DB	01bH
	DB	0b5H
	DB	01bH
	DB	094H
	DB	01bH
	DB	094H
	DB	01bH
	DB	095H
	DB	01bH
	DB	094H
	DB	01bH
	DB	094H
	DB	01bH
	DB	095H
	DB	01bH
	DB	094H
	DB	01bH
	DB	094H
	DB	01bH
	DB	095H
	DB	01bH
	DB	094H
	DB	01bH
	DB	094H
	DB	01bH
	DB	094H
	DB	01bH
	DB	094H
	DB	01bH
	DB	094H
	DB	01bH
	DB	094H
	DB	01bH
	DB	094H
	DB	01bH
	DB	0b5H
	DB	01bH
	DB	095H
	DB	01bH
	DB	0b5H
	DB	01bH
	DB	0b5H
	DB	01bH
	DB	094H
	DB	01bH
	DB	095H
	DB	01bH
	DB	095H
	DB	01bH
	DB	095H
	DB	01bH
	DB	0b4H
	DB	01bH
	DB	095H
	DB	01bH
	DB	094H
	DB	01bH
	DB	095H
	DB	01bH
	DB	094H
	DB	01bH
	DB	095H
	DB	01bH
	DB	094H
	DB	01bH
	DB	094H
	DB	01bH
	DB	095H
	DB	01bH
	DB	094H
	DB	01bH
	DB	094H
	DB	01bH
	DB	094H
	DB	013H
	DB	094H
	DB	01bH
	DB	095H
	DB	01bH
	DB	094H
	DB	01bH
	DB	095H
	DB	01bH
	DB	095H
	DB	01bH
	DB	094H
	DB	01bH
	DB	095H
	DB	01bH
	DB	095H
	DB	01bH
	DB	0b4H
	DB	01bH
	DB	094H
	DB	01bH
	DB	095H
	DB	01bH
	DB	095H
	DB	01bH
	DB	094H
	DB	01bH
	DB	095H
	DB	01bH
	DB	095H
	DB	01bH
	DB	094H
	DB	01bH
	DB	095H
	DB	01bH
	DB	0b5H
	DB	01bH
	DB	094H
	DB	01bH
	DB	094H
	DB	01bH
	DB	094H
	DB	01bH
	DB	074H
	DB	01bH
	DB	074H
	DB	01bH
	DB	074H
	DB	01bH
	DB	094H
	DB	01bH
	DB	074H
	DB	01bH
	DB	074H
	DB	01bH
	DB	074H
	DB	01bH
	DB	094H
	DB	01bH
	DB	074H
	DB	01bH
	DB	095H
	DB	013H
	DB	094H
	DB	01bH
	DB	074H
	DB	01bH
	DB	095H
	DB	013H
	DB	074H
	DB	01bH
	DB	074H
	DB	01bH
	DB	094H
	DB	01bH
	DB	094H
	DB	013H
	DB	094H
	DB	01bH
	DB	094H
	DB	01bH
	DB	095H
	DB	01bH
	DB	094H
	DB	01bH
	DB	095H
	DB	013H
	DB	095H
	DB	01bH
	DB	095H
	DB	013H
	DB	094H
	DB	01bH
	DB	095H
	DB	013H
	DB	095H
	DB	013H
	DB	095H
	DB	01bH
	DB	095H
	DB	01bH
	DB	074H
	DB	01bH
	DB	074H
	DB	013H
	DB	075H
	DB	01bH
	DB	094H
	DB	01bH
	DB	074H
	DB	01bH
	DB	074H
	DB	013H
	DB	095H
	DB	013H
	DB	074H
	DB	01bH
	DB	075H
	DB	013H
	DB	094H
	DB	013H
	DB	074H
	DB	01bH
	DB	075H
	DB	013H
	DB	074H
	DB	01bH
	DB	074H
	DB	01bH
	DB	075H
	DB	013H
	DB	074H
	DB	013H
	DB	074H
	DB	01bH
	DB	075H
	DB	013H
	DB	074H
	DB	013H
	DB	074H
	DB	01bH
	DB	074H
	DB	013H
	DB	074H
	DB	013H
	DB	075H
	DB	013H
	DB	075H
	DB	013H
	DB	074H
	DB	013H
	DB	074H
	DB	013H
	DB	075H
	DB	013H
	DB	074H
	DB	013H
	DB	074H
	DB	013H
	DB	074H
	DB	013H
	DB	075H
	DB	013H
	DB	074H
	DB	0bH
	DB	074H
	DB	013H
	DB	054H
	DB	013H
	DB	054H
	DB	013H
	DB	053H
	DB	013H
	DB	054H
	DB	0bH
	DB	054H
	DB	013H
	DB	054H
	DB	013H
	DB	054H
	DB	013H
	DB	054H
	DB	013H
	DB	054H
	DB	0bH
	DB	053H
	DB	0bH
	DB	054H
	DB	013H
	DB	054H
	DB	0bH
	DB	053H
	DB	013H
	DB	054H
	DB	0bH
	DB	054H
	DB	0bH
	DB	054H
	DB	0bH
	DB	034H
	DB	013H
	DB	054H
	DB	0bH
	DB	033H
	DB	0bH
	DB	033H
	DB	0bH
	DB	033H
	DB	0bH
	DB	033H
	DB	0bH
	DB	033H
	DB	0bH
	DB	033H
	DB	0bH
	DB	034H
	DB	0bH
	DB	054H
	DB	0bH
	DB	054H
	DB	0bH
	DB	054H
	DB	0bH
	DB	034H
	DB	0bH
	DB	033H
	DB	03H
	DB	034H
	DB	03H
	DB	033H
	DB	0bH
	DB	034H
	DB	0bH
	DB	013H
	DB	03H
	DB	034H
	DB	03H
	DB	034H
	DB	0bH
	DB	033H
	DB	03H
	DB	033H
	DB	03H
	DB	034H
	DB	0bH
	DB	034H
	DB	03H
	DB	033H
	DB	0bH
	DB	034H
	DB	03H
	DB	033H
	DB	0bH
	DB	034H
	DB	03H
	DB	034H
	DB	03H
	DB	053H
	DB	0bH
	DB	034H
	DB	03H
	DB	034H
	DB	0bH
	DB	033H
	DB	0bH
	DB	034H
	DB	03H
	DB	013H
	DB	03H
	DB	033H
	DB	0bH
	DB	033H
	DB	03H
	DB	014H
	DB	03H
	DB	033H
	DB	0bH
	DB	033H
	DB	03H
	DB	013H
	DB	03H
	DB	033H
	DB	0bH
	DB	014H
	DB	03H
	DB	033H
	DB	0bH
	DB	013H
	DB	03H
	DB	013H
	DB	03H
	DB	034H
	DB	0bH
	DB	033H
	DB	0bH
	DB	033H
	DB	03H
	DB	034H
	DB	0bH
	DB	033H
	DB	0bH
	DB	033H
	DB	03H
	DB	034H
	DB	0bH
	DB	034H
	DB	0bH
	DB	053H
	DB	03H
	DB	054H
	DB	0bH
	DB	054H
	DB	0bH
	DB	034H
	DB	0bH
	DB	054H
	DB	0bH
	DB	053H
	DB	0bH
	DB	054H
	DB	0bH
	DB	054H
	DB	0bH
	DB	054H
	DB	0bH
	DB	054H
	DB	0bH
	DB	053H
	DB	0bH
	DB	054H
	DB	013H
	DB	054H
	DB	013H
	DB	053H
	DB	0bH
	DB	054H
	DB	013H
	DB	054H
	DB	0bH
	DB	054H
	DB	013H
	DB	074H
	DB	013H
	DB	054H
	DB	0bH
	DB	074H
	DB	013H
	DB	054H
	DB	013H
	DB	074H
	DB	0bH
	DB	074H
	DB	013H
	DB	054H
	DB	013H
	DB	054H
	DB	013H
	DB	074H
	DB	013H
	DB	054H
	DB	013H
	DB	054H
	DB	0bH
	DB	074H
	DB	013H
	DB	074H
	DB	013H
	DB	053H
	DB	013H
	DB	074H
	DB	013H
	DB	074H
	DB	013H
	DB	054H
	DB	013H
	DB	074H
	DB	013H
	DB	054H
	DB	013H
	DB	054H
	DB	013H
	DB	074H
	DB	01bH
	DB	074H
	DB	013H
	DB	074H
	DB	013H
	DB	074H
	DB	01bH
	DB	074H
	DB	01bH
	DB	074H
	DB	013H
	DB	074H
	DB	013H
	DB	094H
	DB	013H
	DB	095H
	DB	013H
	DB	074H
	DB	013H
	DB	074H
	DB	013H
	DB	095H
	DB	013H
	DB	094H
	DB	01bH
	DB	075H
	DB	01bH
	DB	094H
	DB	013H
	DB	094H
	DB	01bH
	DB	095H
	DB	013H
	DB	074H
	DB	01bH
	DB	074H
	DB	01bH
	DB	074H
	DB	013H
	DB	074H
	DB	013H
	DB	074H
	DB	01bH
	DB	074H
	DB	01bH
	DB	074H
	DB	013H
	DB	094H
	DB	01bH
	DB	094H
	DB	01bH
	DB	074H
	DB	01bH
	DB	094H
	DB	01bH
	DB	075H
	DB	01bH
	DB	074H
	DB	01bH
	DB	094H
	DB	01bH
	DB	075H
	DB	01bH
	DB	094H
	DB	01bH
	DB	094H
	DB	013H
	DB	075H
	DB	01bH
	DB	074H
	DB	01bH
	DB	094H
	DB	013H
	DB	074H
	DB	01bH
	DB	094H
	DB	01bH
	DB	095H
	DB	01bH
	DB	095H
	DB	013H
	DB	094H
	DB	01bH
	DB	094H
	DB	01bH
	DB	095H
	DB	01bH
	DB	094H
	DB	01bH
	DB	095H
	DB	01bH
	DB	095H
	DB	01bH
	DB	095H
	DB	013H
	DB	0b5H
	DB	01bH
	DB	095H
	DB	01bH
	DB	094H
	DB	01bH
	DB	0b5H
	DB	01bH
	DB	0b5H
	DB	01bH
	DB	094H
	DB	01bH
	DB	0b5H
	DB	013H
	DB	095H
	DB	01bH
	DB	094H
	DB	01bH
	DB	094H
	DB	01bH
	DB	094H
	DB	01bH
	DB	094H
	DB	01bH
	DB	094H
	DB	01bH
	DB	095H
	DB	01bH
	DB	094H
	DB	01bH
	DB	094H
	DB	01bH
	DB	095H
	DB	01bH
	DB	094H
	DB	01bH
	DB	094H
	DB	01bH
	DB	095H
	DB	01bH
	DB	094H
	DB	01bH
	DB	095H
	DB	01bH
	DB	094H
	DB	01bH
	DB	095H
	DB	01bH
	DB	094H
	DB	01bH
	DB	094H
	DB	01bH
	DB	094H
	DB	01bH
	DB	095H
	DB	01bH
	DB	094H
	DB	01bH
	DB	095H
	DB	01bH
	DB	095H
	DB	01bH
	DB	094H
	DB	01bH
	DB	094H
	DB	01bH
	DB	095H
	DB	01bH
	DB	094H
	DB	01bH
	DB	095H
	DB	01bH
	DB	094H
	DB	01bH
	DB	094H
	DB	01bH
	DB	095H
	DB	01bH
	DB	095H
	DB	01bH
	DB	094H
	DB	01bH
	DB	095H
	DB	01bH
	DB	0b5H
	DB	01bH
	DB	094H
	DB	01bH
	DB	095H
	DB	01bH
	DB	094H
	DB	01bH
	DB	094H
	DB	01bH
	DB	095H
	DB	01bH
	DB	094H
	DB	01bH
	DB	095H
	DB	01bH
	DB	094H
	DB	01bH
	DB	095H
	DB	01bH
	DB	094H
	DB	01bH
	DB	094H
	DB	01bH
	DB	095H
	DB	01bH
	DB	095H
	DB	01bH
	DB	094H
	DB	01bH
	DB	095H
	DB	01bH
	DB	095H
	DB	01bH
	DB	094H
	DB	01bH
	DB	094H
	DB	01bH
	DB	095H
	DB	01bH
	DB	095H
	DB	01bH
	DB	0b5H
	DB	01bH
	DB	094H
	DB	01bH
	DB	0b5H
	DB	01bH
	DB	095H
	DB	01bH
	DB	094H
	DB	01bH
	DB	0b5H
	DB	01bH
	DB	095H
	DB	01bH
	DB	094H
	DB	01bH
	DB	094H
	DB	01bH
	DB	095H
	DB	01bH
	DB	095H
	DB	01bH
	DB	094H
	DB	01bH
	DB	095H
	DB	01bH
	DB	095H
	DB	01bH
	DB	094H
	DB	01bH
	DB	095H
	DB	01bH
	DB	094H
	DB	01bH
	DB	095H
	DB	01bH
	DB	095H
	DB	01bH
	DB	094H
	DB	01bH
	DB	094H
	DB	01bH
	DB	0b5H
	DB	01bH
	DB	095H
	DB	01bH
	DB	0b4H
	DB	01bH
	DB	095H
	DB	01bH
	DB	095H
	DB	013H
	DB	0b4H
	DB	01bH
	DB	095H
	DB	01bH
	DB	095H
	DB	013H
	DB	094H
	DB	01bH
	DB	094H
	DB	01bH
	DB	0b5H
	DB	013H
	DB	094H
	DB	01bH
	DB	095H
	DB	01bH
	DB	094H
	DB	01bH
	DB	095H
	DB	013H
	DB	094H
	DB	01bH
	DB	094H
	DB	01bH
	DB	074H
	DB	01bH
	DB	074H
	DB	01bH
	DB	094H
	DB	01bH
	DB	094H
	DB	01bH
	DB	074H
	DB	01bH
	DB	094H
	DB	01bH
	DB	094H
	DB	01bH
	DB	074H
	DB	01bH
	DB	074H
	DB	013H
	DB	094H
	DB	01bH
	DB	074H
	DB	01bH
	DB	094H
	DB	01bH
	DB	094H
	DB	01bH
	DB	094H
	DB	01bH
	DB	094H
	DB	01bH
	DB	075H
	DB	01bH
	DB	094H
	DB	01bH
	DB	074H
	DB	01bH
	DB	074H
	DB	01bH
	DB	074H
	DB	01bH
	DB	074H
	DB	01bH
	DB	094H
	DB	01bH
	DB	094H
	DB	01bH
	DB	094H
	DB	01bH
	DB	094H
	DB	01bH
	DB	095H
	DB	01bH
	DB	095H
	DB	01bH
	DB	094H
	DB	01bH
	DB	094H
	DB	01bH
	DB	074H
	DB	01bH
	DB	075H
	DB	01bH
	DB	074H
	DB	013H
	DB	094H
	DB	01bH
	DB	095H
	DB	01bH
	DB	074H
	DB	013H
	DB	074H
	DB	01bH
	DB	074H
	DB	013H
	DB	094H
	DB	01bH
	DB	075H
	DB	01bH
	DB	095H
	DB	01bH
	DB	074H
	DB	013H
	DB	074H
	DB	01bH
	DB	094H
	DB	013H
	DB	074H
	DB	013H
	DB	074H
	DB	01bH
	DB	095H
	DB	01bH
	DB	074H
	DB	013H
	DB	074H
	DB	013H
	DB	074H
	DB	01bH
	DB	074H
	DB	013H
	DB	074H
	DB	013H
	DB	074H
	DB	01bH
	DB	075H
	DB	013H
	DB	074H
	DB	01bH
	DB	074H
	DB	013H
	DB	074H
	DB	013H
	DB	074H
	DB	013H
	DB	075H
	DB	013H
	DB	074H
	DB	013H
	DB	075H
	DB	013H
	DB	074H
	DB	013H
	DB	074H
	DB	013H
	DB	074H
	DB	013H
	DB	054H
	DB	013H
	DB	054H
	DB	013H
	DB	074H
	DB	013H
	DB	054H
	DB	013H
	DB	053H
	DB	013H
	DB	054H
	DB	0bH
	DB	054H
	DB	0bH
	DB	054H
	DB	013H
	DB	054H
	DB	013H
	DB	054H
	DB	0bH
	DB	054H
	DB	013H
	DB	054H
	DB	013H
	DB	054H
	DB	0bH
	DB	054H
	DB	0bH
	DB	054H
	DB	013H
	DB	053H
	DB	013H
	DB	053H
	DB	0bH
	DB	033H
	DB	013H
	DB	033H
	DB	0bH
	DB	033H
	DB	013H
	DB	033H
	DB	013H
	DB	033H
	DB	0bH
	DB	033H
	DB	0bH
	DB	012H
	DB	0bH
	DB	012H
	DB	0bH
	DB	033H
	DB	0bH
	DB	033H
	DB	0bH
	DB	033H
	DB	0bH
	DB	033H
	DB	0bH
	DB	034H
	DB	0bH
	DB	034H
	DB	03H
	DB	034H
	DB	0bH
	DB	034H
	DB	0bH
	DB	033H
	DB	03H
	DB	033H
	DB	03H
	DB	034H
	DB	0bH
	DB	013H
	DB	03H
	DB	034H
	DB	03H
	DB	033H
	DB	0bH
	DB	033H
	DB	03H
	DB	034H
	DB	03H
	DB	033H
	DB	03H
	DB	034H
	DB	0bH
	DB	034H
	DB	03H
	DB	034H
	DB	03H
	DB	034H
	DB	0bH
	DB	033H
	DB	03H
	DB	054H
	DB	03H
	DB	034H
	DB	03H
	DB	033H
	DB	0bH
	DB	013H
	DB	03H
	DB	013H
	DB	0bH
	DB	033H
	DB	0bH
	DB	014H
	DB	03H
	DB	013H
	DB	0bH
	DB	033H
	DB	03H
	DB	014H
	DB	03H
	DB	033H
	DB	0bH
	DB	013H
	DB	03H
	DB	033H
	DB	03H
	DB	033H
	DB	0bH
	DB	014H
	DB	03H
	DB	033H
	DB	03H
	DB	013H
	DB	03H
	DB	033H
	DB	0bH
	DB	013H
	DB	03H
	DB	033H
	DB	0bH
	DB	034H
	DB	0bH
	DB	033H
	DB	0bH
	DB	033H
	DB	0bH
	DB	033H
	DB	03H
	DB	034H
	DB	0bH
	DB	033H
	DB	0bH
	DB	033H
	DB	0bH
	DB	034H
	DB	0bH
	DB	053H
	DB	0bH
	DB	034H
	DB	0bH
	DB	033H
	DB	0bH
	DB	054H
	DB	0bH
	DB	054H
	DB	0bH
	DB	053H
	DB	013H
	DB	054H
	DB	0bH
	DB	053H
	DB	0bH
	DB	054H
	DB	013H
	DB	053H
	DB	0bH
	DB	054H
	DB	0bH
	DB	053H
	DB	013H
	DB	054H
	DB	013H
	DB	054H
	DB	0bH
	DB	074H
	DB	0bH
	DB	054H
	DB	013H
	DB	074H
	DB	013H
	DB	074H
	DB	0bH
	DB	054H
	DB	013H
	DB	074H
	DB	0bH
	DB	054H
	DB	0bH
	DB	074H
	DB	013H
	DB	074H
	DB	013H
	DB	054H
	DB	013H
	DB	074H
	DB	013H
	DB	054H
	DB	013H
	DB	054H
	DB	013H
	DB	074H
	DB	013H
	DB	054H
	DB	013H
	DB	074H
	DB	013H
	DB	054H
	DB	013H
	DB	074H
	DB	013H
	DB	054H
	DB	013H
	DB	074H
	DB	013H
	DB	074H
	DB	01bH
	DB	054H
	DB	013H
	DB	074H
	DB	013H
	DB	074H
	DB	01bH
	DB	074H
	DB	013H
	DB	074H
	DB	01bH
	DB	094H
	DB	01bH
	DB	075H
	DB	013H
	DB	074H
	DB	01bH
	DB	095H
	DB	01bH
	DB	094H
	DB	013H
	DB	074H
	DB	013H
	DB	075H
	DB	013H
	DB	094H
	DB	01bH
	DB	094H
	DB	013H
	DB	074H
	DB	01bH
	DB	074H
	DB	013H
	DB	074H
	DB	01bH
	DB	074H
	DB	01bH
	DB	074H
	DB	013H
	DB	074H
	DB	01bH
	DB	074H
	DB	01bH
	DB	074H
	DB	01bH
	DB	094H
	DB	013H
	DB	094H
	DB	01bH
	DB	074H
	DB	013H
	DB	094H
	DB	013H
	DB	094H
	DB	01bH
	DB	074H
	DB	01bH
	DB	095H
	DB	013H
	DB	074H
	DB	01bH
	DB	074H
	DB	01bH
	DB	095H
	DB	01bH
	DB	094H
	DB	01bH
	DB	094H
	DB	01bH
	DB	075H
	DB	01bH
	DB	094H
	DB	01bH
	DB	094H
	DB	01bH
	DB	095H
	DB	01bH
	DB	095H
	DB	01bH
	DB	0b5H
	DB	013H
	DB	095H
	DB	01bH
	DB	095H
	DB	01bH
	DB	0b5H
	DB	013H
	DB	094H
	DB	01bH
	DB	095H
	DB	01bH
	DB	095H
	DB	01bH
	DB	0b5H
	DB	01bH
	DB	095H
	DB	01bH
	DB	095H
	DB	013H
	DB	094H
	DB	01bH
	DB	095H
	DB	01bH
	DB	095H
	DB	01bH
	DB	094H
	DB	01bH
	DB	0b5H
	DB	01bH
	DB	094H
	DB	01bH
	DB	094H
	DB	01bH
	DB	095H
	DB	01bH
	DB	094H
	DB	01bH
	DB	095H
	DB	01bH
	DB	094H
	DB	01bH
	DB	094H
	DB	01bH
	DB	095H
	DB	013H
	DB	094H
	DB	01bH
	DB	094H
	DB	01bH
	DB	095H
	DB	013H
	DB	094H
	DB	01bH
	DB	094H
	DB	01bH
	DB	095H
	DB	01bH
	DB	094H
	DB	01bH
	DB	094H
	DB	01bH
	DB	095H
	DB	01bH
	DB	094H
	DB	01bH
	DB	094H
	DB	01bH
	DB	094H
	DB	01bH
	DB	094H
	DB	01bH
	DB	095H
	DB	01bH
	DB	094H
	DB	01bH
	DB	095H
	DB	01bH
	DB	095H
	DB	01bH
	DB	094H
	DB	01bH
	DB	095H
	DB	01bH
	DB	094H
	DB	01bH
	DB	095H
	DB	01bH
	DB	094H
	DB	01bH
	DB	094H
	DB	01bH
	DB	095H
	DB	01bH
	DB	094H
	DB	01bH
	DB	095H
	DB	01bH
	DB	0b5H
	DB	01bH
	DB	095H
	DB	01bH
	DB	094H
	DB	01bH
	DB	094H
	DB	01bH
	DB	095H
	DB	01bH
	DB	094H
	DB	01bH
	DB	094H
	DB	01bH
	DB	075H
	DB	01bH
	DB	094H
	DB	01bH
	DB	094H
	DB	01bH
	DB	095H
	DB	01bH
	DB	094H
	DB	01bH
	DB	094H
	DB	01bH
	DB	094H
	DB	01bH
	DB	095H
	DB	01bH
	DB	094H
	DB	01bH
	DB	094H
	DB	01bH
	DB	095H
	DB	01bH
	DB	094H
	DB	01bH
	DB	094H
	DB	01bH
	DB	094H
	DB	01bH
	DB	095H
	DB	01bH
	DB	0b5H
	DB	01bH
	DB	094H
	DB	01bH
	DB	095H
	DB	01bH
	DB	094H
	DB	01bH
	DB	094H
	DB	01bH
	DB	095H
	DB	01bH
	DB	095H
	DB	01bH
	DB	094H
	DB	01bH
	DB	095H
	DB	01bH
	DB	094H
	DB	01bH
	DB	094H
	DB	01bH
	DB	095H
	DB	01bH
	DB	094H
	DB	01bH
	DB	094H
	DB	01bH
	DB	094H
	DB	01bH
	DB	095H
	DB	013H
	DB	094H
	DB	01bH
	DB	095H
	DB	01bH
	DB	094H
	DB	01bH
	DB	095H
	DB	01bH
	DB	094H
	DB	01bH
	DB	095H
	DB	013H
	DB	0b4H
	DB	01bH
	DB	095H
	DB	01bH
	DB	095H
	DB	01bH
	DB	094H
	DB	01bH
	DB	095H
	DB	01bH
	DB	0b5H
	DB	01bH
	DB	095H
	DB	01bH
	DB	095H
	DB	01bH
	DB	094H
	DB	01bH
	DB	095H
	DB	01bH
	DB	0b4H
	DB	01bH
	DB	094H
	DB	01bH
	DB	094H
	DB	01bH
	DB	094H
	DB	01bH
	DB	094H
	DB	01bH
	DB	074H
	DB	01bH
	DB	074H
	DB	01bH
	DB	094H
	DB	01bH
	DB	094H
	DB	01bH
	DB	074H
	DB	01bH
	DB	094H
	DB	01bH
	DB	094H
	DB	01bH
	DB	074H
	DB	01bH
	DB	094H
	DB	01bH
	DB	074H
	DB	01bH
	DB	094H
	DB	01bH
	DB	074H
	DB	01bH
	DB	075H
	DB	01bH
	DB	074H
	DB	01bH
	DB	094H
	DB	01bH
	DB	094H
	DB	01bH
	DB	075H
	DB	013H
	DB	094H
	DB	01bH
	DB	074H
	DB	01bH
	DB	074H
	DB	01bH
	DB	094H
	DB	01bH
	DB	074H
	DB	01bH
	DB	074H
	DB	01bH
	DB	074H
	DB	013H
	DB	094H
	DB	01bH
	DB	095H
	DB	01bH
	DB	075H
	DB	013H
	DB	095H
	DB	01bH
	DB	095H
	DB	01bH
	DB	094H
	DB	013H
	DB	095H
	DB	013H
	DB	074H
	DB	01bH
	DB	074H
	DB	01bH
	DB	075H
	DB	013H
	DB	075H
	DB	01bH
	DB	074H
	DB	01bH
	DB	094H
	DB	01bH
	DB	094H
	DB	013H
	DB	074H
	DB	013H
	DB	074H
	DB	01bH
	DB	074H
	DB	01bH
	DB	075H
	DB	013H
	DB	074H
	DB	01bH
	DB	094H
	DB	013H
	DB	075H
	DB	013H
	DB	074H
	DB	01bH
	DB	094H
	DB	013H
	DB	074H
	DB	013H
	DB	094H
	DB	01bH
	DB	074H
	DB	013H
	DB	074H
	DB	013H
	DB	075H
	DB	013H
	DB	074H
	DB	01bH
	DB	074H
	DB	013H
	DB	074H
	DB	013H
	DB	075H
	DB	013H
	DB	075H
	DB	013H
	DB	074H
	DB	013H
	DB	074H
	DB	013H
	DB	074H
	DB	013H
	DB	075H
	DB	013H
	DB	074H
	DB	013H
	DB	054H
	DB	013H
	DB	054H
	DB	013H
	DB	054H
	DB	013H
	DB	074H
	DB	013H
	DB	054H
	DB	013H
	DB	054H
	DB	013H
	DB	074H
	DB	013H
	DB	074H
	DB	0bH
	DB	053H
	DB	013H
	DB	054H
	DB	013H
	DB	074H
	DB	0bH
	DB	054H
	DB	013H
	DB	054H
	DB	0bH
	DB	054H
	DB	0bH
	DB	054H
	DB	013H
	DB	054H
	DB	013H
	DB	033H
	DB	0bH
	DB	033H
	DB	0bH
	DB	033H
	DB	0bH
	DB	033H
	DB	0bH
	DB	033H
	DB	0bH
	DB	033H
	DB	013H
	DB	033H
	DB	0bH
	DB	013H
	DB	0bH
	DB	012H
	DB	0bH
	DB	012H
	DB	0bH
	DB	012H
	DB	0bH
	DB	013H
	DB	0bH
	DB	013H
	DB	0bH
	DB	033H
	DB	0bH
	DB	033H
	DB	0bH
	DB	034H
	DB	0bH
	DB	033H
	DB	03H
	DB	034H
	DB	0bH
	DB	034H
	DB	03H
	DB	033H
	DB	0bH
	DB	034H
	DB	03H
	DB	033H
	DB	03H
	DB	014H
	DB	0bH
	DB	034H
	DB	0bH
	DB	033H
	DB	03H
	DB	033H
	DB	0bH
	DB	034H
	DB	03H
	DB	033H
	DB	03H
	DB	034H
	DB	0bH
	DB	034H
	DB	03H
	DB	034H
	DB	0bH
	DB	034H
	DB	03H
	DB	034H
	DB	0bH
	DB	034H
	DB	03H
	DB	033H
	DB	03H
	DB	013H
	DB	03H
	DB	033H
	DB	03H
	DB	033H
	DB	03H
	DB	013H
	DB	03H
	DB	033H
	DB	0bH
	DB	014H
	DB	03H
	DB	033H
	DB	0bH
	DB	013H
	DB	03H
	DB	014H
	DB	03H
	DB	033H
	DB	0bH
	DB	013H
	DB	03H
	DB	034H
	DB	0bH
	DB	033H
	DB	0bH
	DB	034H
	DB	0bH
	DB	034H
	DB	03H
	DB	033H
	DB	03H
	DB	034H
	DB	0bH
	DB	033H
	DB	03H
	DB	034H
	DB	0bH
	DB	033H
	DB	0bH
	DB	033H
	DB	0bH
	DB	033H
	DB	0bH
	DB	033H
	DB	0bH
	DB	033H
	DB	0bH
	DB	054H
	DB	0bH
	DB	033H
	DB	0bH
	DB	054H
	DB	0bH
	DB	054H
	DB	0bH
	DB	053H
	DB	0bH
	DB	033H
	DB	013H
	DB	054H
	DB	013H
	DB	054H
	DB	0bH
	DB	054H
	DB	013H
	DB	054H
	DB	013H
	DB	054H
	DB	0bH
	DB	054H
	DB	013H
	DB	054H
	DB	013H
	DB	053H
	DB	013H
	DB	054H
	DB	013H
	DB	074H
	DB	013H
	DB	074H
	DB	013H
	DB	075H
	DB	0bH
	DB	074H
	DB	013H
	DB	054H
	DB	013H
	DB	074H
	DB	013H
	DB	074H
	DB	013H
	DB	074H
	DB	013H
	DB	054H
	DB	013H
	DB	074H
	DB	013H
	DB	074H
	DB	013H
	DB	054H
	DB	013H
	DB	074H
	DB	013H
	DB	053H
	DB	013H
	DB	074H
	DB	013H
	DB	054H
	DB	013H
	DB	074H
	DB	013H
	DB	074H
	DB	01bH
	DB	073H
	DB	013H
	DB	074H
	DB	013H
	DB	074H
	DB	01bH
	DB	053H
	DB	013H
	DB	074H
	DB	013H
	DB	074H
	DB	013H
	DB	074H
	DB	013H
	DB	074H
	DB	01bH
	DB	074H
	DB	013H
	DB	095H
	DB	013H
	DB	094H
	DB	01bH
	DB	074H
	DB	01bH
	DB	075H
	DB	013H
	DB	094H
	DB	01bH
	DB	094H
	DB	01bH
	DB	095H
	DB	01bH
	DB	074H
	DB	01bH
	DB	074H
	DB	013H
	DB	074H
	DB	01bH
	DB	074H
	DB	01bH
	DB	074H
	DB	013H
	DB	074H
	DB	01bH
	DB	094H
	DB	01bH
	DB	074H
	DB	01bH
	DB	094H
	DB	01bH
	DB	074H
	DB	01bH
	DB	075H
	DB	01bH
	DB	095H
	DB	01bH
	DB	074H
	DB	01bH
	DB	074H
	DB	01bH
	DB	095H
	DB	01bH
	DB	094H
	DB	013H
	DB	074H
	DB	01bH
	DB	074H
	DB	01bH
	DB	094H
	DB	01bH
	DB	094H
	DB	01bH
	DB	094H
	DB	01bH
	DB	095H
	DB	01bH
	DB	074H
	DB	01bH
	DB	094H
	DB	013H
	DB	095H
	DB	01bH
	DB	095H
	DB	01bH
	DB	095H
	DB	01bH
	DB	0b5H
	DB	013H
	DB	095H
	DB	01bH
	DB	094H
	DB	01bH
	DB	0b5H
	DB	01bH
	DB	095H
	DB	01bH
	DB	095H
	DB	01bH
	DB	094H
	DB	01bH
	DB	095H
	DB	01bH
	DB	0b5H
	DB	01bH
	DB	0b5H
	DB	01bH
	DB	095H
	DB	01bH
	DB	095H
	DB	01bH
	DB	095H
	DB	01bH
	DB	094H
	DB	013H
	DB	095H
	DB	01bH
	DB	094H
	DB	01bH
	DB	094H
	DB	01bH
	DB	095H
	DB	013H
	DB	094H
	DB	01bH
	DB	094H
	DB	01bH
	DB	095H
	DB	01bH
	DB	095H
	DB	01bH
	DB	094H
	DB	01bH
	DB	094H
	DB	01bH
	DB	095H
	DB	01bH
	DB	094H
	DB	01bH
	DB	095H
	DB	01bH
	DB	094H
	DB	01bH
	DB	094H
	DB	01bH
	DB	095H
	DB	01bH
	DB	095H
	DB	01bH
	DB	095H
	DB	01bH
	DB	095H
	DB	01bH
	DB	095H
	DB	01bH
	DB	094H
	DB	013H
	DB	095H
	DB	01bH
	DB	095H
	DB	01bH
	DB	094H
	DB	01bH
	DB	094H
	DB	01bH
	DB	095H
	DB	01bH
	DB	095H
	DB	01bH
	DB	094H
	DB	01bH
	DB	095H
	DB	01bH
	DB	095H
	DB	01bH
	DB	095H
	DB	01bH
	DB	095H
	DB	01bH
	DB	095H
	DB	01bH
	DB	0b5H
	DB	01bH
	DB	095H
	DB	01bH
	DB	094H
	DB	01bH
	DB	094H
	DB	01bH
	DB	094H
	DB	01bH
	DB	095H
	DB	01bH
	DB	094H
	DB	01bH
	DB	094H
	DB	01bH
	DB	095H
	DB	01bH
	DB	094H
	DB	01bH
	DB	094H
	DB	01bH
	DB	095H
	DB	01bH
	DB	095H
	DB	01bH
	DB	094H
	DB	01bH
	DB	094H
	DB	01bH
	DB	095H
	DB	01bH
	DB	094H
	DB	01bH
	DB	094H
	DB	01bH
	DB	095H
	DB	01bH
	DB	094H
	DB	01bH
	DB	094H
	DB	01bH
	DB	095H
	DB	01bH
	DB	0b5H
	DB	01bH
	DB	0b5H
	DB	01bH
	DB	095H
	DB	01bH
	DB	095H
	DB	01bH
	DB	0b5H
	DB	01bH
	DB	095H
	DB	01bH
	DB	0b4H
	DB	01bH
	DB	094H
	DB	01bH
	DB	095H
	DB	01bH
	DB	0b4H
	DB	01bH
	DB	095H
	DB	01bH
	DB	094H
	DB	01bH
	DB	0b5H
	DB	01bH
	DB	095H
	DB	01bH
	DB	094H
	DB	01bH
	DB	095H
	DB	01bH
	DB	094H
	DB	01bH
	DB	094H
	DB	01bH
	DB	095H
	DB	01bH
	DB	095H
	DB	01bH
	DB	094H
	DB	01bH
	DB	094H
	DB	01bH
	DB	094H
	DB	01bH
	DB	095H
	DB	01bH
	DB	0b5H
	DB	01bH
	DB	094H
	DB	01bH
	DB	095H
	DB	01bH
	DB	0b4H
	DB	01bH
	DB	094H
	DB	01bH
	DB	095H
	DB	01bH
	DB	0b5H
	DB	01bH
	DB	094H
	DB	01bH
	DB	095H
	DB	01bH
	DB	095H
	DB	01bH
	DB	0b5H
	DB	01bH
	DB	094H
	DB	01bH
	DB	074H
	DB	01bH
	DB	074H
	DB	01bH
	DB	094H
	DB	01bH
	DB	074H
	DB	01bH
	DB	074H
	DB	01bH
	DB	094H
	DB	01bH
	DB	074H
	DB	01bH
	DB	074H
	DB	01bH
	DB	094H
	DB	01bH
	DB	074H
	DB	01bH
	DB	094H
	DB	01bH
	DB	094H
	DB	01bH
	DB	074H
	DB	01bH
	DB	074H
	DB	01bH
	DB	095H
	DB	013H
	DB	074H
	DB	01bH
	DB	074H
	DB	01bH
	DB	094H
	DB	01bH
	DB	074H
	DB	01bH
	DB	094H
	DB	01bH
	DB	094H
	DB	01bH
	DB	074H
	DB	013H
	DB	094H
	DB	01bH
	DB	074H
	DB	01bH
	DB	094H
	DB	01bH
	DB	074H
	DB	013H
	DB	074H
	DB	01bH
	DB	074H
	DB	01bH
	DB	074H
	DB	013H
	DB	094H
	DB	01bH
	DB	095H
	DB	01bH
	DB	095H
	DB	01bH
	DB	074H
	DB	01bH
	DB	095H
	DB	01bH
	DB	095H
	DB	01bH
	DB	074H
	DB	013H
	DB	074H
	DB	01bH
	DB	095H
	DB	013H
	DB	094H
	DB	01bH
	DB	075H
	DB	01bH
	DB	094H
	DB	013H
	DB	094H
	DB	01bH
	DB	094H
	DB	013H
	DB	095H
	DB	01bH
	DB	074H
	DB	01bH
	DB	094H
	DB	013H
	DB	074H
	DB	013H
	DB	074H
	DB	01bH
	DB	074H
	DB	013H
	DB	075H
	DB	01bH
	DB	075H
	DB	013H
	DB	094H
	DB	01bH
	DB	074H
	DB	01bH
	DB	074H
	DB	013H
	DB	074H
	DB	013H
	DB	074H
	DB	013H
	DB	075H
	DB	01bH
	DB	074H
	DB	013H
	DB	074H
	DB	013H
	DB	075H
	DB	013H
	DB	074H
	DB	013H
	DB	074H
	DB	013H
	DB	075H
	DB	013H
	DB	074H
	DB	013H
	DB	054H
	DB	013H
	DB	074H
	DB	013H
	DB	074H
	DB	013H
	DB	074H
	DB	013H
	DB	074H
	DB	013H
	DB	074H
	DB	013H
	DB	074H
	DB	013H
	DB	054H
	DB	013H
	DB	054H
	DB	0bH
	DB	054H
	DB	013H
	DB	054H
	DB	013H
	DB	074H
	DB	0bH
	DB	054H
	DB	013H
	DB	053H
	DB	013H
	DB	053H
	DB	013H
	DB	053H
	DB	0bH
	DB	033H
	DB	013H
	DB	034H
	DB	013H
	DB	033H
	DB	013H
	DB	033H
	DB	013H
	DB	033H
	DB	0bH
	DB	033H
	DB	0bH
	DB	033H
	DB	013H
	DB	013H
	DB	013H
	DB	013H
	DB	0bH
	DB	033H
	DB	013H
	DB	012H
	DB	0bH
	DB	012H
	DB	0bH
	DB	012H
	DB	0bH
	DB	032H
	DB	0bH
	DB	033H
	DB	0bH
	DB	033H
	DB	0bH
	DB	033H
	DB	0bH
	DB	033H
	DB	0bH
	DB	034H
	DB	03H
	DB	034H
	DB	0bH
	DB	034H
	DB	0bH
	DB	033H
	DB	03H
	DB	033H
	DB	03H
	DB	034H
	DB	03H
	DB	034H
	DB	0bH
	DB	033H
	DB	03H
	DB	034H
	DB	0bH
	DB	033H
	DB	03H
	DB	033H
	DB	03H
	DB	034H
	DB	0bH
	DB	053H
	DB	03H
	DB	034H
	DB	03H
	DB	054H
	DB	0bH
	DB	054H
	DB	0bH
	DB	013H
	DB	03H
	DB	033H
	DB	0bH
	DB	014H
	DB	03H
	DB	014H
	DB	03H
	DB	033H
	DB	0bH
	DB	033H
	DB	03H
	DB	013H
	DB	03H
	DB	033H
	DB	0bH
	DB	034H
	DB	03H
	DB	013H
	DB	0bH
	DB	013H
	DB	03H
	DB	033H
	DB	03H
	DB	013H
	DB	03H
	DB	013H
	DB	03H
	DB	033H
	DB	0bH
	DB	033H
	DB	0bH
	DB	033H
	DB	0bH
	DB	033H
	DB	0bH
	DB	033H
	DB	0bH
	DB	033H
	DB	0bH
	DB	033H
	DB	0bH
	DB	033H
	DB	0bH
	DB	033H
	DB	0bH
	DB	033H
	DB	0bH
	DB	033H
	DB	0bH
	DB	033H
	DB	0bH
	DB	033H
	DB	0bH
	DB	033H
	DB	0bH
	DB	033H
	DB	0bH
	DB	033H
	DB	013H
	DB	033H
	DB	0bH
	DB	033H
	DB	0bH
	DB	033H
	DB	013H
	DB	053H
	DB	0bH
	DB	053H
	DB	013H
	DB	033H
	DB	013H
	DB	054H
	DB	0bH
	DB	054H
	DB	013H
	DB	053H
	DB	0bH
	DB	053H
	DB	013H
	DB	054H
	DB	013H
	DB	054H
	DB	013H
	DB	074H
	DB	0bH
	DB	054H
	DB	013H
	DB	074H
	DB	013H
	DB	074H
	DB	013H
	DB	074H
	DB	013H
	DB	054H
	DB	013H
	DB	074H
	DB	013H
	DB	054H
	DB	013H
	DB	053H
	DB	013H
	DB	074H
	DB	013H
	DB	074H
	DB	013H
	DB	054H
	DB	013H
	DB	074H
	DB	013H
	DB	054H
	DB	013H
	DB	054H
	DB	013H
	DB	074H
	DB	013H
	DB	074H
	DB	013H
	DB	074H
	DB	01bH
	DB	074H
	DB	013H
	DB	074H
	DB	01bH
	DB	074H
	DB	01bH
	DB	074H
	DB	013H
	DB	074H
	DB	01bH
	DB	074H
	DB	013H
	DB	074H
	DB	013H
	DB	095H
	DB	013H
	DB	074H
	DB	013H
	DB	094H
	DB	01bH
	DB	095H
	DB	01bH
	DB	094H
	DB	01bH
	DB	095H
	DB	013H
	DB	074H
	DB	01bH
	DB	074H
	DB	01bH
	DB	074H
	DB	013H
	DB	074H
	DB	01bH
	DB	074H
	DB	01bH
	DB	074H
	DB	01bH
	DB	074H
	DB	013H
	DB	094H
	DB	01bH
	DB	094H
	DB	013H
	DB	074H
	DB	01bH
	DB	094H
	DB	013H
	DB	074H
	DB	01bH
	DB	094H
	DB	01bH
	DB	094H
	DB	013H
	DB	074H
	DB	01bH
	DB	074H
	DB	01bH
	DB	094H
	DB	01bH
	DB	094H
	DB	01bH
	DB	075H
	DB	01bH
	DB	094H
	DB	01bH
	DB	074H
	DB	013H
	DB	095H
	DB	01bH
	DB	094H
	DB	01bH
	DB	094H
	DB	01bH
	DB	094H
	DB	01bH
	DB	094H
	DB	01bH
	DB	095H
	DB	01bH
	DB	095H
	DB	013H
	DB	095H
	DB	01bH
	DB	0b4H
	DB	01bH
	DB	095H
	DB	01bH
	DB	095H
	DB	01bH
	DB	094H
	DB	013H
	DB	0b5H
	DB	01bH
	DB	095H
	DB	01bH
	DB	095H
	DB	01bH
	DB	0b4H
	DB	01bH
	DB	0b5H
	DB	01bH
	DB	095H
	DB	013H
	DB	094H
	DB	01bH
	DB	0b4H
	DB	01bH
	DB	094H
	DB	01bH
	DB	095H
	DB	01bH
	DB	094H
	DB	01bH
	DB	094H
	DB	01bH
	DB	095H
	DB	01bH
	DB	094H
	DB	01bH
	DB	094H
	DB	01bH
	DB	095H
	DB	01bH
	DB	094H
	DB	01bH
	DB	094H
	DB	01bH
	DB	095H
	DB	01bH
	DB	094H
	DB	01bH
	DB	094H
	DB	01bH
	DB	095H
	DB	01bH
	DB	095H
	DB	01bH
	DB	094H
	DB	01bH
	DB	094H
	DB	01bH
	DB	094H
	DB	01bH
	DB	095H
	DB	01bH
	DB	094H
	DB	01bH
	DB	095H
	DB	01bH
	DB	094H
	DB	01bH
	DB	094H
	DB	01bH
	DB	095H
	DB	01bH
	DB	094H
	DB	01bH
	DB	094H
	DB	01bH
	DB	095H
	DB	01bH
	DB	094H
	DB	01bH
	DB	094H
	DB	01bH
	DB	095H
	DB	01bH
	DB	095H
	DB	01bH
	DB	094H
	DB	01bH
	DB	0b4H
	DB	01bH
	DB	095H
	DB	01bH
	DB	094H
	DB	01bH
	DB	094H
	DB	01bH
	DB	094H
	DB	01bH
	DB	095H
	DB	01bH
	DB	075H
	DB	01bH
	DB	094H
	DB	01bH
	DB	095H
	DB	01bH
	DB	094H
	DB	01bH
	DB	095H
	DB	01bH
	DB	094H
	DB	01bH
	DB	094H
	DB	01bH
	DB	095H
	DB	01bH
	DB	094H
	DB	01bH
	DB	094H
	DB	01bH
	DB	095H
	DB	01bH
	DB	094H
	DB	01bH
	DB	094H
	DB	01bH
	DB	095H
	DB	01bH
	DB	094H
	DB	01bH
	DB	095H
	DB	01bH
	DB	094H
	DB	01bH
	DB	094H
	DB	01bH
	DB	095H
	DB	01bH
	DB	0b4H
	DB	01bH
	DB	095H
	DB	01bH
	DB	095H
	DB	01bH
	DB	094H
	DB	01bH
	DB	0b5H
	DB	01bH
	DB	095H
	DB	01bH
	DB	094H
	DB	01bH
	DB	095H
	DB	01bH
	DB	0b5H
	DB	01bH
	DB	094H
	DB	01bH
	DB	095H
	DB	01bH
	DB	094H
	DB	01bH
	DB	094H
	DB	01bH
	DB	095H
	DB	01bH
	DB	095H
	DB	01bH
	DB	094H
	DB	01bH
	DB	094H
	DB	01bH
	DB	095H
	DB	01bH
	DB	094H
	DB	01bH
	DB	094H
	DB	01bH
	DB	095H
	DB	01bH
	DB	094H
	DB	01bH
	DB	095H
	DB	01bH
	DB	0b5H
	DB	01bH
	DB	094H
	DB	01bH
	DB	095H
	DB	01bH
	DB	095H
	DB	01bH
	DB	094H
	DB	01bH
	DB	094H
	DB	01bH
	DB	0b4H
	DB	01bH
	DB	095H
	DB	01bH
	DB	094H
	DB	013H
	DB	094H
	DB	01bH
	DB	094H
	DB	01bH
	DB	094H
	DB	01bH
	DB	074H
	DB	01bH
	DB	094H
	DB	01bH
	DB	094H
	DB	01bH
	DB	074H
	DB	01bH
	DB	094H
	DB	01bH
	DB	094H
	DB	01bH
	DB	074H
	DB	01bH
	DB	094H
	DB	01bH
	DB	074H
	DB	01bH
	DB	074H
	DB	01bH
	DB	094H
	DB	01bH
	DB	074H
	DB	01bH
	DB	094H
	DB	01bH
	DB	094H
	DB	01bH
	DB	094H
	DB	01bH
	DB	094H
	DB	01bH
	DB	075H
	DB	01bH
	DB	075H
	DB	01bH
	DB	094H
	DB	01bH
	DB	074H
	DB	01bH
	DB	074H
	DB	01bH
	DB	095H
	DB	01bH
	DB	074H
	DB	01bH
	DB	094H
	DB	01bH
	DB	074H
	DB	01bH
	DB	074H
	DB	01bH
	DB	094H
	DB	01bH
	DB	074H
	DB	01bH
	DB	074H
	DB	01bH
	DB	094H
	DB	01bH
	DB	074H
	DB	013H
	DB	074H
	DB	01bH
	DB	094H
	DB	01bH
	DB	074H
	DB	01bH
	DB	094H
	DB	013H
	DB	074H
	DB	01bH
	DB	074H
	DB	01bH
	DB	095H
	DB	013H
	DB	075H
	DB	01bH
	DB	074H
	DB	01bH
	DB	075H
	DB	013H
	DB	094H
	DB	013H
	DB	074H
	DB	01bH
	DB	074H
	DB	013H
	DB	075H
	DB	01bH
	DB	074H
	DB	01bH
	DB	074H
	DB	01bH
	DB	095H
	DB	013H
	DB	074H
	DB	01bH
	DB	074H
	DB	01bH
	DB	074H
	DB	013H
	DB	074H
	DB	013H
	DB	075H
	DB	01bH
	DB	074H
	DB	013H
	DB	074H
	DB	013H
	DB	075H
	DB	01bH
	DB	074H
	DB	013H
	DB	074H
	DB	013H
	DB	074H
	DB	013H
	DB	075H
	DB	013H
	DB	074H
	DB	013H
	DB	075H
	DB	013H
	DB	075H
	DB	013H
	DB	074H
	DB	013H
	DB	074H
	DB	013H
	DB	054H
	DB	013H
	DB	054H
	DB	013H
	DB	054H
	DB	013H
	DB	074H
	DB	013H
	DB	074H
	DB	013H
	DB	054H
	DB	0bH
	DB	074H
	DB	013H
	DB	054H
	DB	0bH
	DB	054H
	DB	013H
	DB	073H
	DB	013H
	DB	053H
	DB	0bH
	DB	053H
	DB	013H
	DB	053H
	DB	013H
	DB	033H
	DB	0bH
	DB	033H
	DB	013H
	DB	033H
	DB	013H
	DB	054H
	DB	0bH
	DB	033H
	DB	013H
	DB	033H
	DB	013H
	DB	033H
	DB	013H
	DB	033H
	DB	0bH
	DB	033H
	DB	0bH
	DB	033H
	DB	013H
	DB	033H
	DB	0bH
	DB	012H
	DB	0bH
	DB	013H
	DB	0bH
	DB	013H
	DB	0bH
	DB	012H
	DB	0bH
	DB	033H
	DB	0bH
	DB	012H
	DB	0bH
	DB	013H
	DB	0bH
	DB	013H
	DB	0bH
	DB	013H
	DB	0bH
	DB	033H
	DB	0bH
	DB	033H
	DB	03H
	DB	033H
	DB	0bH
	DB	034H
	DB	0bH
	DB	034H
	DB	03H
	DB	034H
	DB	03H
	DB	033H
	DB	03H
	DB	034H
	DB	0bH
	DB	033H
	DB	03H
	DB	034H
	DB	0bH
	DB	034H
	DB	03H
	DB	034H
	DB	03H
	DB	034H
	DB	0bH
	DB	034H
	DB	03H
	DB	033H
	DB	03H
	DB	033H
	DB	0bH
	DB	013H
	DB	03H
	DB	034H
	DB	0bH
	DB	033H
	DB	0bH
	DB	013H
	DB	03H
	DB	014H
	DB	0bH
	DB	034H
	DB	03H
	DB	013H
	DB	03H
	DB	013H
	DB	0bH
	DB	033H
	DB	03H
	DB	013H
	DB	0bH
	DB	013H
	DB	0bH
	DB	013H
	DB	0bH
	DB	033H
	DB	03H
	DB	013H
	DB	0bH
	DB	013H
	DB	0bH
	DB	013H
	DB	0bH
	DB	013H
	DB	0bH
	DB	013H
	DB	0bH
	DB	013H
	DB	0bH
	DB	033H
	DB	0bH
	DB	013H
	DB	0bH
	DB	013H
	DB	0bH
	DB	013H
	DB	0bH
	DB	013H
	DB	0bH
	DB	033H
	DB	0bH
	DB	013H
	DB	0bH
	DB	013H
	DB	013H
	DB	033H
	DB	0bH
	DB	033H
	DB	013H
	DB	033H
	DB	0bH
	DB	033H
	DB	013H
	DB	033H
	DB	013H
	DB	033H
	DB	013H
	DB	033H
	DB	0bH
	DB	033H
	DB	013H
	DB	033H
	DB	013H
	DB	033H
	DB	013H
	DB	033H
	DB	013H
	DB	033H
	DB	0bH
	DB	054H
	DB	013H
	DB	033H
	DB	013H
	DB	053H
	DB	013H
	DB	053H
	DB	013H
	DB	053H
	DB	013H
	DB	054H
	DB	013H
	DB	054H
	DB	013H
	DB	054H
	DB	013H
	DB	054H
	DB	013H
	DB	074H
	DB	013H
	DB	074H
	DB	013H
	DB	054H
	DB	013H
	DB	074H
	DB	013H
	DB	074H
	DB	013H
	DB	074H
	DB	013H
	DB	074H
	DB	013H
	DB	074H
	DB	01bH
	DB	073H
	DB	013H
	DB	074H
	DB	013H
	DB	074H
	DB	01bH
	DB	054H
	DB	013H
	DB	074H
	DB	013H
	DB	074H
	DB	013H
	DB	074H
	DB	013H
	DB	054H
	DB	01bH
	DB	074H
	DB	01bH
	DB	074H
	DB	01bH
	DB	074H
	DB	01bH
	DB	074H
	DB	01bH
	DB	095H
	DB	013H
	DB	074H
	DB	013H
	DB	095H
	DB	013H
	DB	094H
	DB	01bH
	DB	075H
	DB	013H
	DB	074H
	DB	013H
	DB	074H
	DB	01bH
	DB	074H
	DB	01bH
	DB	074H
	DB	013H
	DB	074H
	DB	01bH
	DB	094H
	DB	01bH
	DB	074H
	DB	013H
	DB	094H
	DB	01bH
	DB	075H
	DB	01bH
	DB	094H
	DB	01bH
	DB	094H
	DB	01bH
	DB	074H
	DB	013H
	DB	074H
	DB	01bH
	DB	095H
	DB	01bH
	DB	094H
	DB	01bH
	DB	094H
	DB	01bH
	DB	075H
	DB	01bH
	DB	094H
	DB	01bH
	DB	094H
	DB	01bH
	DB	075H
	DB	01bH
	DB	074H
	DB	01bH
	DB	094H
	DB	01bH
	DB	094H
	DB	01bH
	DB	095H
	DB	01bH
	DB	094H
	DB	01bH
	DB	094H
	DB	01bH
	DB	095H
	DB	01bH
	DB	095H
	DB	01bH
	DB	0b5H
	DB	01bH
	DB	0b5H
	DB	01bH
	DB	0b5H
	DB	01bH
	DB	0b5H
	DB	01bH
	DB	094H
	DB	01bH
	DB	095H
	DB	01bH
	DB	095H
	DB	013H
	DB	0b4H
	DB	01bH
	DB	095H
	DB	01bH
	DB	095H
	DB	01bH
	DB	094H
	DB	01bH
	DB	094H
	DB	01bH
	DB	094H
	DB	01bH
	DB	094H
	DB	01bH
	DB	095H
	DB	01bH
	DB	094H
	DB	01bH
	DB	094H
	DB	01bH
	DB	095H
	DB	01bH
	DB	094H
	DB	01bH
	DB	094H
	DB	013H
	DB	095H
	DB	01bH
	DB	094H
	DB	01bH
	DB	094H
	DB	01bH
	DB	095H
	DB	013H
	DB	095H
	DB	01bH
	DB	094H
	DB	01bH
	DB	094H
	DB	01bH
	DB	095H
	DB	01bH
	DB	094H
	DB	01bH
	DB	094H
	DB	01bH
	DB	095H
	DB	01bH
	DB	094H
	DB	01bH
	DB	094H
	DB	01bH
	DB	095H
	DB	01bH
	DB	095H
	DB	01bH
	DB	094H
	DB	01bH
	DB	095H
	DB	01bH
	DB	095H
	DB	01bH
	DB	095H
	DB	01bH
	DB	095H
	DB	01bH
	DB	095H
	DB	01bH
	DB	094H
	DB	01bH
	DB	0b5H
	DB	013H
	DB	094H
	DB	01bH
	DB	095H
	DB	01bH
	DB	095H
	DB	01bH
	DB	094H
	DB	01bH
	DB	094H
	DB	01bH
	DB	094H
	DB	01bH
	DB	095H
	DB	01bH
	DB	094H
	DB	01bH
	DB	094H
	DB	01bH
	DB	095H
	DB	01bH
	DB	094H
	DB	01bH
	DB	094H
	DB	01bH
	DB	095H
	DB	01bH
	DB	094H
	DB	01bH
	DB	094H
	DB	01bH
	DB	095H
	DB	01bH
	DB	094H
	DB	01bH
	DB	094H
	DB	01bH
	DB	095H
	DB	01bH
	DB	094H
	DB	01bH
	DB	095H
	DB	01bH
	DB	094H
	DB	01bH
	DB	094H
	DB	01bH
	DB	095H
	DB	01bH
	DB	094H
	DB	013H
	DB	094H
	DB	01bH
	DB	095H
	DB	01bH
	DB	094H
	DB	01bH
	DB	0b4H
	DB	01bH
	DB	095H
	DB	01bH
	DB	095H
	DB	01bH
	DB	0b5H
	DB	01bH
	DB	095H
	DB	01bH
	DB	094H
	DB	01bH
	DB	095H
	DB	01bH
	DB	094H
	DB	01bH
	DB	094H
	DB	01bH
	DB	094H
	DB	01bH
	DB	095H
	DB	01bH
	DB	094H
	DB	01bH
	DB	094H
	DB	01bH
	DB	095H
	DB	01bH
	DB	095H
	DB	01bH
	DB	094H
	DB	01bH
	DB	095H
	DB	01bH
	DB	094H
	DB	01bH
	DB	094H
	DB	01bH
	DB	095H
	DB	01bH
	DB	094H
	DB	01bH
	DB	095H
	DB	01bH
	DB	0b5H
	DB	01bH
	DB	094H
	DB	01bH
	DB	095H
	DB	01bH
	DB	0b5H
	DB	01bH
	DB	095H
	DB	01bH
	DB	094H
	DB	01bH
	DB	095H
	DB	01bH
	DB	0b5H
	DB	01bH
	DB	094H
	DB	01bH
	DB	094H
	DB	01bH
	DB	094H
	DB	01bH
	DB	074H
	DB	01bH
	DB	094H
	DB	01bH
	DB	074H
	DB	01bH
	DB	074H
	DB	01bH
	DB	094H
	DB	01bH
	DB	074H
	DB	01bH
	DB	074H
	DB	01bH
	DB	094H
	DB	01bH
	DB	094H
	DB	01bH
	DB	074H
	DB	01bH
	DB	094H
	DB	01bH
	DB	074H
	DB	01bH
	DB	074H
	DB	01bH
	DB	094H
	DB	01bH
	DB	074H
	DB	01bH
	DB	074H
	DB	01bH
	DB	094H
	DB	01bH
	DB	094H
	DB	013H
	DB	094H
	DB	01bH
	DB	074H
	DB	01bH
	DB	094H
	DB	013H
	DB	095H
	DB	01bH
	DB	074H
	DB	01bH
	DB	094H
	DB	01bH
	DB	094H
	DB	013H
	DB	075H
	DB	01bH
	DB	094H
	DB	01bH
	DB	094H
	DB	01bH
	DB	074H
	DB	01bH
	DB	074H
	DB	01bH
	DB	074H
	DB	013H
	DB	074H
	DB	01bH
	DB	074H
	DB	01bH
	DB	074H
	DB	013H
	DB	074H
	DB	01bH
	DB	074H
	DB	01bH
	DB	074H
	DB	01bH
	DB	074H
	DB	01bH
	DB	074H
	DB	01bH
	DB	074H
	DB	01bH
	DB	074H
	DB	01bH
	DB	074H
	DB	01bH
	DB	075H
	DB	01bH
	DB	094H
	DB	01bH
	DB	094H
	DB	013H
	DB	075H
	DB	013H
	DB	095H
	DB	01bH
	DB	074H
	DB	013H
	DB	075H
	DB	013H
	DB	094H
	DB	013H
	DB	074H
	DB	01bH
	DB	094H
	DB	013H
	DB	074H
	DB	013H
	DB	075H
	DB	013H
	DB	094H
	DB	01bH
	DB	074H
	DB	013H
	DB	075H
	DB	01bH
	DB	074H
	DB	013H
	DB	074H
	DB	013H
	DB	074H
	DB	01bH
	DB	075H
	DB	013H
	DB	074H
	DB	013H
	DB	074H
	DB	013H
	DB	075H
	DB	013H
	DB	054H
	DB	013H
	DB	074H
	DB	013H
	DB	074H
	DB	013H
	DB	054H
	DB	013H
	DB	074H
	DB	013H
	DB	074H
	DB	013H
	DB	054H
	DB	0bH
	DB	054H
	DB	013H
	DB	054H
	DB	013H
	DB	053H
	DB	013H
	DB	054H
	DB	013H
	DB	053H
	DB	013H
	DB	033H
	DB	013H
	DB	034H
	DB	013H
	DB	053H
	DB	0bH
	DB	034H
	DB	013H
	DB	053H
	DB	013H
	DB	033H
	DB	0bH
	DB	033H
	DB	013H
	DB	053H
	DB	0bH
	DB	033H
	DB	013H
	DB	033H
	DB	0bH
	DB	033H
	DB	013H
	DB	033H
	DB	0bH
	DB	013H
	DB	0bH
	DB	012H
	DB	013H
	DB	012H
	DB	0bH
	DB	033H
	DB	0bH
	DB	033H
	DB	0bH
	DB	032H
	DB	0bH
	DB	013H
	DB	0bH
	DB	013H
	DB	0bH
	DB	012H
	DB	0bH
	DB	012H
	DB	0bH
	DB	013H
	DB	0bH
	DB	012H
	DB	0bH
	DB	013H
	DB	0bH
	DB	013H
	DB	0bH
	DB	013H
	DB	0bH
	DB	033H
	DB	0bH
	DB	033H
	DB	03H
	DB	033H
	DB	0bH
	DB	034H
	DB	03H
	DB	034H
	DB	03H
	DB	034H
	DB	0bH
	DB	034H
	DB	03H
	DB	054H
	DB	03H
	DB	033H
	DB	0bH
	DB	034H
	DB	0bH
	DB	033H
	DB	03H
	DB	013H
	DB	03H
	DB	013H
	DB	03H
	DB	033H
	DB	03H
	DB	034H
	DB	03H
	DB	013H
	DB	0bH
	DB	033H
	DB	03H
	DB	033H
	DB	03H
	DB	013H
	DB	0bH
	DB	033H
	DB	03H
	DB	013H
	DB	0bH
	DB	013H
	DB	03H
	DB	013H
	DB	03H
	DB	013H
	DB	0bH
	DB	033H
	DB	0bH
	DB	013H
	DB	0bH
	DB	013H
	DB	0bH
	DB	013H
	DB	03H
	DB	013H
	DB	0bH
	DB	033H
	DB	0bH
	DB	033H
	DB	0bH
	DB	013H
	DB	0bH
	DB	033H
	DB	0bH
	DB	033H
	DB	0bH
	DB	013H
	DB	0bH
	DB	033H
	DB	0bH
	DB	033H
	DB	013H
	DB	013H
	DB	0bH
	DB	033H
	DB	0bH
	DB	033H
	DB	013H
	DB	013H
	DB	0bH
	DB	013H
	DB	013H
	DB	033H
	DB	0bH
	DB	033H
	DB	0bH
	DB	033H
	DB	013H
	DB	033H
	DB	013H
	DB	033H
	DB	0bH
	DB	033H
	DB	0bH
	DB	033H
	DB	013H
	DB	033H
	DB	013H
	DB	054H
	DB	013H
	DB	053H
	DB	013H
	DB	033H
	DB	0bH
	DB	033H
	DB	013H
	DB	033H
	DB	013H
	DB	033H
	DB	013H
	DB	033H
	DB	013H
	DB	053H
	DB	013H
	DB	053H
	DB	013H
	DB	053H
	DB	013H
	DB	053H
	DB	013H
	DB	054H
	DB	013H
	DB	074H
	DB	013H
	DB	074H
	DB	013H
	DB	074H
	DB	013H
	DB	074H
	DB	013H
	DB	054H
	DB	013H
	DB	074H
	DB	013H
	DB	074H
	DB	01bH
	DB	074H
	DB	013H
	DB	054H
	DB	013H
	DB	074H
	DB	01bH
	DB	074H
	DB	013H
	DB	054H
	DB	01bH
	DB	074H
	DB	013H
	DB	074H
	DB	013H
	DB	074H
	DB	013H
	DB	074H
	DB	013H
	DB	074H
	DB	01bH
	DB	095H
	DB	01bH
	DB	074H
	DB	013H
	DB	074H
	DB	01bH
	DB	095H
	DB	01bH
	DB	074H
	DB	01bH
	DB	074H
	DB	01bH
	DB	074H
	DB	013H
	DB	074H
	DB	01bH
	DB	074H
	DB	01bH
	DB	074H
	DB	013H
	DB	094H
	DB	01bH
	DB	075H
	DB	013H
	DB	074H
	DB	01bH
	DB	094H
	DB	01bH
	DB	074H
	DB	01bH
	DB	074H
	DB	01bH
	DB	095H
	DB	01bH
	DB	074H
	DB	01bH
	DB	074H
	DB	01bH
	DB	095H
	DB	01bH
	DB	074H
	DB	01bH
	DB	074H
	DB	01bH
	DB	095H
	DB	013H
	DB	074H
	DB	01bH
	DB	094H
	DB	01bH
	DB	094H
	DB	013H
	DB	095H
	DB	01bH
	DB	094H
	DB	01bH
	DB	074H
	DB	013H
	DB	074H
	DB	01bH
	DB	095H
	DB	01bH
	DB	094H
	DB	013H
	DB	094H
	DB	01bH
	DB	095H
	DB	01bH
	DB	0b5H
	DB	01bH
	DB	095H
	DB	01bH
	DB	094H
	DB	01bH
	DB	095H
	DB	01bH
	DB	0b5H
	DB	01bH
	DB	095H
	DB	01bH
	DB	095H
	DB	01bH
	DB	0b4H
	DB	01bH
	DB	095H
	DB	01bH
	DB	095H
	DB	01bH
	DB	094H
	DB	01bH
	DB	094H
	DB	01bH
	DB	095H
	DB	013H
	DB	095H
	DB	01bH
	DB	094H
	DB	01bH
	DB	094H
	DB	01bH
	DB	095H
	DB	01bH
	DB	095H
	DB	01bH
	DB	094H
	DB	01bH
	DB	094H
	DB	01bH
	DB	095H
	DB	01bH
	DB	095H
	DB	01bH
	DB	094H
	DB	01bH
	DB	094H
	DB	01bH
	DB	095H
	DB	01bH
	DB	095H
	DB	01bH
	DB	094H
	DB	01bH
	DB	095H
	DB	01bH
	DB	095H
	DB	01bH
	DB	095H
	DB	01bH
	DB	095H
	DB	01bH
	DB	094H
	DB	01bH
	DB	095H
	DB	01bH
	DB	094H
	DB	01bH
	DB	095H
	DB	01bH
	DB	094H
	DB	01bH
	DB	094H
	DB	01bH
	DB	095H
	DB	01bH
	DB	0b4H
	DB	01bH
	DB	095H
	DB	01bH
	DB	095H
	DB	01bH
	DB	0b4H
	DB	01bH
	DB	095H
	DB	01bH
	DB	095H
	DB	01bH
	DB	0b4H
	DB	01bH
	DB	095H
	DB	01bH
	DB	094H
	DB	01bH
	DB	095H
	DB	01bH
	DB	095H
	DB	01bH
	DB	094H
	DB	01bH
	DB	094H
	DB	01bH
	DB	095H
	DB	01bH
	DB	095H
	DB	01bH
	DB	094H
	DB	01bH
	DB	094H
	DB	01bH
	DB	095H
	DB	01bH
	DB	094H
	DB	01bH
	DB	095H
	DB	01bH
	DB	094H
	DB	01bH
	DB	094H
	DB	01bH
	DB	095H
	DB	01bH
	DB	094H
	DB	01bH
	DB	094H
	DB	01bH
	DB	095H
	DB	01bH
	DB	094H
	DB	01bH
	DB	094H
	DB	01bH
	DB	095H
	DB	01bH
	DB	094H
	DB	01bH
	DB	095H
	DB	01bH
	DB	095H
	DB	01bH
	DB	095H
	DB	01bH
	DB	0b4H
	DB	01bH
	DB	0b5H
	DB	01bH
	DB	095H
	DB	01bH
	DB	094H
	DB	01bH
	DB	094H
	DB	01bH
	DB	0b5H
	DB	01bH
	DB	095H
	DB	01bH
	DB	094H
	DB	01bH
	DB	0b5H
	DB	01bH
	DB	0b5H
	DB	01bH
	DB	095H
	DB	01bH
	DB	0b5H
	DB	01bH
	DB	094H
	DB	01bH
	DB	094H
	DB	01bH
	DB	095H
	DB	01bH
	DB	094H
	DB	01bH
	DB	094H
	DB	01bH
	DB	095H
	DB	01bH
	DB	094H
	DB	01bH
	DB	094H
	DB	01bH
	DB	094H
	DB	01bH
	DB	095H
	DB	01bH
	DB	094H
	DB	01bH
	DB	095H
	DB	01bH
	DB	0b4H
	DB	01bH
	DB	095H
	DB	01bH
	DB	095H
	DB	01bH
	DB	0b4H
	DB	013H
	DB	095H
	DB	01bH
	DB	095H
	DB	01bH
	DB	094H
	DB	01bH
	DB	094H
	DB	01bH
	DB	094H
	DB	01bH
	DB	074H
	DB	01bH
	DB	094H
	DB	01bH
	DB	094H
	DB	01bH
	DB	074H
	DB	01bH
	DB	094H
	DB	01bH
	DB	094H
	DB	01bH
	DB	074H
	DB	01bH
	DB	074H
	DB	01bH
	DB	094H
	DB	01bH
	DB	094H
	DB	01bH
	DB	074H
	DB	01bH
	DB	094H
	DB	01bH
	DB	094H
	DB	01bH
	DB	074H
	DB	01bH
	DB	074H
	DB	01bH
	DB	094H
	DB	01bH
	DB	074H
	DB	01bH
	DB	074H
	DB	01bH
	DB	094H
	DB	01bH
	DB	075H
	DB	01bH
	DB	094H
	DB	01bH
	DB	094H
	DB	01bH
	DB	074H
	DB	01bH
	DB	074H
	DB	01bH
	DB	094H
	DB	01bH
	DB	074H
	DB	01bH
	DB	074H
	DB	01bH
	DB	074H
	DB	013H
	DB	094H
	DB	01bH
	DB	074H
	DB	01bH
	DB	074H
	DB	01bH
	DB	094H
	DB	01bH
	DB	074H
	DB	01bH
	DB	074H
	DB	01bH
	DB	094H
	DB	013H
	DB	074H
	DB	01bH
	DB	074H
	DB	01bH
	DB	074H
	DB	013H
	DB	094H
	DB	01bH
	DB	094H
	DB	013H
	DB	074H
	DB	01bH
	DB	074H
	DB	01bH
	DB	074H
	DB	013H
	DB	074H
	DB	01bH
	DB	094H
	DB	01bH
	DB	094H
	DB	01bH
	DB	094H
	DB	01bH
	DB	074H
	DB	013H
	DB	074H
	DB	01bH
	DB	075H
	DB	01bH
	DB	075H
	DB	013H
	DB	095H
	DB	01bH
	DB	074H
	DB	01bH
	DB	074H
	DB	01bH
	DB	075H
	DB	013H
	DB	074H
	DB	013H
	DB	074H
	DB	01bH
	DB	074H
	DB	013H
	DB	075H
	DB	013H
	DB	074H
	DB	013H
	DB	074H
	DB	013H
	DB	075H
	DB	013H
	DB	074H
	DB	013H
	DB	074H
	DB	013H
	DB	054H
	DB	013H
	DB	054H
	DB	013H
	DB	074H
	DB	013H
	DB	074H
	DB	013H
	DB	074H
	DB	013H
	DB	074H
	DB	013H
	DB	054H
	DB	013H
	DB	074H
	DB	013H
	DB	053H
	DB	013H
	DB	053H
	DB	013H
	DB	053H
	DB	013H
	DB	054H
	DB	013H
	DB	033H
	DB	013H
	DB	053H
	DB	013H
	DB	034H
	DB	013H
	DB	053H
	DB	013H
	DB	033H
	DB	0bH
	DB	034H
	DB	013H
	DB	053H
	DB	013H
	DB	033H
	DB	013H
	DB	034H
	DB	0bH
	DB	033H
	DB	0bH
	DB	033H
	DB	013H
	DB	033H
	DB	013H
	DB	013H
	DB	0bH
	DB	033H
	DB	013H
	DB	033H
	DB	013H
	DB	012H
	DB	0bH
	DB	032H
	DB	013H
	DB	013H
	DB	0bH
	DB	032H
	DB	0bH
	DB	033H
	DB	0bH
	DB	012H
	DB	0bH
	DB	032H
	DB	0bH
	DB	012H
	DB	0bH
	DB	012H
	DB	0bH
	DB	012H
	DB	0bH
	DB	013H
	DB	0bH
	DB	013H
	DB	0bH
	DB	013H
	DB	0bH
	DB	013H
	DB	03H
	DB	033H
	DB	0bH
	DB	034H
	DB	03H
	DB	033H
	DB	03H
	DB	034H
	DB	0bH
	DB	054H
	DB	03H
	DB	053H
	DB	03H
	DB	034H
	DB	0bH
	DB	033H
	DB	0bH
	DB	013H
	DB	03H
	DB	013H
	DB	0bH
	DB	013H
	DB	03H
	DB	013H
	DB	0bH
	DB	013H
	DB	03H
	DB	013H
	DB	0bH
	DB	013H
	DB	0bH
	DB	013H
	DB	0bH
	DB	013H
	DB	03H
	DB	013H
	DB	0bH
	DB	013H
	DB	0bH
	DB	013H
	DB	0bH
	DB	013H
	DB	03H
	DB	013H
	DB	0bH
	DB	013H
	DB	0bH
	DB	013H
	DB	0bH
	DB	033H
	DB	0bH
	DB	013H
	DB	0bH
	DB	033H
	DB	0bH
	DB	013H
	DB	0bH
	DB	013H
	DB	0bH
	DB	033H
	DB	0bH
	DB	013H
	DB	0bH
	DB	033H
	DB	0bH
	DB	013H
	DB	0bH
	DB	033H
	DB	0bH
	DB	033H
	DB	0bH
	DB	013H
	DB	013H
	DB	033H
	DB	0bH
	DB	033H
	DB	0bH
	DB	033H
	DB	0bH
	DB	033H
	DB	013H
	DB	033H
	DB	013H
	DB	033H
	DB	0bH
	DB	033H
	DB	013H
	DB	034H
	DB	013H
	DB	033H
	DB	0bH
	DB	034H
	DB	013H
	DB	033H
	DB	013H
	DB	053H
	DB	0bH
	DB	033H
	DB	013H
	DB	033H
	DB	013H
	DB	033H
	DB	013H
	DB	033H
	DB	013H
	DB	033H
	DB	013H
	DB	032H
	DB	013H
	DB	032H
	DB	013H
	DB	033H
	DB	013H
	DB	033H
	DB	013H
	DB	033H
	DB	013H
	DB	053H
	DB	013H
	DB	053H
	DB	013H
	DB	053H
	DB	013H
	DB	053H
	DB	013H
	DB	054H
	DB	013H
	DB	054H
	DB	013H
	DB	074H
	DB	01bH
	DB	074H
	DB	013H
	DB	074H
	DB	01bH
	DB	074H
	DB	013H
	DB	074H
	DB	013H
	DB	074H
	DB	01bH
	DB	074H
	DB	013H
	DB	074H
	DB	01bH
	DB	074H
	DB	013H
	DB	074H
	DB	01bH
	DB	074H
	DB	01bH
	DB	074H
	DB	013H
	DB	074H
	DB	013H
	DB	094H
	DB	013H
	DB	095H
	DB	01bH
	DB	095H
	DB	01bH
	DB	094H
	DB	013H
	DB	074H
	DB	01bH
	DB	074H
	DB	01bH
	DB	074H
	DB	013H
	DB	074H
	DB	01bH
	DB	074H
	DB	01bH
	DB	094H
	DB	01bH
	DB	074H
	DB	01bH
	DB	094H
	DB	01bH
	DB	094H
	DB	01bH
	DB	074H
	DB	013H
	DB	094H
	DB	013H
	DB	095H
	DB	01bH
	DB	074H
	DB	01bH
	DB	094H
	DB	01bH
	DB	094H
	DB	01bH
	DB	074H
	DB	01bH
	DB	094H
	DB	01bH
	DB	094H
	DB	01bH
	DB	094H
	DB	01bH
	DB	095H
	DB	01bH
	DB	094H
	DB	01bH
	DB	094H
	DB	01bH
	DB	094H
	DB	01bH
	DB	095H
	DB	01bH
	DB	094H
	DB	01bH
	DB	094H
	DB	01bH
	DB	094H
	DB	01bH
	DB	094H
	DB	01bH
	DB	094H
	DB	01bH
	DB	094H
	DB	01bH
	DB	095H
	DB	013H
	DB	0b5H
	DB	01bH
	DB	095H
	DB	01bH
	DB	095H
	DB	013H
	DB	0b4H
	DB	01bH
	DB	095H
	DB	01bH
	DB	0b5H
	DB	01bH
	DB	094H
	DB	01bH
	DB	094H
	DB	01bH
	DB	094H
	DB	013H
	DB	095H
	DB	01bH
	DB	094H
	DB	01bH
	DB	095H
	DB	01bH
	DB	094H
	DB	01bH
	DB	094H
	DB	01bH
	DB	095H
	DB	013H
	DB	094H
	DB	01bH
	DB	094H
	DB	01bH
	DB	095H
	DB	01bH
	DB	094H
	DB	01bH
	DB	095H
	DB	01bH
	DB	094H
	DB	01bH
	DB	095H
	DB	01bH
	DB	094H
	DB	01bH
	DB	094H
	DB	01bH
	DB	095H
	DB	01bH
	DB	094H
	DB	01bH
	DB	094H
	DB	01bH
	DB	095H
	DB	01bH
	DB	094H
	DB	01bH
	DB	094H
	DB	01bH
	DB	095H
	DB	01bH
	DB	094H
	DB	01bH
	DB	0b5H
	DB	01bH
	DB	095H
	DB	01bH
	DB	095H
	DB	01bH
	DB	094H
	DB	01bH
	DB	0b5H
	DB	01bH
	DB	094H
	DB	01bH
	DB	094H
	DB	01bH
	DB	0b5H
	DB	01bH
	DB	0b5H
	DB	01bH
	DB	095H
	DB	01bH
	DB	094H
	DB	01bH
	DB	094H
	DB	01bH
	DB	094H
	DB	01bH
	DB	094H
	DB	01bH
	DB	094H
	DB	01bH
	DB	095H
	DB	01bH
	DB	094H
	DB	01bH
	DB	094H
	DB	01bH
	DB	095H
	DB	01bH
	DB	094H
	DB	01bH
	DB	094H
	DB	01bH
	DB	095H
	DB	01bH
	DB	094H
	DB	01bH
	DB	094H
	DB	01bH
	DB	095H
	DB	01bH
	DB	094H
	DB	01bH
	DB	095H
	DB	01bH
	DB	094H
	DB	01bH
	DB	094H
	DB	01bH
	DB	095H
	DB	01bH
	DB	094H
	DB	01bH
	DB	095H
	DB	01bH
	DB	095H
	DB	01bH
	DB	094H
	DB	01bH
	DB	095H
	DB	01bH
	DB	094H
	DB	01bH
	DB	094H
	DB	01bH
	DB	095H
	DB	01bH
	DB	095H
	DB	01bH
	DB	0b5H
	DB	01bH
	DB	0b4H
	DB	01bH
	DB	095H
	DB	01bH
	DB	095H
	DB	01bH
	DB	094H
	DB	01bH
	DB	0b5H
	DB	01bH
	DB	094H
	DB	01bH
	DB	095H
	DB	01bH
	DB	094H
	DB	01bH
	DB	094H
	DB	01bH
	DB	095H
	DB	01bH
	DB	0b5H
	DB	01bH
	DB	094H
	DB	01bH
	DB	094H
	DB	01bH
	DB	095H
	DB	01bH
	DB	094H
	DB	01bH
	DB	094H
	DB	01bH
	DB	095H
	DB	01bH
	DB	094H
	DB	01bH
	DB	094H
	DB	01bH
	DB	0b5H
	DB	01bH
	DB	095H
	DB	01bH
	DB	094H
	DB	01bH
	DB	0b5H
	DB	01bH
	DB	094H
	DB	01bH
	DB	094H
	DB	01bH
	DB	0b5H
	DB	01bH
	DB	0b5H
	DB	01bH
	DB	094H
	DB	01bH
	DB	094H
	DB	01bH
	DB	074H
	DB	01bH
	DB	094H
	DB	01bH
	DB	074H
	DB	01bH
	DB	074H
	DB	01bH
	DB	094H
	DB	01bH
	DB	074H
	DB	01bH
	DB	074H
	DB	01bH
	DB	094H
	DB	01bH
	DB	094H
	DB	01bH
	DB	074H
	DB	01bH
	DB	074H
	DB	01bH
	DB	094H
	DB	01bH
	DB	074H
	DB	01bH
	DB	074H
	DB	01bH
	DB	094H
	DB	01bH
	DB	094H
	DB	01bH
	DB	074H
	DB	01bH
	DB	094H
	DB	01bH
	DB	094H
	DB	01bH
	DB	074H
	DB	01bH
	DB	074H
	DB	01bH
	DB	094H
	DB	013H
	DB	074H
	DB	01bH
	DB	074H
	DB	01bH
	DB	094H
	DB	01bH
	DB	075H
	DB	01bH
	DB	094H
	DB	01bH
	DB	094H
	DB	01bH
	DB	074H
	DB	01bH
	DB	095H
	DB	01bH
	DB	094H
	DB	01bH
	DB	094H
	DB	01bH
	DB	074H
	DB	01bH
	DB	074H
	DB	01bH
	DB	094H
	DB	01bH
	DB	074H
	DB	01bH
	DB	074H
	DB	01bH
	DB	094H
	DB	013H
	DB	074H
	DB	01bH
	DB	074H
	DB	013H
	DB	074H
	DB	01bH
	DB	074H
	DB	01bH
	DB	074H
	DB	013H
	DB	074H
	DB	01bH
	DB	074H
	DB	01bH
	DB	074H
	DB	013H
	DB	074H
	DB	01bH
	DB	074H
	DB	01bH
	DB	074H
	DB	013H
	DB	074H
	DB	01bH
	DB	074H
	DB	01bH
	DB	074H
	DB	013H
	DB	074H
	DB	013H
	DB	074H
	DB	01bH
	DB	095H
	DB	013H
	DB	074H
	DB	013H
	DB	075H
	DB	013H
	DB	095H
	DB	01bH
	DB	074H
	DB	013H
	DB	075H
	DB	01bH
	DB	074H
	DB	013H
	DB	074H
	DB	013H
	DB	075H
	DB	01bH
	DB	075H
	DB	013H
	DB	075H
	DB	013H
	DB	074H
	DB	013H
	DB	074H
	DB	013H
	DB	074H
	DB	013H
	DB	074H
	DB	013H
	DB	074H
	DB	013H
	DB	054H
	DB	013H
	DB	053H
	DB	013H
	DB	054H
	DB	013H
	DB	053H
	DB	013H
	DB	053H
	DB	013H
	DB	053H
	DB	013H
	DB	053H
	DB	013H
	DB	054H
	DB	013H
	DB	053H
	DB	013H
	DB	033H
	DB	013H
	DB	053H
	DB	013H
	DB	054H
	DB	013H
	DB	033H
	DB	013H
	DB	033H
	DB	013H
	DB	034H
	DB	0bH
	DB	033H
	DB	013H
	DB	033H
	DB	013H
	DB	033H
	DB	0bH
	DB	033H
	DB	013H
	DB	033H
	DB	0bH
	DB	013H
	DB	0bH
	DB	033H
	DB	0bH
	DB	013H
	DB	0bH
	DB	013H
	DB	013H
	DB	033H
	DB	0bH
	DB	012H
	DB	0bH
	DB	013H
	DB	0bH
	DB	033H
	DB	0bH
	DB	013H
	DB	0bH
	DB	013H
	DB	0bH
	DB	013H
	DB	0bH
	DB	013H
	DB	0bH
	DB	013H
	DB	0bH
	DB	012H
	DB	0bH
	DB	012H
	DB	03H
	DB	013H
	DB	0bH
	DB	012H
	DB	0bH
	DB	013H
	DB	0bH
	DB	033H
	DB	03H
	DB	033H
	DB	03H
	DB	033H
	DB	0bH
	DB	034H
	DB	03H
	DB	033H
	DB	0bH
	DB	033H
	DB	03H
	DB	013H
	DB	03H
	DB	013H
	DB	0bH
	DB	013H
	DB	03H
	DB	013H
	DB	0bH
	DB	013H
	DB	0bH
	DB	013H
	DB	03H
	DB	013H
	DB	03H
	DB	013H
	DB	0bH
	DB	013H
	DB	03H
	DB	013H
	DB	0bH
	DB	013H
	DB	0bH
	DB	013H
	DB	03H
	DB	013H
	DB	0bH
	DB	013H
	DB	0bH
	DB	013H
	DB	0bH
	DB	033H
	DB	03H
	DB	013H
	DB	0bH
	DB	013H
	DB	0bH
	DB	013H
	DB	0bH
	DB	013H
	DB	0bH
	DB	013H
	DB	0bH
	DB	013H
	DB	0bH
	DB	033H
	DB	0bH
	DB	013H
	DB	0bH
	DB	013H
	DB	0bH
	DB	033H
	DB	013H
	DB	013H
	DB	0bH
	DB	033H
	DB	0bH
	DB	033H
	DB	013H
	DB	033H
	DB	013H
	DB	033H
	DB	013H
	DB	033H
	DB	0bH
	DB	033H
	DB	013H
	DB	033H
	DB	013H
	DB	033H
	DB	0bH
	DB	033H
	DB	013H
	DB	033H
	DB	013H
	DB	033H
	DB	013H
	DB	034H
	DB	013H
	DB	033H
	DB	013H
	DB	033H
	DB	013H
	DB	033H
	DB	013H
	DB	033H
	DB	013H
	DB	033H
	DB	013H
	DB	033H
	DB	013H
	DB	033H
	DB	013H
	DB	033H
	DB	013H
	DB	033H
	DB	013H
	DB	033H
	DB	013H
	DB	033H
	DB	013H
	DB	033H
	DB	013H
	DB	053H
	DB	013H
	DB	053H
	DB	013H
	DB	053H
	DB	01bH
	DB	053H
	DB	013H
	DB	053H
	DB	013H
	DB	053H
	DB	01bH
	DB	053H
	DB	013H
	DB	053H
	DB	013H
	DB	053H
	DB	01bH
	DB	054H
	DB	013H
	DB	074H
	DB	01bH
	DB	074H
	DB	013H
	DB	074H
	DB	013H
	DB	074H
	DB	013H
	DB	074H
	DB	01bH
	DB	074H
	DB	01bH
	DB	074H
	DB	013H
	DB	074H
	DB	01bH
	DB	074H
	DB	01bH
	DB	074H
	DB	01bH
	DB	095H
	DB	013H
	DB	074H
	DB	01bH
	DB	074H
	DB	013H
	DB	074H
	DB	013H
	DB	074H
	DB	01bH
	DB	074H
	DB	01bH
	DB	074H
	DB	013H
	DB	094H
	DB	01bH
	DB	094H
	DB	01bH
	DB	074H
	DB	013H
	DB	074H
	DB	01bH
	DB	094H
	DB	01bH
	DB	074H
	DB	01bH
	DB	094H
	DB	01bH
	DB	075H
	DB	01bH
	DB	074H
	DB	013H
	DB	094H
	DB	013H
	DB	095H
	DB	01bH
	DB	094H
	DB	01bH
	DB	095H
	DB	01bH
	DB	094H
	DB	01bH
	DB	074H
	DB	01bH
	DB	094H
	DB	01bH
	DB	075H
	DB	01bH
	DB	074H
	DB	01bH
	DB	094H
	DB	01bH
	DB	094H
	DB	01bH
	DB	095H
	DB	01bH
	DB	094H
	DB	01bH
	DB	095H
	DB	01bH
	DB	094H
	DB	01bH
	DB	094H
	DB	01bH
	DB	095H
	DB	013H
	DB	095H
	DB	01bH
	DB	0b5H
	DB	01bH
	DB	095H
	DB	01bH
	DB	095H
	DB	01bH
	DB	0b5H
	DB	01bH
	DB	0b5H
	DB	01bH
	DB	094H
	DB	01bH
	DB	094H
	DB	01bH
	DB	095H
	DB	01bH
	DB	094H
	DB	01bH
	DB	094H
	DB	01bH
	DB	094H
	DB	01bH
	DB	094H
	DB	01bH
	DB	095H
	DB	01bH
	DB	094H
	DB	01bH
	DB	094H
	DB	01bH
	DB	095H
	DB	01bH
	DB	094H
	DB	01bH
	DB	095H
	DB	01bH
	DB	094H
	DB	013H
	DB	094H
	DB	01bH
	DB	094H
	DB	01bH
	DB	095H
	DB	01bH
	DB	095H
	DB	01bH
	DB	094H
	DB	01bH
	DB	095H
	DB	01bH
	DB	095H
	DB	01bH
	DB	0b4H
	DB	01bH
	DB	094H
	DB	01bH
	DB	0b5H
	DB	01bH
	DB	0b4H
	DB	01bH
	DB	095H
	DB	01bH
	DB	094H
	DB	01bH
	DB	095H
	DB	01bH
	DB	0b5H
	DB	01bH
	DB	094H
	DB	01bH
	DB	095H
	DB	01bH
	DB	095H
	DB	01bH
	DB	095H
	DB	01bH
	DB	094H
	DB	01bH
	DB	095H
	DB	01bH
	DB	094H
	DB	01bH
	DB	094H
	DB	01bH
	DB	094H
	DB	01bH
	DB	095H
	DB	01bH
	DB	095H
	DB	01bH
	DB	094H
	DB	01bH
	DB	094H
	DB	01bH
	DB	095H
	DB	01bH
	DB	094H
	DB	01bH
	DB	094H
	DB	01bH
	DB	095H
	DB	01bH
	DB	094H
	DB	01bH
	DB	094H
	DB	01bH
	DB	095H
	DB	01bH
	DB	094H
	DB	01bH
	DB	094H
	DB	01bH
	DB	095H
	DB	01bH
	DB	094H
	DB	01bH
	DB	094H
	DB	01bH
	DB	095H
	DB	01bH
	DB	094H
	DB	01bH
	DB	095H
	DB	01bH
	DB	095H
	DB	01bH
	DB	094H
	DB	01bH
	DB	094H
	DB	01bH
	DB	095H
	DB	01bH
	DB	094H
	DB	01bH
	DB	095H
	DB	01bH
	DB	094H
	DB	01bH
	DB	095H
	DB	01bH
	DB	0b4H
	DB	01bH
	DB	094H
	DB	01bH
	DB	095H
	DB	01bH
	DB	095H
	DB	01bH
	DB	094H
	DB	01bH
	DB	094H
	DB	01bH
	DB	095H
	DB	01bH
	DB	095H
	DB	01bH
	DB	094H
	DB	01bH
	DB	0b4H
	DB	01bH
	DB	094H
	DB	01bH
	DB	095H
	DB	013H
	DB	094H
	DB	01bH
	DB	095H
	DB	01bH
	DB	095H
	DB	01bH
	DB	094H
	DB	01bH
	DB	094H
	DB	01bH
	DB	095H
	DB	01bH
	DB	095H
	DB	01bH
	DB	094H
	DB	01bH
	DB	094H
	DB	01bH
	DB	095H
	DB	01bH
	DB	095H
	DB	01bH
	DB	0b5H
	DB	01bH
	DB	095H
	DB	013H
	DB	095H
	DB	01bH
	DB	094H
	DB	01bH
	DB	094H
	DB	01bH
	DB	095H
	DB	01bH
	DB	094H
	DB	01bH
	DB	094H
	DB	01bH
	DB	074H
	DB	01bH
	DB	094H
	DB	01bH
	DB	094H
	DB	01bH
	DB	094H
	DB	01bH
	DB	074H
	DB	01bH
	DB	094H
	DB	01bH
	DB	074H
	DB	01bH
	DB	074H
	DB	01bH
	DB	094H
	DB	01bH
	DB	094H
	DB	01bH
	DB	074H
	DB	01bH
	DB	094H
	DB	01bH
	DB	094H
	DB	01bH
	DB	074H
	DB	01bH
	DB	074H
	DB	01bH
	DB	094H
	DB	01bH
	DB	074H
	DB	01bH
	DB	074H
	DB	01bH
	DB	094H
	DB	01bH
	DB	094H
	DB	01bH
	DB	075H
	DB	01bH
	DB	094H
	DB	01bH
	DB	075H
	DB	01bH
	DB	094H
	DB	01bH
	DB	094H
	DB	01bH
	DB	075H
	DB	013H
	DB	094H
	DB	01bH
	DB	094H
	DB	01bH
	DB	074H
	DB	01bH
	DB	074H
	DB	01bH
	DB	094H
	DB	01bH
	DB	074H
	DB	01bH
	DB	074H
	DB	013H
	DB	074H
	DB	013H
	DB	074H
	DB	01bH
	DB	074H
	DB	01bH
	DB	074H
	DB	01bH
	DB	074H
	DB	01bH
	DB	094H
	DB	01bH
	DB	094H
	DB	01bH
	DB	074H
	DB	01bH
	DB	074H
	DB	01bH
	DB	074H
	DB	01bH
	DB	074H
	DB	01bH
	DB	074H
	DB	01bH
	DB	074H
	DB	01bH
	DB	074H
	DB	013H
	DB	054H
	DB	01bH
	DB	074H
	DB	01bH
	DB	074H
	DB	01bH
	DB	074H
	DB	013H
	DB	074H
	DB	01bH
	DB	074H
	DB	01bH
	DB	074H
	DB	01bH
	DB	074H
	DB	01bH
	DB	074H
	DB	013H
	DB	074H
	DB	01bH
	DB	094H
	DB	013H
	DB	074H
	DB	013H
	DB	074H
	DB	01bH
	DB	075H
	DB	013H
	DB	094H
	DB	01bH
	DB	074H
	DB	013H
	DB	075H
	DB	013H
	DB	094H
	DB	013H
	DB	074H
	DB	013H
	DB	054H
	DB	013H
	DB	074H
	DB	013H
	DB	054H
	DB	013H
	DB	054H
	DB	013H
	DB	053H
	DB	013H
	DB	053H
	DB	013H
	DB	053H
	DB	013H
	DB	054H
	DB	013H
	DB	054H
	DB	013H
	DB	053H
	DB	013H
	DB	053H
	DB	013H
	DB	053H
	DB	013H
	DB	034H
	DB	013H
	DB	034H
	DB	0bH
	DB	053H
	DB	013H
	DB	033H
	DB	013H
	DB	053H
	DB	013H
	DB	053H
	DB	0bH
	DB	054H
	DB	013H
	DB	033H
	DB	013H
	DB	033H
	DB	0bH
	DB	033H
	DB	013H
	DB	033H
	DB	013H
	DB	033H
	DB	0bH
	DB	033H
	DB	013H
	DB	033H
	DB	013H
	DB	012H
	DB	0bH
	DB	032H
	DB	0bH
	DB	033H
	DB	0bH
	DB	013H
	DB	013H
	DB	032H
	DB	0bH
	DB	012H
	DB	0bH
	DB	033H
	DB	0bH
	DB	033H
	DB	0bH
	DB	012H
	DB	0bH
	DB	013H
	DB	0bH
	DB	013H
	DB	0bH
	DB	013H
	DB	0bH
	DB	013H
	DB	03H
	DB	012H
	DB	0bH
	DB	013H
	DB	0bH
	DB	012H
	DB	03H
	DB	013H
	DB	0bH
	DB	013H
	DB	0bH
	DB	013H
	DB	03H
	DB	013H
	DB	0bH
	DB	013H
	DB	0bH
	DB	013H
	DB	03H
	DB	013H
	DB	0bH
	DB	013H
	DB	0bH
	DB	013H
	DB	03H
	DB	013H
	DB	0bH
	DB	013H
	DB	03H
	DB	013H
	DB	0bH
	DB	013H
	DB	0bH
	DB	013H
	DB	03H
	DB	013H
	DB	0bH
	DB	013H
	DB	0bH
	DB	013H
	DB	03H
	DB	012H
	DB	03H
	DB	013H
	DB	0bH
	DB	013H
	DB	0bH
	DB	012H
	DB	03H
	DB	013H
	DB	0bH
	DB	033H
	DB	0bH
	DB	012H
	DB	0bH
	DB	013H
	DB	03H
	DB	033H
	DB	0bH
	DB	032H
	DB	0bH
	DB	033H
	DB	0bH
	DB	013H
	DB	0bH
	DB	033H
	DB	0bH
	DB	033H
	DB	0bH
	DB	033H
	DB	013H
	DB	033H
	DB	0bH
	DB	033H
	DB	0bH
	DB	033H
	DB	013H
	DB	013H
	DB	0bH
	DB	013H
	DB	0bH
	DB	033H
	DB	013H
	DB	033H
	DB	013H
	DB	033H
	DB	0bH
	DB	034H
	DB	013H
	DB	033H
	DB	013H
	DB	034H
	DB	013H
	DB	033H
	DB	0bH
	DB	053H
	DB	013H
	DB	033H
	DB	013H
	DB	033H
	DB	013H
	DB	033H
	DB	013H
	DB	033H
	DB	013H
	DB	033H
	DB	013H
	DB	033H
	DB	013H
	DB	032H
	DB	013H
	DB	033H
	DB	013H
	DB	033H
	DB	013H
	DB	033H
	DB	013H
	DB	032H
	DB	013H
	DB	053H
	DB	013H
	DB	033H
	DB	013H
	DB	033H
	DB	013H
	DB	033H
	DB	013H
	DB	053H
	DB	01bH
	DB	053H
	DB	013H
	DB	053H
	DB	01bH
	DB	053H
	DB	013H
	DB	053H
	DB	013H
	DB	053H
	DB	01bH
	DB	053H
	DB	01bH
	DB	053H
	DB	013H
	DB	053H
	DB	01bH
	DB	053H
	DB	01bH
	DB	074H
	DB	013H
	DB	054H
	DB	01bH
	DB	074H
	DB	013H
	DB	074H
	DB	013H
	DB	074H
	DB	01bH
	DB	074H
	DB	01bH
	DB	074H
	DB	013H
	DB	095H
	DB	01bH
	DB	074H
	DB	01bH
	DB	074H
	DB	01bH
	DB	074H
	DB	01bH
	DB	074H
	DB	01bH
	DB	074H
	DB	013H
	DB	094H
	DB	01bH
	DB	094H
	DB	01bH
	DB	075H
	DB	013H
	DB	074H
	DB	01bH
	DB	095H
	DB	01bH
	DB	074H
	DB	01bH
	DB	095H
	DB	01bH
	DB	074H
	DB	01bH
	DB	094H
	DB	01bH
	DB	094H
	DB	01bH
	DB	075H
	DB	01bH
	DB	075H
	DB	01bH
	DB	074H
	DB	01bH
	DB	074H
	DB	013H
	DB	095H
	DB	01bH
	DB	095H
	DB	01bH
	DB	074H
	DB	013H
	DB	094H
	DB	01bH
	DB	095H
	DB	01bH
	DB	095H
	DB	013H
	DB	094H
	DB	01bH
	DB	095H
	DB	01bH
	DB	095H
	DB	013H
	DB	094H
	DB	01bH
	DB	095H
	DB	01bH
	DB	094H
	DB	01bH
	DB	094H
	DB	01bH
	DB	094H
	DB	01bH
	DB	095H
	DB	01bH
	DB	0b5H
	DB	01bH
	DB	094H
	DB	01bH
	DB	095H
	DB	01bH
	DB	094H
	DB	013H
	DB	094H
	DB	01bH
	DB	095H
	DB	01bH
	DB	095H
	DB	01bH
	DB	095H
	DB	01bH
	DB	094H
	DB	01bH
	DB	095H
	DB	01bH
	DB	094H
	DB	01bH
	DB	095H
	DB	01bH
	DB	094H
	DB	01bH
	DB	095H
	DB	01bH
	DB	095H
	DB	01bH
	DB	094H
	DB	01bH
	DB	094H
	DB	01bH
	DB	095H
	DB	01bH
	DB	095H
	DB	01bH
	DB	094H
	DB	01bH
	DB	095H
	DB	01bH
	DB	094H
	DB	01bH
	DB	094H
	DB	01bH
	DB	0b5H
	DB	01bH
	DB	095H
	DB	01bH
	DB	094H
	DB	01bH
	DB	095H
	DB	01bH
	DB	095H
	DB	01bH
	DB	094H
	DB	01bH
	DB	0b5H
	DB	01bH
	DB	094H
	DB	01bH
	DB	095H
	DB	01bH
	DB	094H
	DB	01bH
	DB	095H
	DB	01bH
	DB	095H
	DB	01bH
	DB	0b4H
	DB	01bH
	DB	095H
	DB	01bH
	DB	094H
	DB	01bH
	DB	094H
	DB	01bH
	DB	095H
	DB	01bH
	DB	094H
	DB	01bH
	DB	094H
	DB	01bH
	DB	095H
	DB	01bH
	DB	094H
	DB	01bH
	DB	095H
	DB	01bH
	DB	094H
	DB	01bH
	DB	094H
	DB	01bH
	DB	095H
	DB	01bH
	DB	094H
	DB	01bH
	DB	094H
	DB	01bH
	DB	095H
	DB	01bH
	DB	094H
	DB	01bH
	DB	094H
	DB	01bH
	DB	095H
	DB	01bH
	DB	094H
	DB	01bH
	DB	094H
	DB	01bH
	DB	095H
	DB	01bH
	DB	094H
	DB	01bH
	DB	095H
	DB	01bH
	DB	095H
	DB	01bH
	DB	094H
	DB	01bH
	DB	095H
	DB	01bH
	DB	094H
	DB	01bH
	DB	095H
	DB	01bH
	DB	094H
	DB	01bH
	DB	095H
	DB	01bH
	DB	094H
	DB	01bH
	DB	095H
	DB	01bH
	DB	094H
	DB	01bH
	DB	095H
	DB	013H
	DB	095H
	DB	01bH
	DB	0b5H
	DB	01bH
	DB	094H
	DB	013H
	DB	0b5H
	DB	01bH
	DB	095H
	DB	01bH
	DB	0b4H
	DB	01bH
	DB	095H
	DB	01bH
	DB	095H
	DB	01bH
	DB	0b4H
	DB	01bH
	DB	095H
	DB	01bH
	DB	094H
	DB	01bH
	DB	094H
	DB	01bH
	DB	095H
	DB	01bH
	DB	094H
	DB	01bH
	DB	094H
	DB	01bH
	DB	095H
	DB	01bH
	DB	094H
	DB	01bH
	DB	094H
	DB	01bH
	DB	095H
	DB	01bH
	DB	094H
	DB	01bH
	DB	094H
	DB	01bH
	DB	095H
	DB	01bH
	DB	094H
	DB	01bH
	DB	095H
	DB	01bH
	DB	0b5H
	DB	01bH
	DB	095H
	DB	01bH
	DB	094H
	DB	01bH
	DB	094H
	DB	01bH
	DB	094H
	DB	01bH
	DB	094H
	DB	01bH
	DB	094H
	DB	01bH
	DB	094H
	DB	01bH
	DB	095H
	DB	01bH
	DB	094H
	DB	01bH
	DB	074H
	DB	01bH
	DB	094H
	DB	01bH
	DB	094H
	DB	01bH
	DB	074H
	DB	01bH
	DB	094H
	DB	01bH
	DB	074H
	DB	01bH
	DB	074H
	DB	01bH
	DB	094H
	DB	01bH
	DB	074H
	DB	01bH
	DB	094H
	DB	01bH
	DB	094H
	DB	01bH
	DB	074H
	DB	01bH
	DB	094H
	DB	01bH
	DB	075H
	DB	01bH
	DB	094H
	DB	01bH
	DB	074H
	DB	01bH
	DB	094H
	DB	01bH
	DB	074H
	DB	01bH
	DB	095H
	DB	01bH
	DB	094H
	DB	01bH
	DB	074H
	DB	01bH
	DB	074H
	DB	01bH
	DB	074H
	DB	01bH
	DB	094H
	DB	01bH
	DB	074H
	DB	013H
	DB	094H
	DB	01bH
	DB	094H
	DB	01bH
	DB	074H
	DB	01bH
	DB	094H
	DB	01bH
	DB	074H
	DB	01bH
	DB	094H
	DB	013H
	DB	074H
	DB	01bH
	DB	074H
	DB	01bH
	DB	074H
	DB	013H
	DB	074H
	DB	01bH
	DB	074H
	DB	01bH
	DB	074H
	DB	013H
	DB	074H
	DB	01bH
	DB	074H
	DB	01bH
	DB	073H
	DB	013H
	DB	074H
	DB	01bH
	DB	074H
	DB	01bH
	DB	073H
	DB	01bH
	DB	074H
	DB	013H
	DB	074H
	DB	01bH
	DB	074H
	DB	01bH
	DB	074H
	DB	013H
	DB	074H
	DB	01bH
	DB	074H
	DB	01bH
	DB	074H
	DB	013H
	DB	074H
	DB	01bH
	DB	074H
	DB	01bH
	DB	074H
	DB	01bH
	DB	074H
	DB	013H
	DB	074H
	DB	01bH
	DB	074H
	DB	01bH
	DB	074H
	DB	013H
	DB	074H
	DB	013H
	DB	074H
	DB	013H
	DB	074H
	DB	013H
	DB	074H
	DB	01bH
	DB	074H
	DB	013H
	DB	054H
	DB	013H
	DB	054H
	DB	013H
	DB	053H
	DB	013H
	DB	053H
	DB	013H
	DB	054H
	DB	013H
	DB	053H
	DB	013H
	DB	054H
	DB	013H
	DB	053H
	DB	013H
	DB	053H
	DB	013H
	DB	054H
	DB	013H
	DB	054H
	DB	013H
	DB	053H
	DB	013H
	DB	053H
	DB	013H
	DB	033H
	DB	013H
	DB	034H
	DB	013H
	DB	054H
	DB	013H
	DB	033H
	DB	013H
	DB	053H
	DB	013H
	DB	033H
	DB	013H
	DB	033H
	DB	013H
	DB	033H
	DB	0bH
	DB	033H
	DB	013H
	DB	033H
	DB	0bH
	DB	033H
	DB	013H
	DB	033H
	DB	013H
	DB	033H
	DB	0bH
	DB	032H
	DB	013H
	DB	032H
	DB	0bH
	DB	033H
	DB	013H
	DB	013H
	DB	0bH
	DB	032H
	DB	0bH
	DB	013H
	DB	0bH
	DB	012H
	DB	0bH
	DB	032H
	DB	0bH
	DB	033H
	DB	0bH
	DB	012H
	DB	0bH
	DB	013H
	DB	0bH
	DB	013H
	DB	0bH
	DB	013H
	DB	0bH
	DB	013H
	DB	0bH
	DB	013H
	DB	03H
	DB	013H
	DB	03H
	DB	012H
	DB	0bH
	DB	012H
	DB	0bH
	DB	0f2H
	DB	02H
	DB	0f2H
	DB	0aH
	DB	012H
	DB	0bH
	DB	012H
	DB	03H
	DB	013H
	DB	0bH
	DB	013H
	DB	03H
	DB	013H
	DB	0bH
	DB	013H
	DB	03H
	DB	013H
	DB	0bH
	DB	013H
	DB	0bH
	DB	012H
	DB	0bH
	DB	013H
	DB	03H
	DB	013H
	DB	0bH
	DB	012H
	DB	0bH
	DB	013H
	DB	03H
	DB	013H
	DB	0bH
	DB	012H
	DB	0bH
	DB	033H
	DB	0bH
	DB	013H
	DB	0bH
	DB	012H
	DB	0bH
	DB	013H
	DB	0bH
	DB	033H
	DB	0bH
	DB	013H
	DB	0bH
	DB	012H
	DB	0bH
	DB	033H
	DB	0bH
	DB	013H
	DB	0bH
	DB	013H
	DB	0bH
	DB	033H
	DB	0bH
	DB	012H
	DB	0bH
	DB	013H
	DB	013H
	DB	033H
	DB	0bH
	DB	033H
	DB	013H
	DB	013H
	DB	0bH
	DB	033H
	DB	013H
	DB	033H
	DB	013H
	DB	033H
	DB	0bH
	DB	033H
	DB	013H
	DB	033H
	DB	0bH
	DB	033H
	DB	013H
	DB	033H
	DB	013H
	DB	053H
	DB	0bH
	DB	054H
	DB	013H
	DB	033H
	DB	0bH
	DB	033H
	DB	013H
	DB	033H
	DB	013H
	DB	033H
	DB	013H
	DB	032H
	DB	013H
	DB	033H
	DB	013H
	DB	033H
	DB	013H
	DB	033H
	DB	013H
	DB	032H
	DB	013H
	DB	033H
	DB	013H
	DB	053H
	DB	013H
	DB	033H
	DB	013H
	DB	053H
	DB	013H
	DB	053H
	DB	013H
	DB	053H
	DB	01bH
	DB	053H
	DB	013H
	DB	053H
	DB	013H
	DB	053H
	DB	01bH
	DB	033H
	DB	013H
	DB	053H
	DB	01bH
	DB	053H
	DB	01bH
	DB	053H
	DB	013H
	DB	053H
	DB	013H
	DB	053H
	DB	01bH
	DB	053H
	DB	013H
	DB	053H
	DB	01bH
	DB	053H
	DB	01bH
	DB	053H
	DB	01bH
	DB	053H
	DB	01bH
	DB	073H
	DB	013H
	DB	054H
	DB	013H
	DB	074H
	DB	01bH
	DB	074H
	DB	013H
	DB	074H
	DB	01bH
	DB	074H
	DB	013H
	DB	074H
	DB	013H
	DB	094H
	DB	01bH
	DB	074H
	DB	01bH
	DB	074H
	DB	01bH
	DB	074H
	DB	01bH
	DB	094H
	DB	01bH
	DB	074H
	DB	01bH
	DB	094H
	DB	01bH
	DB	094H
	DB	013H
	DB	074H
	DB	01bH
	DB	094H
	DB	01bH
	DB	074H
	DB	013H
	DB	074H
	DB	01bH
	DB	094H
	DB	01bH
	DB	094H
	DB	01bH
	DB	074H
	DB	01bH
	DB	094H
	DB	01bH
	DB	075H
	DB	01bH
	DB	074H
	DB	01bH
	DB	094H
	DB	01bH
	DB	095H
	DB	01bH
	DB	094H
	DB	01bH
	DB	094H
	DB	01bH
	DB	094H
	DB	01bH
	DB	094H
	DB	01bH
	DB	094H
	DB	01bH
	DB	094H
	DB	01bH
	DB	094H
	DB	01bH
	DB	095H
	DB	01bH
	DB	094H
	DB	01bH
	DB	094H
	DB	01bH
	DB	094H
	DB	01bH
	DB	095H
	DB	01bH
	DB	0b5H
	DB	01bH
	DB	094H
	DB	01bH
	DB	094H
	DB	01bH
	DB	094H
	DB	01bH
	DB	095H
	DB	01bH
	DB	094H
	DB	01bH
	DB	094H
	DB	013H
	DB	094H
	DB	01bH
	DB	095H
	DB	01bH
	DB	094H
	DB	01bH
	DB	094H
	DB	013H
	DB	095H
	DB	01bH
	DB	094H
	DB	01bH
	DB	094H
	DB	01bH
	DB	094H
	DB	01bH
	DB	095H
	DB	01bH
	DB	095H
	DB	01bH
	DB	094H
	DB	01bH
	DB	095H
	DB	01bH
	DB	095H
	DB	01bH
	DB	094H
	DB	01bH
	DB	095H
	DB	01bH
	DB	094H
	DB	01bH
	DB	0b4H
	DB	01bH
	DB	095H
	DB	01bH
	DB	094H
	DB	01bH
	DB	094H
	DB	01bH
	DB	095H
	DB	01bH
	DB	095H
	DB	01bH
	DB	095H
	DB	01bH
	DB	095H
	DB	01bH
	DB	094H
	DB	01bH
	DB	0b5H
	DB	01bH
	DB	095H
	DB	01bH
	DB	094H
	DB	01bH
	DB	095H
	DB	01bH
	DB	0b5H
	DB	01bH
	DB	094H
	DB	01bH
	DB	094H
	DB	01bH
	DB	095H
	DB	01bH
	DB	095H
	DB	01bH
	DB	094H
	DB	01bH
	DB	094H
	DB	01bH
	DB	094H
	DB	01bH
	DB	095H
	DB	01bH
	DB	094H
	DB	01bH
	DB	094H
	DB	01bH
	DB	095H
	DB	01bH
	DB	094H
	DB	01bH
	DB	095H
	DB	01bH
	DB	095H
	DB	01bH
	DB	094H
	DB	01bH
	DB	095H
	DB	01bH
	DB	094H
	DB	01bH
	DB	095H
	DB	01bH
	DB	094H
	DB	01bH
	DB	094H
	DB	01bH
	DB	095H
	DB	01bH
	DB	094H
	DB	01bH
	DB	094H
	DB	01bH
	DB	095H
	DB	01bH
	DB	095H
	DB	01bH
	DB	094H
	DB	01bH
	DB	095H
	DB	01bH
	DB	095H
	DB	01bH
	DB	094H
	DB	01bH
	DB	095H
	DB	01bH
	DB	094H
	DB	01bH
	DB	095H
	DB	01bH
	DB	095H
	DB	01bH
	DB	095H
	DB	01bH
	DB	0b5H
	DB	01bH
	DB	094H
	DB	01bH
	DB	095H
	DB	01bH
	DB	094H
	DB	01bH
	DB	094H
	DB	01bH
	DB	0b4H
	DB	01bH
	DB	095H
	DB	01bH
	DB	095H
	DB	01bH
	DB	094H
	DB	01bH
	DB	095H
	DB	01bH
	DB	094H
	DB	01bH
	DB	095H
	DB	01bH
	DB	095H
	DB	01bH
	DB	094H
	DB	01bH
	DB	094H
	DB	01bH
	DB	095H
	DB	01bH
	DB	094H
	DB	01bH
	DB	094H
	DB	01bH
	DB	095H
	DB	01bH
	DB	094H
	DB	01bH
	DB	0b4H
	DB	01bH
	DB	095H
	DB	01bH
	DB	094H
	DB	01bH
	DB	094H
	DB	01bH
	DB	0b5H
	DB	01bH
	DB	094H
	DB	01bH
	DB	094H
	DB	01bH
	DB	094H
	DB	01bH
	DB	094H
	DB	01bH
	DB	094H
	DB	01bH
	DB	074H
	DB	01bH
	DB	094H
	DB	01bH
	DB	094H
	DB	01bH
	DB	094H
	DB	01bH
	DB	095H
	DB	01bH
	DB	094H
	DB	01bH
	DB	094H
	DB	01bH
	DB	074H
	DB	01bH
	DB	094H
	DB	01bH
	DB	094H
	DB	01bH
	DB	075H
	DB	01bH
	DB	074H
	DB	01bH
	DB	094H
	DB	01bH
	DB	074H
	DB	01bH
	DB	094H
	DB	01bH
	DB	094H
	DB	01bH
	DB	074H
	DB	01bH
	DB	074H
	DB	01bH
	DB	094H
	DB	01bH
	DB	074H
	DB	01bH
	DB	094H
	DB	01bH
	DB	074H
	DB	01bH
	DB	074H
	DB	01bH
	DB	094H
	DB	01bH
	DB	095H
	DB	01bH
	DB	074H
	DB	01bH
	DB	094H
	DB	01bH
	DB	094H
	DB	01bH
	DB	074H
	DB	01bH
	DB	074H
	DB	01bH
	DB	094H
	DB	01bH
	DB	094H
	DB	01bH
	DB	094H
	DB	01bH
	DB	094H
	DB	01bH
	DB	074H
	DB	01bH
	DB	094H
	DB	013H
	DB	074H
	DB	01bH
	DB	074H
	DB	01bH
	DB	074H
	DB	01bH
	DB	074H
	DB	013H
	DB	074H
	DB	01bH
	DB	074H
	DB	013H
	DB	074H
	DB	01bH
	DB	073H
	DB	01bH
	DB	074H
	DB	013H
	DB	074H
	DB	01bH
	DB	073H
	DB	01bH
	DB	074H
	DB	01bH
	DB	073H
	DB	01bH
	DB	073H
	DB	013H
	DB	073H
	DB	01bH
	DB	074H
	DB	01bH
	DB	073H
	DB	013H
	DB	073H
	DB	01bH
	DB	054H
	DB	01bH
	DB	073H
	DB	013H
	DB	054H
	DB	013H
	DB	054H
	DB	01bH
	DB	074H
	DB	01bH
	DB	074H
	DB	013H
	DB	074H
	DB	01bH
	DB	074H
	DB	01bH
	DB	074H
	DB	013H
	DB	054H
	DB	01bH
	DB	074H
	DB	013H
	DB	054H
	DB	01bH
	DB	053H
	DB	01bH
	DB	073H
	DB	013H
	DB	053H
	DB	013H
	DB	054H
	DB	013H
	DB	053H
	DB	013H
	DB	054H
	DB	013H
	DB	053H
	DB	013H
	DB	053H
	DB	013H
	DB	053H
	DB	013H
	DB	034H
	DB	013H
	DB	053H
	DB	013H
	DB	053H
	DB	013H
	DB	053H
	DB	013H
	DB	053H
	DB	013H
	DB	033H
	DB	013H
	DB	033H
	DB	0bH
	DB	033H
	DB	013H
	DB	033H
	DB	013H
	DB	033H
	DB	013H
	DB	033H
	DB	0bH
	DB	033H
	DB	013H
	DB	033H
	DB	013H
	DB	033H
	DB	0bH
	DB	033H
	DB	0bH
	DB	033H
	DB	013H
	DB	032H
	DB	0bH
	DB	013H
	DB	0bH
	DB	013H
	DB	0bH
	DB	033H
	DB	013H
	DB	033H
	DB	0bH
	DB	013H
	DB	013H
	DB	013H
	DB	0bH
	DB	033H
	DB	0bH
	DB	012H
	DB	0bH
	DB	013H
	DB	0bH
	DB	033H
	DB	0bH
	DB	012H
	DB	0bH
	DB	012H
	DB	0bH
	DB	033H
	DB	0bH
	DB	012H
	DB	0bH
	DB	013H
	DB	03H
	DB	013H
	DB	0bH
	DB	012H
	DB	0bH
	DB	012H
	DB	03H
	DB	0f2H
	DB	0aH
	DB	0f2H
	DB	0aH
	DB	012H
	DB	03H
	DB	012H
	DB	0bH
	DB	013H
	DB	03H
	DB	013H
	DB	03H
	DB	013H
	DB	0bH
	DB	012H
	DB	03H
	DB	013H
	DB	0bH
	DB	013H
	DB	03H
	DB	012H
	DB	0bH
	DB	013H
	DB	03H
	DB	013H
	DB	0bH
	DB	013H
	DB	0bH
	DB	013H
	DB	03H
	DB	013H
	DB	0bH
	DB	013H
	DB	0bH
	DB	033H
	DB	03H
	DB	013H
	DB	0bH
	DB	013H
	DB	0bH
	DB	013H
	DB	0bH
	DB	013H
	DB	0bH
	DB	033H
	DB	0bH
	DB	013H
	DB	0bH
	DB	033H
	DB	0bH
	DB	033H
	DB	0bH
	DB	013H
	DB	0bH
	DB	013H
	DB	013H
	DB	033H
	DB	0bH
	DB	033H
	DB	0bH
	DB	033H
	DB	013H
	DB	033H
	DB	0bH
	DB	033H
	DB	013H
	DB	033H
	DB	013H
	DB	033H
	DB	0bH
	DB	033H
	DB	013H
	DB	033H
	DB	013H
	DB	034H
	DB	0bH
	DB	033H
	DB	013H
	DB	033H
	DB	013H
	DB	033H
	DB	013H
	DB	033H
	DB	013H
	DB	033H
	DB	013H
	DB	033H
	DB	013H
	DB	033H
	DB	013H
	DB	032H
	DB	013H
	DB	033H
	DB	013H
	DB	033H
	DB	013H
	DB	053H
	DB	013H
	DB	053H
	DB	013H
	DB	053H
	DB	013H
	DB	053H
	DB	013H
	DB	033H
	DB	013H
	DB	053H
	DB	01bH
	DB	052H
	DB	013H
	DB	053H
	DB	013H
	DB	053H
	DB	01bH
	DB	033H
	DB	013H
	DB	053H
	DB	01bH
	DB	053H
	DB	013H
	DB	053H
	DB	01bH
	DB	053H
	DB	013H
	DB	053H
	DB	01bH
	DB	053H
	DB	01bH
	DB	053H
	DB	013H
	DB	053H
	DB	013H
	DB	053H
	DB	01bH
	DB	053H
	DB	013H
	DB	053H
	DB	013H
	DB	053H
	DB	01bH
	DB	073H
	DB	01bH
	DB	053H
	DB	01bH
	DB	074H
	DB	01bH
	DB	073H
	DB	01bH
	DB	074H
	DB	013H
	DB	074H
	DB	01bH
	DB	074H
	DB	01bH
	DB	074H
	DB	01bH
	DB	074H
	DB	013H
	DB	074H
	DB	01bH
	DB	074H
	DB	01bH
	DB	074H
	DB	013H
	DB	074H
	DB	01bH
	DB	074H
	DB	01bH
	DB	074H
	DB	013H
	DB	074H
	DB	01bH
	DB	074H
	DB	01bH
	DB	074H
	DB	01bH
	DB	074H
	DB	01bH
	DB	074H
	DB	01bH
	DB	074H
	DB	01bH
	DB	074H
	DB	01bH
	DB	074H
	DB	01bH
	DB	094H
	DB	01bH
	DB	074H
	DB	01bH
	DB	074H
	DB	01bH
	DB	074H
	DB	01bH
	DB	074H
	DB	01bH
	DB	074H
	DB	01bH
	DB	094H
	DB	01bH
	DB	074H
	DB	01bH
	DB	074H
	DB	01bH
	DB	094H
	DB	01bH
	DB	094H
	DB	01bH
	DB	074H
	DB	01bH
	DB	094H
	DB	01bH
	DB	094H
	DB	01bH
	DB	094H
	DB	01bH
	DB	094H
	DB	01bH
	DB	095H
	DB	013H
	DB	094H
	DB	01bH
	DB	094H
	DB	01bH
	DB	094H
	DB	01bH
	DB	094H
	DB	01bH
	DB	094H
	DB	01bH
	DB	094H
	DB	01bH
	DB	094H
	DB	01bH
	DB	094H
	DB	01bH
	DB	095H
	DB	01bH
	DB	095H
	DB	01bH
	DB	094H
	DB	01bH
	DB	095H
	DB	01bH
	DB	095H
	DB	01bH
	DB	094H
	DB	01bH
	DB	095H
	DB	01bH
	DB	094H
	DB	01bH
	DB	094H
	DB	01bH
	DB	0b5H
	DB	01bH
	DB	095H
	DB	01bH
	DB	094H
	DB	01bH
	DB	0b5H
	DB	01bH
	DB	095H
	DB	01bH
	DB	095H
	DB	01bH
	DB	095H
	DB	01bH
	DB	0b5H
	DB	01bH
	DB	0b5H
	DB	01bH
	DB	095H
	DB	01bH
	DB	0b5H
	DB	01bH
	DB	0b4H
	DB	01bH
	DB	095H
	DB	01bH
	DB	0b5H
	DB	01bH
	DB	0b5H
	DB	01bH
	DB	094H
	DB	01bH
	DB	094H
	DB	01bH
	DB	095H
	DB	01bH
	DB	094H
	DB	01bH
	DB	094H
	DB	01bH
	DB	095H
	DB	01bH
	DB	095H
	DB	01bH
	DB	094H
	DB	01bH
	DB	095H
	DB	01bH
	DB	095H
	DB	01bH
	DB	095H
	DB	01bH
	DB	095H
	DB	01bH
	DB	095H
	DB	01bH
	DB	095H
	DB	01bH
	DB	094H
	DB	01bH
	DB	095H
	DB	01bH
	DB	095H
	DB	01bH
	DB	094H
	DB	01bH
	DB	095H
	DB	01bH
	DB	095H
	DB	01bH
	DB	094H
	DB	01bH
	DB	095H
	DB	01bH
	DB	095H
	DB	01bH
	DB	095H
	DB	01bH
	DB	095H
	DB	01bH
	DB	095H
	DB	01bH
	DB	094H
	DB	01bH
	DB	095H
	DB	01bH
	DB	095H
	DB	01bH
	DB	094H
	DB	01bH
	DB	095H
	DB	01bH
	DB	095H
	DB	01bH
	DB	094H
	DB	01bH
	DB	095H
	DB	01bH
	DB	095H
	DB	01bH
	DB	094H
	DB	01bH
	DB	095H
	DB	01bH
	DB	0b5H
	DB	01bH
	DB	0b5H
	DB	01bH
	DB	094H
	DB	01bH
	DB	095H
	DB	01bH
	DB	095H
	DB	01bH
	DB	095H
	DB	01bH
	DB	094H
	DB	01bH
	DB	094H
	DB	01bH
	DB	095H
	DB	01bH
	DB	094H
	DB	01bH
	DB	095H
	DB	01bH
	DB	095H
	DB	01bH
	DB	094H
	DB	01bH
	DB	094H
	DB	01bH
	DB	095H
	DB	01bH
	DB	094H
	DB	01bH
	DB	094H
	DB	01bH
	DB	095H
	DB	01bH
	DB	094H
	DB	01bH
	DB	095H
	DB	01bH
	DB	094H
	DB	01bH
	DB	094H
	DB	01bH
	DB	0b5H
	DB	01bH
	DB	0b5H
	DB	01bH
	DB	094H
	DB	01bH
	DB	094H
	DB	01bH
	DB	094H
	DB	01bH
	DB	094H
	DB	01bH
	DB	074H
	DB	01bH
	DB	074H
	DB	01bH
	DB	094H
	DB	01bH
	DB	094H
	DB	01bH
	DB	074H
	DB	01bH
	DB	094H
	DB	01bH
	DB	094H
	DB	01bH
	DB	094H
	DB	01bH
	DB	074H
	DB	01bH
	DB	094H
	DB	01bH
	DB	075H
	DB	01bH
	DB	074H
	DB	01bH
	DB	094H
	DB	01bH
	DB	074H
	DB	01bH
	DB	094H
	DB	01bH
	DB	074H
	DB	01bH
	DB	075H
	DB	01bH
	DB	094H
	DB	01bH
	DB	074H
	DB	01bH
	DB	094H
	DB	01bH
	DB	094H
	DB	01bH
	DB	075H
	DB	01bH
	DB	094H
	DB	01bH
	DB	094H
	DB	01bH
	DB	074H
	DB	01bH
	DB	095H
	DB	01bH
	DB	094H
	DB	01bH
	DB	074H
	DB	01bH
	DB	094H
	DB	01bH
	DB	074H
	DB	01bH
	DB	095H
	DB	01bH
	DB	074H
	DB	01bH
	DB	094H
	DB	013H
	DB	074H
	DB	01bH
	DB	074H
	DB	01bH
	DB	074H
	DB	01bH
	DB	074H
	DB	01bH
	DB	094H
	DB	01bH
	DB	074H
	DB	01bH
	DB	074H
	DB	01bH
	DB	074H
	DB	01bH
	DB	074H
	DB	01bH
	DB	074H
	DB	01bH
	DB	074H
	DB	01bH
	DB	074H
	DB	01bH
	DB	074H
	DB	01bH
	DB	074H
	DB	01bH
	DB	074H
	DB	013H
	DB	074H
	DB	01bH
	DB	074H
	DB	01bH
	DB	074H
	DB	013H
	DB	074H
	DB	01bH
	DB	054H
	DB	01bH
	DB	074H
	DB	01bH
	DB	074H
	DB	01bH
	DB	073H
	DB	01bH
	DB	074H
	DB	013H
	DB	074H
	DB	01bH
	DB	074H
	DB	01bH
	DB	054H
	DB	01bH
	DB	074H
	DB	013H
	DB	073H
	DB	01bH
	DB	054H
	DB	01bH
	DB	053H
	DB	01bH
	DB	053H
	DB	013H
	DB	053H
	DB	01bH
	DB	053H
	DB	01bH
	DB	053H
	DB	013H
	DB	054H
	DB	013H
	DB	053H
	DB	01bH
	DB	054H
	DB	01bH
	DB	054H
	DB	013H
	DB	053H
	DB	01bH
	DB	054H
	DB	013H
	DB	054H
	DB	013H
	DB	054H
	DB	013H
	DB	053H
	DB	013H
	DB	053H
	DB	013H
	DB	053H
	DB	013H
	DB	033H
	DB	013H
	DB	054H
	DB	013H
	DB	053H
	DB	013H
	DB	034H
	DB	013H
	DB	054H
	DB	013H
	DB	054H
	DB	013H
	DB	033H
	DB	0bH
	DB	033H
	DB	013H
	DB	053H
	DB	013H
	DB	033H
	DB	013H
	DB	033H
	DB	0bH
	DB	033H
	DB	013H
	DB	033H
	DB	0bH
	DB	033H
	DB	013H
	DB	033H
	DB	013H
	DB	032H
	DB	0bH
	DB	033H
	DB	013H
	DB	033H
	DB	013H
	DB	032H
	DB	0bH
	DB	012H
	DB	0bH
	DB	033H
	DB	0bH
	DB	033H
	DB	013H
	DB	012H
	DB	0bH
	DB	033H
	DB	0bH
	DB	013H
	DB	0bH
	DB	013H
	DB	0bH
	DB	013H
	DB	0bH
	DB	033H
	DB	03H
	DB	013H
	DB	0bH
	DB	013H
	DB	0bH
	DB	013H
	DB	03H
	DB	013H
	DB	0bH
	DB	012H
	DB	0bH
	DB	012H
	DB	03H
	DB	0f2H
	DB	0aH
	DB	012H
	DB	0bH
	DB	0f2H
	DB	02H
	DB	012H
	DB	0bH
	DB	0f2H
	DB	0aH
	DB	013H
	DB	0bH
	DB	013H
	DB	0bH
	DB	013H
	DB	0bH
	DB	013H
	DB	03H
	DB	013H
	DB	0bH
	DB	013H
	DB	0bH
	DB	012H
	DB	03H
	DB	013H
	DB	0bH
	DB	012H
	DB	0bH
	DB	013H
	DB	03H
	DB	013H
	DB	0bH
	DB	012H
	DB	0bH
	DB	013H
	DB	0bH
	DB	012H
	DB	0bH
	DB	013H
	DB	0bH
	DB	012H
	DB	0bH
	DB	013H
	DB	0bH
	DB	013H
	DB	0bH
	DB	033H
	DB	0bH
	DB	012H
	DB	0bH
	DB	033H
	DB	0bH
	DB	033H
	DB	013H
	DB	013H
	DB	0bH
	DB	033H
	DB	0bH
	DB	033H
	DB	013H
	DB	013H
	DB	013H
	DB	033H
	DB	0bH
	DB	033H
	DB	0bH
	DB	033H
	DB	013H
	DB	033H
	DB	0bH
	DB	033H
	DB	013H
	DB	034H
	DB	013H
	DB	033H
	DB	013H
	DB	033H
	DB	0bH
	DB	033H
	DB	013H
	DB	033H
	DB	013H
	DB	032H
	DB	013H
	DB	032H
	DB	013H
	DB	033H
	DB	013H
	DB	033H
	DB	013H
	DB	033H
	DB	013H
	DB	033H
	DB	013H
	DB	033H
	DB	013H
	DB	033H
	DB	013H
	DB	053H
	DB	013H
	DB	033H
	DB	013H
	DB	033H
	DB	013H
	DB	053H
	DB	013H
	DB	053H
	DB	01bH
	DB	033H
	DB	013H
	DB	053H
	DB	01bH
	DB	053H
	DB	013H
	DB	033H
	DB	013H
	DB	053H
	DB	013H
	DB	053H
	DB	01bH
	DB	053H
	DB	013H
	DB	053H
	DB	013H
	DB	053H
	DB	01bH
	DB	054H
	DB	01bH
	DB	053H
	DB	01bH
	DB	054H
	DB	013H
	DB	053H
	DB	01bH
	DB	054H
	DB	01bH
	DB	073H
	DB	013H
	DB	074H
	DB	013H
	DB	054H
	DB	01bH
	DB	073H
	DB	013H
	DB	053H
	DB	01bH
	DB	053H
	DB	01bH
	DB	053H
	DB	01bH
	DB	053H
	DB	01bH
	DB	074H
	DB	01bH
	DB	074H
	DB	01bH
	DB	074H
	DB	013H
	DB	074H
	DB	01bH
	DB	074H
	DB	01bH
	DB	074H
	DB	013H
	DB	074H
	DB	01bH
	DB	074H
	DB	01bH
	DB	074H
	DB	01bH
	DB	074H
	DB	01bH
	DB	074H
	DB	01bH
	DB	074H
	DB	01bH
	DB	074H
	DB	01bH
	DB	074H
	DB	01bH
	DB	074H
	DB	013H
	DB	074H
	DB	01bH
	DB	074H
	DB	01bH
	DB	074H
	DB	013H
	DB	074H
	DB	01bH
	DB	074H
	DB	01bH
	DB	074H
	DB	013H
	DB	074H
	DB	01bH
	DB	074H
	DB	01bH
	DB	074H
	DB	01bH
	DB	074H
	DB	01bH
	DB	074H
	DB	01bH
	DB	074H
	DB	01bH
	DB	074H
	DB	01bH
	DB	074H
	DB	01bH
	DB	074H
	DB	01bH
	DB	074H
	DB	01bH
	DB	074H
	DB	01bH
	DB	074H
	DB	01bH
	DB	074H
	DB	01bH
	DB	074H
	DB	01bH
	DB	074H
	DB	01bH
	DB	074H
	DB	01bH
	DB	074H
	DB	01bH
	DB	094H
	DB	01bH
	DB	074H
	DB	01bH
	DB	074H
	DB	01bH
	DB	094H
	DB	01bH
	DB	094H
	DB	01bH
	DB	074H
	DB	01bH
	DB	094H
	DB	01bH
	DB	094H
	DB	01bH
	DB	094H
	DB	01bH
	DB	094H
	DB	01bH
	DB	094H
	DB	01bH
	DB	094H
	DB	01bH
	DB	094H
	DB	01bH
	DB	094H
	DB	01bH
	DB	094H
	DB	01bH
	DB	094H
	DB	01bH
	DB	094H
	DB	01bH
	DB	094H
	DB	01bH
	DB	094H
	DB	01bH
	DB	094H
	DB	01bH
	DB	094H
	DB	01bH
	DB	094H
	DB	01bH
	DB	094H
	DB	01bH
	DB	094H
	DB	013H
	DB	094H
	DB	01bH
	DB	094H
	DB	01bH
	DB	094H
	DB	01bH
	DB	094H
	DB	01bH
	DB	095H
	DB	01bH
	DB	094H
	DB	01bH
	DB	094H
	DB	01bH
	DB	094H
	DB	01bH
	DB	094H
	DB	01bH
	DB	095H
	DB	01bH
	DB	094H
	DB	01bH
	DB	094H
	DB	01bH
	DB	094H
	DB	01bH
	DB	094H
	DB	01bH
	DB	094H
	DB	01bH
	DB	094H
	DB	01bH
	DB	094H
	DB	01bH
	DB	094H
	DB	01bH
	DB	094H
	DB	01bH
	DB	094H
	DB	01bH
	DB	094H
	DB	01bH
	DB	094H
	DB	01bH
	DB	094H
	DB	01bH
	DB	094H
	DB	01bH
	DB	094H
	DB	01bH
	DB	095H
	DB	01bH
	DB	094H
	DB	01bH
	DB	094H
	DB	01bH
	DB	094H
	DB	01bH
	DB	095H
	DB	01bH
	DB	094H
	DB	01bH
	DB	094H
	DB	01bH
	DB	095H
	DB	01bH
	DB	094H
	DB	01bH
	DB	094H
	DB	01bH
	DB	094H
	DB	01bH
	DB	095H
	DB	01bH
	DB	094H
	DB	01bH
	DB	094H
	DB	01bH
	DB	094H
	DB	01bH
	DB	094H
	DB	01bH
	DB	0b5H
	DB	01bH
	DB	094H
	DB	01bH
	DB	094H
	DB	01bH
	DB	0b5H
	DB	013H
	DB	095H
	DB	01bH
	DB	0b5H
	DB	01bH
	DB	095H
	DB	01bH
	DB	094H
	DB	01bH
	DB	095H
	DB	01bH
	DB	094H
	DB	01bH
	DB	094H
	DB	01bH
	DB	095H
	DB	01bH
	DB	094H
	DB	01bH
	DB	094H
	DB	01bH
	DB	095H
	DB	01bH
	DB	095H
	DB	01bH
	DB	094H
	DB	01bH
	DB	094H
	DB	013H
	DB	095H
	DB	01bH
	DB	095H
	DB	01bH
	DB	094H
	DB	01bH
	DB	095H
	DB	01bH
	DB	0b5H
	DB	01bH
	DB	0b5H
	DB	01bH
	DB	094H
	DB	01bH
	DB	094H
	DB	01bH
	DB	094H
	DB	01bH
	DB	094H
	DB	01bH
	DB	094H
	DB	01bH
	DB	074H
	DB	01bH
	DB	095H
	DB	01bH
	DB	094H
	DB	01bH
	DB	094H
	DB	01bH
	DB	075H
	DB	01bH
	DB	094H
	DB	01bH
	DB	094H
	DB	01bH
	DB	094H
	DB	01bH
	DB	094H
	DB	01bH
	DB	074H
	DB	01bH
	DB	095H
	DB	01bH
	DB	094H
	DB	01bH
	DB	074H
	DB	01bH
	DB	094H
	DB	01bH
	DB	094H
	DB	01bH
	DB	075H
	DB	01bH
	DB	074H
	DB	01bH
	DB	094H
	DB	01bH
	DB	075H
	DB	01bH
	DB	074H
	DB	01bH
	DB	094H
	DB	01bH
	DB	074H
	DB	01bH
	DB	074H
	DB	01bH
	DB	094H
	DB	01bH
	DB	094H
	DB	01bH
	DB	095H
	DB	01bH
	DB	094H
	DB	01bH
	DB	074H
	DB	01bH
	DB	074H
	DB	01bH
	DB	094H
	DB	01bH
	DB	094H
	DB	01bH
	DB	074H
	DB	01bH
	DB	094H
	DB	01bH
	DB	074H
	DB	01bH
	DB	094H
	DB	013H
	DB	094H
	DB	01bH
	DB	074H
	DB	01bH
	DB	074H
	DB	01bH
	DB	074H
	DB	01bH
	DB	074H
	DB	01bH
	DB	073H
	DB	013H
	DB	074H
	DB	01bH
	DB	074H
	DB	01bH
	DB	073H
	DB	013H
	DB	074H
	DB	01bH
	DB	074H
	DB	01bH
	DB	074H
	DB	01bH
	DB	073H
	DB	01bH
	DB	074H
	DB	013H
	DB	074H
	DB	01bH
	DB	074H
	DB	01bH
	DB	074H
	DB	013H
	DB	054H
	DB	01bH
	DB	074H
	DB	01bH
	DB	054H
	DB	013H
	DB	074H
	DB	013H
	DB	074H
	DB	01bH
	DB	053H
	DB	01bH
	DB	073H
	DB	013H
	DB	053H
	DB	01bH
	DB	053H
	DB	013H
	DB	053H
	DB	01bH
	DB	053H
	DB	013H
	DB	033H
	DB	01bH
	DB	033H
	DB	01bH
	DB	053H
	DB	013H
	DB	053H
	DB	013H
	DB	053H
	DB	01bH
	DB	054H
	DB	013H
	DB	073H
	DB	013H
	DB	054H
	DB	013H
	DB	053H
	DB	013H
	DB	053H
	DB	013H
	DB	053H
	DB	01bH
	DB	054H
	DB	013H
	DB	053H
	DB	013H
	DB	054H
	DB	013H
	DB	054H
	DB	013H
	DB	053H
	DB	013H
	DB	054H
	DB	013H
	DB	053H
	DB	013H
	DB	033H
	DB	013H
	DB	033H
	DB	013H
	DB	033H
	DB	013H
	DB	053H
	DB	013H
	DB	033H
	DB	013H
	DB	034H
	DB	0bH
	DB	033H
	DB	013H
	DB	033H
	DB	013H
	DB	033H
	DB	0bH
	DB	033H
	DB	013H
	DB	033H
	DB	013H
	DB	033H
	DB	0bH
	DB	012H
	DB	013H
	DB	033H
	DB	013H
	DB	033H
	DB	0bH
	DB	033H
	DB	0bH
	DB	012H
	DB	013H
	DB	033H
	DB	0bH
	DB	012H
	DB	0bH
	DB	033H
	DB	0bH
	DB	033H
	DB	0bH
	DB	033H
	DB	0bH
	DB	012H
	DB	0bH
	DB	013H
	DB	0bH
	DB	033H
	DB	0bH
	DB	012H
	DB	0bH
	DB	013H
	DB	0bH
	DB	012H
	DB	0bH
	DB	012H
	DB	0bH
	DB	012H
	DB	0bH
	DB	012H
	DB	0bH
	DB	0f2H
	DB	02H
	DB	012H
	DB	0bH
	DB	0f2H
	DB	0aH
	DB	0f2H
	DB	02H
	DB	0f2H
	DB	0aH
	DB	012H
	DB	0bH
	DB	013H
	DB	03H
	DB	012H
	DB	0bH
	DB	013H
	DB	0bH
	DB	013H
	DB	03H
	DB	012H
	DB	0bH
	DB	013H
	DB	0bH
	DB	013H
	DB	03H
	DB	013H
	DB	0bH
	DB	012H
	DB	0bH
	DB	012H
	DB	03H
	DB	013H
	DB	0bH
	DB	013H
	DB	0bH
	DB	013H
	DB	0bH
	DB	012H
	DB	0bH
	DB	033H
	DB	0bH
	DB	012H
	DB	0bH
	DB	013H
	DB	0bH
	DB	033H
	DB	0bH
	DB	013H
	DB	0bH
	DB	013H
	DB	0bH
	DB	033H
	DB	0bH
	DB	012H
	DB	013H
	DB	033H
	DB	0bH
	DB	033H
	DB	0bH
	DB	033H
	DB	013H
	DB	033H
	DB	0bH
	DB	033H
	DB	013H
	DB	033H
	DB	013H
	DB	033H
	DB	0bH
	DB	033H
	DB	013H
	DB	033H
	DB	013H
	DB	033H
	DB	013H
	DB	033H
	DB	013H
	DB	033H
	DB	0bH
	DB	033H
	DB	013H
	DB	033H
	DB	013H
	DB	033H
	DB	013H
	DB	032H
	DB	013H
	DB	033H
	DB	013H
	DB	033H
	DB	013H
	DB	053H
	DB	013H
	DB	053H
	DB	013H
	DB	032H
	DB	013H
	DB	053H
	DB	013H
	DB	033H
	DB	013H
	DB	032H
	DB	01bH
	DB	053H
	DB	013H
	DB	053H
	DB	013H
	DB	053H
	DB	01bH
	DB	033H
	DB	013H
	DB	053H
	DB	01bH
	DB	053H
	DB	013H
	DB	053H
	DB	01bH
	DB	053H
	DB	01bH
	DB	053H
	DB	013H
	DB	053H
	DB	01bH
	DB	054H
	DB	013H
	DB	053H
	DB	013H
	DB	054H
	DB	01bH
	DB	053H
	DB	01bH
	DB	054H
	DB	01bH
	DB	073H
	DB	01bH
	DB	073H
	DB	01bH
	DB	053H
	DB	013H
	DB	054H
	DB	01bH
	DB	053H
	DB	013H
	DB	053H
	DB	01bH
	DB	053H
	DB	01bH
	DB	053H
	DB	013H
	DB	073H
	DB	01bH
	DB	054H
	DB	01bH
	DB	053H
	DB	013H
	DB	074H
	DB	01bH
	DB	074H
	DB	01bH
	DB	074H
	DB	01bH
	DB	074H
	DB	01bH
	DB	074H
	DB	01bH
	DB	074H
	DB	013H
	DB	074H
	DB	01bH
	DB	074H
	DB	01bH
	DB	074H
	DB	01bH
	DB	074H
	DB	013H
	DB	074H
	DB	01bH
	DB	074H
	DB	01bH
	DB	074H
	DB	01bH
	DB	074H
	DB	01bH
	DB	074H
	DB	01bH
	DB	074H
	DB	01bH
	DB	074H
	DB	01bH
	DB	074H
	DB	01bH
	DB	074H
	DB	01bH
	DB	074H
	DB	01bH
	DB	074H
	DB	01bH
	DB	074H
	DB	01bH
	DB	094H
	DB	01bH
	DB	074H
	DB	01bH
	DB	074H
	DB	01bH
	DB	094H
	DB	01bH
	DB	074H
	DB	01bH
	DB	074H
	DB	01bH
	DB	074H
	DB	01bH
	DB	074H
	DB	01bH
	DB	074H
	DB	01bH
	DB	074H
	DB	01bH
	DB	074H
	DB	01bH
	DB	094H
	DB	01bH
	DB	094H
	DB	01bH
	DB	074H
	DB	01bH
	DB	094H
	DB	01bH
	DB	074H
	DB	01bH
	DB	094H
	DB	01bH
	DB	074H
	DB	01bH
	DB	074H
	DB	01bH
	DB	074H
	DB	01bH
	DB	094H
	DB	01bH
	DB	074H
	DB	01bH
	DB	074H
	DB	01bH
	DB	094H
	DB	01bH
	DB	094H
	DB	01bH
	DB	074H
	DB	01bH
	DB	094H
	DB	01bH
	DB	094H
	DB	01bH
	DB	094H
	DB	01bH
	DB	094H
	DB	01bH
	DB	094H
	DB	01bH
	DB	094H
	DB	01bH
	DB	094H
	DB	01bH
	DB	074H
	DB	01bH
	DB	094H
	DB	01bH
	DB	094H
	DB	01bH
	DB	094H
	DB	01bH
	DB	094H
	DB	01bH
	DB	094H
	DB	01bH
	DB	074H
	DB	01bH
	DB	094H
	DB	01bH
	DB	074H
	DB	01bH
	DB	094H
	DB	01bH
	DB	094H
	DB	01bH
	DB	094H
	DB	01bH
	DB	094H
	DB	01bH
	DB	094H
	DB	01bH
	DB	094H
	DB	01bH
	DB	094H
	DB	01bH
	DB	094H
	DB	01bH
	DB	094H
	DB	01bH
	DB	094H
	DB	01bH
	DB	094H
	DB	01bH
	DB	094H
	DB	01bH
	DB	094H
	DB	01bH
	DB	074H
	DB	01bH
	DB	074H
	DB	01bH
	DB	094H
	DB	01bH
	DB	094H
	DB	01bH
	DB	074H
	DB	01bH
	DB	094H
	DB	01bH
	DB	094H
	DB	01bH
	DB	074H
	DB	01bH
	DB	094H
	DB	01bH
	DB	094H
	DB	01bH
	DB	074H
	DB	01bH
	DB	094H
	DB	01bH
	DB	074H
	DB	01bH
	DB	074H
	DB	01bH
	DB	074H
	DB	01bH
	DB	074H
	DB	01bH
	DB	094H
	DB	01bH
	DB	074H
	DB	01bH
	DB	094H
	DB	01bH
	DB	094H
	DB	01bH
	DB	074H
	DB	01bH
	DB	094H
	DB	01bH
	DB	094H
	DB	01bH
	DB	094H
	DB	01bH
	DB	094H
	DB	01bH
	DB	094H
	DB	01bH
	DB	094H
	DB	01bH
	DB	094H
	DB	01bH
	DB	094H
	DB	01bH
	DB	094H
	DB	01bH
	DB	094H
	DB	01bH
	DB	094H
	DB	01bH
	DB	094H
	DB	01bH
	DB	094H
	DB	01bH
	DB	094H
	DB	01bH
	DB	094H
	DB	01bH
	DB	094H
	DB	01bH
	DB	094H
	DB	01bH
	DB	094H
	DB	01bH
	DB	094H
	DB	01bH
	DB	094H
	DB	01bH
	DB	094H
	DB	01bH
	DB	094H
	DB	01bH
	DB	094H
	DB	01bH
	DB	074H
	DB	01bH
	DB	094H
	DB	01bH
	DB	094H
	DB	01bH
	DB	094H
	DB	01bH
	DB	094H
	DB	01bH
	DB	094H
	DB	01bH
	DB	094H
	DB	01bH
	DB	095H
	DB	01bH
	DB	094H
	DB	01bH
	DB	094H
	DB	01bH
	DB	094H
	DB	01bH
	DB	094H
	DB	01bH
	DB	074H
	DB	01bH
	DB	094H
	DB	01bH
	DB	094H
	DB	01bH
	DB	074H
	DB	01bH
	DB	095H
	DB	01bH
	DB	094H
	DB	01bH
	DB	094H
	DB	01bH
	DB	094H
	DB	01bH
	DB	094H
	DB	01bH
	DB	074H
	DB	01bH
	DB	075H
	DB	01bH
	DB	094H
	DB	01bH
	DB	094H
	DB	01bH
	DB	074H
	DB	01bH
	DB	095H
	DB	01bH
	DB	094H
	DB	01bH
	DB	074H
	DB	01bH
	DB	094H
	DB	01bH
	DB	074H
	DB	01bH
	DB	074H
	DB	01bH
	DB	094H
	DB	01bH
	DB	074H
	DB	01bH
	DB	074H
	DB	01bH
	DB	094H
	DB	01bH
	DB	074H
	DB	01bH
	DB	094H
	DB	01bH
	DB	074H
	DB	01bH
	DB	074H
	DB	01bH
	DB	094H
	DB	01bH
	DB	074H
	DB	01bH
	DB	074H
	DB	01bH
	DB	074H
	DB	01bH
	DB	074H
	DB	01bH
	DB	074H
	DB	01bH
	DB	094H
	DB	013H
	DB	074H
	DB	01bH
	DB	074H
	DB	01bH
	DB	074H
	DB	01bH
	DB	074H
	DB	01bH
	DB	074H
	DB	01bH
	DB	074H
	DB	01bH
	DB	074H
	DB	013H
	DB	074H
	DB	01bH
	DB	074H
	DB	01bH
	DB	074H
	DB	013H
	DB	073H
	DB	01bH
	DB	074H
	DB	01bH
	DB	073H
	DB	01bH
	DB	074H
	DB	013H
	DB	074H
	DB	01bH
	DB	073H
	DB	01bH
	DB	073H
	DB	013H
	DB	054H
	DB	01bH
	DB	053H
	DB	01bH
	DB	053H
	DB	013H
	DB	053H
	DB	01bH
	DB	053H
	DB	01bH
	DB	033H
	DB	013H
	DB	053H
	DB	01bH
	DB	053H
	DB	01bH
	DB	033H
	DB	013H
	DB	033H
	DB	01bH
	DB	033H
	DB	013H
	DB	053H
	DB	01bH
	DB	053H
	DB	013H
	DB	053H
	DB	013H
	DB	053H
	DB	01bH
	DB	074H
	DB	01bH
	DB	074H
	DB	013H
	DB	053H
	DB	013H
	DB	054H
	DB	01bH
	DB	053H
	DB	013H
	DB	053H
	DB	013H
	DB	054H
	DB	013H
	DB	053H
	DB	013H
	DB	053H
	DB	013H
	DB	054H
	DB	013H
	DB	053H
	DB	013H
	DB	053H
	DB	013H
	DB	033H
	DB	013H
	DB	053H
	DB	013H
	DB	053H
	DB	013H
	DB	054H
	DB	013H
	DB	033H
	DB	013H
	DB	033H
	DB	013H
	DB	033H
	DB	013H
	DB	033H
	DB	0bH
	DB	033H
	DB	013H
	DB	033H
	DB	013H
	DB	033H
	DB	0bH
	DB	033H
	DB	0bH
	DB	013H
	DB	013H
	DB	033H
	DB	0bH
	DB	033H
	DB	0bH
	DB	033H
	DB	013H
	DB	033H
	DB	0bH
	DB	013H
	DB	0bH
	DB	013H
	DB	013H
	DB	013H
	DB	0bH
	DB	033H
	DB	0bH
	DB	033H
	DB	0bH
	DB	013H
	DB	0bH
	DB	032H
	DB	0bH
	DB	033H
	DB	0bH
	DB	013H
	DB	0bH
	DB	012H
	DB	0bH
	DB	012H
	DB	03H
	DB	012H
	DB	0bH
	DB	0f2H
	DB	02H
	DB	013H
	DB	0bH
	DB	0f2H
	DB	02H
	DB	013H
	DB	0bH
	DB	012H
	DB	03H
	DB	0f2H
	DB	02H
	DB	0f2H
	DB	0aH
	DB	013H
	DB	0bH
	DB	013H
	DB	03H
	DB	012H
	DB	0bH
	DB	013H
	DB	03H
	DB	013H
	DB	0bH
	DB	013H
	DB	0bH
	DB	013H
	DB	03H
	DB	012H
	DB	03H
	DB	013H
	DB	0bH
	DB	013H
	DB	0bH
	DB	012H
	DB	03H
	DB	013H
	DB	0bH
	DB	013H
	DB	0bH
	DB	013H
	DB	0bH
	DB	013H
	DB	0bH
	DB	033H
	DB	0bH
	DB	033H
	DB	0bH
	DB	032H
	DB	0bH
	DB	013H
	DB	0bH
	DB	033H
	DB	013H
	DB	033H
	DB	013H
	DB	033H
	DB	0bH
	DB	033H
	DB	0bH
	DB	013H
	DB	013H
	DB	033H
	DB	0bH
	DB	033H
	DB	013H
	DB	033H
	DB	013H
	DB	033H
	DB	0bH
	DB	034H
	DB	013H
	DB	033H
	DB	0bH
	DB	033H
	DB	0bH
	DB	033H
	DB	013H
	DB	032H
	DB	013H
	DB	032H
	DB	013H
	DB	033H
	DB	013H
	DB	033H
	DB	013H
	DB	033H
	DB	013H
	DB	033H
	DB	013H
	DB	032H
	DB	013H
	DB	033H
	DB	013H
	DB	053H
	DB	013H
	DB	033H
	DB	013H
	DB	053H
	DB	013H
	DB	053H
	DB	013H
	DB	053H
	DB	013H
	DB	053H
	DB	01bH
	DB	053H
	DB	013H
	DB	053H
	DB	013H
	DB	053H
	DB	01bH
	DB	053H
	DB	013H
	DB	033H
	DB	013H
	DB	053H
	DB	01bH
	DB	053H
	DB	013H
	DB	053H
	DB	013H
	DB	053H
	DB	01bH
	DB	053H
	DB	01bH
	DB	053H
	DB	013H
	DB	053H
	DB	01bH
	DB	053H
	DB	013H
	DB	053H
	DB	013H
	DB	073H
	DB	013H
	DB	054H
	DB	013H
	DB	053H
	DB	01bH
	DB	074H
	DB	01bH
	DB	054H
	DB	01bH
	DB	053H
	DB	01bH
	DB	053H
	DB	01bH
	DB	053H
	DB	01bH
	DB	054H
	DB	013H
	DB	074H
	DB	01bH
	DB	073H
	DB	01bH
	DB	053H
	DB	01bH
	DB	053H
	DB	01bH
	DB	073H
	DB	013H
	DB	074H
	DB	01bH
	DB	074H
	DB	01bH
	DB	074H
	DB	013H
	DB	074H
	DB	01bH
	DB	074H
	DB	01bH
	DB	074H
	DB	01bH
	DB	074H
	DB	01bH
	DB	074H
	DB	01bH
	DB	074H
	DB	01bH
	DB	074H
	DB	01bH
	DB	074H
	DB	01bH
	DB	074H
	DB	01bH
	DB	074H
	DB	01bH
	DB	074H
	DB	01bH
	DB	094H
	DB	01bH
	DB	074H
	DB	01bH
	DB	074H
	DB	01bH
	DB	094H
	DB	01bH
	DB	074H
	DB	01bH
	DB	074H
	DB	01bH
	DB	094H
	DB	01bH
	DB	074H
	DB	01bH
	DB	074H
	DB	01bH
	DB	074H
	DB	01bH
	DB	074H
	DB	01bH
	DB	074H
	DB	01bH
	DB	074H
	DB	01bH
	DB	074H
	DB	01bH
	DB	094H
	DB	01bH
	DB	094H
	DB	01bH
	DB	094H
	DB	01bH
	DB	094H
	DB	01bH
	DB	074H
	DB	01bH
	DB	074H
	DB	01bH
	DB	094H
	DB	01bH
	DB	094H
	DB	01bH
	DB	074H
	DB	01bH
	DB	094H
	DB	01bH
	DB	074H
	DB	01bH
	DB	094H
	DB	01bH
	DB	094H
	DB	01bH
	DB	074H
	DB	01bH
	DB	074H
	DB	01bH
	DB	094H
	DB	01bH
	DB	074H
	DB	01bH
	DB	074H
	DB	01bH
	DB	094H
	DB	01bH
	DB	074H
	DB	01bH
	DB	074H
	DB	01bH
	DB	094H
	DB	01bH
	DB	074H
	DB	01bH
	DB	074H
	DB	01bH
	DB	094H
	DB	01bH
	DB	074H
	DB	01bH
	DB	094H
	DB	01bH
	DB	074H
	DB	01bH
	DB	074H
	DB	01bH
	DB	094H
	DB	01bH
	DB	074H
	DB	01bH
	DB	074H
	DB	01bH
	DB	073H
	DB	01bH
	DB	074H
	DB	01bH
	DB	074H
	DB	01bH
	DB	094H
	DB	01bH
	DB	094H
	DB	01bH
	DB	094H
	DB	01bH
	DB	074H
	DB	01bH
	DB	074H
	DB	01bH
	DB	094H
	DB	01bH
	DB	074H
	DB	01bH
	DB	094H
	DB	01bH
	DB	074H
	DB	01bH
	DB	074H
	DB	01bH
	DB	074H
	DB	01bH
	DB	094H
	DB	01bH
	DB	094H
	DB	01bH
	DB	074H
	DB	01bH
	DB	074H
	DB	01bH
	DB	094H
	DB	01bH
	DB	074H
	DB	01bH
	DB	074H
	DB	01bH
	DB	074H
	DB	01bH
	DB	074H
	DB	01bH
	DB	074H
	DB	01bH
	DB	074H
	DB	01bH
	DB	074H
	DB	01bH
	DB	074H
	DB	01bH
	DB	074H
	DB	01bH
	DB	074H
	DB	01bH
	DB	074H
	DB	01bH
	DB	094H
	DB	01bH
	DB	074H
	DB	01bH
	DB	074H
	DB	01bH
	DB	074H
	DB	01bH
	DB	094H
	DB	01bH
	DB	074H
	DB	01bH
	DB	074H
	DB	01bH
	DB	074H
	DB	01bH
	DB	074H
	DB	01bH
	DB	074H
	DB	01bH
	DB	074H
	DB	01bH
	DB	073H
	DB	01bH
	DB	073H
	DB	01bH
	DB	074H
	DB	01bH
	DB	074H
	DB	01bH
	DB	074H
	DB	01bH
	DB	094H
	DB	01bH
	DB	074H
	DB	01bH
	DB	074H
	DB	01bH
	DB	074H
	DB	01bH
	DB	094H
	DB	01bH
	DB	074H
	DB	01bH
	DB	074H
	DB	01bH
	DB	074H
	DB	01bH
	DB	094H
	DB	01bH
	DB	074H
	DB	01bH
	DB	094H
	DB	01bH
	DB	074H
	DB	01bH
	DB	094H
	DB	01bH
	DB	094H
	DB	01bH
	DB	074H
	DB	01bH
	DB	094H
	DB	01bH
	DB	074H
	DB	01bH
	DB	094H
	DB	01bH
	DB	094H
	DB	01bH
	DB	074H
	DB	01bH
	DB	094H
	DB	01bH
	DB	095H
	DB	01bH
	DB	094H
	DB	01bH
	DB	074H
	DB	01bH
	DB	094H
	DB	01bH
	DB	094H
	DB	01bH
	DB	074H
	DB	01bH
	DB	094H
	DB	01bH
	DB	095H
	DB	01bH
	DB	074H
	DB	01bH
	DB	094H
	DB	01bH
	DB	095H
	DB	01bH
	DB	074H
	DB	01bH
	DB	094H
	DB	01bH
	DB	094H
	DB	01bH
	DB	074H
	DB	01bH
	DB	094H
	DB	01bH
	DB	074H
	DB	01bH
	DB	094H
	DB	01bH
	DB	074H
	DB	01bH
	DB	074H
	DB	01bH
	DB	094H
	DB	01bH
	DB	095H
	DB	01bH
	DB	094H
	DB	01bH
	DB	074H
	DB	01bH
	DB	095H
	DB	01bH
	DB	074H
	DB	01bH
	DB	074H
	DB	01bH
	DB	094H
	DB	01bH
	DB	094H
	DB	01bH
	DB	075H
	DB	01bH
	DB	094H
	DB	01bH
	DB	074H
	DB	01bH
	DB	095H
	DB	01bH
	DB	094H
	DB	01bH
	DB	074H
	DB	01bH
	DB	074H
	DB	01bH
	DB	074H
	DB	01bH
	DB	074H
	DB	01bH
	DB	074H
	DB	01bH
	DB	094H
	DB	01bH
	DB	074H
	DB	01bH
	DB	074H
	DB	01bH
	DB	074H
	DB	013H
	DB	074H
	DB	01bH
	DB	074H
	DB	01bH
	DB	074H
	DB	013H
	DB	074H
	DB	01bH
	DB	074H
	DB	01bH
	DB	074H
	DB	01bH
	DB	074H
	DB	01bH
	DB	074H
	DB	01bH
	DB	074H
	DB	01bH
	DB	074H
	DB	01bH
	DB	074H
	DB	01bH
	DB	074H
	DB	01bH
	DB	053H
	DB	013H
	DB	073H
	DB	01bH
	DB	053H
	DB	01bH
	DB	053H
	DB	013H
	DB	033H
	DB	01bH
	DB	053H
	DB	01bH
	DB	033H
	DB	01bH
	DB	053H
	DB	013H
	DB	053H
	DB	01bH
	DB	032H
	DB	01bH
	DB	053H
	DB	013H
	DB	053H
	DB	01bH
	DB	053H
	DB	01bH
	DB	053H
	DB	013H
	DB	053H
	DB	013H
	DB	053H
	DB	01bH
	DB	053H
	DB	013H
	DB	074H
	DB	013H
	DB	054H
	DB	01bH
	DB	053H
	DB	013H
	DB	054H
	DB	013H
	DB	054H
	DB	013H
	DB	053H
	DB	013H
	DB	053H
	DB	013H
	DB	054H
	DB	013H
	DB	033H
	DB	013H
	DB	054H
	DB	013H
	DB	054H
	DB	013H
	DB	033H
	DB	013H
	DB	033H
	DB	013H
	DB	054H
	DB	013H
	DB	033H
	DB	013H
	DB	053H
	DB	013H
	DB	033H
	DB	013H
	DB	033H
	DB	013H
	DB	034H
	DB	013H
	DB	033H
	DB	0bH
	DB	033H
	DB	013H
	DB	033H
	DB	013H
	DB	033H
	DB	0bH
	DB	032H
	DB	013H
	DB	013H
	DB	013H
	DB	032H
	DB	0bH
	DB	033H
	DB	0bH
	DB	033H
	DB	013H
	DB	013H
	DB	0bH
	DB	032H
	DB	0bH
	DB	013H
	DB	0bH
	DB	013H
	DB	0bH
	DB	033H
	DB	0bH
	DB	013H
	DB	0bH
	DB	013H
	DB	0bH
	DB	033H
	DB	0bH
	DB	012H
	DB	0bH
	DB	012H
	DB	0bH
	DB	012H
	DB	0bH
	DB	0f2H
	DB	0aH
	DB	0f3H
	DB	02H
	DB	012H
	DB	0bH
	DB	0f2H
	DB	0aH
	DB	012H
	DB	0bH
	DB	013H
	DB	0bH
	DB	0f2H
	DB	0aH
	DB	012H
	DB	03H
	DB	013H
	DB	0bH
	DB	013H
	DB	0bH
	DB	013H
	DB	03H
	DB	012H
	DB	0bH
	DB	013H
	DB	03H
	DB	013H
	DB	0bH
	DB	012H
	DB	0bH
	DB	013H
	DB	0bH
	DB	013H
	DB	0bH
	DB	012H
	DB	0bH
	DB	013H
	DB	0bH
	DB	033H
	DB	0bH
	DB	012H
	DB	0bH
	DB	013H
	DB	0bH
	DB	013H
	DB	0bH
	DB	033H
	DB	0bH
	DB	013H
	DB	0bH
	DB	013H
	DB	0bH
	DB	033H
	DB	0bH
	DB	013H
	DB	0bH
	DB	033H
	DB	013H
	DB	033H
	DB	0bH
	DB	013H
	DB	0bH
	DB	033H
	DB	013H
	DB	033H
	DB	0bH
	DB	033H
	DB	0bH
	DB	033H
	DB	013H
	DB	033H
	DB	013H
	DB	033H
	DB	013H
	DB	033H
	DB	013H
	DB	033H
	DB	013H
	DB	033H
	DB	013H
	DB	033H
	DB	013H
	DB	032H
	DB	013H
	DB	033H
	DB	013H
	DB	033H
	DB	013H
	DB	032H
	DB	013H
	DB	033H
	DB	013H
	DB	033H
	DB	013H
	DB	033H
	DB	013H
	DB	053H
	DB	013H
	DB	033H
	DB	013H
	DB	033H
	DB	013H
	DB	033H
	DB	013H
	DB	053H
	DB	013H
	DB	053H
	DB	013H
	DB	033H
	DB	013H
	DB	053H
	DB	01bH
	DB	053H
	DB	013H
	DB	033H
	DB	013H
	DB	053H
	DB	01bH
	DB	053H
	DB	01bH
	DB	053H
	DB	013H
	DB	053H
	DB	01bH
	DB	054H
	DB	013H
	DB	053H
	DB	013H
	DB	053H
	DB	01bH
	DB	054H
	DB	01bH
	DB	053H
	DB	01bH
	DB	054H
	DB	01bH
	DB	073H
	DB	013H
	DB	053H
	DB	01bH
	DB	074H
	DB	01bH
	DB	074H
	DB	013H
	DB	053H
	DB	01bH
	DB	053H
	DB	01bH
	DB	053H
	DB	013H
	DB	073H
	DB	01bH
	DB	053H
	DB	01bH
	DB	073H
	DB	013H
	DB	053H
	DB	01bH
	DB	074H
	DB	01bH
	DB	073H
	DB	013H
	DB	073H
	DB	01bH
	DB	053H
	DB	01bH
	DB	054H
	DB	01bH
	DB	074H
	DB	01bH
	DB	074H
	DB	01bH
	DB	074H
	DB	01bH
	DB	074H
	DB	01bH
	DB	074H
	DB	01bH
	DB	073H
	DB	01bH
	DB	074H
	DB	01bH
	DB	074H
	DB	013H
	DB	074H
	DB	01bH
	DB	073H
	DB	01bH
	DB	074H
	DB	01bH
	DB	074H
	DB	01bH
	DB	074H
	DB	01bH
	DB	074H
	DB	01bH
	DB	074H
	DB	01bH
	DB	094H
	DB	01bH
	DB	074H
	DB	01bH
	DB	074H
	DB	01bH
	DB	074H
	DB	01bH
	DB	074H
	DB	01bH
	DB	094H
	DB	01bH
	DB	074H
	DB	01bH
	DB	074H
	DB	01bH
	DB	074H
	DB	01bH
	DB	074H
	DB	01bH
	DB	074H
	DB	01bH
	DB	074H
	DB	01bH
	DB	094H
	DB	01bH
	DB	074H
	DB	01bH
	DB	074H
	DB	01bH
	DB	074H
	DB	01bH
	DB	094H
	DB	01bH
	DB	074H
	DB	01bH
	DB	074H
	DB	01bH
	DB	094H
	DB	01bH
	DB	074H
	DB	01bH
	DB	094H
	DB	01bH
	DB	074H
	DB	01bH
	DB	094H
	DB	01bH
	DB	094H
	DB	01bH
	DB	074H
	DB	01bH
	DB	094H
	DB	01bH
	DB	074H
	DB	01bH
	DB	094H
	DB	01bH
	DB	094H
	DB	01bH
	DB	074H
	DB	01bH
	DB	074H
	DB	01bH
	DB	094H
	DB	01bH
	DB	074H
	DB	01bH
	DB	094H
	DB	01bH
	DB	074H
	DB	01bH
	DB	094H
	DB	01bH
	DB	093H
	DB	01bH
	DB	074H
	DB	01bH
	DB	073H
	DB	01bH
	DB	073H
	DB	01bH
	DB	074H
	DB	01bH
	DB	073H
	DB	01bH
	DB	073H
	DB	01bH
	DB	073H
	DB	01bH
	DB	074H
	DB	01bH
	DB	074H
	DB	01bH
	DB	094H
	DB	01bH
	DB	094H
	DB	01bH
	DB	094H
	DB	01bH
	DB	074H
	DB	01bH
	DB	074H
	DB	01bH
	DB	094H
	DB	01bH
	DB	094H
	DB	01bH
	DB	074H
	DB	01bH
	DB	094H
	DB	01bH
	DB	094H
	DB	01bH
	DB	074H
	DB	01bH
	DB	094H
	DB	01bH
	DB	094H
	DB	01bH
	DB	074H
	DB	01bH
	DB	074H
	DB	01bH
	DB	094H
	DB	01bH
	DB	074H
	DB	01bH
	DB	094H
	DB	01bH
	DB	074H
	DB	01bH
	DB	094H
	DB	01bH
	DB	094H
	DB	01bH
	DB	074H
	DB	01bH
	DB	094H
	DB	01bH
	DB	074H
	DB	01bH
	DB	094H
	DB	01bH
	DB	094H
	DB	01bH
	DB	094H
	DB	01bH
	DB	094H
	DB	01bH
	DB	074H
	DB	01bH
	DB	094H
	DB	01bH
	DB	074H
	DB	01bH
	DB	074H
	DB	01bH
	DB	074H
	DB	01bH
	DB	074H
	DB	01bH
	DB	073H
	DB	01bH
	DB	073H
	DB	01bH
	DB	073H
	DB	01bH
	DB	074H
	DB	01bH
	DB	074H
	DB	01bH
	DB	073H
	DB	01bH
	DB	073H
	DB	01bH
	DB	073H
	DB	01bH
	DB	074H
	DB	01bH
	DB	074H
	DB	01bH
	DB	073H
	DB	01bH
	DB	074H
	DB	01bH
	DB	074H
	DB	01bH
	DB	074H
	DB	01bH
	DB	074H
	DB	01bH
	DB	074H
	DB	01bH
	DB	074H
	DB	01bH
	DB	074H
	DB	01bH
	DB	074H
	DB	01bH
	DB	074H
	DB	01bH
	DB	074H
	DB	01bH
	DB	074H
	DB	01bH
	DB	073H
	DB	01bH
	DB	074H
	DB	01bH
	DB	074H
	DB	01bH
	DB	074H
	DB	01bH
	DB	074H
	DB	01bH
	DB	074H
	DB	01bH
	DB	074H
	DB	01bH
	DB	074H
	DB	01bH
	DB	094H
	DB	01bH
	DB	094H
	DB	01bH
	DB	095H
	DB	01bH
	DB	095H
	DB	01bH
	DB	095H
	DB	01bH
	DB	094H
	DB	023H
	DB	095H
	DB	01bH
	DB	074H
	DB	01bH
	DB	094H
	DB	01bH
	DB	094H
	DB	01bH
	DB	094H
	DB	01bH
	DB	095H
	DB	01bH
	DB	094H
	DB	01bH
	DB	074H
	DB	01bH
	DB	094H
	DB	01bH
	DB	075H
	DB	01bH
	DB	094H
	DB	01bH
	DB	094H
	DB	01bH
	DB	075H
	DB	01bH
	DB	074H
	DB	01bH
	DB	094H
	DB	01bH
	DB	074H
	DB	01bH
	DB	094H
	DB	01bH
	DB	094H
	DB	01bH
	DB	074H
	DB	01bH
	DB	094H
	DB	01bH
	DB	074H
	DB	01bH
	DB	074H
	DB	01bH
	DB	094H
	DB	01bH
	DB	094H
	DB	01bH
	DB	074H
	DB	01bH
	DB	074H
	DB	01bH
	DB	074H
	DB	01bH
	DB	074H
	DB	013H
	DB	094H
	DB	01bH
	DB	074H
	DB	01bH
	DB	074H
	DB	01bH
	DB	094H
	DB	01bH
	DB	074H
	DB	01bH
	DB	073H
	DB	01bH
	DB	094H
	DB	01bH
	DB	074H
	DB	01bH
	DB	073H
	DB	01bH
	DB	074H
	DB	01bH
	DB	074H
	DB	01bH
	DB	073H
	DB	01bH
	DB	074H
	DB	013H
	DB	074H
	DB	01bH
	DB	074H
	DB	013H
	DB	074H
	DB	013H
	DB	073H
	DB	01bH
	DB	073H
	DB	01bH
	DB	054H
	DB	013H
	DB	053H
	DB	01bH
	DB	053H
	DB	01bH
	DB	053H
	DB	01bH
	DB	053H
	DB	01bH
	DB	053H
	DB	01bH
	DB	053H
	DB	013H
	DB	053H
	DB	013H
	DB	053H
	DB	01bH
	DB	053H
	DB	013H
	DB	033H
	DB	01bH
	DB	032H
	DB	01bH
	DB	053H
	DB	013H
	DB	033H
	DB	01bH
	DB	053H
	DB	01bH
	DB	053H
	DB	013H
	DB	053H
	DB	013H
	DB	053H
	DB	01bH
	DB	053H
	DB	013H
	DB	053H
	DB	013H
	DB	054H
	DB	013H
	DB	053H
	DB	013H
	DB	054H
	DB	01bH
	DB	053H
	DB	013H
	DB	053H
	DB	013H
	DB	054H
	DB	013H
	DB	053H
	DB	013H
	DB	053H
	DB	013H
	DB	053H
	DB	013H
	DB	033H
	DB	013H
	DB	053H
	DB	013H
	DB	033H
	DB	013H
	DB	033H
	DB	013H
	DB	053H
	DB	013H
	DB	053H
	DB	0bH
	DB	033H
	DB	013H
	DB	033H
	DB	013H
	DB	053H
	DB	0bH
	DB	033H
	DB	013H
	DB	033H
	DB	0bH
	DB	033H
	DB	013H
	DB	033H
	DB	013H
	DB	033H
	DB	0bH
	DB	033H
	DB	013H
	DB	013H
	DB	0bH
	DB	032H
	DB	0bH
	DB	033H
	DB	013H
	DB	013H
	DB	0bH
	DB	033H
	DB	0bH
	DB	033H
	DB	013H
	DB	013H
	DB	0bH
	DB	032H
	DB	0bH
	DB	033H
	DB	0bH
	DB	013H
	DB	0bH
	DB	012H
	DB	0bH
	DB	012H
	DB	03H
	DB	012H
	DB	0bH
	DB	012H
	DB	0bH
	DB	012H
	DB	0bH
	DB	012H
	DB	03H
	DB	0f2H
	DB	0aH
	DB	0f2H
	DB	02H
	DB	012H
	DB	03H
	DB	0f3H
	DB	0aH
	DB	012H
	DB	0bH
	DB	0f2H
	DB	02H
	DB	013H
	DB	03H
	DB	013H
	DB	0bH
	DB	013H
	DB	0bH
	DB	013H
	DB	03H
	DB	012H
	DB	0bH
	DB	012H
	DB	0bH
	DB	013H
	DB	03H
	DB	013H
	DB	0bH
	DB	012H
	DB	0bH
	DB	013H
	DB	0bH
	DB	013H
	DB	0bH
	DB	013H
	DB	0bH
	DB	033H
	DB	0bH
	DB	033H
	DB	0bH
	DB	012H
	DB	0bH
	DB	033H
	DB	0bH
	DB	013H
	DB	0bH
	DB	033H
	DB	0bH
	DB	033H
	DB	0bH
	DB	033H
	DB	013H
	DB	033H
	DB	0bH
	DB	033H
	DB	0bH
	DB	033H
	DB	013H
	DB	033H
	DB	013H
	DB	033H
	DB	013H
	DB	033H
	DB	0bH
	DB	033H
	DB	013H
	DB	033H
	DB	0bH
	DB	033H
	DB	013H
	DB	012H
	DB	013H
	DB	012H
	DB	0bH
	DB	033H
	DB	013H
	DB	033H
	DB	013H
	DB	033H
	DB	013H
	DB	033H
	DB	013H
	DB	033H
	DB	013H
	DB	033H
	DB	013H
	DB	033H
	DB	013H
	DB	053H
	DB	013H
	DB	033H
	DB	013H
	DB	053H
	DB	013H
	DB	053H
	DB	013H
	DB	033H
	DB	01bH
	DB	053H
	DB	013H
	DB	053H
	DB	01bH
	DB	053H
	DB	013H
	DB	033H
	DB	01bH
	DB	053H
	DB	01bH
	DB	053H
	DB	013H
	DB	053H
	DB	013H
	DB	053H
	DB	01bH
	DB	053H
	DB	013H
	DB	053H
	DB	01bH
	DB	053H
	DB	01bH
	DB	054H
	DB	013H
	DB	053H
	DB	01bH
	DB	053H
	DB	01bH
	DB	054H
	DB	013H
	DB	073H
	DB	01bH
	DB	074H
	DB	01bH
	DB	053H
	DB	013H
	DB	073H
	DB	01bH
	DB	054H
	DB	013H
	DB	073H
	DB	01bH
	DB	053H
	DB	01bH
	DB	053H
	DB	013H
	DB	073H
	DB	01bH
	DB	053H
	DB	01bH
	DB	053H
	DB	01bH
	DB	054H
	DB	01bH
	DB	073H
	DB	013H
	DB	074H
	DB	01bH
	DB	054H
	DB	01bH
	DB	053H
	DB	01bH
	DB	053H
	DB	013H
	DB	053H
	DB	01bH
	DB	073H
	DB	01bH
	DB	073H
	DB	01bH
	DB	073H
	DB	01bH
	DB	074H
	DB	013H
	DB	074H
	DB	01bH
	DB	073H
	DB	01bH
	DB	074H
	DB	01bH
	DB	074H
	DB	01bH
	DB	073H
	DB	01bH
	DB	074H
	DB	01bH
	DB	094H
	DB	01bH
	DB	074H
	DB	01bH
	DB	074H
	DB	01bH
	DB	094H
	DB	01bH
	DB	074H
	DB	01bH
	DB	074H
	DB	01bH
	DB	074H
	DB	01bH
	DB	074H
	DB	01bH
	DB	074H
	DB	01bH
	DB	074H
	DB	01bH
	DB	074H
	DB	01bH
	DB	074H
	DB	01bH
	DB	074H
	DB	01bH
	DB	094H
	DB	01bH
	DB	074H
	DB	01bH
	DB	074H
	DB	01bH
	DB	074H
	DB	01bH
	DB	074H
	DB	01bH
	DB	094H
	DB	01bH
	DB	074H
	DB	01bH
	DB	094H
	DB	01bH
	DB	094H
	DB	01bH
	DB	074H
	DB	01bH
	DB	094H
	DB	01bH
	DB	074H
	DB	01bH
	DB	094H
	DB	01bH
	DB	074H
	DB	01bH
	DB	074H
	DB	01bH
	DB	094H
	DB	01bH
	DB	074H
	DB	01bH
	DB	094H
	DB	01bH
	DB	074H
	DB	01bH
	DB	093H
	DB	01bH
	DB	074H
	DB	01bH
	DB	094H
	DB	01bH
	DB	094H
	DB	01bH
	DB	094H
	DB	01bH
	DB	074H
	DB	01bH
	DB	093H
	DB	01bH
	DB	094H
	DB	01bH
	DB	074H
	DB	01bH
	DB	073H
	DB	01bH
	DB	074H
	DB	01bH
	DB	073H
	DB	01bH
	DB	074H
	DB	01bH
	DB	073H
	DB	01bH
	DB	073H
	DB	01bH
	DB	074H
	DB	023H
	DB	073H
	DB	01bH
	DB	073H
	DB	01bH
	DB	074H
	DB	01bH
	DB	094H
	DB	01bH
	DB	074H
	DB	01bH
	DB	094H
	DB	01bH
	DB	094H
	DB	01bH
	DB	094H
	DB	01bH
	DB	074H
	DB	01bH
	DB	094H
	DB	01bH
	DB	094H
	DB	01bH
	DB	094H
	DB	01bH
	DB	094H
	DB	01bH
	DB	094H
	DB	01bH
	DB	074H
	DB	01bH
	DB	074H
	DB	01bH
	DB	094H
	DB	01bH
	DB	074H
	DB	01bH
	DB	074H
	DB	01bH
	DB	094H
	DB	01bH
	DB	094H
	DB	01bH
	DB	074H
	DB	01bH
	DB	094H
	DB	01bH
	DB	074H
	DB	01bH
	DB	074H
	DB	01bH
	DB	094H
	DB	01bH
	DB	094H
	DB	01bH
	DB	094H
	DB	01bH
	DB	074H
	DB	01bH
	DB	074H
	DB	01bH
	DB	094H
	DB	01bH
	DB	074H
	DB	01bH
	DB	094H
	DB	01bH
	DB	094H
	DB	01bH
	DB	074H
	DB	01bH
	DB	074H
	DB	01bH
	DB	073H
	DB	01bH
	DB	073H
	DB	01bH
	DB	074H
	DB	01bH
	DB	073H
	DB	01bH
	DB	074H
	DB	01bH
	DB	073H
	DB	01bH
	DB	074H
	DB	01bH
	DB	073H
	DB	023H
	DB	074H
	DB	01bH
	DB	073H
	DB	01bH
	DB	074H
	DB	023H
	DB	074H
	DB	01bH
	DB	073H
	DB	01bH
	DB	074H
	DB	01bH
	DB	073H
	DB	01bH
	DB	073H
	DB	01bH
	DB	074H
	DB	01bH
	DB	073H
	DB	01bH
	DB	074H
	DB	01bH
	DB	074H
	DB	01bH
	DB	073H
	DB	01bH
	DB	074H
	DB	01bH
	DB	074H
	DB	01bH
	DB	073H
	DB	01bH
	DB	073H
	DB	01bH
	DB	073H
	DB	01bH
	DB	073H
	DB	01bH
	DB	074H
	DB	01bH
	DB	094H
	DB	01bH
	DB	094H
	DB	01bH
	DB	094H
	DB	01bH
	DB	074H
	DB	01bH
	DB	074H
	DB	01bH
	DB	094H
	DB	023H
	DB	074H
	DB	01bH
	DB	074H
	DB	01bH
	DB	074H
	DB	01bH
	DB	094H
	DB	01bH
	DB	094H
	DB	01bH
	DB	094H
	DB	01bH
	DB	074H
	DB	023H
	DB	095H
	DB	01bH
	DB	094H
	DB	01bH
	DB	074H
	DB	01bH
	DB	075H
	DB	01bH
	DB	094H
	DB	01bH
	DB	094H
	DB	01bH
	DB	094H
	DB	01bH
	DB	095H
	DB	01bH
	DB	074H
	DB	01bH
	DB	094H
	DB	01bH
	DB	074H
	DB	01bH
	DB	074H
	DB	01bH
	DB	094H
	DB	01bH
	DB	074H
	DB	01bH
	DB	074H
	DB	01bH
	DB	094H
	DB	01bH
	DB	095H
	DB	01bH
	DB	094H
	DB	01bH
	DB	074H
	DB	01bH
	DB	094H
	DB	01bH
	DB	074H
	DB	01bH
	DB	094H
	DB	01bH
	DB	094H
	DB	01bH
	DB	074H
	DB	01bH
	DB	074H
	DB	01bH
	DB	074H
	DB	01bH
	DB	094H
	DB	01bH
	DB	074H
	DB	01bH
	DB	074H
	DB	01bH
	DB	074H
	DB	013H
	DB	074H
	DB	01bH
	DB	094H
	DB	01bH
	DB	074H
	DB	01bH
	DB	074H
	DB	01bH
	DB	074H
	DB	013H
	DB	074H
	DB	01bH
	DB	074H
	DB	01bH
	DB	074H
	DB	01bH
	DB	074H
	DB	01bH
	DB	073H
	DB	01bH
	DB	073H
	DB	01bH
	DB	053H
	DB	01bH
	DB	053H
	DB	013H
	DB	053H
	DB	01bH
	DB	053H
	DB	01bH
	DB	053H
	DB	01bH
	DB	053H
	DB	013H
	DB	053H
	DB	01bH
	DB	053H
	DB	01bH
	DB	053H
	DB	013H
	DB	053H
	DB	01bH
	DB	053H
	DB	01bH
	DB	053H
	DB	01bH
	DB	033H
	DB	013H
	DB	053H
	DB	01bH
	DB	032H
	DB	01bH
	DB	033H
	DB	013H
	DB	053H
	DB	01bH
	DB	053H
	DB	01bH
	DB	053H
	DB	013H
	DB	053H
	DB	013H
	DB	033H
	DB	01bH
	DB	033H
	DB	01bH
	DB	053H
	DB	013H
	DB	053H
	DB	013H
	DB	074H
	DB	013H
	DB	054H
	DB	01bH
	DB	053H
	DB	013H
	DB	054H
	DB	01bH
	DB	054H
	DB	013H
	DB	053H
	DB	013H
	DB	053H
	DB	013H
	DB	033H
	DB	013H
	DB	054H
	DB	013H
	DB	053H
	DB	013H
	DB	033H
	DB	013H
	DB	033H
	DB	013H
	DB	054H
	DB	013H
	DB	033H
	DB	0bH
	DB	033H
	DB	013H
	DB	033H
	DB	013H
	DB	033H
	DB	013H
	DB	033H
	DB	013H
	DB	033H
	DB	0bH
	DB	033H
	DB	013H
	DB	033H
	DB	0bH
	DB	032H
	DB	0bH
	DB	033H
	DB	013H
	DB	033H
	DB	0bH
	DB	033H
	DB	013H
	DB	033H
	DB	0bH
	DB	033H
	DB	0bH
	DB	033H
	DB	0bH
	DB	033H
	DB	0bH
	DB	013H
	DB	0bH
	DB	033H
	DB	0bH
	DB	012H
	DB	0bH
	DB	012H
	DB	0bH
	DB	013H
	DB	0bH
	DB	012H
	DB	0bH
	DB	013H
	DB	03H
	DB	012H
	DB	0bH
	DB	013H
	DB	0bH
