; Listing generated by Microsoft (R) Optimizing Compiler Version 19.37.32822.0 

	TITLE	C:\TouchGFXProjects\KraftHeinz_DS3600\TouchGFX\build\Debug\obj\image_BatchOn.obj
	.686P
	.XMM
	include listing.inc
	.model	flat

INCLUDELIB MSVCRTD
INCLUDELIB OLDNAMES

PUBLIC	?image_batchon@@3QBEB				; image_batchon
msvcjmc	SEGMENT
__38966392_Config@hpp DB 01H
__C6353669_image_BatchOn@cpp DB 01H
msvcjmc	ENDS
CONST	SEGMENT
?image_batchon@@3QBEB DB 00H				; image_batchon
	DB	00H
	DB	00H
	DB	00H
	DB	00H
	DB	00H
	DB	00H
	DB	00H
	DB	00H
	DB	00H
	DB	00H
	DB	00H
	DB	00H
	DB	00H
	DB	00H
	DB	00H
	DB	00H
	DB	00H
	DB	00H
	DB	00H
	DB	00H
	DB	00H
	DB	00H
	DB	00H
	DB	00H
	DB	00H
	DB	00H
	DB	00H
	DB	00H
	DB	00H
	DB	00H
	DB	00H
	DB	00H
	DB	00H
	DB	00H
	DB	00H
	DB	00H
	DB	00H
	DB	00H
	DB	00H
	DB	00H
	DB	00H
	DB	00H
	DB	00H
	DB	00H
	DB	00H
	DB	00H
	DB	00H
	DB	00H
	DB	00H
	DB	00H
	DB	00H
	DB	00H
	DB	00H
	DB	00H
	DB	00H
	DB	00H
	DB	00H
	DB	00H
	DB	00H
	DB	00H
	DB	00H
	DB	00H
	DB	00H
	DB	00H
	DB	00H
	DB	00H
	DB	00H
	DB	00H
	DB	00H
	DB	00H
	DB	00H
	DB	00H
	DB	00H
	DB	00H
	DB	00H
	DB	00H
	DB	00H
	DB	00H
	DB	00H
	DB	00H
	DB	00H
	DB	00H
	DB	00H
	DB	00H
	DB	00H
	DB	00H
	DB	00H
	DB	00H
	DB	00H
	DB	00H
	DB	00H
	DB	00H
	DB	00H
	DB	00H
	DB	00H
	DB	00H
	DB	00H
	DB	00H
	DB	00H
	DB	00H
	DB	00H
	DB	00H
	DB	00H
	DB	00H
	DB	00H
	DB	00H
	DB	00H
	DB	00H
	DB	00H
	DB	00H
	DB	00H
	DB	00H
	DB	00H
	DB	00H
	DB	00H
	DB	00H
	DB	00H
	DB	00H
	DB	00H
	DB	00H
	DB	00H
	DB	00H
	DB	00H
	DB	00H
	DB	00H
	DB	00H
	DB	00H
	DB	00H
	DB	00H
	DB	00H
	DB	00H
	DB	00H
	DB	00H
	DB	00H
	DB	00H
	DB	00H
	DB	00H
	DB	00H
	DB	00H
	DB	00H
	DB	00H
	DB	00H
	DB	00H
	DB	00H
	DB	00H
	DB	00H
	DB	00H
	DB	00H
	DB	00H
	DB	00H
	DB	00H
	DB	00H
	DB	00H
	DB	00H
	DB	00H
	DB	00H
	DB	00H
	DB	00H
	DB	00H
	DB	00H
	DB	00H
	DB	00H
	DB	00H
	DB	00H
	DB	00H
	DB	00H
	DB	00H
	DB	00H
	DB	00H
	DB	00H
	DB	00H
	DB	00H
	DB	00H
	DB	00H
	DB	00H
	DB	00H
	DB	00H
	DB	00H
	DB	00H
	DB	00H
	DB	00H
	DB	00H
	DB	00H
	DB	00H
	DB	00H
	DB	00H
	DB	00H
	DB	00H
	DB	00H
	DB	00H
	DB	00H
	DB	00H
	DB	00H
	DB	00H
	DB	00H
	DB	00H
	DB	00H
	DB	00H
	DB	00H
	DB	00H
	DB	00H
	DB	00H
	DB	00H
	DB	00H
	DB	00H
	DB	00H
	DB	00H
	DB	00H
	DB	00H
	DB	00H
	DB	00H
	DB	00H
	DB	00H
	DB	00H
	DB	00H
	DB	00H
	DB	00H
	DB	00H
	DB	00H
	DB	00H
	DB	00H
	DB	00H
	DB	00H
	DB	00H
	DB	00H
	DB	00H
	DB	00H
	DB	00H
	DB	00H
	DB	00H
	DB	00H
	DB	00H
	DB	00H
	DB	00H
	DB	00H
	DB	00H
	DB	00H
	DB	00H
	DB	00H
	DB	00H
	DB	00H
	DB	00H
	DB	00H
	DB	00H
	DB	00H
	DB	00H
	DB	00H
	DB	00H
	DB	00H
	DB	00H
	DB	00H
	DB	00H
	DB	00H
	DB	00H
	DB	00H
	DB	00H
	DB	00H
	DB	00H
	DB	00H
	DB	00H
	DB	00H
	DB	00H
	DB	00H
	DB	00H
	DB	00H
	DB	00H
	DB	00H
	DB	00H
	DB	00H
	DB	00H
	DB	00H
	DB	00H
	DB	00H
	DB	00H
	DB	00H
	DB	00H
	DB	00H
	DB	00H
	DB	00H
	DB	00H
	DB	00H
	DB	00H
	DB	00H
	DB	00H
	DB	00H
	DB	00H
	DB	00H
	DB	00H
	DB	00H
	DB	00H
	DB	00H
	DB	00H
	DB	00H
	DB	00H
	DB	00H
	DB	00H
	DB	00H
	DB	00H
	DB	00H
	DB	00H
	DB	00H
	DB	00H
	DB	00H
	DB	00H
	DB	00H
	DB	00H
	DB	00H
	DB	00H
	DB	00H
	DB	00H
	DB	00H
	DB	00H
	DB	00H
	DB	00H
	DB	00H
	DB	00H
	DB	00H
	DB	00H
	DB	00H
	DB	00H
	DB	00H
	DB	00H
	DB	00H
	DB	00H
	DB	00H
	DB	00H
	DB	00H
	DB	00H
	DB	00H
	DB	00H
	DB	00H
	DB	00H
	DB	00H
	DB	00H
	DB	00H
	DB	00H
	DB	00H
	DB	00H
	DB	00H
	DB	00H
	DB	00H
	DB	00H
	DB	00H
	DB	00H
	DB	00H
	DB	00H
	DB	00H
	DB	00H
	DB	00H
	DB	00H
	DB	00H
	DB	00H
	DB	00H
	DB	00H
	DB	00H
	DB	00H
	DB	00H
	DB	00H
	DB	00H
	DB	00H
	DB	00H
	DB	00H
	DB	00H
	DB	00H
	DB	00H
	DB	00H
	DB	00H
	DB	00H
	DB	00H
	DB	00H
	DB	00H
	DB	00H
	DB	00H
	DB	00H
	DB	00H
	DB	00H
	DB	00H
	DB	00H
	DB	00H
	DB	00H
	DB	00H
	DB	00H
	DB	00H
	DB	00H
	DB	00H
	DB	00H
	DB	00H
	DB	00H
	DB	00H
	DB	00H
	DB	00H
	DB	00H
	DB	00H
	DB	00H
	DB	00H
	DB	00H
	DB	00H
	DB	00H
	DB	00H
	DB	00H
	DB	00H
	DB	00H
	DB	00H
	DB	00H
	DB	00H
	DB	00H
	DB	00H
	DB	00H
	DB	00H
	DB	00H
	DB	00H
	DB	00H
	DB	00H
	DB	00H
	DB	00H
	DB	00H
	DB	00H
	DB	00H
	DB	00H
	DB	00H
	DB	00H
	DB	00H
	DB	00H
	DB	00H
	DB	00H
	DB	00H
	DB	00H
	DB	00H
	DB	00H
	DB	00H
	DB	00H
	DB	00H
	DB	00H
	DB	00H
	DB	00H
	DB	00H
	DB	00H
	DB	00H
	DB	00H
	DB	00H
	DB	00H
	DB	00H
	DB	00H
	DB	00H
	DB	00H
	DB	00H
	DB	00H
	DB	00H
	DB	00H
	DB	00H
	DB	00H
	DB	00H
	DB	00H
	DB	00H
	DB	00H
	DB	00H
	DB	00H
	DB	00H
	DB	00H
	DB	00H
	DB	00H
	DB	00H
	DB	00H
	DB	00H
	DB	00H
	DB	00H
	DB	00H
	DB	00H
	DB	00H
	DB	00H
	DB	00H
	DB	00H
	DB	00H
	DB	00H
	DB	00H
	DB	00H
	DB	00H
	DB	00H
	DB	00H
	DB	00H
	DB	00H
	DB	00H
	DB	00H
	DB	00H
	DB	00H
	DB	00H
	DB	00H
	DB	00H
	DB	00H
	DB	00H
	DB	00H
	DB	00H
	DB	00H
	DB	00H
	DB	00H
	DB	00H
	DB	00H
	DB	00H
	DB	00H
	DB	00H
	DB	00H
	DB	00H
	DB	00H
	DB	00H
	DB	00H
	DB	00H
	DB	00H
	DB	00H
	DB	00H
	DB	00H
	DB	00H
	DB	00H
	DB	00H
	DB	00H
	DB	00H
	DB	00H
	DB	00H
	DB	00H
	DB	00H
	DB	00H
	DB	00H
	DB	00H
	DB	00H
	DB	00H
	DB	00H
	DB	00H
	DB	00H
	DB	00H
	DB	00H
	DB	00H
	DB	00H
	DB	00H
	DB	00H
	DB	00H
	DB	00H
	DB	00H
	DB	00H
	DB	00H
	DB	00H
	DB	00H
	DB	00H
	DB	00H
	DB	00H
	DB	00H
	DB	00H
	DB	00H
	DB	00H
	DB	00H
	DB	00H
	DB	00H
	DB	00H
	DB	00H
	DB	00H
	DB	00H
	DB	00H
	DB	00H
	DB	00H
	DB	00H
	DB	00H
	DB	00H
	DB	00H
	DB	00H
	DB	00H
	DB	00H
	DB	00H
	DB	00H
	DB	00H
	DB	00H
	DB	00H
	DB	00H
	DB	00H
	DB	00H
	DB	00H
	DB	00H
	DB	00H
	DB	00H
	DB	00H
	DB	00H
	DB	00H
	DB	00H
	DB	00H
	DB	00H
	DB	00H
	DB	00H
	DB	00H
	DB	00H
	DB	00H
	DB	00H
	DB	00H
	DB	00H
	DB	00H
	DB	00H
	DB	00H
	DB	00H
	DB	00H
	DB	00H
	DB	00H
	DB	00H
	DB	00H
	DB	00H
	DB	00H
	DB	00H
	DB	00H
	DB	00H
	DB	00H
	DB	00H
	DB	00H
	DB	00H
	DB	00H
	DB	00H
	DB	00H
	DB	00H
	DB	00H
	DB	00H
	DB	00H
	DB	00H
	DB	00H
	DB	00H
	DB	00H
	DB	00H
	DB	00H
	DB	00H
	DB	00H
	DB	00H
	DB	00H
	DB	00H
	DB	00H
	DB	00H
	DB	00H
	DB	00H
	DB	00H
	DB	00H
	DB	00H
	DB	00H
	DB	00H
	DB	00H
	DB	00H
	DB	00H
	DB	00H
	DB	00H
	DB	00H
	DB	00H
	DB	00H
	DB	00H
	DB	00H
	DB	00H
	DB	00H
	DB	00H
	DB	00H
	DB	00H
	DB	00H
	DB	00H
	DB	00H
	DB	00H
	DB	00H
	DB	00H
	DB	00H
	DB	00H
	DB	00H
	DB	00H
	DB	00H
	DB	00H
	DB	00H
	DB	00H
	DB	00H
	DB	00H
	DB	00H
	DB	00H
	DB	00H
	DB	00H
	DB	00H
	DB	00H
	DB	00H
	DB	00H
	DB	00H
	DB	00H
	DB	00H
	DB	00H
	DB	00H
	DB	0b8H
	DB	078H
	DB	00H
	DB	030H
	DB	0b8H
	DB	07cH
	DB	00H
	DB	0efH
	DB	0b8H
	DB	078H
	DB	00H
	DB	0ffH
	DB	0b8H
	DB	078H
	DB	00H
	DB	0ffH
	DB	0b8H
	DB	07cH
	DB	00H
	DB	0ffH
	DB	0b8H
	DB	078H
	DB	00H
	DB	0ffH
	DB	0b8H
	DB	078H
	DB	00H
	DB	0ffH
	DB	0b8H
	DB	07cH
	DB	00H
	DB	0ffH
	DB	0b8H
	DB	078H
	DB	00H
	DB	0ffH
	DB	0b8H
	DB	078H
	DB	00H
	DB	0ffH
	DB	0b8H
	DB	07cH
	DB	00H
	DB	0dfH
	DB	0b8H
	DB	074H
	DB	00H
	DB	030H
	DB	00H
	DB	00H
	DB	00H
	DB	00H
	DB	00H
	DB	00H
	DB	00H
	DB	00H
	DB	00H
	DB	00H
	DB	00H
	DB	00H
	DB	00H
	DB	00H
	DB	00H
	DB	00H
	DB	00H
	DB	00H
	DB	00H
	DB	00H
	DB	00H
	DB	00H
	DB	00H
	DB	00H
	DB	00H
	DB	00H
	DB	00H
	DB	00H
	DB	00H
	DB	00H
	DB	00H
	DB	00H
	DB	00H
	DB	00H
	DB	00H
	DB	00H
	DB	00H
	DB	00H
	DB	00H
	DB	00H
	DB	00H
	DB	00H
	DB	00H
	DB	00H
	DB	00H
	DB	00H
	DB	00H
	DB	00H
	DB	00H
	DB	00H
	DB	00H
	DB	00H
	DB	00H
	DB	00H
	DB	00H
	DB	00H
	DB	00H
	DB	00H
	DB	00H
	DB	00H
	DB	00H
	DB	00H
	DB	00H
	DB	00H
	DB	00H
	DB	00H
	DB	00H
	DB	00H
	DB	00H
	DB	00H
	DB	00H
	DB	00H
	DB	00H
	DB	00H
	DB	00H
	DB	00H
	DB	00H
	DB	00H
	DB	00H
	DB	00H
	DB	0b8H
	DB	07cH
	DB	00H
	DB	08eH
	DB	0b8H
	DB	078H
	DB	00H
	DB	0beH
	DB	0c0H
	DB	078H
	DB	00H
	DB	0beH
	DB	0b8H
	DB	078H
	DB	00H
	DB	0beH
	DB	0c0H
	DB	078H
	DB	00H
	DB	0beH
	DB	0b8H
	DB	078H
	DB	00H
	DB	0beH
	DB	0c0H
	DB	078H
	DB	00H
	DB	0beH
	DB	0b8H
	DB	078H
	DB	00H
	DB	0beH
	DB	0c0H
	DB	078H
	DB	00H
	DB	0beH
	DB	0b8H
	DB	078H
	DB	00H
	DB	0beH
	DB	0b8H
	DB	078H
	DB	00H
	DB	0beH
	DB	0b8H
	DB	078H
	DB	00H
	DB	07dH
	DB	00H
	DB	00H
	DB	00H
	DB	00H
	DB	00H
	DB	00H
	DB	00H
	DB	00H
	DB	00H
	DB	00H
	DB	00H
	DB	00H
	DB	00H
	DB	00H
	DB	00H
	DB	00H
	DB	00H
	DB	00H
	DB	00H
	DB	00H
	DB	00H
	DB	00H
	DB	00H
	DB	00H
	DB	00H
	DB	00H
	DB	00H
	DB	00H
	DB	00H
	DB	00H
	DB	00H
	DB	00H
	DB	00H
	DB	00H
	DB	00H
	DB	00H
	DB	00H
	DB	00H
	DB	00H
	DB	00H
	DB	00H
	DB	00H
	DB	00H
	DB	00H
	DB	00H
	DB	00H
	DB	00H
	DB	00H
	DB	00H
	DB	00H
	DB	00H
	DB	00H
	DB	00H
	DB	00H
	DB	00H
	DB	00H
	DB	00H
	DB	00H
	DB	00H
	DB	00H
	DB	00H
	DB	00H
	DB	00H
	DB	00H
	DB	00H
	DB	00H
	DB	00H
	DB	00H
	DB	00H
	DB	00H
	DB	00H
	DB	00H
	DB	00H
	DB	00H
	DB	00H
	DB	00H
	DB	00H
	DB	00H
	DB	00H
	DB	00H
	DB	00H
	DB	00H
	DB	00H
	DB	00H
	DB	00H
	DB	00H
	DB	00H
	DB	00H
	DB	00H
	DB	00H
	DB	00H
	DB	00H
	DB	00H
	DB	00H
	DB	00H
	DB	00H
	DB	00H
	DB	00H
	DB	00H
	DB	00H
	DB	00H
	DB	00H
	DB	00H
	DB	00H
	DB	00H
	DB	00H
	DB	00H
	DB	00H
	DB	00H
	DB	00H
	DB	00H
	DB	00H
	DB	00H
	DB	00H
	DB	00H
	DB	00H
	DB	00H
	DB	00H
	DB	00H
	DB	00H
	DB	00H
	DB	00H
	DB	00H
	DB	00H
	DB	00H
	DB	00H
	DB	00H
	DB	00H
	DB	00H
	DB	00H
	DB	00H
	DB	00H
	DB	00H
	DB	00H
	DB	00H
	DB	00H
	DB	00H
	DB	00H
	DB	00H
	DB	00H
	DB	00H
	DB	00H
	DB	00H
	DB	00H
	DB	00H
	DB	00H
	DB	00H
	DB	00H
	DB	00H
	DB	00H
	DB	00H
	DB	00H
	DB	00H
	DB	00H
	DB	00H
	DB	00H
	DB	00H
	DB	00H
	DB	00H
	DB	00H
	DB	00H
	DB	00H
	DB	00H
	DB	00H
	DB	00H
	DB	00H
	DB	00H
	DB	00H
	DB	00H
	DB	00H
	DB	00H
	DB	00H
	DB	00H
	DB	00H
	DB	00H
	DB	00H
	DB	00H
	DB	00H
	DB	00H
	DB	00H
	DB	00H
	DB	00H
	DB	00H
	DB	00H
	DB	00H
	DB	00H
	DB	00H
	DB	00H
	DB	00H
	DB	00H
	DB	00H
	DB	00H
	DB	00H
	DB	00H
	DB	00H
	DB	00H
	DB	00H
	DB	00H
	DB	00H
	DB	00H
	DB	00H
	DB	00H
	DB	00H
	DB	00H
	DB	0b0H
	DB	070H
	DB	00H
	DB	010H
	DB	0b8H
	DB	078H
	DB	00H
	DB	082H
	DB	0b8H
	DB	07cH
	DB	00H
	DB	09eH
	DB	0b8H
	DB	07cH
	DB	00H
	DB	09eH
	DB	0b8H
	DB	07cH
	DB	00H
	DB	09eH
	DB	0b8H
	DB	07cH
	DB	00H
	DB	09eH
	DB	0b8H
	DB	07cH
	DB	00H
	DB	09eH
	DB	0b8H
	DB	07cH
	DB	00H
	DB	09eH
	DB	0b8H
	DB	07cH
	DB	00H
	DB	09eH
	DB	0b8H
	DB	07cH
	DB	00H
	DB	09eH
	DB	0b8H
	DB	07cH
	DB	00H
	DB	09eH
	DB	0b8H
	DB	07cH
	DB	00H
	DB	09eH
	DB	0b8H
	DB	078H
	DB	00H
	DB	08eH
	DB	0b8H
	DB	078H
	DB	00H
	DB	020H
	DB	00H
	DB	00H
	DB	00H
	DB	00H
	DB	00H
	DB	00H
	DB	00H
	DB	00H
	DB	00H
	DB	00H
	DB	00H
	DB	00H
	DB	00H
	DB	00H
	DB	00H
	DB	00H
	DB	00H
	DB	00H
	DB	00H
	DB	00H
	DB	00H
	DB	00H
	DB	00H
	DB	00H
	DB	00H
	DB	00H
	DB	00H
	DB	00H
	DB	00H
	DB	00H
	DB	00H
	DB	00H
	DB	00H
	DB	00H
	DB	00H
	DB	00H
	DB	00H
	DB	00H
	DB	00H
	DB	00H
	DB	00H
	DB	00H
	DB	00H
	DB	00H
	DB	00H
	DB	00H
	DB	00H
	DB	00H
	DB	00H
	DB	00H
	DB	00H
	DB	00H
	DB	00H
	DB	00H
	DB	00H
	DB	00H
	DB	00H
	DB	00H
	DB	00H
	DB	00H
	DB	00H
	DB	00H
	DB	00H
	DB	00H
	DB	00H
	DB	00H
	DB	00H
	DB	00H
	DB	00H
	DB	00H
	DB	00H
	DB	00H
	DB	0b8H
	DB	07cH
	DB	00H
	DB	0beH
	DB	0b8H
	DB	078H
	DB	00H
	DB	0ffH
	DB	0c0H
	DB	07cH
	DB	00H
	DB	0ffH
	DB	0b8H
	DB	078H
	DB	00H
	DB	0ffH
	DB	0b8H
	DB	07cH
	DB	00H
	DB	0ffH
	DB	0c0H
	DB	07cH
	DB	00H
	DB	0ffH
	DB	0b8H
	DB	078H
	DB	00H
	DB	0ffH
	DB	0b8H
	DB	07cH
	DB	00H
	DB	0ffH
	DB	0c0H
	DB	07cH
	DB	00H
	DB	0ffH
	DB	0b8H
	DB	078H
	DB	00H
	DB	0ffH
	DB	0c0H
	DB	07cH
	DB	00H
	DB	0ffH
	DB	0b8H
	DB	078H
	DB	00H
	DB	0ffH
	DB	0b8H
	DB	07cH
	DB	00H
	DB	0ffH
	DB	0b8H
	DB	078H
	DB	00H
	DB	0beH
	DB	00H
	DB	00H
	DB	00H
	DB	00H
	DB	00H
	DB	00H
	DB	00H
	DB	00H
	DB	00H
	DB	00H
	DB	00H
	DB	00H
	DB	00H
	DB	00H
	DB	00H
	DB	00H
	DB	00H
	DB	00H
	DB	00H
	DB	00H
	DB	00H
	DB	00H
	DB	00H
	DB	00H
	DB	00H
	DB	00H
	DB	00H
	DB	00H
	DB	00H
	DB	00H
	DB	00H
	DB	00H
	DB	00H
	DB	00H
	DB	00H
	DB	00H
	DB	00H
	DB	00H
	DB	00H
	DB	00H
	DB	00H
	DB	00H
	DB	00H
	DB	00H
	DB	00H
	DB	00H
	DB	00H
	DB	00H
	DB	00H
	DB	00H
	DB	00H
	DB	00H
	DB	00H
	DB	00H
	DB	00H
	DB	00H
	DB	00H
	DB	00H
	DB	00H
	DB	00H
	DB	00H
	DB	00H
	DB	00H
	DB	00H
	DB	00H
	DB	00H
	DB	00H
	DB	00H
	DB	00H
	DB	00H
	DB	00H
	DB	00H
	DB	0c0H
	DB	07cH
	DB	00H
	DB	020H
	DB	0c0H
	DB	07cH
	DB	00H
	DB	020H
	DB	0c0H
	DB	07cH
	DB	00H
	DB	020H
	DB	0c0H
	DB	07cH
	DB	00H
	DB	020H
	DB	0c0H
	DB	07cH
	DB	00H
	DB	020H
	DB	0c0H
	DB	07cH
	DB	00H
	DB	020H
	DB	0c0H
	DB	07cH
	DB	00H
	DB	020H
	DB	0c0H
	DB	07cH
	DB	00H
	DB	020H
	DB	0c0H
	DB	07cH
	DB	00H
	DB	020H
	DB	0c0H
	DB	07cH
	DB	00H
	DB	020H
	DB	0c0H
	DB	07cH
	DB	00H
	DB	020H
	DB	0c0H
	DB	07cH
	DB	00H
	DB	020H
	DB	0c0H
	DB	07cH
	DB	00H
	DB	020H
	DB	0c0H
	DB	07cH
	DB	00H
	DB	020H
	DB	00H
	DB	00H
	DB	00H
	DB	00H
	DB	00H
	DB	00H
	DB	00H
	DB	00H
	DB	00H
	DB	00H
	DB	00H
	DB	00H
	DB	00H
	DB	00H
	DB	00H
	DB	00H
	DB	00H
	DB	00H
	DB	00H
	DB	00H
	DB	00H
	DB	00H
	DB	00H
	DB	00H
	DB	00H
	DB	00H
	DB	00H
	DB	00H
	DB	00H
	DB	00H
	DB	00H
	DB	00H
	DB	00H
	DB	00H
	DB	00H
	DB	00H
	DB	00H
	DB	00H
	DB	00H
	DB	00H
	DB	00H
	DB	00H
	DB	00H
	DB	00H
	DB	00H
	DB	00H
	DB	00H
	DB	00H
	DB	00H
	DB	00H
	DB	00H
	DB	00H
	DB	00H
	DB	00H
	DB	00H
	DB	00H
	DB	00H
	DB	00H
	DB	00H
	DB	00H
	DB	00H
	DB	00H
	DB	00H
	DB	00H
	DB	00H
	DB	00H
	DB	00H
	DB	00H
	DB	00H
	DB	00H
	DB	00H
	DB	00H
	DB	0b0H
	DB	070H
	DB	00H
	DB	010H
	DB	0b8H
	DB	080H
	DB	00H
	DB	020H
	DB	0b8H
	DB	07cH
	DB	00H
	DB	020H
	DB	0b8H
	DB	080H
	DB	00H
	DB	020H
	DB	0b8H
	DB	07cH
	DB	00H
	DB	020H
	DB	0b8H
	DB	080H
	DB	00H
	DB	020H
	DB	0b8H
	DB	07cH
	DB	00H
	DB	020H
	DB	0b8H
	DB	07cH
	DB	00H
	DB	020H
	DB	0b8H
	DB	080H
	DB	00H
	DB	020H
	DB	0b8H
	DB	080H
	DB	00H
	DB	020H
	DB	0b8H
	DB	07cH
	DB	00H
	DB	020H
	DB	0b8H
	DB	080H
	DB	00H
	DB	020H
	DB	0b8H
	DB	080H
	DB	00H
	DB	020H
	DB	0b0H
	DB	070H
	DB	00H
	DB	010H
	DB	00H
	DB	00H
	DB	00H
	DB	00H
	DB	00H
	DB	00H
	DB	00H
	DB	00H
	DB	00H
	DB	00H
	DB	00H
	DB	00H
	DB	00H
	DB	00H
	DB	00H
	DB	00H
	DB	00H
	DB	00H
	DB	00H
	DB	00H
	DB	00H
	DB	00H
	DB	00H
	DB	00H
	DB	00H
	DB	00H
	DB	00H
	DB	00H
	DB	00H
	DB	00H
	DB	00H
	DB	00H
	DB	00H
	DB	00H
	DB	00H
	DB	00H
	DB	00H
	DB	00H
	DB	00H
	DB	00H
	DB	00H
	DB	00H
	DB	00H
	DB	00H
	DB	00H
	DB	00H
	DB	00H
	DB	00H
	DB	00H
	DB	00H
	DB	00H
	DB	00H
	DB	00H
	DB	00H
	DB	00H
	DB	00H
	DB	00H
	DB	00H
	DB	00H
	DB	00H
	DB	00H
	DB	00H
	DB	00H
	DB	00H
	DB	00H
	DB	00H
	DB	00H
	DB	00H
	DB	0b8H
	DB	078H
	DB	00H
	DB	051H
	DB	0b8H
	DB	07cH
	DB	00H
	DB	0efH
	DB	0b8H
	DB	078H
	DB	00H
	DB	0ffH
	DB	0b8H
	DB	078H
	DB	00H
	DB	0ffH
	DB	0b8H
	DB	078H
	DB	00H
	DB	0ffH
	DB	0b8H
	DB	07cH
	DB	00H
	DB	0ffH
	DB	0b8H
	DB	078H
	DB	00H
	DB	0ffH
	DB	0b8H
	DB	078H
	DB	00H
	DB	0ffH
	DB	0b8H
	DB	07cH
	DB	00H
	DB	0ffH
	DB	0b8H
	DB	078H
	DB	00H
	DB	0ffH
	DB	0b8H
	DB	078H
	DB	00H
	DB	0ffH
	DB	0b8H
	DB	078H
	DB	00H
	DB	0ffH
	DB	0b8H
	DB	078H
	DB	00H
	DB	0ffH
	DB	0b8H
	DB	078H
	DB	00H
	DB	0ffH
	DB	0b8H
	DB	078H
	DB	00H
	DB	0dfH
	DB	0b8H
	DB	078H
	DB	00H
	DB	061H
	DB	00H
	DB	00H
	DB	00H
	DB	00H
	DB	00H
	DB	00H
	DB	00H
	DB	00H
	DB	00H
	DB	00H
	DB	00H
	DB	00H
	DB	00H
	DB	00H
	DB	00H
	DB	00H
	DB	00H
	DB	00H
	DB	00H
	DB	00H
	DB	00H
	DB	00H
	DB	00H
	DB	00H
	DB	00H
	DB	00H
	DB	00H
	DB	00H
	DB	00H
	DB	00H
	DB	00H
	DB	00H
	DB	00H
	DB	00H
	DB	00H
	DB	00H
	DB	00H
	DB	00H
	DB	00H
	DB	00H
	DB	00H
	DB	00H
	DB	00H
	DB	00H
	DB	00H
	DB	00H
	DB	00H
	DB	00H
	DB	00H
	DB	00H
	DB	00H
	DB	00H
	DB	00H
	DB	00H
	DB	00H
	DB	00H
	DB	00H
	DB	00H
	DB	00H
	DB	00H
	DB	00H
	DB	00H
	DB	00H
	DB	00H
	DB	0b8H
	DB	078H
	DB	00H
	DB	0dfH
	DB	0b8H
	DB	078H
	DB	00H
	DB	0ffH
	DB	0b8H
	DB	07cH
	DB	00H
	DB	0ffH
	DB	0b8H
	DB	07cH
	DB	00H
	DB	0ffH
	DB	0b8H
	DB	07cH
	DB	00H
	DB	0ffH
	DB	0b8H
	DB	078H
	DB	00H
	DB	0ffH
	DB	0b8H
	DB	07cH
	DB	00H
	DB	0ffH
	DB	0b8H
	DB	07cH
	DB	00H
	DB	0ffH
	DB	0b8H
	DB	078H
	DB	00H
	DB	0ffH
	DB	0b8H
	DB	07cH
	DB	00H
	DB	0ffH
	DB	0b8H
	DB	07cH
	DB	00H
	DB	0ffH
	DB	0b8H
	DB	07cH
	DB	00H
	DB	0ffH
	DB	0b8H
	DB	07cH
	DB	00H
	DB	0ffH
	DB	0b8H
	DB	078H
	DB	00H
	DB	0ffH
	DB	0b8H
	DB	07cH
	DB	00H
	DB	0ffH
	DB	0b8H
	DB	07cH
	DB	00H
	DB	0efH
	DB	00H
	DB	00H
	DB	00H
	DB	00H
	DB	00H
	DB	00H
	DB	00H
	DB	00H
	DB	00H
	DB	00H
	DB	00H
	DB	00H
	DB	00H
	DB	00H
	DB	00H
	DB	00H
	DB	00H
	DB	00H
	DB	00H
	DB	00H
	DB	00H
	DB	00H
	DB	00H
	DB	00H
	DB	00H
	DB	00H
	DB	00H
	DB	00H
	DB	00H
	DB	00H
	DB	00H
	DB	00H
	DB	00H
	DB	00H
	DB	00H
	DB	00H
	DB	00H
	DB	00H
	DB	00H
	DB	00H
	DB	00H
	DB	00H
	DB	00H
	DB	00H
	DB	00H
	DB	00H
	DB	00H
	DB	00H
	DB	00H
	DB	00H
	DB	00H
	DB	00H
	DB	00H
	DB	00H
	DB	00H
	DB	00H
	DB	00H
	DB	00H
	DB	00H
	DB	00H
	DB	00H
	DB	00H
	DB	00H
	DB	00H
	DB	0b8H
	DB	07cH
	DB	00H
	DB	0ffH
	DB	0b8H
	DB	078H
	DB	00H
	DB	0ffH
	DB	0c0H
	DB	07cH
	DB	00H
	DB	0ffH
	DB	0b8H
	DB	078H
	DB	00H
	DB	0ffH
	DB	0b8H
	DB	078H
	DB	00H
	DB	0ffH
	DB	0c0H
	DB	07cH
	DB	00H
	DB	0ffH
	DB	0b8H
	DB	078H
	DB	00H
	DB	0ffH
	DB	0b8H
	DB	07cH
	DB	00H
	DB	0ffH
	DB	0b8H
	DB	078H
	DB	00H
	DB	0ffH
	DB	0c0H
	DB	078H
	DB	00H
	DB	0ffH
	DB	0b8H
	DB	07cH
	DB	00H
	DB	0ffH
	DB	0b8H
	DB	078H
	DB	00H
	DB	0ffH
	DB	0c0H
	DB	078H
	DB	00H
	DB	0ffH
	DB	0b8H
	DB	07cH
	DB	00H
	DB	0ffH
	DB	0b8H
	DB	078H
	DB	00H
	DB	0ffH
	DB	0c0H
	DB	078H
	DB	00H
	DB	0ffH
	DB	00H
	DB	00H
	DB	00H
	DB	00H
	DB	00H
	DB	00H
	DB	00H
	DB	00H
	DB	00H
	DB	00H
	DB	00H
	DB	00H
	DB	00H
	DB	00H
	DB	00H
	DB	00H
	DB	00H
	DB	00H
	DB	00H
	DB	00H
	DB	00H
	DB	00H
	DB	00H
	DB	00H
	DB	00H
	DB	00H
	DB	00H
	DB	00H
	DB	00H
	DB	00H
	DB	00H
	DB	00H
	DB	00H
	DB	00H
	DB	00H
	DB	00H
	DB	00H
	DB	00H
	DB	00H
	DB	00H
	DB	00H
	DB	00H
	DB	00H
	DB	00H
	DB	00H
	DB	00H
	DB	00H
	DB	00H
	DB	00H
	DB	00H
	DB	00H
	DB	00H
	DB	00H
	DB	00H
	DB	00H
	DB	00H
	DB	00H
	DB	00H
	DB	00H
	DB	00H
	DB	00H
	DB	00H
	DB	00H
	DB	00H
	DB	0b8H
	DB	078H
	DB	00H
	DB	0ffH
	DB	0b8H
	DB	07cH
	DB	00H
	DB	0ffH
	DB	0c0H
	DB	078H
	DB	00H
	DB	0ffH
	DB	0b8H
	DB	07cH
	DB	00H
	DB	0ffH
	DB	0b8H
	DB	078H
	DB	00H
	DB	0ffH
	DB	0b8H
	DB	07cH
	DB	00H
	DB	0ffH
	DB	0c0H
	DB	078H
	DB	00H
	DB	0ffH
	DB	0b8H
	DB	07cH
	DB	00H
	DB	0ffH
	DB	0b8H
	DB	07cH
	DB	00H
	DB	0ffH
	DB	0b8H
	DB	078H
	DB	00H
	DB	0ffH
	DB	0b8H
	DB	078H
	DB	00H
	DB	0ffH
	DB	0b8H
	DB	07cH
	DB	00H
	DB	0ffH
	DB	0c0H
	DB	07cH
	DB	00H
	DB	0ffH
	DB	0b8H
	DB	078H
	DB	00H
	DB	0ffH
	DB	0b8H
	DB	07cH
	DB	00H
	DB	0ffH
	DB	0b8H
	DB	07cH
	DB	00H
	DB	0ffH
	DB	00H
	DB	00H
	DB	00H
	DB	00H
	DB	00H
	DB	00H
	DB	00H
	DB	00H
	DB	00H
	DB	00H
	DB	00H
	DB	00H
	DB	00H
	DB	00H
	DB	00H
	DB	00H
	DB	00H
	DB	00H
	DB	00H
	DB	00H
	DB	00H
	DB	00H
	DB	00H
	DB	00H
	DB	00H
	DB	00H
	DB	00H
	DB	00H
	DB	00H
	DB	00H
	DB	00H
	DB	00H
	DB	00H
	DB	00H
	DB	00H
	DB	00H
	DB	00H
	DB	00H
	DB	00H
	DB	00H
	DB	00H
	DB	00H
	DB	00H
	DB	00H
	DB	00H
	DB	00H
	DB	00H
	DB	00H
	DB	00H
	DB	00H
	DB	00H
	DB	00H
	DB	00H
	DB	00H
	DB	00H
	DB	00H
	DB	00H
	DB	00H
	DB	00H
	DB	00H
	DB	00H
	DB	00H
	DB	00H
	DB	00H
	DB	0b8H
	DB	078H
	DB	00H
	DB	0ffH
	DB	0b8H
	DB	07cH
	DB	00H
	DB	0ffH
	DB	0b8H
	DB	07cH
	DB	00H
	DB	0ffH
	DB	0b8H
	DB	078H
	DB	00H
	DB	0ffH
	DB	0b8H
	DB	07cH
	DB	00H
	DB	0ffH
	DB	0b8H
	DB	078H
	DB	00H
	DB	0ffH
	DB	0c0H
	DB	07cH
	DB	00H
	DB	0ffH
	DB	0b8H
	DB	078H
	DB	00H
	DB	0ffH
	DB	0b8H
	DB	07cH
	DB	00H
	DB	0ffH
	DB	0c0H
	DB	07cH
	DB	00H
	DB	0ffH
	DB	0b8H
	DB	078H
	DB	00H
	DB	0ffH
	DB	0b8H
	DB	07cH
	DB	00H
	DB	0ffH
	DB	0b8H
	DB	078H
	DB	00H
	DB	0ffH
	DB	0b8H
	DB	078H
	DB	00H
	DB	0ffH
	DB	0c0H
	DB	07cH
	DB	00H
	DB	0ffH
	DB	0b8H
	DB	078H
	DB	00H
	DB	0ffH
	DB	00H
	DB	00H
	DB	00H
	DB	00H
	DB	00H
	DB	00H
	DB	00H
	DB	00H
	DB	00H
	DB	00H
	DB	00H
	DB	00H
	DB	00H
	DB	00H
	DB	00H
	DB	00H
	DB	00H
	DB	00H
	DB	00H
	DB	00H
	DB	00H
	DB	00H
	DB	00H
	DB	00H
	DB	00H
	DB	00H
	DB	00H
	DB	00H
	DB	00H
	DB	00H
	DB	00H
	DB	00H
	DB	00H
	DB	00H
	DB	00H
	DB	00H
	DB	00H
	DB	00H
	DB	00H
	DB	00H
	DB	00H
	DB	00H
	DB	00H
	DB	00H
	DB	00H
	DB	00H
	DB	00H
	DB	00H
	DB	00H
	DB	00H
	DB	00H
	DB	00H
	DB	00H
	DB	00H
	DB	00H
	DB	00H
	DB	00H
	DB	00H
	DB	00H
	DB	00H
	DB	00H
	DB	00H
	DB	00H
	DB	00H
	DB	0b8H
	DB	07cH
	DB	00H
	DB	0ffH
	DB	0c0H
	DB	078H
	DB	00H
	DB	0ffH
	DB	0b8H
	DB	078H
	DB	00H
	DB	0ffH
	DB	0c0H
	DB	07cH
	DB	00H
	DB	0ffH
	DB	0b8H
	DB	078H
	DB	00H
	DB	0ffH
	DB	0b8H
	DB	07cH
	DB	00H
	DB	0ffH
	DB	0b8H
	DB	078H
	DB	00H
	DB	0ffH
	DB	0b8H
	DB	078H
	DB	00H
	DB	0ffH
	DB	0c0H
	DB	078H
	DB	00H
	DB	0ffH
	DB	0b8H
	DB	07cH
	DB	00H
	DB	0ffH
	DB	0c0H
	DB	078H
	DB	00H
	DB	0ffH
	DB	0b8H
	DB	07cH
	DB	00H
	DB	0ffH
	DB	0b8H
	DB	07cH
	DB	00H
	DB	0ffH
	DB	0c0H
	DB	078H
	DB	00H
	DB	0ffH
	DB	0b8H
	DB	07cH
	DB	00H
	DB	0ffH
	DB	0b8H
	DB	078H
	DB	00H
	DB	0ffH
	DB	00H
	DB	00H
	DB	00H
	DB	00H
	DB	00H
	DB	00H
	DB	00H
	DB	00H
	DB	00H
	DB	00H
	DB	00H
	DB	00H
	DB	00H
	DB	00H
	DB	00H
	DB	00H
	DB	00H
	DB	00H
	DB	00H
	DB	00H
	DB	00H
	DB	00H
	DB	00H
	DB	00H
	DB	00H
	DB	00H
	DB	00H
	DB	00H
	DB	00H
	DB	00H
	DB	00H
	DB	00H
	DB	00H
	DB	00H
	DB	00H
	DB	00H
	DB	00H
	DB	00H
	DB	00H
	DB	00H
	DB	00H
	DB	00H
	DB	00H
	DB	00H
	DB	00H
	DB	00H
	DB	00H
	DB	00H
	DB	00H
	DB	00H
	DB	00H
	DB	00H
	DB	00H
	DB	00H
	DB	00H
	DB	00H
	DB	00H
	DB	00H
	DB	00H
	DB	00H
	DB	00H
	DB	00H
	DB	00H
	DB	00H
	DB	0b8H
	DB	078H
	DB	00H
	DB	0ffH
	DB	0b8H
	DB	07cH
	DB	00H
	DB	0ffH
	DB	0c0H
	DB	07cH
	DB	00H
	DB	0ffH
	DB	0b8H
	DB	078H
	DB	00H
	DB	0ffH
	DB	0c0H
	DB	07cH
	DB	00H
	DB	0ffH
	DB	0b8H
	DB	07cH
	DB	00H
	DB	0ffH
	DB	0b8H
	DB	078H
	DB	00H
	DB	0ffH
	DB	0c0H
	DB	07cH
	DB	00H
	DB	0ffH
	DB	0b8H
	DB	07cH
	DB	00H
	DB	0ffH
	DB	0b8H
	DB	078H
	DB	00H
	DB	0ffH
	DB	0b8H
	DB	078H
	DB	00H
	DB	0ffH
	DB	0c0H
	DB	07cH
	DB	00H
	DB	0ffH
	DB	0b8H
	DB	078H
	DB	00H
	DB	0ffH
	DB	0b8H
	DB	07cH
	DB	00H
	DB	0ffH
	DB	0b8H
	DB	078H
	DB	00H
	DB	0ffH
	DB	0b8H
	DB	07cH
	DB	00H
	DB	0ffH
	DB	00H
	DB	00H
	DB	00H
	DB	00H
	DB	00H
	DB	00H
	DB	00H
	DB	00H
	DB	00H
	DB	00H
	DB	00H
	DB	00H
	DB	00H
	DB	00H
	DB	00H
	DB	00H
	DB	00H
	DB	00H
	DB	00H
	DB	00H
	DB	00H
	DB	00H
	DB	00H
	DB	00H
	DB	00H
	DB	00H
	DB	00H
	DB	00H
	DB	00H
	DB	00H
	DB	00H
	DB	00H
	DB	00H
	DB	00H
	DB	00H
	DB	00H
	DB	00H
	DB	00H
	DB	00H
	DB	00H
	DB	00H
	DB	00H
	DB	00H
	DB	00H
	DB	00H
	DB	00H
	DB	00H
	DB	00H
	DB	00H
	DB	00H
	DB	00H
	DB	00H
	DB	00H
	DB	00H
	DB	00H
	DB	00H
	DB	00H
	DB	00H
	DB	00H
	DB	00H
	DB	00H
	DB	00H
	DB	00H
	DB	00H
	DB	0b8H
	DB	078H
	DB	00H
	DB	0ffH
	DB	0b8H
	DB	07cH
	DB	00H
	DB	0ffH
	DB	0b8H
	DB	078H
	DB	00H
	DB	0ffH
	DB	0b8H
	DB	078H
	DB	00H
	DB	0ffH
	DB	0b8H
	DB	07cH
	DB	00H
	DB	0ffH
	DB	0c0H
	DB	078H
	DB	00H
	DB	0ffH
	DB	0b8H
	DB	078H
	DB	00H
	DB	0ffH
	DB	0b8H
	DB	07cH
	DB	00H
	DB	0ffH
	DB	0b8H
	DB	07cH
	DB	00H
	DB	0ffH
	DB	0b8H
	DB	078H
	DB	00H
	DB	0ffH
	DB	0b8H
	DB	07cH
	DB	00H
	DB	0ffH
	DB	0b8H
	DB	078H
	DB	00H
	DB	0ffH
	DB	0c0H
	DB	078H
	DB	00H
	DB	0ffH
	DB	0b8H
	DB	07cH
	DB	00H
	DB	0ffH
	DB	0b8H
	DB	078H
	DB	00H
	DB	0ffH
	DB	0c0H
	DB	07cH
	DB	00H
	DB	0ffH
	DB	00H
	DB	00H
	DB	00H
	DB	00H
	DB	00H
	DB	00H
	DB	00H
	DB	00H
	DB	00H
	DB	00H
	DB	00H
	DB	00H
	DB	00H
	DB	00H
	DB	00H
	DB	00H
	DB	00H
	DB	00H
	DB	00H
	DB	00H
	DB	00H
	DB	00H
	DB	00H
	DB	00H
	DB	00H
	DB	00H
	DB	00H
	DB	00H
	DB	00H
	DB	00H
	DB	00H
	DB	00H
	DB	00H
	DB	00H
	DB	00H
	DB	00H
	DB	00H
	DB	00H
	DB	00H
	DB	00H
	DB	00H
	DB	00H
	DB	00H
	DB	00H
	DB	00H
	DB	00H
	DB	00H
	DB	00H
	DB	00H
	DB	00H
	DB	00H
	DB	00H
	DB	00H
	DB	00H
	DB	00H
	DB	00H
	DB	00H
	DB	00H
	DB	00H
	DB	00H
	DB	00H
	DB	00H
	DB	00H
	DB	00H
	DB	0b8H
	DB	07cH
	DB	00H
	DB	0ffH
	DB	0c0H
	DB	078H
	DB	00H
	DB	0ffH
	DB	0b8H
	DB	07cH
	DB	00H
	DB	0ffH
	DB	0b8H
	DB	078H
	DB	00H
	DB	0ffH
	DB	0b8H
	DB	07cH
	DB	00H
	DB	0ffH
	DB	0b8H
	DB	07cH
	DB	00H
	DB	0ffH
	DB	0c0H
	DB	078H
	DB	00H
	DB	0ffH
	DB	0b8H
	DB	078H
	DB	00H
	DB	0ffH
	DB	0c0H
	DB	07cH
	DB	00H
	DB	0ffH
	DB	0b8H
	DB	078H
	DB	00H
	DB	0ffH
	DB	0b8H
	DB	07cH
	DB	00H
	DB	0ffH
	DB	0b8H
	DB	07cH
	DB	00H
	DB	0ffH
	DB	0b8H
	DB	078H
	DB	00H
	DB	0ffH
	DB	0c0H
	DB	07cH
	DB	00H
	DB	0ffH
	DB	0b8H
	DB	078H
	DB	00H
	DB	0ffH
	DB	0b8H
	DB	078H
	DB	00H
	DB	0ffH
	DB	00H
	DB	00H
	DB	00H
	DB	00H
	DB	00H
	DB	00H
	DB	00H
	DB	00H
	DB	00H
	DB	00H
	DB	00H
	DB	00H
	DB	00H
	DB	00H
	DB	00H
	DB	00H
	DB	00H
	DB	00H
	DB	00H
	DB	00H
	DB	00H
	DB	00H
	DB	00H
	DB	00H
	DB	00H
	DB	00H
	DB	00H
	DB	00H
	DB	00H
	DB	00H
	DB	00H
	DB	00H
	DB	00H
	DB	00H
	DB	00H
	DB	00H
	DB	00H
	DB	00H
	DB	00H
	DB	00H
	DB	00H
	DB	00H
	DB	00H
	DB	00H
	DB	00H
	DB	00H
	DB	00H
	DB	00H
	DB	00H
	DB	00H
	DB	00H
	DB	00H
	DB	00H
	DB	00H
	DB	00H
	DB	00H
	DB	00H
	DB	00H
	DB	00H
	DB	00H
	DB	00H
	DB	00H
	DB	00H
	DB	00H
	DB	0b8H
	DB	078H
	DB	00H
	DB	0ffH
	DB	0b8H
	DB	07cH
	DB	00H
	DB	0ffH
	DB	0c0H
	DB	07cH
	DB	00H
	DB	0ffH
	DB	0b8H
	DB	078H
	DB	00H
	DB	0ffH
	DB	0b8H
	DB	078H
	DB	00H
	DB	0ffH
	DB	0c0H
	DB	07cH
	DB	00H
	DB	0ffH
	DB	0b8H
	DB	07cH
	DB	00H
	DB	0ffH
	DB	0b8H
	DB	078H
	DB	00H
	DB	0ffH
	DB	0b8H
	DB	078H
	DB	00H
	DB	0ffH
	DB	0c0H
	DB	07cH
	DB	00H
	DB	0ffH
	DB	0c0H
	DB	078H
	DB	00H
	DB	0ffH
	DB	0b8H
	DB	07cH
	DB	00H
	DB	0ffH
	DB	0b8H
	DB	07cH
	DB	00H
	DB	0ffH
	DB	0b8H
	DB	078H
	DB	00H
	DB	0ffH
	DB	0c0H
	DB	07cH
	DB	00H
	DB	0ffH
	DB	0b8H
	DB	07cH
	DB	00H
	DB	0ffH
	DB	00H
	DB	00H
	DB	00H
	DB	00H
	DB	00H
	DB	00H
	DB	00H
	DB	00H
	DB	00H
	DB	00H
	DB	00H
	DB	00H
	DB	00H
	DB	00H
	DB	00H
	DB	00H
	DB	00H
	DB	00H
	DB	00H
	DB	00H
	DB	00H
	DB	00H
	DB	00H
	DB	00H
	DB	00H
	DB	00H
	DB	00H
	DB	00H
	DB	00H
	DB	00H
	DB	00H
	DB	00H
	DB	00H
	DB	00H
	DB	00H
	DB	00H
	DB	00H
	DB	00H
	DB	00H
	DB	00H
	DB	00H
	DB	00H
	DB	00H
	DB	00H
	DB	00H
	DB	00H
	DB	00H
	DB	00H
	DB	00H
	DB	00H
	DB	00H
	DB	00H
	DB	00H
	DB	00H
	DB	00H
	DB	00H
	DB	00H
	DB	00H
	DB	00H
	DB	00H
	DB	00H
	DB	00H
	DB	00H
	DB	00H
	DB	0b8H
	DB	078H
	DB	00H
	DB	0ffH
	DB	0b8H
	DB	07cH
	DB	00H
	DB	0ffH
	DB	0c0H
	DB	078H
	DB	00H
	DB	0ffH
	DB	0b8H
	DB	07cH
	DB	00H
	DB	0ffH
	DB	0b8H
	DB	078H
	DB	00H
	DB	0ffH
	DB	0b8H
	DB	078H
	DB	00H
	DB	0ffH
	DB	0b8H
	DB	07cH
	DB	00H
	DB	0ffH
	DB	0b8H
	DB	07cH
	DB	00H
	DB	0ffH
	DB	0b8H
	DB	078H
	DB	00H
	DB	0ffH
	DB	0b8H
	DB	07cH
	DB	00H
	DB	0ffH
	DB	0b8H
	DB	078H
	DB	00H
	DB	0ffH
	DB	0c0H
	DB	078H
	DB	00H
	DB	0ffH
	DB	0b8H
	DB	07cH
	DB	00H
	DB	0ffH
	DB	0b8H
	DB	078H
	DB	00H
	DB	0ffH
	DB	0b8H
	DB	078H
	DB	00H
	DB	0ffH
	DB	0b8H
	DB	07cH
	DB	00H
	DB	0ffH
	DB	00H
	DB	00H
	DB	00H
	DB	00H
	DB	00H
	DB	00H
	DB	00H
	DB	00H
	DB	00H
	DB	00H
	DB	00H
	DB	00H
	DB	00H
	DB	00H
	DB	00H
	DB	00H
	DB	00H
	DB	00H
	DB	00H
	DB	00H
	DB	00H
	DB	00H
	DB	00H
	DB	00H
	DB	00H
	DB	00H
	DB	00H
	DB	00H
	DB	00H
	DB	00H
	DB	00H
	DB	00H
	DB	00H
	DB	00H
	DB	00H
	DB	00H
	DB	00H
	DB	00H
	DB	00H
	DB	00H
	DB	00H
	DB	00H
	DB	00H
	DB	00H
	DB	00H
	DB	00H
	DB	00H
	DB	00H
	DB	00H
	DB	00H
	DB	00H
	DB	00H
	DB	00H
	DB	00H
	DB	00H
	DB	00H
	DB	00H
	DB	00H
	DB	00H
	DB	00H
	DB	00H
	DB	00H
	DB	00H
	DB	00H
	DB	0b8H
	DB	07cH
	DB	00H
	DB	0ffH
	DB	0b8H
	DB	078H
	DB	00H
	DB	0ffH
	DB	0b8H
	DB	078H
	DB	00H
	DB	0ffH
	DB	0c0H
	DB	07cH
	DB	00H
	DB	0ffH
	DB	0b8H
	DB	07cH
	DB	00H
	DB	0ffH
	DB	0b8H
	DB	078H
	DB	00H
	DB	0ffH
	DB	0c0H
	DB	078H
	DB	00H
	DB	0ffH
	DB	0c0H
	DB	07cH
	DB	00H
	DB	0ffH
	DB	0b8H
	DB	07cH
	DB	00H
	DB	0ffH
	DB	0b8H
	DB	078H
	DB	00H
	DB	0ffH
	DB	0b8H
	DB	07cH
	DB	00H
	DB	0ffH
	DB	0b8H
	DB	078H
	DB	00H
	DB	0ffH
	DB	0c0H
	DB	07cH
	DB	00H
	DB	0ffH
	DB	0b8H
	DB	07cH
	DB	00H
	DB	0ffH
	DB	0b8H
	DB	078H
	DB	00H
	DB	0ffH
	DB	0c0H
	DB	078H
	DB	00H
	DB	0ffH
	DB	00H
	DB	00H
	DB	00H
	DB	00H
	DB	00H
	DB	00H
	DB	00H
	DB	00H
	DB	00H
	DB	00H
	DB	00H
	DB	00H
	DB	00H
	DB	00H
	DB	00H
	DB	00H
	DB	00H
	DB	00H
	DB	00H
	DB	00H
	DB	00H
	DB	00H
	DB	00H
	DB	00H
	DB	00H
	DB	00H
	DB	00H
	DB	00H
	DB	00H
	DB	00H
	DB	00H
	DB	00H
	DB	00H
	DB	00H
	DB	00H
	DB	00H
	DB	00H
	DB	00H
	DB	00H
	DB	00H
	DB	00H
	DB	00H
	DB	00H
	DB	00H
	DB	00H
	DB	00H
	DB	00H
	DB	00H
	DB	00H
	DB	00H
	DB	00H
	DB	00H
	DB	00H
	DB	00H
	DB	00H
	DB	00H
	DB	00H
	DB	00H
	DB	00H
	DB	00H
	DB	00H
	DB	00H
	DB	00H
	DB	00H
	DB	0c0H
	DB	07cH
	DB	00H
	DB	0ffH
	DB	0b8H
	DB	078H
	DB	00H
	DB	0ffH
	DB	0b8H
	DB	07cH
	DB	00H
	DB	0ffH
	DB	0c0H
	DB	078H
	DB	00H
	DB	0ffH
	DB	0b8H
	DB	07cH
	DB	00H
	DB	0ffH
	DB	0b8H
	DB	07cH
	DB	00H
	DB	0ffH
	DB	0b8H
	DB	078H
	DB	00H
	DB	0ffH
	DB	0b8H
	DB	078H
	DB	00H
	DB	0ffH
	DB	0c0H
	DB	07cH
	DB	00H
	DB	0ffH
	DB	0b8H
	DB	078H
	DB	00H
	DB	0ffH
	DB	0b8H
	DB	07cH
	DB	00H
	DB	0ffH
	DB	0b8H
	DB	078H
	DB	00H
	DB	0ffH
	DB	0c0H
	DB	078H
	DB	00H
	DB	0ffH
	DB	0b8H
	DB	07cH
	DB	00H
	DB	0ffH
	DB	0b8H
	DB	07cH
	DB	00H
	DB	0ffH
	DB	0b8H
	DB	078H
	DB	00H
	DB	0ffH
	DB	00H
	DB	00H
	DB	00H
	DB	00H
	DB	00H
	DB	00H
	DB	00H
	DB	00H
	DB	00H
	DB	00H
	DB	00H
	DB	00H
	DB	00H
	DB	00H
	DB	00H
	DB	00H
	DB	00H
	DB	00H
	DB	00H
	DB	00H
	DB	00H
	DB	00H
	DB	00H
	DB	00H
	DB	00H
	DB	00H
	DB	00H
	DB	00H
	DB	00H
	DB	00H
	DB	00H
	DB	00H
	DB	00H
	DB	00H
	DB	00H
	DB	00H
	DB	00H
	DB	00H
	DB	00H
	DB	00H
	DB	00H
	DB	00H
	DB	00H
	DB	00H
	DB	00H
	DB	00H
	DB	00H
	DB	00H
	DB	00H
	DB	00H
	DB	00H
	DB	00H
	DB	00H
	DB	00H
	DB	00H
	DB	00H
	DB	00H
	DB	00H
	DB	00H
	DB	00H
	DB	00H
	DB	00H
	DB	00H
	DB	00H
	DB	0b8H
	DB	078H
	DB	00H
	DB	0ffH
	DB	0b8H
	DB	07cH
	DB	00H
	DB	0ffH
	DB	0b8H
	DB	078H
	DB	00H
	DB	0ffH
	DB	0b8H
	DB	078H
	DB	00H
	DB	0ffH
	DB	0c0H
	DB	07cH
	DB	00H
	DB	0ffH
	DB	0b8H
	DB	07cH
	DB	00H
	DB	0ffH
	DB	0b8H
	DB	078H
	DB	00H
	DB	0ffH
	DB	0b8H
	DB	07cH
	DB	00H
	DB	0ffH
	DB	0b8H
	DB	078H
	DB	00H
	DB	0ffH
	DB	0c0H
	DB	07cH
	DB	00H
	DB	0ffH
	DB	0b8H
	DB	07cH
	DB	00H
	DB	0ffH
	DB	0b8H
	DB	078H
	DB	00H
	DB	0ffH
	DB	0b8H
	DB	078H
	DB	00H
	DB	0ffH
	DB	0c0H
	DB	07cH
	DB	00H
	DB	0ffH
	DB	0b8H
	DB	078H
	DB	00H
	DB	0ffH
	DB	0b8H
	DB	07cH
	DB	00H
	DB	0ffH
	DB	00H
	DB	00H
	DB	00H
	DB	00H
	DB	00H
	DB	00H
	DB	00H
	DB	00H
	DB	00H
	DB	00H
	DB	00H
	DB	00H
	DB	00H
	DB	00H
	DB	00H
	DB	00H
	DB	00H
	DB	00H
	DB	00H
	DB	00H
	DB	00H
	DB	00H
	DB	00H
	DB	00H
	DB	00H
	DB	00H
	DB	00H
	DB	00H
	DB	00H
	DB	00H
	DB	00H
	DB	00H
	DB	00H
	DB	00H
	DB	00H
	DB	00H
	DB	00H
	DB	00H
	DB	00H
	DB	00H
	DB	00H
	DB	00H
	DB	00H
	DB	00H
	DB	00H
	DB	00H
	DB	00H
	DB	00H
	DB	00H
	DB	00H
	DB	00H
	DB	00H
	DB	00H
	DB	00H
	DB	00H
	DB	00H
	DB	00H
	DB	00H
	DB	00H
	DB	00H
	DB	00H
	DB	00H
	DB	00H
	DB	00H
	DB	0c0H
	DB	078H
	DB	00H
	DB	0beH
	DB	0b8H
	DB	07cH
	DB	00H
	DB	0ffH
	DB	0b8H
	DB	07cH
	DB	00H
	DB	0ffH
	DB	0b8H
	DB	078H
	DB	00H
	DB	0ffH
	DB	0b8H
	DB	078H
	DB	00H
	DB	0ffH
	DB	0c0H
	DB	07cH
	DB	00H
	DB	0ffH
	DB	0b8H
	DB	078H
	DB	00H
	DB	0ffH
	DB	0b8H
	DB	07cH
	DB	00H
	DB	0ffH
	DB	0c0H
	DB	078H
	DB	00H
	DB	0ffH
	DB	0b8H
	DB	078H
	DB	00H
	DB	0ffH
	DB	0b8H
	DB	07cH
	DB	00H
	DB	0ffH
	DB	0c0H
	DB	07cH
	DB	00H
	DB	0ffH
	DB	0b8H
	DB	07cH
	DB	00H
	DB	0ffH
	DB	0b8H
	DB	078H
	DB	00H
	DB	0ffH
	DB	0c0H
	DB	07cH
	DB	00H
	DB	0ffH
	DB	0b8H
	DB	078H
	DB	00H
	DB	0cfH
	DB	00H
	DB	00H
	DB	00H
	DB	00H
	DB	00H
	DB	00H
	DB	00H
	DB	00H
	DB	00H
	DB	00H
	DB	00H
	DB	00H
	DB	00H
	DB	00H
	DB	00H
	DB	00H
	DB	00H
	DB	00H
	DB	00H
	DB	00H
	DB	00H
	DB	00H
	DB	00H
	DB	00H
	DB	00H
	DB	00H
	DB	00H
	DB	00H
	DB	00H
	DB	00H
	DB	00H
	DB	00H
	DB	00H
	DB	00H
	DB	00H
	DB	00H
	DB	00H
	DB	00H
	DB	00H
	DB	00H
	DB	00H
	DB	00H
	DB	00H
	DB	00H
	DB	00H
	DB	00H
	DB	00H
	DB	00H
	DB	00H
	DB	00H
	DB	00H
	DB	00H
	DB	00H
	DB	00H
	DB	00H
	DB	00H
	DB	00H
	DB	00H
	DB	00H
	DB	00H
	DB	00H
	DB	00H
	DB	00H
	DB	00H
	DB	0b8H
	DB	078H
	DB	00H
	DB	020H
	DB	0c0H
	DB	078H
	DB	00H
	DB	0beH
	DB	0b8H
	DB	078H
	DB	00H
	DB	0dfH
	DB	0c0H
	DB	078H
	DB	00H
	DB	0dfH
	DB	0b8H
	DB	078H
	DB	00H
	DB	0dfH
	DB	0b8H
	DB	078H
	DB	00H
	DB	0dfH
	DB	0c0H
	DB	078H
	DB	00H
	DB	0dfH
	DB	0b8H
	DB	078H
	DB	00H
	DB	0dfH
	DB	0b8H
	DB	078H
	DB	00H
	DB	0dfH
	DB	0b8H
	DB	078H
	DB	00H
	DB	0dfH
	DB	0b8H
	DB	078H
	DB	00H
	DB	0dfH
	DB	0c0H
	DB	078H
	DB	00H
	DB	0dfH
	DB	0b8H
	DB	078H
	DB	00H
	DB	0dfH
	DB	0b8H
	DB	078H
	DB	00H
	DB	0dfH
	DB	0b8H
	DB	078H
	DB	00H
	DB	0beH
	DB	0b8H
	DB	078H
	DB	00H
	DB	020H
	DB	00H
	DB	00H
	DB	00H
	DB	00H
	DB	00H
	DB	00H
	DB	00H
	DB	00H
	DB	00H
	DB	00H
	DB	00H
	DB	00H
	DB	00H
	DB	00H
	DB	00H
	DB	00H
	DB	00H
	DB	00H
	DB	00H
	DB	00H
	DB	00H
	DB	00H
	DB	00H
	DB	00H
	DB	00H
	DB	00H
	DB	00H
	DB	00H
	DB	00H
	DB	00H
	DB	00H
	DB	00H
	DB	00H
	DB	00H
	DB	00H
	DB	00H
	DB	00H
	DB	00H
	DB	00H
	DB	00H
	DB	00H
	DB	00H
	DB	00H
	DB	00H
	DB	00H
	DB	00H
	DB	00H
	DB	00H
	DB	00H
	DB	00H
	DB	00H
	DB	00H
	DB	00H
	DB	00H
	DB	00H
	DB	00H
	DB	00H
	DB	00H
	DB	00H
	DB	00H
	DB	00H
	DB	00H
	DB	00H
	DB	00H
	DB	00H
	DB	00H
	DB	00H
	DB	00H
	DB	00H
	DB	00H
	DB	00H
	DB	00H
	DB	00H
	DB	00H
	DB	00H
	DB	00H
	DB	00H
	DB	00H
	DB	00H
	DB	00H
	DB	00H
	DB	00H
	DB	00H
	DB	00H
	DB	00H
	DB	00H
	DB	00H
	DB	00H
	DB	00H
	DB	00H
	DB	00H
	DB	00H
	DB	00H
	DB	00H
	DB	00H
	DB	00H
	DB	00H
	DB	00H
	DB	00H
	DB	00H
	DB	00H
	DB	00H
	DB	00H
	DB	00H
	DB	00H
	DB	00H
	DB	00H
	DB	00H
	DB	00H
	DB	00H
	DB	00H
	DB	00H
	DB	00H
	DB	00H
	DB	00H
	DB	00H
	DB	00H
	DB	00H
	DB	00H
	DB	00H
	DB	00H
	DB	00H
	DB	00H
	DB	00H
	DB	00H
	DB	00H
	DB	00H
	DB	00H
	DB	00H
	DB	00H
	DB	00H
	DB	00H
	DB	00H
	DB	00H
	DB	00H
	DB	00H
	DB	00H
	DB	00H
	DB	00H
	DB	00H
	DB	00H
	DB	00H
	DB	00H
	DB	00H
	DB	00H
	DB	00H
	DB	00H
	DB	00H
	DB	00H
	DB	00H
	DB	00H
	DB	00H
	DB	00H
	DB	00H
	DB	00H
	DB	00H
	DB	00H
	DB	00H
	DB	00H
	DB	00H
	DB	00H
	DB	00H
	DB	00H
	DB	00H
	DB	00H
	DB	00H
	DB	00H
	DB	00H
	DB	00H
	DB	00H
	DB	00H
	DB	00H
	DB	00H
	DB	00H
	DB	00H
	DB	00H
	DB	00H
	DB	00H
	DB	00H
	DB	00H
	DB	00H
	DB	00H
	DB	00H
	DB	00H
	DB	00H
	DB	00H
	DB	00H
	DB	00H
	DB	00H
	DB	00H
	DB	00H
	DB	00H
	DB	00H
	DB	00H
	DB	00H
	DB	00H
	DB	00H
	DB	00H
	DB	00H
	DB	00H
	DB	00H
	DB	00H
	DB	00H
	DB	00H
	DB	00H
	DB	00H
	DB	00H
	DB	00H
	DB	00H
	DB	00H
	DB	00H
	DB	00H
	DB	00H
	DB	00H
	DB	00H
	DB	00H
	DB	00H
	DB	00H
	DB	00H
	DB	00H
	DB	00H
	DB	00H
	DB	00H
	DB	00H
	DB	00H
	DB	00H
	DB	00H
	DB	00H
	DB	00H
	DB	00H
	DB	00H
	DB	00H
	DB	00H
	DB	00H
	DB	00H
	DB	00H
	DB	00H
	DB	00H
	DB	00H
	DB	00H
	DB	00H
	DB	00H
	DB	00H
	DB	00H
	DB	00H
	DB	00H
	DB	00H
	DB	00H
	DB	00H
	DB	00H
	DB	00H
	DB	00H
	DB	00H
	DB	00H
	DB	00H
	DB	00H
	DB	00H
	DB	00H
	DB	00H
	DB	00H
	DB	00H
	DB	00H
	DB	00H
	DB	00H
	DB	00H
	DB	00H
	DB	00H
	DB	00H
	DB	00H
	DB	00H
	DB	00H
	DB	00H
	DB	00H
	DB	00H
	DB	00H
	DB	00H
	DB	00H
	DB	00H
	DB	00H
	DB	00H
	DB	00H
	DB	00H
	DB	00H
	DB	00H
	DB	00H
	DB	00H
	DB	00H
	DB	00H
	DB	00H
	DB	00H
	DB	00H
	DB	00H
	DB	00H
	DB	00H
	DB	00H
	DB	00H
	DB	00H
	DB	00H
	DB	00H
	DB	00H
	DB	00H
	DB	00H
	DB	00H
	DB	00H
	DB	00H
	DB	00H
	DB	00H
	DB	00H
	DB	00H
	DB	00H
	DB	00H
	DB	00H
	DB	00H
	DB	00H
	DB	00H
	DB	00H
	DB	00H
	DB	00H
	DB	00H
	DB	00H
	DB	00H
	DB	00H
	DB	00H
	DB	00H
	DB	00H
	DB	00H
	DB	00H
	DB	00H
	DB	00H
	DB	00H
	DB	00H
	DB	00H
	DB	00H
	DB	00H
	DB	00H
	DB	00H
	DB	00H
	DB	00H
	DB	00H
	DB	00H
	DB	00H
	DB	00H
	DB	00H
	DB	00H
	DB	00H
	DB	00H
	DB	00H
	DB	00H
	DB	00H
	DB	00H
	DB	00H
	DB	00H
	DB	00H
	DB	00H
	DB	00H
	DB	00H
	DB	00H
	DB	00H
	DB	00H
	DB	00H
	DB	00H
	DB	00H
	DB	00H
	DB	00H
	DB	00H
	DB	00H
	DB	00H
	DB	00H
	DB	00H
	DB	00H
	DB	00H
	DB	00H
	DB	00H
	DB	00H
	DB	00H
	DB	00H
	DB	00H
	DB	00H
	DB	00H
	DB	00H
	DB	00H
	DB	00H
	DB	00H
	DB	00H
	DB	00H
	DB	00H
	DB	00H
	DB	00H
	DB	00H
	DB	00H
	DB	00H
	DB	00H
	DB	00H
	DB	00H
	DB	00H
	DB	00H
	DB	00H
	DB	00H
	DB	00H
	DB	00H
	DB	00H
	DB	00H
	DB	00H
	DB	00H
	DB	00H
	DB	00H
	DB	00H
	DB	00H
	DB	00H
	DB	00H
	DB	00H
	DB	00H
	DB	00H
	DB	00H
	DB	00H
	DB	00H
	DB	00H
	DB	00H
	DB	00H
	DB	00H
	DB	00H
	DB	00H
	DB	00H
	DB	00H
	DB	00H
	DB	00H
	DB	00H
	DB	00H
	DB	00H
	DB	00H
	DB	00H
	DB	00H
	DB	00H
	DB	00H
	DB	00H
	DB	00H
	DB	00H
	DB	00H
	DB	00H
	DB	00H
	DB	00H
	DB	00H
	DB	00H
	DB	00H
	DB	00H
	DB	00H
	DB	00H
	DB	00H
	DB	00H
	DB	00H
	DB	00H
	DB	00H
	DB	00H
	DB	00H
	DB	00H
	DB	00H
	DB	00H
	DB	00H
	DB	00H
	DB	00H
	DB	00H
	DB	00H
	DB	00H
	DB	00H
	DB	00H
	DB	00H
	DB	00H
	DB	00H
	DB	00H
	DB	00H
	DB	00H
	DB	00H
	DB	00H
	DB	00H
	DB	00H
	DB	00H
	DB	00H
	DB	00H
	DB	00H
	DB	00H
	DB	00H
	DB	00H
	DB	00H
	DB	00H
	DB	00H
	DB	00H
	DB	00H
	DB	00H
	DB	00H
	DB	00H
	DB	00H
	DB	00H
	DB	00H
	DB	00H
	DB	00H
	DB	00H
	DB	00H
	DB	00H
	DB	00H
	DB	00H
	DB	00H
	DB	00H
	DB	00H
	DB	00H
	DB	00H
	DB	00H
	DB	00H
	DB	00H
	DB	00H
	DB	00H
	DB	00H
	DB	00H
	DB	00H
	DB	00H
	DB	00H
	DB	00H
	DB	00H
	DB	00H
	DB	00H
	DB	00H
	DB	00H
	DB	00H
	DB	00H
	DB	00H
	DB	00H
	DB	00H
	DB	00H
	DB	00H
	DB	00H
	DB	00H
	DB	00H
	DB	00H
	DB	00H
	DB	00H
	DB	00H
	DB	00H
	DB	00H
	DB	00H
	DB	00H
	DB	00H
	DB	00H
	DB	00H
	DB	00H
	DB	00H
CONST	ENDS
END
