; Listing generated by Microsoft (R) Optimizing Compiler Version 19.37.32822.0 

	TITLE	C:\TouchGFXProjects\KraftHeinz_DS3600\TouchGFX\build\Debug\obj\Kerning_RobotoCondensed_Regular_26_4bpp.obj
	.686P
	.XMM
	include listing.inc
	.model	flat

INCLUDELIB MSVCRTD
INCLUDELIB OLDNAMES

PUBLIC	?kerning_RobotoCondensed_Regular_26_4bpp@@3QBUKerningNode@touchgfx@@B ; kerning_RobotoCondensed_Regular_26_4bpp
msvcjmc	SEGMENT
__E2605D79_concurrencysal@h DB 01H
__D6EC426F_sal@h DB 01H
__5DEEAB32_vadefs@h DB 01H
__7FAFA22A_vcruntime@h DB 01H
__113C7B9B_stdarg@h DB 01H
__1B0272D9_corecrt@h DB 01H
__19139D6C_assert@h DB 01H
__25E3C554_stdint@h DB 01H
__38966392_Config@hpp DB 01H
__B7E12544_Types@hpp DB 01H
__1884D0FD_Unicode@hpp DB 01H
__F92B836C_Font@hpp DB 01H
__9CAEBF6B_Kerning_RobotoCondensed_Regular_26_4bpp@cpp DB 01H
msvcjmc	ENDS
CONST	SEGMENT
?kerning_RobotoCondensed_Regular_26_4bpp@@3QBUKerningNode@touchgfx@@B DW 054H ; kerning_RobotoCondensed_Regular_26_4bpp
	DB	0ffH
	ORG $+1
	DW	022H
	DB	0ffH
	ORG $+1
	DW	027H
	DB	0ffH
	ORG $+1
	DW	02cH
	DB	0feH
	ORG $+1
	DW	02eH
	DB	0feH
	ORG $+1
	DW	041H
	DB	0feH
	ORG $+1
	DW	04cH
	DB	0fcH
	ORG $+1
	DW	061H
	DB	0ffH
	ORG $+1
	DW	068H
	DB	0ffH
	ORG $+1
	DW	06dH
	DB	0ffH
	ORG $+1
	DW	06eH
	DB	0ffH
	ORG $+1
	DW	06fH
	DB	0feH
	ORG $+1
	DW	02025H
	DB	0feH
	ORG $+1
	DW	02026H
	DB	0feH
	ORG $+1
	DW	022H
	DB	0ffH
	ORG $+1
	DW	027H
	DB	0ffH
	ORG $+1
	DW	02cH
	DB	0feH
	ORG $+1
	DW	02eH
	DB	0feH
	ORG $+1
	DW	041H
	DB	0feH
	ORG $+1
	DW	04cH
	DB	0fcH
	ORG $+1
	DW	061H
	DB	0ffH
	ORG $+1
	DW	068H
	DB	0ffH
	ORG $+1
	DW	06dH
	DB	0ffH
	ORG $+1
	DW	06eH
	DB	0ffH
	ORG $+1
	DW	06fH
	DB	0feH
	ORG $+1
	DW	02025H
	DB	0feH
	ORG $+1
	DW	02026H
	DB	0feH
	ORG $+1
	DW	059H
	DB	0ffH
	ORG $+1
	DW	044H
	DB	0ffH
	ORG $+1
	DW	046H
	DB	0fdH
	ORG $+1
	DW	04fH
	DB	0ffH
	ORG $+1
	DW	050H
	DB	0fcH
	ORG $+1
	DW	054H
	DB	0fdH
	ORG $+1
	DW	056H
	DB	0fdH
	ORG $+1
	DW	057H
	DB	0feH
	ORG $+1
	DW	059H
	DB	0fdH
	ORG $+1
	DW	072H
	DB	0feH
	ORG $+1
	DW	076H
	DB	0ffH
	ORG $+1
	DW	077H
	DB	0feH
	ORG $+1
	DW	079H
	DB	0ffH
	ORG $+1
	DW	04bH
	DB	0ffH
	ORG $+1
	DW	054H
	DB	0fdH
	ORG $+1
	DW	057H
	DB	0ffH
	ORG $+1
	DW	058H
	DB	0ffH
	ORG $+1
	DW	059H
	DB	0ffH
	ORG $+1
	DW	044H
	DB	0ffH
	ORG $+1
	DW	046H
	DB	0fdH
	ORG $+1
	DW	04fH
	DB	0ffH
	ORG $+1
	DW	050H
	DB	0fcH
	ORG $+1
	DW	054H
	DB	0fdH
	ORG $+1
	DW	056H
	DB	0fdH
	ORG $+1
	DW	057H
	DB	0feH
	ORG $+1
	DW	059H
	DB	0fdH
	ORG $+1
	DW	072H
	DB	0feH
	ORG $+1
	DW	076H
	DB	0ffH
	ORG $+1
	DW	077H
	DB	0feH
	ORG $+1
	DW	079H
	DB	0ffH
	ORG $+1
	DW	02fH
	DB	0fdH
	ORG $+1
	DW	041H
	DB	0ffH
	ORG $+1
	DW	022H
	DB	0feH
	ORG $+1
	DW	027H
	DB	0feH
	ORG $+1
	DW	046H
	DB	0feH
	ORG $+1
	DW	050H
	DB	0feH
	ORG $+1
	DW	054H
	DB	0ffH
	ORG $+1
	DW	056H
	DB	0ffH
	ORG $+1
	DW	057H
	DB	0ffH
	ORG $+1
	DW	059H
	DB	0ffH
	ORG $+1
	DW	04cH
	DB	0ffH
	ORG $+1
	DW	04cH
	DB	0ffH
	ORG $+1
	DW	046H
	DB	0fdH
	ORG $+1
	DW	050H
	DB	0fdH
	ORG $+1
	DW	054H
	DB	0fdH
	ORG $+1
	DW	059H
	DB	0ffH
	ORG $+1
	DW	04cH
	DB	0ffH
	ORG $+1
	DW	04cH
	DB	0ffH
	ORG $+1
	DW	020H
	DB	0ffH
	ORG $+1
	DW	041H
	DB	0feH
	ORG $+1
	DW	04cH
	DB	0fdH
	ORG $+1
	DW	051H
	DB	0ffH
	ORG $+1
	DW	052H
	DB	0ffH
	ORG $+1
	DW	04cH
	DB	0ffH
	ORG $+1
	DW	059H
	DB	0ffH
	ORG $+1
	DW	041H
	DB	0ffH
	ORG $+1
	DW	04cH
	DB	0feH
	ORG $+1
	DW	041H
	DB	0ffH
	ORG $+1
	DW	04cH
	DB	0feH
	ORG $+1
	DW	041H
	DB	0ffH
	ORG $+1
	DW	042H
	DB	0ffH
	ORG $+1
	DW	044H
	DB	0ffH
	ORG $+1
	DW	04cH
	DB	0fdH
	ORG $+1
	DW	04fH
	DB	0ffH
	ORG $+1
	DW	052H
	DB	0ffH
	ORG $+1
	DW	022H
	DB	0ffH
	ORG $+1
	DW	027H
	DB	0ffH
	ORG $+1
	DW	054H
	DB	0ffH
	ORG $+1
	DW	056H
	DB	0ffH
	ORG $+1
	DW	059H
	DB	0ffH
	ORG $+1
	DW	072H
	DB	0ffH
	ORG $+1
	DW	022H
	DB	0ffH
	ORG $+1
	DW	027H
	DB	0ffH
	ORG $+1
	DW	054H
	DB	0ffH
	ORG $+1
	DW	056H
	DB	0ffH
	ORG $+1
	DW	059H
	DB	0ffH
	ORG $+1
	DW	022H
	DB	0ffH
	ORG $+1
	DW	027H
	DB	0ffH
	ORG $+1
	DW	054H
	DB	0ffH
	ORG $+1
	DW	056H
	DB	0ffH
	ORG $+1
	DW	059H
	DB	0ffH
	ORG $+1
	DW	022H
	DB	0ffH
	ORG $+1
	DW	027H
	DB	0ffH
	ORG $+1
	DW	054H
	DB	0ffH
	ORG $+1
	DW	056H
	DB	0ffH
	ORG $+1
	DW	059H
	DB	0ffH
	ORG $+1
	DW	022H
	DB	0ffH
	ORG $+1
	DW	027H
	DB	0ffH
	ORG $+1
	DW	054H
	DB	0ffH
	ORG $+1
	DW	056H
	DB	0ffH
	ORG $+1
	DW	059H
	DB	0ffH
	ORG $+1
	DW	054H
	DB	0ffH
	ORG $+1
	DW	059H
	DB	0ffH
	ORG $+1
	DW	054H
	DB	0ffH
	ORG $+1
	DW	059H
	DB	0ffH
	ORG $+1
	DW	022H
	DB	0ffH
	ORG $+1
	DW	027H
	DB	0ffH
	ORG $+1
	DW	054H
	DB	0ffH
	ORG $+1
	DW	056H
	DB	0ffH
	ORG $+1
	DW	059H
	DB	0ffH
	ORG $+1
	DW	054H
	DB	0ffH
	ORG $+1
	DW	059H
	DB	0ffH
	ORG $+1
	DW	022H
	DB	0ffH
	ORG $+1
	DW	027H
	DB	0ffH
	ORG $+1
	DW	054H
	DB	0ffH
	ORG $+1
	DW	056H
	DB	0ffH
	ORG $+1
	DW	059H
	DB	0ffH
	ORG $+1
	DW	054H
	DB	0ffH
	ORG $+1
	DW	059H
	DB	0ffH
	ORG $+1
	DW	022H
	DB	0ffH
	ORG $+1
	DW	027H
	DB	0ffH
	ORG $+1
	DW	054H
	DB	0ffH
	ORG $+1
	DW	059H
	DB	0ffH
	ORG $+1
	DW	072H
	DB	01H
	ORG $+1
	DW	04cH
	DB	0ffH
	ORG $+1
	DW	054H
	DB	0ffH
	ORG $+1
	DW	041H
	DB	0ffH
	ORG $+1
	DW	04bH
	DB	0ffH
	ORG $+1
	DW	04cH
	DB	0feH
	ORG $+1
	DW	054H
	DB	0ffH
	ORG $+1
	DW	04bH
	DB	0ffH
	ORG $+1
	DW	04cH
	DB	0ffH
	ORG $+1
	DW	054H
	DB	0ffH
	ORG $+1
	DW	054H
	DB	0ffH
	ORG $+1
	DW	041H
	DB	0ffH
	ORG $+1
	DW	04bH
	DB	0ffH
	ORG $+1
	DW	04cH
	DB	0feH
	ORG $+1
	DW	054H
	DB	0ffH
	ORG $+1
	DW	054H
	DB	0ffH
	ORG $+1
	DW	044H
	DB	0ffH
	ORG $+1
	DW	046H
	DB	0fdH
	ORG $+1
	DW	04fH
	DB	0ffH
	ORG $+1
	DW	050H
	DB	0fcH
	ORG $+1
	DW	054H
	DB	0fdH
	ORG $+1
	DW	056H
	DB	0fdH
	ORG $+1
	DW	057H
	DB	0feH
	ORG $+1
	DW	059H
	DB	0fdH
	ORG $+1
	DW	072H
	DB	0feH
	ORG $+1
	DW	076H
	DB	0ffH
	ORG $+1
	DW	077H
	DB	0feH
	ORG $+1
	DW	079H
	DB	0ffH
	ORG $+1
	DW	044H
	DB	0ffH
	ORG $+1
	DW	046H
	DB	0fdH
	ORG $+1
	DW	04fH
	DB	0ffH
	ORG $+1
	DW	050H
	DB	0fcH
	ORG $+1
	DW	054H
	DB	0fdH
	ORG $+1
	DW	056H
	DB	0fdH
	ORG $+1
	DW	057H
	DB	0feH
	ORG $+1
	DW	059H
	DB	0fdH
	ORG $+1
	DW	072H
	DB	0feH
	ORG $+1
	DW	076H
	DB	0ffH
	ORG $+1
	DW	077H
	DB	0feH
	ORG $+1
	DW	079H
	DB	0ffH
	ORG $+1
CONST	ENDS
PUBLIC	__JustMyCode_Default
; Function compile flags: /Odt
;	COMDAT __JustMyCode_Default
_TEXT	SEGMENT
__JustMyCode_Default PROC				; COMDAT
	push	ebp
	mov	ebp, esp
	pop	ebp
	ret	0
__JustMyCode_Default ENDP
_TEXT	ENDS
END
