; Listing generated by Microsoft (R) Optimizing Compiler Version 19.37.32822.0 

	TITLE	C:\TouchGFXProjects\KraftHeinz_DS3600\TouchGFX\build\Debug\obj\LanguageGb.obj
	.686P
	.XMM
	include listing.inc
	.model	flat

INCLUDELIB MSVCRTD
INCLUDELIB OLDNAMES

PUBLIC	?indicesGb@@3QBIB				; indicesGb
msvcjmc	SEGMENT
__E2605D79_concurrencysal@h DB 01H
__D6EC426F_sal@h DB 01H
__5DEEAB32_vadefs@h DB 01H
__7FAFA22A_vcruntime@h DB 01H
__25E3C554_stdint@h DB 01H
__113C7B9B_stdarg@h DB 01H
__1B0272D9_corecrt@h DB 01H
__19139D6C_assert@h DB 01H
__38966392_Config@hpp DB 01H
__B7E12544_Types@hpp DB 01H
__1884D0FD_Unicode@hpp DB 01H
__56416826_LanguageGb@cpp DB 01H
msvcjmc	ENDS
CONST	SEGMENT
?indicesGb@@3QBIB DD 010c1H				; indicesGb
	DD	0d04H
	DD	0e13H
	DD	0c27H
	DD	08a4H
	DD	0c27H
	DD	0106cH
	DD	071fH
	DD	0106cH
	DD	010feH
	DD	0106cH
	DD	0fb9H
	DD	0106cH
	DD	0116aH
	DD	0106cH
	DD	0d24H
	DD	0106cH
	DD	0d44H
	DD	0bf4H
	DD	0e8eH
	DD	0bbcH
	DD	0e59H
	DD	0106cH
	DD	0cf4H
	DD	011bbH
	DD	0944H
	DD	01049H
	DD	0facH
	DD	0119cH
	DD	0ba9H
	DD	0c93H
	DD	09baH
	DD	0a9dH
	DD	0904H
	DD	088cH
	DD	0c60H
	DD	0933H
	DD	0d90H
	DD	0d14H
	DD	0b4aH
	DD	0b5dH
	DD	0c60H
	DD	0bcfH
	DD	0d90H
	DD	0d14H
	DD	01052H
	DD	0844H
	DD	082cH
	DD	0ca4H
	DD	0d90H
	DD	01052H
	DD	0ac5H
	DD	0b96H
	DD	0ca4H
	DD	0d90H
	DD	0c2aH
	DD	0dbdH
	DD	091cH
	DD	08bcH
	DD	0793H
	DD	0b11H
	DD	0c3cH
	DD	0a89H
	DD	0c2aH
	DD	0dbdH
	DD	0c4eH
	DD	0b37H
	DD	0b24H
	DD	0b11H
	DD	0c3cH
	DD	0a89H
	DD	0fc3H
	DD	0a61H
	DD	0f77H
	DD	0f61H
	DD	0f6cH
	DD	0fc3H
	DD	0a61H
	DD	0f77H
	DD	0f61H
	DD	0f6cH
	DD	01167H
	DD	01158H
	DD	01121H
	DD	0113aH
	DD	01176H
	DD	01103H
	DD	01130H
	DD	0114eH
	DD	01153H
	DD	01167H
	DD	01158H
	DD	01121H
	DD	0113aH
	DD	01176H
	DD	01103H
	DD	01130H
	DD	0114eH
	DD	01153H
	DD	010b3H
	DD	0e4bH
	DD	010b3H
	DD	0e4bH
	DD	0a39H
	DD	0109eH
	DD	0111cH
	DD	0cd5H
	DD	0109eH
	DD	0111cH
	DD	0118cH
	DD	0ec2H
	DD	0ddbH
	DD	011a3H
	DD	0118cH
	DD	0ec2H
	DD	0ddbH
	DD	011a3H
	DD	0c71H
	DD	0cb5H
	DD	0c82H
	DD	0e9bH
	DD	0d34H
	DD	0aebH
	DD	0c71H
	DD	0cb5H
	DD	0c82H
	DD	0e9bH
	DD	0d34H
	DD	0aebH
	DD	011a0H
	DD	01198H
	DD	0d54H
	DD	011a0H
	DD	01198H
	DD	0d54H
	DD	0a4dH
	DD	0846H
	DD	082eH
	DD	0c62H
	DD	0935H
	DD	0d92H
	DD	0ee9H
	DD	0fffH
	DD	0b4cH
	DD	0b5fH
	DD	0c62H
	DD	0bd1H
	DD	0d92H
	DD	0ee9H
	DD	0ff5H
	DD	010baH
	DD	0d72H
	DD	0ff5H
	DD	010baH
	DD	0d72H
	DD	094aH
	DD	0874H
	DD	0afeH
	DD	0c06H
	DD	0ad8H
	DD	0afeH
	DD	01190H
	DD	0e3dH
	DD	01188H
	DD	0f6cH
	DD	01190H
	DD	0e3dH
	DD	01188H
	DD	0f6cH
	DD	094aH
	DD	0874H
	DD	0f3eH
	DD	0c06H
	DD	0ad8H
	DD	0f3eH
	DD	011acH
	DD	011afH
	DD	010f2H
	DD	0daeH
	DD	011b7H
	DD	0514H
	DD	011b5H
	DD	011b9H
	DD	011acH
	DD	011afH
	DD	010f2H
	DD	0daeH
	DD	011b7H
	DD	0514H
	DD	011b5H
	DD	011b9H
	DD	094aH
	DD	0874H
	DD	0f3eH
	DD	0be2H
	DD	0c06H
	DD	0ad8H
	DD	0f3eH
	DD	0be2H
	DD	0fe1H
	DD	0ab1H
	DD	0fe1H
	DD	0fd7H
	DD	0a75H
	DD	0a75H
	DD	09e5H
	DD	0b70H
	DD	0de9H
	DD	0f8dH
	DD	09e5H
	DD	0b70H
	DD	0de9H
	DD	0f8dH
	DD	011a6H
	DD	01169H
	DD	0115aH
	DD	01123H
	DD	0113cH
	DD	01178H
	DD	01105H
	DD	01132H
	DD	01150H
	DD	01155H
	DD	0faeH
	DD	0a39H
	DD	0109eH
	DD	0111cH
	DD	0706H
	DD	01180H
	DD	05eeH
	DD	0e21H
	DD	0e2cH
	DD	0961H
	DD	05ccH
	DD	07adH
	DD	0650H
	DD	0f4aH
	DD	098eH
	DD	0690H
	DD	0106eH
	DD	09a4H
	DD	0564H
	DD	07e1H
	DD	053eH
	DD	01180H
	DD	01112H
	DD	010e0H
	DD	09b1H
	DD	01096H
	DD	01025H
	DD	010acH
	DD	01064H
	DD	0973H
	DD	0ea8H
	DD	0ef6H
	DD	0f0eH
	DD	0112bH
	DD	0f1aH
	DD	01135H
	DD	01149H
	DD	010ecH
	DD	01162H
	DD	01089H
	DD	011a9H
	DD	0106cH
	DD	0e81H
	DD	01180H
	DD	01112H
	DD	0bfeH
	DD	071fH
	DD	0516H
	DD	0106cH
	DD	0137H
	DD	01d5H
	DD	0187H
	DD	010c8H
	DD	01013H
	DD	04edH
	DD	010c8H
	DD	0846H
	DD	0336H
	DD	0813H
	DD	0106cH
	DD	0116aH
	DD	081bH
	DD	0b83H
	DD	0978H
	DD	085cH
	DD	06ccH
	DD	0116aH
	DD	0117dH
	DD	0117cH
	DD	0117bH
	DD	0cc5H
	DD	0c27H
	DD	083bH
	DD	0106cH
	DD	0106cH
	DD	0fb9H
	DD	0117bH
	DD	0106cH
	DD	01144H
	DD	0106cH
	DD	0e81H
	DD	060fH
	DD	0495H
	DD	0106cH
	DD	08d4H
	DD	0106cH
	DD	0116aH
	DD	0115dH
	DD	07eH
	DD	0105bH
	DD	0668H
	DD	01180H
	DD	01184H
	DD	0efbH
	DD	03b6H
	DD	0462H
	DD	0587H
	DD	0377H
	DD	026dH
	DD	03f3H
	DD	042bH
	DD	0222H
	DD	0668H
	DD	010f8H
	DD	0944H
	DD	0f82H
	DD	0107eH
	DD	01117H
	DD	0117cH
	DD	0106cH
	DD	0106cH
	DD	00H
	DD	0febH
	DD	0106cH
	DD	0fb9H
	DD	0117cH
	DD	0106cH
	DD	01144H
	DD	0dccH
	DD	0f82H
	DD	0107eH
	DD	0944H
	DD	07c7H
	DD	0d81H
	DD	0df7H
	DD	02b2H
	DD	04c3H
	DD	0106eH
	DD	0f26H
	DD	0d63H
	DD	0778H
	DD	07faH
	DD	0106cH
	DD	0106cH
	DD	0106cH
	DD	0106cH
	DD	0101cH
	DD	0101cH
	DD	0cc5H
	DD	0c27H
	DD	0101cH
	DD	0101cH
	DD	0c27H
	DD	075cH
	DD	0e7H
	DD	0febH
	DD	0101cH
	DD	0101cH
	DD	0101cH
	DD	0101cH
	DD	0101cH
	DD	0101cH
	DD	0101cH
	DD	0101cH
	DD	0101cH
	DD	0101cH
	DD	0101cH
	DD	0101cH
	DD	0101cH
	DD	0101cH
	DD	0101cH
	DD	0101cH
	DD	0101cH
	DD	0101cH
	DD	0101cH
	DD	0101cH
	DD	0101cH
	DD	0101cH
	DD	0ce5H
	DD	0101cH
	DD	0101cH
	DD	0cc5H
	DD	0c27H
	DD	0106cH
	DD	0106cH
	DD	0106cH
	DD	082eH
	DD	0c62H
	DD	0101cH
	DD	0101cH
	DD	0106cH
	DD	02f5H
	DD	06e9H
	DD	02f5H
	DD	06e9H
	DD	02f5H
	DD	06e9H
	DD	02f5H
	DD	06e9H
	DD	06aeH
	DD	01076H
	DD	0e08H
	DD	0723H
	DD	09faH
	DD	0106cH
	DD	0a0fH
	DD	0f56H
	DD	0630H
	DD	0a24H
	DD	05aaH
	DD	09d0H
	DD	0670H
	DD	0101cH
	DD	0106cH
	DD	0106cH
	DD	0106cH
	DD	0106cH
	DD	0106cH
	DD	0106cH
	DD	0106cH
	DD	0e05H
	DD	0e74H
	DD	0edcH
	DD	01086H
	DD	01171H
	DD	0116cH
	DD	0108eH
	DD	0eb5H
	DD	01040H
	DD	0ed5H
	DD	01037H
	DD	0740H
	DD	08ecH
	DD	0e67H
	DD	010ceH
	DD	010daH
	DD	0106cH
	DD	0c18H
	DD	0e08H
	DD	0f02H
	DD	0102eH
	DD	010a5H
	DD	0ecfH
	DD	0d9fH
	DD	0113fH
	DD	0e77H
	DD	0fcdH
	DD	0f32H
	DD	09b1H
	DD	01126H
	DD	011b2H
	DD	0110dH
	DD	011a9H
	DD	01108H
	DD	01126H
	DD	01194H
	DD	010e6H
	DD	010d4H
	DD	0fa3H
	DD	0f98H
	DD	0e2fH
	DD	01009H
CONST	ENDS
PUBLIC	__JustMyCode_Default
; Function compile flags: /Odt
;	COMDAT __JustMyCode_Default
_TEXT	SEGMENT
__JustMyCode_Default PROC				; COMDAT
	push	ebp
	mov	ebp, esp
	pop	ebp
	ret	0
__JustMyCode_Default ENDP
_TEXT	ENDS
END
