; Listing generated by Microsoft (R) Optimizing Compiler Version 19.37.32822.0 

	TITLE	C:\TouchGFXProjects\KraftHeinz_DS3600\TouchGFX\build\Debug\obj\Table_RobotoCondensed_Bold_26_4bpp.obj
	.686P
	.XMM
	include listing.inc
	.model	flat

INCLUDELIB MSVCRTD
INCLUDELIB OLDNAMES

PUBLIC	?glyphs_RobotoCondensed_Bold_26_4bpp@@3QBUGlyphNode@touchgfx@@B ; glyphs_RobotoCondensed_Bold_26_4bpp
PUBLIC	?unicodes_RobotoCondensed_Bold_26_4bpp@@3QBQBEB	; unicodes_RobotoCondensed_Bold_26_4bpp
EXTRN	?unicodes_RobotoCondensed_Bold_26_4bpp_0@@3QBEB:BYTE ; unicodes_RobotoCondensed_Bold_26_4bpp_0
EXTRN	?unicodes_RobotoCondensed_Bold_26_4bpp_4@@3QBEB:BYTE ; unicodes_RobotoCondensed_Bold_26_4bpp_4
msvcjmc	SEGMENT
__E2605D79_concurrencysal@h DB 01H
__D6EC426F_sal@h DB 01H
__5DEEAB32_vadefs@h DB 01H
__7FAFA22A_vcruntime@h DB 01H
__113C7B9B_stdarg@h DB 01H
__1B0272D9_corecrt@h DB 01H
__19139D6C_assert@h DB 01H
__25E3C554_stdint@h DB 01H
__38966392_Config@hpp DB 01H
__B7E12544_Types@hpp DB 01H
__1884D0FD_Unicode@hpp DB 01H
__F92B836C_Font@hpp DB 01H
__7B30E016_ConstFont@hpp DB 01H
__5EC25F12_GeneratedFont@hpp DB 01H
__CCF736D2_Table_RobotoCondensed_Bold_26_4bpp@cpp DB 01H
msvcjmc	ENDS
CONST	SEGMENT
?glyphs_RobotoCondensed_Bold_26_4bpp@@3QBUGlyphNode@touchgfx@@B DD 00H ; glyphs_RobotoCondensed_Bold_26_4bpp
	DW	02H
	DB	00H
	DB	00H
	DB	00H
	DB	00H
	DB	00H
	DB	00H
	DB	00H
	DB	00H
	DD	00H
	DW	020H
	DB	00H
	DB	00H
	DB	00H
	DB	00H
	DB	06H
	DB	00H
	DB	01H
	DB	00H
	DD	00H
	DW	021H
	DB	05H
	DB	013H
	DB	013H
	DB	01H
	DB	07H
	DB	00H
	DB	00H
	DB	00H
	DD	039H
	DW	022H
	DB	08H
	DB	07H
	DB	013H
	DB	00H
	DB	08H
	DB	01H
	DB	0aH
	DB	00H
	DD	055H
	DW	023H
	DB	0dH
	DB	013H
	DB	013H
	DB	00H
	DB	0eH
	DB	00H
	DB	00H
	DB	00H
	DD	0daH
	DW	024H
	DB	0bH
	DB	018H
	DB	015H
	DB	01H
	DB	0dH
	DB	00H
	DB	00H
	DB	00H
	DD	016aH
	DW	025H
	DB	0fH
	DB	013H
	DB	013H
	DB	01H
	DB	011H
	DB	00H
	DB	00H
	DB	00H
	DD	0202H
	DW	026H
	DB	0fH
	DB	013H
	DB	013H
	DB	00H
	DB	0fH
	DB	00H
	DB	00H
	DB	00H
	DD	029aH
	DW	027H
	DB	04H
	DB	07H
	DB	013H
	DB	00H
	DB	04H
	DB	0bH
	DB	0aH
	DB	00H
	DD	02a8H
	DW	028H
	DB	07H
	DB	01bH
	DB	015H
	DB	01H
	DB	08H
	DB	00H
	DB	00H
	DB	00H
	DD	0314H
	DW	029H
	DB	08H
	DB	01bH
	DB	015H
	DB	00H
	DB	08H
	DB	00H
	DB	00H
	DB	00H
	DD	0380H
	DW	02aH
	DB	0cH
	DB	0cH
	DB	013H
	DB	00H
	DB	0cH
	DB	015H
	DB	01H
	DB	00H
	DD	03c8H
	DW	02bH
	DB	0cH
	DB	0eH
	DB	010H
	DB	00H
	DB	0cH
	DB	00H
	DB	00H
	DB	00H
	DD	041cH
	DW	02cH
	DB	05H
	DB	08H
	DB	03H
	DB	00H
	DB	06H
	DB	016H
	DB	0cH
	DB	00H
	DD	0434H
	DW	02dH
	DB	07H
	DB	03H
	DB	09H
	DB	01H
	DB	09H
	DB	022H
	DB	06H
	DB	00H
	DD	0440H
	DW	02eH
	DB	05H
	DB	04H
	DB	04H
	DB	01H
	DB	08H
	DB	028H
	DB	0cH
	DB	00H
	DD	044cH
	DW	02fH
	DB	09H
	DB	014H
	DB	013H
	DB	00H
	DB	09H
	DB	034H
	DB	01H
	DB	00H
	DD	04b0H
	DW	030H
	DB	0bH
	DB	013H
	DB	013H
	DB	01H
	DB	0dH
	DB	00H
	DB	00H
	DB	00H
	DD	0522H
	DW	031H
	DB	08H
	DB	013H
	DB	013H
	DB	02H
	DB	0dH
	DB	00H
	DB	00H
	DB	00H
	DD	056eH
	DW	032H
	DB	0cH
	DB	013H
	DB	013H
	DB	01H
	DB	0dH
	DB	00H
	DB	00H
	DB	00H
	DD	05e0H
	DW	033H
	DB	0cH
	DB	013H
	DB	013H
	DB	00H
	DB	0dH
	DB	00H
	DB	00H
	DB	00H
	DD	0652H
	DW	034H
	DB	0dH
	DB	013H
	DB	013H
	DB	00H
	DB	0dH
	DB	00H
	DB	00H
	DB	00H
	DD	06d7H
	DW	035H
	DB	0bH
	DB	013H
	DB	013H
	DB	01H
	DB	0dH
	DB	00H
	DB	00H
	DB	00H
	DD	0749H
	DW	036H
	DB	0cH
	DB	013H
	DB	013H
	DB	01H
	DB	0dH
	DB	00H
	DB	00H
	DB	00H
	DD	07bbH
	DW	037H
	DB	0dH
	DB	013H
	DB	013H
	DB	00H
	DB	0dH
	DB	00H
	DB	00H
	DB	00H
	DD	0840H
	DW	038H
	DB	0bH
	DB	013H
	DB	013H
	DB	01H
	DB	0dH
	DB	00H
	DB	00H
	DB	00H
	DD	08b2H
	DW	039H
	DB	0bH
	DB	013H
	DB	013H
	DB	01H
	DB	0dH
	DB	00H
	DB	00H
	DB	00H
	DD	0924H
	DW	03aH
	DB	05H
	DB	0eH
	DB	0eH
	DB	01H
	DB	07H
	DB	00H
	DB	00H
	DB	00H
	DD	094eH
	DW	03bH
	DB	06H
	DB	013H
	DB	0eH
	DB	00H
	DB	07H
	DB	00H
	DB	00H
	DB	00H
	DD	0987H
	DW	03cH
	DB	0aH
	DB	0dH
	DB	0eH
	DB	00H
	DB	0cH
	DB	00H
	DB	00H
	DB	00H
	DD	09c8H
	DW	03dH
	DB	0bH
	DB	09H
	DB	0dH
	DB	01H
	DB	0dH
	DB	00H
	DB	00H
	DB	00H
	DD	09feH
	DW	03eH
	DB	0aH
	DB	0dH
	DB	0eH
	DB	01H
	DB	0cH
	DB	00H
	DB	00H
	DB	00H
	DD	0a3fH
	DW	03fH
	DB	0bH
	DB	013H
	DB	013H
	DB	00H
	DB	0cH
	DB	035H
	DB	01H
	DB	00H
	DD	0ab1H
	DW	040H
	DB	012H
	DB	018H
	DB	013H
	DB	01H
	DB	014H
	DB	00H
	DB	00H
	DB	00H
	DD	0b89H
	DW	041H
	DB	010H
	DB	013H
	DB	013H
	DB	00H
	DB	010H
	DB	036H
	DB	08H
	DB	00H
	DD	0c21H
	DW	042H
	DB	0dH
	DB	013H
	DB	013H
	DB	01H
	DB	0fH
	DB	00H
	DB	00H
	DB	00H
	DD	0ca6H
	DW	043H
	DB	0dH
	DB	013H
	DB	013H
	DB	01H
	DB	0fH
	DB	03eH
	DB	01H
	DB	00H
	DD	0d2bH
	DW	044H
	DB	0dH
	DB	013H
	DB	013H
	DB	01H
	DB	0fH
	DB	00H
	DB	00H
	DB	00H
	DD	0db0H
	DW	045H
	DB	0cH
	DB	013H
	DB	013H
	DB	01H
	DB	0dH
	DB	00H
	DB	00H
	DB	00H
	DD	0e22H
	DW	046H
	DB	0bH
	DB	013H
	DB	013H
	DB	01H
	DB	0cH
	DB	00H
	DB	00H
	DB	00H
	DD	0e94H
	DW	047H
	DB	0eH
	DB	013H
	DB	013H
	DB	01H
	DB	0fH
	DB	03fH
	DB	01H
	DB	00H
	DD	0f19H
	DW	048H
	DB	0eH
	DB	013H
	DB	013H
	DB	01H
	DB	010H
	DB	00H
	DB	00H
	DB	00H
	DD	0f9eH
	DW	049H
	DB	05H
	DB	013H
	DB	013H
	DB	01H
	DB	07H
	DB	00H
	DB	00H
	DB	00H
	DD	0fd7H
	DW	04aH
	DB	0cH
	DB	013H
	DB	013H
	DB	00H
	DB	0dH
	DB	040H
	DB	04H
	DB	00H
	DD	01049H
	DW	04bH
	DB	0eH
	DB	013H
	DB	013H
	DB	01H
	DB	0eH
	DB	00H
	DB	00H
	DB	00H
	DD	010ceH
	DW	04cH
	DB	0bH
	DB	013H
	DB	013H
	DB	01H
	DB	0cH
	DB	00H
	DB	00H
	DB	00H
	DD	01140H
	DW	04dH
	DB	012H
	DB	013H
	DB	013H
	DB	01H
	DB	014H
	DB	00H
	DB	00H
	DB	00H
	DD	011ebH
	DW	04eH
	DB	0eH
	DB	013H
	DB	013H
	DB	01H
	DB	010H
	DB	00H
	DB	00H
	DB	00H
	DD	01270H
	DW	04fH
	DB	0eH
	DB	013H
	DB	013H
	DB	01H
	DB	010H
	DB	044H
	DB	01H
	DB	00H
	DD	012f5H
	DW	050H
	DB	0dH
	DB	013H
	DB	013H
	DB	01H
	DB	0fH
	DB	00H
	DB	00H
	DB	00H
	DD	0137aH
	DW	051H
	DB	0eH
	DB	016H
	DB	013H
	DB	01H
	DB	010H
	DB	045H
	DB	01H
	DB	00H
	DD	01414H
	DW	052H
	DB	0dH
	DB	013H
	DB	013H
	DB	01H
	DB	0eH
	DB	00H
	DB	00H
	DB	00H
	DD	01499H
	DW	053H
	DB	0cH
	DB	013H
	DB	013H
	DB	01H
	DB	0eH
	DB	00H
	DB	00H
	DB	00H
	DD	0150bH
	DW	054H
	DB	0eH
	DB	013H
	DB	013H
	DB	00H
	DB	0eH
	DB	046H
	DB	06H
	DB	00H
	DD	01590H
	DW	055H
	DB	0dH
	DB	013H
	DB	013H
	DB	01H
	DB	0fH
	DB	04cH
	DB	01H
	DB	00H
	DD	01615H
	DW	056H
	DB	0fH
	DB	013H
	DB	013H
	DB	00H
	DB	0fH
	DB	04dH
	DB	02H
	DB	00H
	DD	016adH
	DW	057H
	DB	013H
	DB	013H
	DB	013H
	DB	00H
	DB	013H
	DB	04fH
	DB	01H
	DB	00H
	DD	0176bH
	DW	058H
	DB	0eH
	DB	013H
	DB	013H
	DB	00H
	DB	0fH
	DB	050H
	DB	01H
	DB	00H
	DD	017f0H
	DW	059H
	DB	0eH
	DB	013H
	DB	013H
	DB	00H
	DB	0eH
	DB	051H
	DB	06H
	DB	00H
	DD	01875H
	DW	05aH
	DB	0dH
	DB	013H
	DB	013H
	DB	00H
	DB	0eH
	DB	00H
	DB	00H
	DB	00H
	DD	018faH
	DW	05bH
	DB	06H
	DB	01aH
	DB	016H
	DB	01H
	DB	07H
	DB	00H
	DB	00H
	DB	00H
	DD	01948H
	DW	05cH
	DB	0bH
	DB	014H
	DB	013H
	DB	00H
	DB	0aH
	DB	00H
	DB	00H
	DB	00H
	DD	019c0H
	DW	05dH
	DB	06H
	DB	01aH
	DB	016H
	DB	00H
	DB	07H
	DB	00H
	DB	00H
	DB	00H
	DD	01a0eH
	DW	05eH
	DB	0aH
	DB	09H
	DB	012H
	DB	00H
	DB	0aH
	DB	00H
	DB	00H
	DB	00H
	DD	01a3bH
	DW	05fH
	DB	0bH
	DB	03H
	DB	00H
	DB	00H
	DB	0aH
	DB	00H
	DB	00H
	DB	00H
	DD	01a4dH
	DW	060H
	DB	07H
	DB	04H
	DB	014H
	DB	00H
	DB	09H
	DB	00H
	DB	00H
	DB	00H
	DD	01a5dH
	DW	061H
	DB	0cH
	DB	0eH
	DB	0eH
	DB	00H
	DB	0cH
	DB	057H
	DB	05H
	DB	00H
	DD	01ab1H
	DW	062H
	DB	0bH
	DB	013H
	DB	013H
	DB	01H
	DB	0dH
	DB	00H
	DB	00H
	DB	00H
	DD	01b23H
	DW	063H
	DB	0cH
	DB	0eH
	DB	0eH
	DB	00H
	DB	0cH
	DB	05cH
	DB	05H
	DB	00H
	DD	01b77H
	DW	064H
	DB	0cH
	DB	013H
	DB	013H
	DB	00H
	DB	0dH
	DB	061H
	DB	05H
	DB	00H
	DD	01be9H
	DW	065H
	DB	0bH
	DB	0eH
	DB	0eH
	DB	01H
	DB	0cH
	DB	066H
	DB	05H
	DB	00H
	DD	01c3dH
	DW	066H
	DB	09H
	DB	013H
	DB	013H
	DB	00H
	DB	09H
	DB	00H
	DB	00H
	DB	00H
	DD	01c9cH
	DW	067H
	DB	0cH
	DB	013H
	DB	0eH
	DB	00H
	DB	0dH
	DB	06bH
	DB	05H
	DB	00H
	DD	01d0eH
	DW	068H
	DB	0bH
	DB	013H
	DB	013H
	DB	01H
	DB	0dH
	DB	00H
	DB	00H
	DB	00H
	DD	01d80H
	DW	069H
	DB	05H
	DB	013H
	DB	013H
	DB	01H
	DB	07H
	DB	00H
	DB	00H
	DB	00H
	DD	01db9H
	DW	06aH
	DB	07H
	DB	018H
	DB	013H
	DB	0ffH
	DB	06H
	DB	00H
	DB	00H
	DB	00H
	DD	01e19H
	DW	06bH
	DB	0cH
	DB	013H
	DB	013H
	DB	01H
	DB	0cH
	DB	00H
	DB	00H
	DB	00H
	DD	01e8bH
	DW	06cH
	DB	05H
	DB	013H
	DB	013H
	DB	01H
	DB	07H
	DB	00H
	DB	00H
	DB	00H
	DD	01ec4H
	DW	06dH
	DB	011H
	DB	0eH
	DB	0eH
	DB	01H
	DB	013H
	DB	070H
	DB	03H
	DB	00H
	DD	01f42H
	DW	06eH
	DB	0bH
	DB	0eH
	DB	0eH
	DB	01H
	DB	0dH
	DB	073H
	DB	03H
	DB	00H
	DD	01f96H
	DW	06fH
	DB	0cH
	DB	0eH
	DB	0eH
	DB	00H
	DB	0dH
	DB	076H
	DB	06H
	DB	00H
	DD	01feaH
	DW	070H
	DB	0bH
	DB	013H
	DB	0eH
	DB	01H
	DB	0dH
	DB	07cH
	DB	03H
	DB	00H
	DD	0205cH
	DW	071H
	DB	0cH
	DB	013H
	DB	0eH
	DB	00H
	DB	0dH
	DB	07fH
	DB	05H
	DB	00H
	DD	020ceH
	DW	072H
	DB	08H
	DB	0eH
	DB	0eH
	DB	01H
	DB	09H
	DB	084H
	DB	02H
	DB	00H
	DD	02106H
	DW	073H
	DB	0bH
	DB	0eH
	DB	0eH
	DB	00H
	DB	0cH
	DB	086H
	DB	04H
	DB	00H
	DD	0215aH
	DW	074H
	DB	08H
	DB	012H
	DB	012H
	DB	00H
	DB	08H
	DB	08aH
	DB	01H
	DB	00H
	DD	021a2H
	DW	075H
	DB	0bH
	DB	0eH
	DB	0eH
	DB	01H
	DB	0dH
	DB	08bH
	DB	01H
	DB	00H
	DD	021f6H
	DW	076H
	DB	0cH
	DB	0eH
	DB	0eH
	DB	00H
	DB	0cH
	DB	08cH
	DB	04H
	DB	00H
	DD	0224aH
	DW	077H
	DB	010H
	DB	0eH
	DB	0eH
	DB	00H
	DB	010H
	DB	090H
	DB	03H
	DB	00H
	DD	022baH
	DW	078H
	DB	0cH
	DB	0eH
	DB	0eH
	DB	00H
	DB	0cH
	DB	093H
	DB	01H
	DB	00H
	DD	0230eH
	DW	079H
	DB	0cH
	DB	013H
	DB	0eH
	DB	00H
	DB	0cH
	DB	094H
	DB	04H
	DB	00H
	DD	02380H
	DW	07aH
	DB	0aH
	DB	0eH
	DB	0eH
	DB	01H
	DB	0cH
	DB	098H
	DB	01H
	DB	00H
	DD	023c6H
	DW	07bH
	DB	07H
	DB	019H
	DB	015H
	DB	00H
	DB	08H
	DB	00H
	DB	00H
	DB	00H
	DD	0242aH
	DW	07cH
	DB	03H
	DB	016H
	DB	013H
	DB	02H
	DB	07H
	DB	00H
	DB	00H
	DB	00H
	DD	02456H
	DW	07dH
	DB	07H
	DB	019H
	DB	015H
	DB	00H
	DB	08H
	DB	00H
	DB	00H
	DB	00H
	DD	024baH
	DW	07eH
	DB	0dH
	DB	06H
	DB	0bH
	DB	01H
	DB	0eH
	DB	00H
	DB	00H
	DB	00H
	DD	00H
	DW	02025H
	DB	0aH
	DB	04H
	DB	04H
	DB	01H
	DB	0cH
	DB	099H
	DB	0cH
	DB	00H
	DD	014H
	DW	02026H
	DB	010H
	DB	04H
	DB	04H
	DB	01H
	DB	011H
	DB	0a5H
	DB	0cH
	DB	00H
?unicodes_RobotoCondensed_Bold_26_4bpp@@3QBQBEB DD FLAT:?unicodes_RobotoCondensed_Bold_26_4bpp_0@@3QBEB ; unicodes_RobotoCondensed_Bold_26_4bpp
	DD	00H
	DD	00H
	DD	00H
	DD	FLAT:?unicodes_RobotoCondensed_Bold_26_4bpp_4@@3QBEB
CONST	ENDS
PUBLIC	??1Font@touchgfx@@UAE@XZ			; touchgfx::Font::~Font
PUBLIC	?getGlyph@Font@touchgfx@@UBEPBUGlyphNode@2@G@Z	; touchgfx::Font::getGlyph
PUBLIC	?getFallbackChar@Font@touchgfx@@UBEGXZ		; touchgfx::Font::getFallbackChar
PUBLIC	?getEllipsisChar@Font@touchgfx@@UBEGXZ		; touchgfx::Font::getEllipsisChar
PUBLIC	?getFontHeight@Font@touchgfx@@UBEGXZ		; touchgfx::Font::getFontHeight
PUBLIC	?getMinimumTextHeight@Font@touchgfx@@UBEGXZ	; touchgfx::Font::getMinimumTextHeight
PUBLIC	?getBitsPerPixel@Font@touchgfx@@UBEEXZ		; touchgfx::Font::getBitsPerPixel
PUBLIC	?getByteAlignRow@Font@touchgfx@@UBEEXZ		; touchgfx::Font::getByteAlignRow
PUBLIC	?getKerning@Font@touchgfx@@UBECGPBUGlyphNode@2@@Z ; touchgfx::Font::getKerning
PUBLIC	?getGSUBTable@Font@touchgfx@@UBEPBGXZ		; touchgfx::Font::getGSUBTable
PUBLIC	??_GFont@touchgfx@@UAEPAXI@Z			; touchgfx::Font::`scalar deleting destructor'
PUBLIC	??1ConstFont@touchgfx@@UAE@XZ			; touchgfx::ConstFont::~ConstFont
PUBLIC	??1GeneratedFont@touchgfx@@UAE@XZ		; touchgfx::GeneratedFont::~GeneratedFont
PUBLIC	?getFont_RobotoCondensed_Bold_26_4bpp@@YAAAVGeneratedFont@touchgfx@@XZ ; getFont_RobotoCondensed_Bold_26_4bpp
PUBLIC	__JustMyCode_Default
PUBLIC	??_7Font@touchgfx@@6B@				; touchgfx::Font::`vftable'
PUBLIC	??_R4Font@touchgfx@@6B@				; touchgfx::Font::`RTTI Complete Object Locator'
PUBLIC	??_R0?AVFont@touchgfx@@@8			; touchgfx::Font `RTTI Type Descriptor'
PUBLIC	??_R3Font@touchgfx@@8				; touchgfx::Font::`RTTI Class Hierarchy Descriptor'
PUBLIC	??_R2Font@touchgfx@@8				; touchgfx::Font::`RTTI Base Class Array'
PUBLIC	??_R1A@?0A@EA@Font@touchgfx@@8			; touchgfx::Font::`RTTI Base Class Descriptor at (0,-1,0,64)'
EXTRN	__purecall:PROC
EXTRN	??3@YAXPAXI@Z:PROC				; operator delete
EXTRN	_atexit:PROC
EXTRN	__Init_thread_header:PROC
EXTRN	__Init_thread_abort:PROC
EXTRN	__Init_thread_footer:PROC
EXTRN	?getStringWidth@Font@touchgfx@@UBAGPBGZZ:PROC	; touchgfx::Font::getStringWidth
EXTRN	?getStringWidth@Font@touchgfx@@UBAGEPBGZZ:PROC	; touchgfx::Font::getStringWidth
EXTRN	?getCharWidth@Font@touchgfx@@UBEGG@Z:PROC	; touchgfx::Font::getCharWidth
EXTRN	?getSpacingAbove@Font@touchgfx@@UBAEPBGZZ:PROC	; touchgfx::Font::getSpacingAbove
EXTRN	?getMaxTextHeight@Font@touchgfx@@UBAGPBGZZ:PROC	; touchgfx::Font::getMaxTextHeight
EXTRN	?getNumberOfLines@Font@touchgfx@@UBAGPBGZZ:PROC	; touchgfx::Font::getNumberOfLines
EXTRN	??_EFont@touchgfx@@UAEPAXI@Z:PROC		; touchgfx::Font::`vector deleting destructor'
EXTRN	??0GeneratedFont@touchgfx@@QAE@PBUGlyphNode@1@GGEEEEEPBQBEPBUKerningNode@1@GGQBG@Z:PROC ; touchgfx::GeneratedFont::GeneratedFont
EXTRN	@_RTC_CheckStackVars@8:PROC
EXTRN	@__CheckForDebuggerJustMyCode@4:PROC
EXTRN	@__security_check_cookie@4:PROC
EXTRN	__RTC_CheckEsp:PROC
EXTRN	__RTC_InitBase:PROC
EXTRN	__RTC_Shutdown:PROC
EXTRN	___CxxFrameHandler3:PROC
EXTRN	__Init_thread_epoch:DWORD
EXTRN	?kerning_RobotoCondensed_Bold_26_4bpp@@3QBUKerningNode@touchgfx@@B:BYTE ; kerning_RobotoCondensed_Bold_26_4bpp
EXTRN	??_7type_info@@6B@:QWORD			; type_info::`vftable'
EXTRN	___security_cookie:DWORD
EXTRN	__tls_array:DWORD
EXTRN	__tls_index:DWORD
_BSS	SEGMENT
?RobotoCondensed_Bold_26_4bpp@?1??getFont_RobotoCondensed_Bold_26_4bpp@@YAAAVGeneratedFont@touchgfx@@XZ@4V23@A DB 024H DUP (?) ; `getFont_RobotoCondensed_Bold_26_4bpp'::`2'::RobotoCondensed_Bold_26_4bpp
?$TSS0@?1??getFont_RobotoCondensed_Bold_26_4bpp@@YAAAVGeneratedFont@touchgfx@@XZ@4HA DD 01H DUP (?) ; `getFont_RobotoCondensed_Bold_26_4bpp'::`2'::$TSS0
_BSS	ENDS
;	COMDAT rtc$TMZ
rtc$TMZ	SEGMENT
__RTC_Shutdown.rtc$TMZ DD FLAT:__RTC_Shutdown
rtc$TMZ	ENDS
;	COMDAT rtc$IMZ
rtc$IMZ	SEGMENT
__RTC_InitBase.rtc$IMZ DD FLAT:__RTC_InitBase
rtc$IMZ	ENDS
;	COMDAT ??_R1A@?0A@EA@Font@touchgfx@@8
rdata$r	SEGMENT
??_R1A@?0A@EA@Font@touchgfx@@8 DD FLAT:??_R0?AVFont@touchgfx@@@8 ; touchgfx::Font::`RTTI Base Class Descriptor at (0,-1,0,64)'
	DD	00H
	DD	00H
	DD	0ffffffffH
	DD	00H
	DD	040H
	DD	FLAT:??_R3Font@touchgfx@@8
rdata$r	ENDS
;	COMDAT ??_R2Font@touchgfx@@8
rdata$r	SEGMENT
??_R2Font@touchgfx@@8 DD FLAT:??_R1A@?0A@EA@Font@touchgfx@@8 ; touchgfx::Font::`RTTI Base Class Array'
rdata$r	ENDS
;	COMDAT ??_R3Font@touchgfx@@8
rdata$r	SEGMENT
??_R3Font@touchgfx@@8 DD 00H				; touchgfx::Font::`RTTI Class Hierarchy Descriptor'
	DD	00H
	DD	01H
	DD	FLAT:??_R2Font@touchgfx@@8
rdata$r	ENDS
;	COMDAT ??_R0?AVFont@touchgfx@@@8
data$rs	SEGMENT
??_R0?AVFont@touchgfx@@@8 DD FLAT:??_7type_info@@6B@	; touchgfx::Font `RTTI Type Descriptor'
	DD	00H
	DB	'.?AVFont@touchgfx@@', 00H
data$rs	ENDS
;	COMDAT ??_R4Font@touchgfx@@6B@
rdata$r	SEGMENT
??_R4Font@touchgfx@@6B@ DD 00H				; touchgfx::Font::`RTTI Complete Object Locator'
	DD	00H
	DD	00H
	DD	FLAT:??_R0?AVFont@touchgfx@@@8
	DD	FLAT:??_R3Font@touchgfx@@8
rdata$r	ENDS
;	COMDAT ??_7Font@touchgfx@@6B@
CONST	SEGMENT
??_7Font@touchgfx@@6B@ DD FLAT:??_R4Font@touchgfx@@6B@	; touchgfx::Font::`vftable'
	DD	FLAT:??_EFont@touchgfx@@UAEPAXI@Z
	DD	FLAT:?getGlyph@Font@touchgfx@@UBEPBUGlyphNode@2@G@Z
	DD	FLAT:__purecall
	DD	FLAT:?getFallbackChar@Font@touchgfx@@UBEGXZ
	DD	FLAT:?getEllipsisChar@Font@touchgfx@@UBEGXZ
	DD	FLAT:?getStringWidth@Font@touchgfx@@UBAGEPBGZZ
	DD	FLAT:?getStringWidth@Font@touchgfx@@UBAGPBGZZ
	DD	FLAT:?getCharWidth@Font@touchgfx@@UBEGG@Z
	DD	FLAT:?getSpacingAbove@Font@touchgfx@@UBAEPBGZZ
	DD	FLAT:?getMaxTextHeight@Font@touchgfx@@UBAGPBGZZ
	DD	FLAT:?getFontHeight@Font@touchgfx@@UBEGXZ
	DD	FLAT:?getMinimumTextHeight@Font@touchgfx@@UBEGXZ
	DD	FLAT:?getBitsPerPixel@Font@touchgfx@@UBEEXZ
	DD	FLAT:?getByteAlignRow@Font@touchgfx@@UBEEXZ
	DD	FLAT:?getKerning@Font@touchgfx@@UBECGPBUGlyphNode@2@@Z
	DD	FLAT:?getNumberOfLines@Font@touchgfx@@UBAGPBGZZ
	DD	FLAT:?getGSUBTable@Font@touchgfx@@UBEPBGXZ
CONST	ENDS
;	COMDAT voltbl
voltbl	SEGMENT
_volmd	DB	01aH
voltbl	ENDS
;	COMDAT xdata$x
xdata$x	SEGMENT
__unwindtable$?getFont_RobotoCondensed_Bold_26_4bpp@@YAAAVGeneratedFont@touchgfx@@XZ DD 0ffffffffH
	DD	FLAT:__unwindfunclet$?getFont_RobotoCondensed_Bold_26_4bpp@@YAAAVGeneratedFont@touchgfx@@XZ$0
__ehfuncinfo$?getFont_RobotoCondensed_Bold_26_4bpp@@YAAAVGeneratedFont@touchgfx@@XZ DD 019930522H
	DD	01H
	DD	FLAT:__unwindtable$?getFont_RobotoCondensed_Bold_26_4bpp@@YAAAVGeneratedFont@touchgfx@@XZ
	DD	2 DUP(00H)
	DD	2 DUP(00H)
	DD	00H
	DD	01H
xdata$x	ENDS
; Function compile flags: /Odt
;	COMDAT __JustMyCode_Default
_TEXT	SEGMENT
__JustMyCode_Default PROC				; COMDAT
	push	ebp
	mov	ebp, esp
	pop	ebp
	ret	0
__JustMyCode_Default ENDP
_TEXT	ENDS
; Function compile flags: /Odtp /RTCsu /ZI
;	COMDAT ??__FRobotoCondensed_Bold_26_4bpp@?1??getFont_RobotoCondensed_Bold_26_4bpp@@YAAAVGeneratedFont@touchgfx@@XZ@YAXXZ
text$yd	SEGMENT
??__FRobotoCondensed_Bold_26_4bpp@?1??getFont_RobotoCondensed_Bold_26_4bpp@@YAAAVGeneratedFont@touchgfx@@XZ@YAXXZ PROC ; `getFont_RobotoCondensed_Bold_26_4bpp'::`2'::`dynamic atexit destructor for 'RobotoCondensed_Bold_26_4bpp'', COMDAT
	push	ebp
	mov	ebp, esp
	sub	esp, 192				; 000000c0H
	push	ebx
	push	esi
	push	edi
	mov	edi, ebp
	xor	ecx, ecx
	mov	eax, -858993460				; ccccccccH
	rep stosd
	mov	ecx, OFFSET ?RobotoCondensed_Bold_26_4bpp@?1??getFont_RobotoCondensed_Bold_26_4bpp@@YAAAVGeneratedFont@touchgfx@@XZ@4V23@A
	call	??1GeneratedFont@touchgfx@@UAE@XZ
	pop	edi
	pop	esi
	pop	ebx
	add	esp, 192				; 000000c0H
	cmp	ebp, esp
	call	__RTC_CheckEsp
	mov	esp, ebp
	pop	ebp
	ret	0
??__FRobotoCondensed_Bold_26_4bpp@?1??getFont_RobotoCondensed_Bold_26_4bpp@@YAAAVGeneratedFont@touchgfx@@XZ@YAXXZ ENDP ; `getFont_RobotoCondensed_Bold_26_4bpp'::`2'::`dynamic atexit destructor for 'RobotoCondensed_Bold_26_4bpp''
text$yd	ENDS
; Function compile flags: /Odtp /RTCsu /ZI
;	COMDAT ?getFont_RobotoCondensed_Bold_26_4bpp@@YAAAVGeneratedFont@touchgfx@@XZ
_TEXT	SEGMENT
__$EHRec$ = -12						; size = 12
?getFont_RobotoCondensed_Bold_26_4bpp@@YAAAVGeneratedFont@touchgfx@@XZ PROC ; getFont_RobotoCondensed_Bold_26_4bpp, COMDAT
; File C:\TouchGFXProjects\KraftHeinz_DS3600\TouchGFX\generated\fonts\src\Table_RobotoCondensed_Bold_26_4bpp.cpp
; Line 124
	push	ebp
	mov	ebp, esp
	push	-1
	push	__ehhandler$?getFont_RobotoCondensed_Bold_26_4bpp@@YAAAVGeneratedFont@touchgfx@@XZ
	mov	eax, DWORD PTR fs:0
	push	eax
	sub	esp, 192				; 000000c0H
	push	ebx
	push	esi
	push	edi
	lea	edi, DWORD PTR [ebp-12]
	xor	ecx, ecx
	mov	eax, -858993460				; ccccccccH
	rep stosd
	mov	eax, DWORD PTR ___security_cookie
	xor	eax, ebp
	push	eax
	lea	eax, DWORD PTR __$EHRec$[ebp]
	mov	DWORD PTR fs:0, eax
	mov	ecx, OFFSET __CCF736D2_Table_RobotoCondensed_Bold_26_4bpp@cpp
	call	@__CheckForDebuggerJustMyCode@4
; Line 125
	mov	eax, DWORD PTR __tls_index
	mov	ecx, DWORD PTR fs:__tls_array
	mov	edx, DWORD PTR [ecx+eax*4]
	mov	eax, DWORD PTR ?$TSS0@?1??getFont_RobotoCondensed_Bold_26_4bpp@@YAAAVGeneratedFont@touchgfx@@XZ@4HA
	cmp	eax, DWORD PTR __Init_thread_epoch[edx]
	jle	SHORT $LN2@getFont_Ro
	push	OFFSET ?$TSS0@?1??getFont_RobotoCondensed_Bold_26_4bpp@@YAAAVGeneratedFont@touchgfx@@XZ@4HA
	call	__Init_thread_header
	add	esp, 4
	cmp	DWORD PTR ?$TSS0@?1??getFont_RobotoCondensed_Bold_26_4bpp@@YAAAVGeneratedFont@touchgfx@@XZ@4HA, -1
	jne	SHORT $LN2@getFont_Ro
	mov	DWORD PTR __$EHRec$[ebp+8], 0
	push	0
	push	8230					; 00002026H
	push	63					; 0000003fH
	push	OFFSET ?kerning_RobotoCondensed_Bold_26_4bpp@@3QBUKerningNode@touchgfx@@B ; kerning_RobotoCondensed_Bold_26_4bpp
	push	OFFSET ?unicodes_RobotoCondensed_Bold_26_4bpp@@3QBQBEB ; unicodes_RobotoCondensed_Bold_26_4bpp
	push	1
	push	1
	push	1
	push	4
	push	6
	push	26					; 0000001aH
	push	98					; 00000062H
	push	OFFSET ?glyphs_RobotoCondensed_Bold_26_4bpp@@3QBUGlyphNode@touchgfx@@B ; glyphs_RobotoCondensed_Bold_26_4bpp
	mov	ecx, OFFSET ?RobotoCondensed_Bold_26_4bpp@?1??getFont_RobotoCondensed_Bold_26_4bpp@@YAAAVGeneratedFont@touchgfx@@XZ@4V23@A
	call	??0GeneratedFont@touchgfx@@QAE@PBUGlyphNode@1@GGEEEEEPBQBEPBUKerningNode@1@GGQBG@Z ; touchgfx::GeneratedFont::GeneratedFont
	push	OFFSET ??__FRobotoCondensed_Bold_26_4bpp@?1??getFont_RobotoCondensed_Bold_26_4bpp@@YAAAVGeneratedFont@touchgfx@@XZ@YAXXZ ; `getFont_RobotoCondensed_Bold_26_4bpp'::`2'::`dynamic atexit destructor for 'RobotoCondensed_Bold_26_4bpp''
	call	_atexit
	add	esp, 4
	mov	DWORD PTR __$EHRec$[ebp+8], -1
	push	OFFSET ?$TSS0@?1??getFont_RobotoCondensed_Bold_26_4bpp@@YAAAVGeneratedFont@touchgfx@@XZ@4HA
	call	__Init_thread_footer
	add	esp, 4
$LN2@getFont_Ro:
; Line 126
	mov	eax, OFFSET ?RobotoCondensed_Bold_26_4bpp@?1??getFont_RobotoCondensed_Bold_26_4bpp@@YAAAVGeneratedFont@touchgfx@@XZ@4V23@A
; Line 127
	mov	ecx, DWORD PTR __$EHRec$[ebp]
	mov	DWORD PTR fs:0, ecx
	pop	ecx
	pop	edi
	pop	esi
	pop	ebx
	add	esp, 204				; 000000ccH
	cmp	ebp, esp
	call	__RTC_CheckEsp
	mov	esp, ebp
	pop	ebp
	ret	0
_TEXT	ENDS
;	COMDAT text$x
text$x	SEGMENT
__unwindfunclet$?getFont_RobotoCondensed_Bold_26_4bpp@@YAAAVGeneratedFont@touchgfx@@XZ$0:
	push	OFFSET ?$TSS0@?1??getFont_RobotoCondensed_Bold_26_4bpp@@YAAAVGeneratedFont@touchgfx@@XZ@4HA
	call	__Init_thread_abort
	pop	ecx
	ret	0
	int	3
	int	3
	int	3
	int	3
	int	3
__ehhandler$?getFont_RobotoCondensed_Bold_26_4bpp@@YAAAVGeneratedFont@touchgfx@@XZ:
	npad	1
	npad	1
	mov	edx, DWORD PTR [esp+8]
	lea	eax, DWORD PTR [edx+12]
	mov	ecx, DWORD PTR [edx-208]
	xor	ecx, eax
	call	@__security_check_cookie@4
	mov	eax, OFFSET __ehfuncinfo$?getFont_RobotoCondensed_Bold_26_4bpp@@YAAAVGeneratedFont@touchgfx@@XZ
	jmp	___CxxFrameHandler3
text$x	ENDS
?getFont_RobotoCondensed_Bold_26_4bpp@@YAAAVGeneratedFont@touchgfx@@XZ ENDP ; getFont_RobotoCondensed_Bold_26_4bpp
; Function compile flags: /Odtp /RTCsu /ZI
;	COMDAT ??1GeneratedFont@touchgfx@@UAE@XZ
_TEXT	SEGMENT
_this$ = -8						; size = 4
??1GeneratedFont@touchgfx@@UAE@XZ PROC			; touchgfx::GeneratedFont::~GeneratedFont, COMDAT
; _this$ = ecx
	push	ebp
	mov	ebp, esp
	sub	esp, 204				; 000000ccH
	push	ebx
	push	esi
	push	edi
	push	ecx
	lea	edi, DWORD PTR [ebp-12]
	mov	ecx, 3
	mov	eax, -858993460				; ccccccccH
	rep stosd
	pop	ecx
	mov	DWORD PTR _this$[ebp], ecx
	mov	ecx, DWORD PTR _this$[ebp]
	call	??1ConstFont@touchgfx@@UAE@XZ
	pop	edi
	pop	esi
	pop	ebx
	add	esp, 204				; 000000ccH
	cmp	ebp, esp
	call	__RTC_CheckEsp
	mov	esp, ebp
	pop	ebp
	ret	0
??1GeneratedFont@touchgfx@@UAE@XZ ENDP			; touchgfx::GeneratedFont::~GeneratedFont
_TEXT	ENDS
; Function compile flags: /Odtp /RTCsu /ZI
;	COMDAT ??1ConstFont@touchgfx@@UAE@XZ
_TEXT	SEGMENT
_this$ = -8						; size = 4
??1ConstFont@touchgfx@@UAE@XZ PROC			; touchgfx::ConstFont::~ConstFont, COMDAT
; _this$ = ecx
	push	ebp
	mov	ebp, esp
	sub	esp, 204				; 000000ccH
	push	ebx
	push	esi
	push	edi
	push	ecx
	lea	edi, DWORD PTR [ebp-12]
	mov	ecx, 3
	mov	eax, -858993460				; ccccccccH
	rep stosd
	pop	ecx
	mov	DWORD PTR _this$[ebp], ecx
	mov	ecx, DWORD PTR _this$[ebp]
	call	??1Font@touchgfx@@UAE@XZ		; touchgfx::Font::~Font
	pop	edi
	pop	esi
	pop	ebx
	add	esp, 204				; 000000ccH
	cmp	ebp, esp
	call	__RTC_CheckEsp
	mov	esp, ebp
	pop	ebp
	ret	0
??1ConstFont@touchgfx@@UAE@XZ ENDP			; touchgfx::ConstFont::~ConstFont
_TEXT	ENDS
; Function compile flags: /Odtp /RTCsu /ZI
;	COMDAT ??_GFont@touchgfx@@UAEPAXI@Z
_TEXT	SEGMENT
_this$ = -8						; size = 4
___flags$ = 8						; size = 4
??_GFont@touchgfx@@UAEPAXI@Z PROC			; touchgfx::Font::`scalar deleting destructor', COMDAT
; _this$ = ecx
	push	ebp
	mov	ebp, esp
	sub	esp, 204				; 000000ccH
	push	ebx
	push	esi
	push	edi
	push	ecx
	lea	edi, DWORD PTR [ebp-12]
	mov	ecx, 3
	mov	eax, -858993460				; ccccccccH
	rep stosd
	pop	ecx
	mov	DWORD PTR _this$[ebp], ecx
	mov	ecx, DWORD PTR _this$[ebp]
	call	??1Font@touchgfx@@UAE@XZ		; touchgfx::Font::~Font
	mov	eax, DWORD PTR ___flags$[ebp]
	and	eax, 1
	je	SHORT $LN2@scalar
	push	16					; 00000010H
	mov	eax, DWORD PTR _this$[ebp]
	push	eax
	call	??3@YAXPAXI@Z				; operator delete
	add	esp, 8
$LN2@scalar:
	mov	eax, DWORD PTR _this$[ebp]
	pop	edi
	pop	esi
	pop	ebx
	add	esp, 204				; 000000ccH
	cmp	ebp, esp
	call	__RTC_CheckEsp
	mov	esp, ebp
	pop	ebp
	ret	4
??_GFont@touchgfx@@UAEPAXI@Z ENDP			; touchgfx::Font::`scalar deleting destructor'
_TEXT	ENDS
; Function compile flags: /Odtp /RTCsu /ZI
;	COMDAT ?getGSUBTable@Font@touchgfx@@UBEPBGXZ
_TEXT	SEGMENT
_this$ = -8						; size = 4
?getGSUBTable@Font@touchgfx@@UBEPBGXZ PROC		; touchgfx::Font::getGSUBTable, COMDAT
; _this$ = ecx
; File C:\TouchGFXProjects\KraftHeinz_DS3600\Middlewares\ST\touchgfx\framework\include\touchgfx\Font.hpp
; Line 388
	push	ebp
	mov	ebp, esp
	sub	esp, 204				; 000000ccH
	push	ebx
	push	esi
	push	edi
	push	ecx
	lea	edi, DWORD PTR [ebp-12]
	mov	ecx, 3
	mov	eax, -858993460				; ccccccccH
	rep stosd
	pop	ecx
	mov	DWORD PTR _this$[ebp], ecx
	mov	ecx, OFFSET __F92B836C_Font@hpp
	call	@__CheckForDebuggerJustMyCode@4
; Line 389
	xor	eax, eax
; Line 390
	pop	edi
	pop	esi
	pop	ebx
	add	esp, 204				; 000000ccH
	cmp	ebp, esp
	call	__RTC_CheckEsp
	mov	esp, ebp
	pop	ebp
	ret	0
?getGSUBTable@Font@touchgfx@@UBEPBGXZ ENDP		; touchgfx::Font::getGSUBTable
_TEXT	ENDS
; Function compile flags: /Odtp /RTCsu /ZI
;	COMDAT ?getKerning@Font@touchgfx@@UBECGPBUGlyphNode@2@@Z
_TEXT	SEGMENT
_this$ = -8						; size = 4
_prevChar$ = 8						; size = 2
_glyph$ = 12						; size = 4
?getKerning@Font@touchgfx@@UBECGPBUGlyphNode@2@@Z PROC	; touchgfx::Font::getKerning, COMDAT
; _this$ = ecx
; File C:\TouchGFXProjects\KraftHeinz_DS3600\Middlewares\ST\touchgfx\framework\include\touchgfx\Font.hpp
; Line 368
	push	ebp
	mov	ebp, esp
	sub	esp, 204				; 000000ccH
	push	ebx
	push	esi
	push	edi
	push	ecx
	lea	edi, DWORD PTR [ebp-12]
	mov	ecx, 3
	mov	eax, -858993460				; ccccccccH
	rep stosd
	pop	ecx
	mov	DWORD PTR _this$[ebp], ecx
	mov	ecx, OFFSET __F92B836C_Font@hpp
	call	@__CheckForDebuggerJustMyCode@4
; Line 369
	xor	al, al
; Line 370
	pop	edi
	pop	esi
	pop	ebx
	add	esp, 204				; 000000ccH
	cmp	ebp, esp
	call	__RTC_CheckEsp
	mov	esp, ebp
	pop	ebp
	ret	8
?getKerning@Font@touchgfx@@UBECGPBUGlyphNode@2@@Z ENDP	; touchgfx::Font::getKerning
_TEXT	ENDS
; Function compile flags: /Odtp /RTCsu /ZI
;	COMDAT ?getByteAlignRow@Font@touchgfx@@UBEEXZ
_TEXT	SEGMENT
_this$ = -8						; size = 4
?getByteAlignRow@Font@touchgfx@@UBEEXZ PROC		; touchgfx::Font::getByteAlignRow, COMDAT
; _this$ = ecx
; File C:\TouchGFXProjects\KraftHeinz_DS3600\Middlewares\ST\touchgfx\framework\include\touchgfx\Font.hpp
; Line 331
	push	ebp
	mov	ebp, esp
	sub	esp, 204				; 000000ccH
	push	ebx
	push	esi
	push	edi
	push	ecx
	lea	edi, DWORD PTR [ebp-12]
	mov	ecx, 3
	mov	eax, -858993460				; ccccccccH
	rep stosd
	pop	ecx
	mov	DWORD PTR _this$[ebp], ecx
	mov	ecx, OFFSET __F92B836C_Font@hpp
	call	@__CheckForDebuggerJustMyCode@4
; Line 332
	mov	eax, DWORD PTR _this$[ebp]
	movzx	eax, BYTE PTR [eax+7]
	shr	al, 7
	and	al, 1
; Line 333
	pop	edi
	pop	esi
	pop	ebx
	add	esp, 204				; 000000ccH
	cmp	ebp, esp
	call	__RTC_CheckEsp
	mov	esp, ebp
	pop	ebp
	ret	0
?getByteAlignRow@Font@touchgfx@@UBEEXZ ENDP		; touchgfx::Font::getByteAlignRow
_TEXT	ENDS
; Function compile flags: /Odtp /RTCsu /ZI
;	COMDAT ?getBitsPerPixel@Font@touchgfx@@UBEEXZ
_TEXT	SEGMENT
_this$ = -8						; size = 4
?getBitsPerPixel@Font@touchgfx@@UBEEXZ PROC		; touchgfx::Font::getBitsPerPixel, COMDAT
; _this$ = ecx
; File C:\TouchGFXProjects\KraftHeinz_DS3600\Middlewares\ST\touchgfx\framework\include\touchgfx\Font.hpp
; Line 321
	push	ebp
	mov	ebp, esp
	sub	esp, 204				; 000000ccH
	push	ebx
	push	esi
	push	edi
	push	ecx
	lea	edi, DWORD PTR [ebp-12]
	mov	ecx, 3
	mov	eax, -858993460				; ccccccccH
	rep stosd
	pop	ecx
	mov	DWORD PTR _this$[ebp], ecx
	mov	ecx, OFFSET __F92B836C_Font@hpp
	call	@__CheckForDebuggerJustMyCode@4
; Line 322
	mov	eax, DWORD PTR _this$[ebp]
	movzx	eax, BYTE PTR [eax+7]
	and	al, 127					; 0000007fH
; Line 323
	pop	edi
	pop	esi
	pop	ebx
	add	esp, 204				; 000000ccH
	cmp	ebp, esp
	call	__RTC_CheckEsp
	mov	esp, ebp
	pop	ebp
	ret	0
?getBitsPerPixel@Font@touchgfx@@UBEEXZ ENDP		; touchgfx::Font::getBitsPerPixel
_TEXT	ENDS
; Function compile flags: /Odtp /RTCsu /ZI
;	COMDAT ?getMinimumTextHeight@Font@touchgfx@@UBEGXZ
_TEXT	SEGMENT
_this$ = -8						; size = 4
?getMinimumTextHeight@Font@touchgfx@@UBEGXZ PROC	; touchgfx::Font::getMinimumTextHeight, COMDAT
; _this$ = ecx
; File C:\TouchGFXProjects\KraftHeinz_DS3600\Middlewares\ST\touchgfx\framework\include\touchgfx\Font.hpp
; Line 311
	push	ebp
	mov	ebp, esp
	sub	esp, 204				; 000000ccH
	push	ebx
	push	esi
	push	edi
	push	ecx
	lea	edi, DWORD PTR [ebp-12]
	mov	ecx, 3
	mov	eax, -858993460				; ccccccccH
	rep stosd
	pop	ecx
	mov	DWORD PTR _this$[ebp], ecx
	mov	ecx, OFFSET __F92B836C_Font@hpp
	call	@__CheckForDebuggerJustMyCode@4
; Line 312
	mov	eax, DWORD PTR _this$[ebp]
	movzx	eax, WORD PTR [eax+4]
	mov	ecx, DWORD PTR _this$[ebp]
	movzx	edx, BYTE PTR [ecx+6]
	add	eax, edx
; Line 313
	pop	edi
	pop	esi
	pop	ebx
	add	esp, 204				; 000000ccH
	cmp	ebp, esp
	call	__RTC_CheckEsp
	mov	esp, ebp
	pop	ebp
	ret	0
?getMinimumTextHeight@Font@touchgfx@@UBEGXZ ENDP	; touchgfx::Font::getMinimumTextHeight
_TEXT	ENDS
; Function compile flags: /Odtp /RTCsu /ZI
;	COMDAT ?getFontHeight@Font@touchgfx@@UBEGXZ
_TEXT	SEGMENT
_this$ = -8						; size = 4
?getFontHeight@Font@touchgfx@@UBEGXZ PROC		; touchgfx::Font::getFontHeight, COMDAT
; _this$ = ecx
; File C:\TouchGFXProjects\KraftHeinz_DS3600\Middlewares\ST\touchgfx\framework\include\touchgfx\Font.hpp
; Line 299
	push	ebp
	mov	ebp, esp
	sub	esp, 204				; 000000ccH
	push	ebx
	push	esi
	push	edi
	push	ecx
	lea	edi, DWORD PTR [ebp-12]
	mov	ecx, 3
	mov	eax, -858993460				; ccccccccH
	rep stosd
	pop	ecx
	mov	DWORD PTR _this$[ebp], ecx
	mov	ecx, OFFSET __F92B836C_Font@hpp
	call	@__CheckForDebuggerJustMyCode@4
; Line 300
	mov	eax, DWORD PTR _this$[ebp]
	movzx	eax, WORD PTR [eax+4]
; Line 301
	pop	edi
	pop	esi
	pop	ebx
	add	esp, 204				; 000000ccH
	cmp	ebp, esp
	call	__RTC_CheckEsp
	mov	esp, ebp
	pop	ebp
	ret	0
?getFontHeight@Font@touchgfx@@UBEGXZ ENDP		; touchgfx::Font::getFontHeight
_TEXT	ENDS
; Function compile flags: /Odtp /RTCsu /ZI
;	COMDAT ?getEllipsisChar@Font@touchgfx@@UBEGXZ
_TEXT	SEGMENT
_this$ = -8						; size = 4
?getEllipsisChar@Font@touchgfx@@UBEGXZ PROC		; touchgfx::Font::getEllipsisChar, COMDAT
; _this$ = ecx
; File C:\TouchGFXProjects\KraftHeinz_DS3600\Middlewares\ST\touchgfx\framework\include\touchgfx\Font.hpp
; Line 210
	push	ebp
	mov	ebp, esp
	sub	esp, 204				; 000000ccH
	push	ebx
	push	esi
	push	edi
	push	ecx
	lea	edi, DWORD PTR [ebp-12]
	mov	ecx, 3
	mov	eax, -858993460				; ccccccccH
	rep stosd
	pop	ecx
	mov	DWORD PTR _this$[ebp], ecx
	mov	ecx, OFFSET __F92B836C_Font@hpp
	call	@__CheckForDebuggerJustMyCode@4
; Line 211
	mov	eax, DWORD PTR _this$[ebp]
	movzx	eax, WORD PTR [eax+12]
; Line 212
	pop	edi
	pop	esi
	pop	ebx
	add	esp, 204				; 000000ccH
	cmp	ebp, esp
	call	__RTC_CheckEsp
	mov	esp, ebp
	pop	ebp
	ret	0
?getEllipsisChar@Font@touchgfx@@UBEGXZ ENDP		; touchgfx::Font::getEllipsisChar
_TEXT	ENDS
; Function compile flags: /Odtp /RTCsu /ZI
;	COMDAT ?getFallbackChar@Font@touchgfx@@UBEGXZ
_TEXT	SEGMENT
_this$ = -8						; size = 4
?getFallbackChar@Font@touchgfx@@UBEGXZ PROC		; touchgfx::Font::getFallbackChar, COMDAT
; _this$ = ecx
; File C:\TouchGFXProjects\KraftHeinz_DS3600\Middlewares\ST\touchgfx\framework\include\touchgfx\Font.hpp
; Line 197
	push	ebp
	mov	ebp, esp
	sub	esp, 204				; 000000ccH
	push	ebx
	push	esi
	push	edi
	push	ecx
	lea	edi, DWORD PTR [ebp-12]
	mov	ecx, 3
	mov	eax, -858993460				; ccccccccH
	rep stosd
	pop	ecx
	mov	DWORD PTR _this$[ebp], ecx
	mov	ecx, OFFSET __F92B836C_Font@hpp
	call	@__CheckForDebuggerJustMyCode@4
; Line 198
	mov	eax, DWORD PTR _this$[ebp]
	movzx	eax, WORD PTR [eax+10]
; Line 199
	pop	edi
	pop	esi
	pop	ebx
	add	esp, 204				; 000000ccH
	cmp	ebp, esp
	call	__RTC_CheckEsp
	mov	esp, ebp
	pop	ebp
	ret	0
?getFallbackChar@Font@touchgfx@@UBEGXZ ENDP		; touchgfx::Font::getFallbackChar
_TEXT	ENDS
; Function compile flags: /Odtp /RTCsu /ZI
;	COMDAT ?getGlyph@Font@touchgfx@@UBEPBUGlyphNode@2@G@Z
_TEXT	SEGMENT
_glyph$ = -44						; size = 4
_bitsPerPixelDummy$ = -29				; size = 1
_dummyPixelDataPointer$ = -20				; size = 4
_this$ = -8						; size = 4
_unicode$ = 8						; size = 2
?getGlyph@Font@touchgfx@@UBEPBUGlyphNode@2@G@Z PROC	; touchgfx::Font::getGlyph, COMDAT
; _this$ = ecx
; File C:\TouchGFXProjects\KraftHeinz_DS3600\Middlewares\ST\touchgfx\framework\include\touchgfx\Font.hpp
; Line 178
	push	ebp
	mov	ebp, esp
	sub	esp, 240				; 000000f0H
	push	ebx
	push	esi
	push	edi
	push	ecx
	lea	edi, DWORD PTR [ebp-48]
	mov	ecx, 12					; 0000000cH
	mov	eax, -858993460				; ccccccccH
	rep stosd
	pop	ecx
	mov	DWORD PTR _this$[ebp], ecx
	mov	ecx, OFFSET __F92B836C_Font@hpp
	call	@__CheckForDebuggerJustMyCode@4
; Line 179
	movzx	eax, WORD PTR _unicode$[ebp]
	test	eax, eax
	jne	SHORT $LN2@getGlyph
; Line 181
	xor	eax, eax
	jmp	SHORT $LN1@getGlyph
$LN2@getGlyph:
; Line 183
	mov	DWORD PTR _dummyPixelDataPointer$[ebp], 0
; Line 184
	mov	BYTE PTR _bitsPerPixelDummy$[ebp], 0
; Line 185
	mov	esi, esp
	lea	eax, DWORD PTR _bitsPerPixelDummy$[ebp]
	push	eax
	lea	ecx, DWORD PTR _dummyPixelDataPointer$[ebp]
	push	ecx
	movzx	edx, WORD PTR _unicode$[ebp]
	push	edx
	mov	eax, DWORD PTR _this$[ebp]
	mov	edx, DWORD PTR [eax]
	mov	ecx, DWORD PTR _this$[ebp]
	mov	eax, DWORD PTR [edx+8]
	call	eax
	cmp	esi, esp
	call	__RTC_CheckEsp
	mov	DWORD PTR _glyph$[ebp], eax
; Line 186
	mov	eax, DWORD PTR _glyph$[ebp]
$LN1@getGlyph:
; Line 187
	push	edx
	mov	ecx, ebp
	push	eax
	lea	edx, DWORD PTR $LN7@getGlyph
	call	@_RTC_CheckStackVars@8
	pop	eax
	pop	edx
	pop	edi
	pop	esi
	pop	ebx
	add	esp, 240				; 000000f0H
	cmp	ebp, esp
	call	__RTC_CheckEsp
	mov	esp, ebp
	pop	ebp
	ret	4
	npad	3
$LN7@getGlyph:
	DD	2
	DD	$LN6@getGlyph
$LN6@getGlyph:
	DD	-20					; ffffffecH
	DD	4
	DD	$LN4@getGlyph
	DD	-29					; ffffffe3H
	DD	1
	DD	$LN5@getGlyph
$LN5@getGlyph:
	DB	98					; 00000062H
	DB	105					; 00000069H
	DB	116					; 00000074H
	DB	115					; 00000073H
	DB	80					; 00000050H
	DB	101					; 00000065H
	DB	114					; 00000072H
	DB	80					; 00000050H
	DB	105					; 00000069H
	DB	120					; 00000078H
	DB	101					; 00000065H
	DB	108					; 0000006cH
	DB	68					; 00000044H
	DB	117					; 00000075H
	DB	109					; 0000006dH
	DB	109					; 0000006dH
	DB	121					; 00000079H
	DB	0
$LN4@getGlyph:
	DB	100					; 00000064H
	DB	117					; 00000075H
	DB	109					; 0000006dH
	DB	109					; 0000006dH
	DB	121					; 00000079H
	DB	80					; 00000050H
	DB	105					; 00000069H
	DB	120					; 00000078H
	DB	101					; 00000065H
	DB	108					; 0000006cH
	DB	68					; 00000044H
	DB	97					; 00000061H
	DB	116					; 00000074H
	DB	97					; 00000061H
	DB	80					; 00000050H
	DB	111					; 0000006fH
	DB	105					; 00000069H
	DB	110					; 0000006eH
	DB	116					; 00000074H
	DB	101					; 00000065H
	DB	114					; 00000072H
	DB	0
?getGlyph@Font@touchgfx@@UBEPBUGlyphNode@2@G@Z ENDP	; touchgfx::Font::getGlyph
_TEXT	ENDS
; Function compile flags: /Odtp /RTCsu /ZI
;	COMDAT ??1Font@touchgfx@@UAE@XZ
_TEXT	SEGMENT
_this$ = -8						; size = 4
??1Font@touchgfx@@UAE@XZ PROC				; touchgfx::Font::~Font, COMDAT
; _this$ = ecx
; File C:\TouchGFXProjects\KraftHeinz_DS3600\Middlewares\ST\touchgfx\framework\include\touchgfx\Font.hpp
; Line 147
	push	ebp
	mov	ebp, esp
	sub	esp, 204				; 000000ccH
	push	ebx
	push	esi
	push	edi
	push	ecx
	lea	edi, DWORD PTR [ebp-12]
	mov	ecx, 3
	mov	eax, -858993460				; ccccccccH
	rep stosd
	pop	ecx
	mov	DWORD PTR _this$[ebp], ecx
	mov	ecx, OFFSET __F92B836C_Font@hpp
	call	@__CheckForDebuggerJustMyCode@4
	mov	eax, DWORD PTR _this$[ebp]
	mov	DWORD PTR [eax], OFFSET ??_7Font@touchgfx@@6B@
; Line 148
	pop	edi
	pop	esi
	pop	ebx
	add	esp, 204				; 000000ccH
	cmp	ebp, esp
	call	__RTC_CheckEsp
	mov	esp, ebp
	pop	ebp
	ret	0
??1Font@touchgfx@@UAE@XZ ENDP				; touchgfx::Font::~Font
_TEXT	ENDS
END
