; Listing generated by Microsoft (R) Optimizing Compiler Version 19.37.32822.0 

	TITLE	C:\TouchGFXProjects\KraftHeinz_DS3600\TouchGFX\build\Debug\obj\TypedTextDatabase.obj
	.686P
	.XMM
	include listing.inc
	.model	flat

INCLUDELIB MSVCRTD
INCLUDELIB OLDNAMES

PUBLIC	?typedText_database_DEFAULT@@3QBUTypedTextData@TypedText@touchgfx@@B ; typedText_database_DEFAULT
PUBLIC	?typedTextDatabaseArray@@3QBQBUTypedTextData@TypedText@touchgfx@@B ; typedTextDatabaseArray
msvcjmc	SEGMENT
__E2605D79_concurrencysal@h DB 01H
__D6EC426F_sal@h DB 01H
__5DEEAB32_vadefs@h DB 01H
__7FAFA22A_vcruntime@h DB 01H
__9B72E737_xkeycheck@h DB 01H
__1F1F6A39_yvals_core@h DB 01H
__1B0272D9_corecrt@h DB 01H
__19139D6C_assert@h DB 01H
__8407F7D8_cassert DB 01H
__113C7B9B_stdarg@h DB 01H
__25E3C554_stdint@h DB 01H
__38966392_Config@hpp DB 01H
__B7E12544_Types@hpp DB 01H
__1884D0FD_Unicode@hpp DB 01H
__F92B836C_Font@hpp DB 01H
__6FC95654_Texts@hpp DB 01H
__64F0DC05_TypedText@hpp DB 01H
__7B30E016_ConstFont@hpp DB 01H
__5EC25F12_GeneratedFont@hpp DB 01H
__0A858183_TypedTextDatabase@hpp DB 01H
__FC1C3AF1_TypedTextDatabase@cpp DB 01H
msvcjmc	ENDS
CONST	SEGMENT
?typedText_database_DEFAULT@@3QBUTypedTextData@TypedText@touchgfx@@B DB 00H ; typedText_database_DEFAULT
	DB	01H
	DB	01H
	DB	01H
	DB	09H
	DB	00H
	DB	09H
	DB	00H
	DB	09H
	DB	00H
	DB	09H
	DB	00H
	DB	02H
	DB	02H
	DB	09H
	DB	00H
	DB	02H
	DB	01H
	DB	06H
	DB	02H
	DB	05H
	DB	02H
	DB	05H
	DB	02H
	DB	04H
	DB	02H
	DB	04H
	DB	02H
	DB	0bH
	DB	02H
	DB	0bH
	DB	00H
	DB	0bH
	DB	00H
	DB	0bH
	DB	00H
	DB	02H
	DB	02H
	DB	02H
	DB	02H
	DB	02H
	DB	02H
	DB	02H
	DB	02H
	DB	0bH
	DB	02H
	DB	0bH
	DB	00H
	DB	04H
	DB	01H
	DB	0cH
	DB	00H
	DB	0cH
	DB	00H
	DB	04H
	DB	00H
	DB	04H
	DB	00H
	DB	02H
	DB	00H
	DB	03H
	DB	00H
	DB	02H
	DB	00H
	DB	03H
	DB	00H
	DB	02H
	DB	00H
	DB	02H
	DB	00H
	DB	02H
	DB	00H
	DB	02H
	DB	00H
	DB	02H
	DB	00H
	DB	02H
	DB	00H
	DB	03H
	DB	00H
	DB	03H
	DB	00H
	DB	03H
	DB	00H
	DB	03H
	DB	00H
	DB	03H
	DB	00H
	DB	03H
	DB	00H
	DB	02H
	DB	00H
	DB	02H
	DB	00H
	DB	02H
	DB	00H
	DB	02H
	DB	00H
	DB	02H
	DB	00H
	DB	03H
	DB	00H
	DB	03H
	DB	00H
	DB	03H
	DB	00H
	DB	03H
	DB	00H
	DB	03H
	DB	00H
	DB	02H
	DB	00H
	DB	02H
	DB	00H
	DB	02H
	DB	00H
	DB	02H
	DB	00H
	DB	02H
	DB	00H
	DB	02H
	DB	00H
	DB	02H
	DB	00H
	DB	02H
	DB	00H
	DB	03H
	DB	00H
	DB	03H
	DB	00H
	DB	03H
	DB	00H
	DB	03H
	DB	00H
	DB	03H
	DB	00H
	DB	03H
	DB	00H
	DB	03H
	DB	00H
	DB	03H
	DB	00H
	DB	02H
	DB	00H
	DB	02H
	DB	00H
	DB	02H
	DB	00H
	DB	02H
	DB	00H
	DB	02H
	DB	00H
	DB	03H
	DB	00H
	DB	03H
	DB	00H
	DB	03H
	DB	00H
	DB	03H
	DB	00H
	DB	03H
	DB	00H
	DB	02H
	DB	00H
	DB	02H
	DB	00H
	DB	02H
	DB	00H
	DB	02H
	DB	00H
	DB	02H
	DB	00H
	DB	02H
	DB	00H
	DB	02H
	DB	00H
	DB	02H
	DB	00H
	DB	02H
	DB	00H
	DB	03H
	DB	00H
	DB	03H
	DB	00H
	DB	03H
	DB	00H
	DB	03H
	DB	00H
	DB	03H
	DB	00H
	DB	03H
	DB	00H
	DB	03H
	DB	00H
	DB	03H
	DB	00H
	DB	03H
	DB	00H
	DB	02H
	DB	00H
	DB	02H
	DB	00H
	DB	03H
	DB	00H
	DB	03H
	DB	00H
	DB	02H
	DB	00H
	DB	02H
	DB	00H
	DB	02H
	DB	00H
	DB	03H
	DB	00H
	DB	03H
	DB	00H
	DB	03H
	DB	00H
	DB	02H
	DB	00H
	DB	02H
	DB	00H
	DB	02H
	DB	00H
	DB	02H
	DB	00H
	DB	03H
	DB	00H
	DB	03H
	DB	00H
	DB	03H
	DB	00H
	DB	03H
	DB	00H
	DB	02H
	DB	00H
	DB	02H
	DB	00H
	DB	02H
	DB	00H
	DB	02H
	DB	00H
	DB	02H
	DB	00H
	DB	02H
	DB	00H
	DB	03H
	DB	00H
	DB	03H
	DB	00H
	DB	03H
	DB	00H
	DB	03H
	DB	00H
	DB	03H
	DB	00H
	DB	03H
	DB	00H
	DB	02H
	DB	00H
	DB	02H
	DB	00H
	DB	02H
	DB	00H
	DB	03H
	DB	00H
	DB	03H
	DB	00H
	DB	03H
	DB	00H
	DB	02H
	DB	00H
	DB	02H
	DB	00H
	DB	02H
	DB	00H
	DB	02H
	DB	00H
	DB	02H
	DB	00H
	DB	02H
	DB	00H
	DB	02H
	DB	00H
	DB	03H
	DB	00H
	DB	03H
	DB	00H
	DB	03H
	DB	00H
	DB	03H
	DB	00H
	DB	03H
	DB	00H
	DB	03H
	DB	00H
	DB	03H
	DB	00H
	DB	02H
	DB	00H
	DB	02H
	DB	00H
	DB	02H
	DB	00H
	DB	03H
	DB	00H
	DB	03H
	DB	00H
	DB	03H
	DB	00H
	DB	02H
	DB	00H
	DB	02H
	DB	00H
	DB	02H
	DB	00H
	DB	03H
	DB	00H
	DB	03H
	DB	00H
	DB	03H
	DB	00H
	DB	02H
	DB	00H
	DB	02H
	DB	00H
	DB	02H
	DB	00H
	DB	02H
	DB	00H
	DB	03H
	DB	00H
	DB	03H
	DB	00H
	DB	03H
	DB	00H
	DB	03H
	DB	00H
	DB	02H
	DB	00H
	DB	02H
	DB	00H
	DB	02H
	DB	00H
	DB	03H
	DB	00H
	DB	03H
	DB	00H
	DB	03H
	DB	00H
	DB	02H
	DB	00H
	DB	02H
	DB	00H
	DB	02H
	DB	00H
	DB	02H
	DB	00H
	DB	02H
	DB	00H
	DB	02H
	DB	00H
	DB	02H
	DB	00H
	DB	02H
	DB	00H
	DB	03H
	DB	00H
	DB	03H
	DB	00H
	DB	03H
	DB	00H
	DB	03H
	DB	00H
	DB	03H
	DB	00H
	DB	03H
	DB	00H
	DB	03H
	DB	00H
	DB	03H
	DB	00H
	DB	02H
	DB	00H
	DB	02H
	DB	00H
	DB	02H
	DB	00H
	DB	02H
	DB	00H
	DB	03H
	DB	00H
	DB	03H
	DB	00H
	DB	03H
	DB	00H
	DB	03H
	DB	00H
	DB	02H
	DB	00H
	DB	02H
	DB	00H
	DB	03H
	DB	00H
	DB	03H
	DB	00H
	DB	02H
	DB	00H
	DB	03H
	DB	00H
	DB	02H
	DB	00H
	DB	02H
	DB	00H
	DB	02H
	DB	00H
	DB	02H
	DB	00H
	DB	03H
	DB	00H
	DB	03H
	DB	00H
	DB	03H
	DB	00H
	DB	03H
	DB	00H
	DB	02H
	DB	00H
	DB	02H
	DB	00H
	DB	02H
	DB	00H
	DB	02H
	DB	00H
	DB	02H
	DB	00H
	DB	02H
	DB	00H
	DB	02H
	DB	00H
	DB	02H
	DB	00H
	DB	02H
	DB	00H
	DB	02H
	DB	00H
	DB	02H
	DB	00H
	DB	02H
	DB	00H
	DB	02H
	DB	00H
	DB	02H
	DB	00H
	DB	07H
	DB	01H
	DB	08H
	DB	01H
	DB	07H
	DB	01H
	DB	07H
	DB	01H
	DB	08H
	DB	01H
	DB	07H
	DB	01H
	DB	07H
	DB	01H
	DB	07H
	DB	01H
	DB	07H
	DB	01H
	DB	07H
	DB	01H
	DB	07H
	DB	01H
	DB	07H
	DB	01H
	DB	08H
	DB	01H
	DB	07H
	DB	01H
	DB	07H
	DB	01H
	DB	07H
	DB	01H
	DB	07H
	DB	01H
	DB	08H
	DB	01H
	DB	08H
	DB	01H
	DB	09H
	DB	00H
	DB	09H
	DB	00H
	DB	09H
	DB	00H
	DB	09H
	DB	00H
	DB	09H
	DB	00H
	DB	09H
	DB	00H
	DB	09H
	DB	00H
	DB	09H
	DB	00H
	DB	09H
	DB	00H
	DB	09H
	DB	00H
	DB	09H
	DB	00H
	DB	09H
	DB	00H
	DB	09H
	DB	00H
	DB	09H
	DB	00H
	DB	09H
	DB	00H
	DB	09H
	DB	00H
	DB	09H
	DB	00H
	DB	09H
	DB	00H
	DB	09H
	DB	00H
	DB	09H
	DB	00H
	DB	0aH
	DB	00H
	DB	0aH
	DB	00H
	DB	0aH
	DB	00H
	DB	0aH
	DB	00H
	DB	02H
	DB	00H
	DB	02H
	DB	00H
	DB	02H
	DB	00H
	DB	02H
	DB	00H
	DB	02H
	DB	00H
	DB	02H
	DB	00H
	DB	02H
	DB	00H
	DB	02H
	DB	00H
	DB	02H
	DB	00H
	DB	02H
	DB	00H
	DB	02H
	DB	00H
	DB	0cH
	DB	01H
	DB	0cH
	DB	01H
	DB	0cH
	DB	01H
	DB	0cH
	DB	01H
	DB	0cH
	DB	01H
	DB	0cH
	DB	01H
	DB	0cH
	DB	01H
	DB	0cH
	DB	01H
	DB	0cH
	DB	01H
	DB	0cH
	DB	01H
	DB	0cH
	DB	01H
	DB	0cH
	DB	01H
	DB	09H
	DB	00H
	DB	09H
	DB	00H
	DB	0cH
	DB	01H
	DB	0cH
	DB	01H
	DB	05H
	DB	02H
	DB	05H
	DB	02H
	DB	05H
	DB	02H
	DB	06H
	DB	02H
	DB	06H
	DB	02H
	DB	06H
	DB	01H
	DB	06H
	DB	01H
	DB	0cH
	DB	01H
	DB	0cH
	DB	01H
	DB	0cH
	DB	01H
	DB	07H
	DB	00H
	DB	08H
	DB	01H
	DB	08H
	DB	01H
	DB	07H
	DB	01H
	DB	02H
	DB	01H
	DB	09H
	DB	01H
	DB	09H
	DB	01H
	DB	09H
	DB	01H
	DB	09H
	DB	01H
	DB	09H
	DB	01H
	DB	02H
	DB	00H
	DB	02H
	DB	00H
	DB	02H
	DB	00H
	DB	02H
	DB	00H
	DB	02H
	DB	00H
	DB	02H
	DB	00H
	DB	02H
	DB	00H
	DB	02H
	DB	00H
	DB	09H
	DB	00H
	DB	09H
	DB	00H
	DB	0cH
	DB	02H
	DB	02H
	DB	02H
	DB	02H
	DB	02H
	DB	0dH
	DB	02H
	DB	09H
	DB	02H
	DB	0dH
	DB	02H
	DB	09H
	DB	02H
	DB	02H
	DB	01H
	DB	09H
	DB	00H
	DB	0bH
	DB	02H
	DB	0bH
	DB	02H
	DB	0bH
	DB	01H
	DB	06H
	DB	02H
	DB	06H
	DB	02H
	DB	07H
	DB	01H
	DB	0dH
	DB	00H
	DB	0dH
	DB	00H
	DB	0dH
	DB	00H
	DB	02H
	DB	01H
	DB	02H
	DB	01H
	DB	02H
	DB	01H
	DB	02H
	DB	01H
	DB	02H
	DB	01H
	DB	09H
	DB	01H
	DB	09H
	DB	01H
	DB	09H
	DB	01H
	DB	09H
	DB	01H
	DB	09H
	DB	01H
	DB	03H
	DB	00H
	DB	02H
	DB	00H
	DB	03H
	DB	00H
	DB	02H
	DB	00H
	DB	00H
	DB	00H
	DB	00H
	DB	00H
	DB	09H
	DB	00H
	DB	09H
	DB	00H
	DB	00H
	DB	00H
	DB	00H
	DB	00H
	DB	09H
	DB	00H
	DB	07H
	DB	01H
	DB	02H
	DB	01H
	DB	02H
	DB	01H
	DB	00H
	DB	00H
	DB	00H
	DB	00H
	DB	00H
	DB	00H
	DB	00H
	DB	00H
	DB	00H
	DB	00H
	DB	00H
	DB	00H
	DB	00H
	DB	00H
	DB	00H
	DB	00H
	DB	00H
	DB	00H
	DB	00H
	DB	00H
	DB	00H
	DB	00H
	DB	00H
	DB	00H
	DB	00H
	DB	00H
	DB	00H
	DB	00H
	DB	00H
	DB	00H
	DB	00H
	DB	00H
	DB	00H
	DB	00H
	DB	00H
	DB	00H
	DB	00H
	DB	00H
	DB	00H
	DB	00H
	DB	00H
	DB	00H
	DB	00H
	DB	00H
	DB	09H
	DB	00H
	DB	00H
	DB	00H
	DB	00H
	DB	00H
	DB	09H
	DB	00H
	DB	09H
	DB	00H
	DB	02H
	DB	00H
	DB	02H
	DB	00H
	DB	02H
	DB	00H
	DB	02H
	DB	00H
	DB	02H
	DB	00H
	DB	00H
	DB	00H
	DB	00H
	DB	00H
	DB	02H
	DB	00H
	DB	02H
	DB	00H
	DB	02H
	DB	00H
	DB	02H
	DB	00H
	DB	02H
	DB	00H
	DB	02H
	DB	00H
	DB	02H
	DB	00H
	DB	02H
	DB	00H
	DB	02H
	DB	00H
	DB	0aH
	DB	00H
	DB	0aH
	DB	00H
	DB	0aH
	DB	00H
	DB	0aH
	DB	00H
	DB	0aH
	DB	00H
	DB	01H
	DB	01H
	DB	01H
	DB	01H
	DB	01H
	DB	01H
	DB	01H
	DB	00H
	DB	01H
	DB	00H
	DB	01H
	DB	00H
	DB	01H
	DB	00H
	DB	0aH
	DB	00H
	DB	01H
	DB	00H
	DB	01H
	DB	00H
	DB	01H
	DB	00H
	DB	01H
	DB	00H
	DB	01H
	DB	00H
	DB	01H
	DB	00H
	DB	01H
	DB	00H
	DB	01H
	DB	00H
	DB	01H
	DB	00H
	DB	01H
	DB	00H
	DB	01H
	DB	00H
	DB	01H
	DB	00H
	DB	01H
	DB	00H
	DB	01H
	DB	00H
	DB	01H
	DB	00H
	DB	01H
	DB	00H
	DB	01H
	DB	00H
	DB	01H
	DB	00H
	DB	01H
	DB	00H
	DB	01H
	DB	00H
	DB	01H
	DB	00H
	DB	01H
	DB	00H
	DB	01H
	DB	00H
	DB	08H
	DB	00H
	DB	04H
	DB	00H
	DB	01H
	DB	01H
	DB	01H
	DB	01H
	DB	01H
	DB	01H
	DB	01H
	DB	01H
	DB	01H
	DB	01H
	DB	01H
	DB	01H
	DB	01H
	DB	01H
	DB	01H
	DB	01H
	DB	01H
	DB	01H
	DB	01H
	DB	01H
	DB	0aH
	DB	01H
	DB	01H
	DB	01H
	DB	01H
	DB	01H
	DB	01H
	DB	01H
	DB	01H
	DB	01H
	DB	01H
	DB	01H
	DB	01H
	DB	01H
	DB	01H
	DB	01H
	DB	01H
	DB	01H
	DB	04H
	DB	00H
	DB	04H
	DB	00H
	DB	0aH
	DB	01H
	DB	0aH
	DB	01H
	DB	0aH
	DB	01H
	DB	01H
	DB	00H
	ORG $+2
?typedTextDatabaseArray@@3QBQBUTypedTextData@TypedText@touchgfx@@B DD FLAT:?typedText_database_Gb@@3QBUTypedTextData@TypedText@touchgfx@@B ; typedTextDatabaseArray
	ORG $+4
?typedText_database_Gb@@3QBUTypedTextData@TypedText@touchgfx@@B DB 00H ; typedText_database_Gb
	DB	01H
	DB	01H
	DB	01H
	DB	09H
	DB	00H
	DB	09H
	DB	00H
	DB	09H
	DB	00H
	DB	09H
	DB	00H
	DB	02H
	DB	02H
	DB	09H
	DB	00H
	DB	02H
	DB	01H
	DB	06H
	DB	02H
	DB	05H
	DB	02H
	DB	05H
	DB	02H
	DB	04H
	DB	02H
	DB	04H
	DB	02H
	DB	0bH
	DB	02H
	DB	0bH
	DB	00H
	DB	0bH
	DB	00H
	DB	0bH
	DB	00H
	DB	02H
	DB	02H
	DB	02H
	DB	02H
	DB	02H
	DB	02H
	DB	02H
	DB	02H
	DB	0bH
	DB	02H
	DB	0bH
	DB	00H
	DB	04H
	DB	01H
	DB	0cH
	DB	00H
	DB	0cH
	DB	00H
	DB	04H
	DB	00H
	DB	04H
	DB	00H
	DB	02H
	DB	00H
	DB	03H
	DB	00H
	DB	02H
	DB	00H
	DB	03H
	DB	00H
	DB	02H
	DB	00H
	DB	02H
	DB	00H
	DB	02H
	DB	00H
	DB	02H
	DB	00H
	DB	02H
	DB	00H
	DB	02H
	DB	00H
	DB	03H
	DB	00H
	DB	03H
	DB	00H
	DB	03H
	DB	00H
	DB	03H
	DB	00H
	DB	03H
	DB	00H
	DB	03H
	DB	00H
	DB	02H
	DB	00H
	DB	02H
	DB	00H
	DB	02H
	DB	00H
	DB	02H
	DB	00H
	DB	02H
	DB	00H
	DB	03H
	DB	00H
	DB	03H
	DB	00H
	DB	03H
	DB	00H
	DB	03H
	DB	00H
	DB	03H
	DB	00H
	DB	02H
	DB	00H
	DB	02H
	DB	00H
	DB	02H
	DB	00H
	DB	02H
	DB	00H
	DB	02H
	DB	00H
	DB	02H
	DB	00H
	DB	02H
	DB	00H
	DB	02H
	DB	00H
	DB	03H
	DB	00H
	DB	03H
	DB	00H
	DB	03H
	DB	00H
	DB	03H
	DB	00H
	DB	03H
	DB	00H
	DB	03H
	DB	00H
	DB	03H
	DB	00H
	DB	03H
	DB	00H
	DB	02H
	DB	00H
	DB	02H
	DB	00H
	DB	02H
	DB	00H
	DB	02H
	DB	00H
	DB	02H
	DB	00H
	DB	03H
	DB	00H
	DB	03H
	DB	00H
	DB	03H
	DB	00H
	DB	03H
	DB	00H
	DB	03H
	DB	00H
	DB	02H
	DB	00H
	DB	02H
	DB	00H
	DB	02H
	DB	00H
	DB	02H
	DB	00H
	DB	02H
	DB	00H
	DB	02H
	DB	00H
	DB	02H
	DB	00H
	DB	02H
	DB	00H
	DB	02H
	DB	00H
	DB	03H
	DB	00H
	DB	03H
	DB	00H
	DB	03H
	DB	00H
	DB	03H
	DB	00H
	DB	03H
	DB	00H
	DB	03H
	DB	00H
	DB	03H
	DB	00H
	DB	03H
	DB	00H
	DB	03H
	DB	00H
	DB	02H
	DB	00H
	DB	02H
	DB	00H
	DB	03H
	DB	00H
	DB	03H
	DB	00H
	DB	02H
	DB	00H
	DB	02H
	DB	00H
	DB	02H
	DB	00H
	DB	03H
	DB	00H
	DB	03H
	DB	00H
	DB	03H
	DB	00H
	DB	02H
	DB	00H
	DB	02H
	DB	00H
	DB	02H
	DB	00H
	DB	02H
	DB	00H
	DB	03H
	DB	00H
	DB	03H
	DB	00H
	DB	03H
	DB	00H
	DB	03H
	DB	00H
	DB	02H
	DB	00H
	DB	02H
	DB	00H
	DB	02H
	DB	00H
	DB	02H
	DB	00H
	DB	02H
	DB	00H
	DB	02H
	DB	00H
	DB	03H
	DB	00H
	DB	03H
	DB	00H
	DB	03H
	DB	00H
	DB	03H
	DB	00H
	DB	03H
	DB	00H
	DB	03H
	DB	00H
	DB	02H
	DB	00H
	DB	02H
	DB	00H
	DB	02H
	DB	00H
	DB	03H
	DB	00H
	DB	03H
	DB	00H
	DB	03H
	DB	00H
	DB	02H
	DB	00H
	DB	02H
	DB	00H
	DB	02H
	DB	00H
	DB	02H
	DB	00H
	DB	02H
	DB	00H
	DB	02H
	DB	00H
	DB	02H
	DB	00H
	DB	03H
	DB	00H
	DB	03H
	DB	00H
	DB	03H
	DB	00H
	DB	03H
	DB	00H
	DB	03H
	DB	00H
	DB	03H
	DB	00H
	DB	03H
	DB	00H
	DB	02H
	DB	00H
	DB	02H
	DB	00H
	DB	02H
	DB	00H
	DB	03H
	DB	00H
	DB	03H
	DB	00H
	DB	03H
	DB	00H
	DB	02H
	DB	00H
	DB	02H
	DB	00H
	DB	02H
	DB	00H
	DB	03H
	DB	00H
	DB	03H
	DB	00H
	DB	03H
	DB	00H
	DB	02H
	DB	00H
	DB	02H
	DB	00H
	DB	02H
	DB	00H
	DB	02H
	DB	00H
	DB	03H
	DB	00H
	DB	03H
	DB	00H
	DB	03H
	DB	00H
	DB	03H
	DB	00H
	DB	02H
	DB	00H
	DB	02H
	DB	00H
	DB	02H
	DB	00H
	DB	03H
	DB	00H
	DB	03H
	DB	00H
	DB	03H
	DB	00H
	DB	02H
	DB	00H
	DB	02H
	DB	00H
	DB	02H
	DB	00H
	DB	02H
	DB	00H
	DB	02H
	DB	00H
	DB	02H
	DB	00H
	DB	02H
	DB	00H
	DB	02H
	DB	00H
	DB	03H
	DB	00H
	DB	03H
	DB	00H
	DB	03H
	DB	00H
	DB	03H
	DB	00H
	DB	03H
	DB	00H
	DB	03H
	DB	00H
	DB	03H
	DB	00H
	DB	03H
	DB	00H
	DB	02H
	DB	00H
	DB	02H
	DB	00H
	DB	02H
	DB	00H
	DB	02H
	DB	00H
	DB	03H
	DB	00H
	DB	03H
	DB	00H
	DB	03H
	DB	00H
	DB	03H
	DB	00H
	DB	02H
	DB	00H
	DB	02H
	DB	00H
	DB	03H
	DB	00H
	DB	03H
	DB	00H
	DB	02H
	DB	00H
	DB	03H
	DB	00H
	DB	02H
	DB	00H
	DB	02H
	DB	00H
	DB	02H
	DB	00H
	DB	02H
	DB	00H
	DB	03H
	DB	00H
	DB	03H
	DB	00H
	DB	03H
	DB	00H
	DB	03H
	DB	00H
	DB	02H
	DB	00H
	DB	02H
	DB	00H
	DB	02H
	DB	00H
	DB	02H
	DB	00H
	DB	02H
	DB	00H
	DB	02H
	DB	00H
	DB	02H
	DB	00H
	DB	02H
	DB	00H
	DB	02H
	DB	00H
	DB	02H
	DB	00H
	DB	02H
	DB	00H
	DB	02H
	DB	00H
	DB	02H
	DB	00H
	DB	02H
	DB	00H
	DB	07H
	DB	01H
	DB	08H
	DB	01H
	DB	07H
	DB	01H
	DB	07H
	DB	01H
	DB	08H
	DB	01H
	DB	07H
	DB	01H
	DB	07H
	DB	01H
	DB	07H
	DB	01H
	DB	07H
	DB	01H
	DB	07H
	DB	01H
	DB	07H
	DB	01H
	DB	07H
	DB	01H
	DB	08H
	DB	01H
	DB	07H
	DB	01H
	DB	07H
	DB	01H
	DB	07H
	DB	01H
	DB	07H
	DB	01H
	DB	08H
	DB	01H
	DB	08H
	DB	01H
	DB	09H
	DB	00H
	DB	09H
	DB	00H
	DB	09H
	DB	00H
	DB	09H
	DB	00H
	DB	09H
	DB	00H
	DB	09H
	DB	00H
	DB	09H
	DB	00H
	DB	09H
	DB	00H
	DB	09H
	DB	00H
	DB	09H
	DB	00H
	DB	09H
	DB	00H
	DB	09H
	DB	00H
	DB	09H
	DB	00H
	DB	09H
	DB	00H
	DB	09H
	DB	00H
	DB	09H
	DB	00H
	DB	09H
	DB	00H
	DB	09H
	DB	00H
	DB	09H
	DB	00H
	DB	09H
	DB	00H
	DB	0aH
	DB	00H
	DB	0aH
	DB	00H
	DB	0aH
	DB	00H
	DB	0aH
	DB	00H
	DB	02H
	DB	00H
	DB	02H
	DB	00H
	DB	02H
	DB	00H
	DB	02H
	DB	00H
	DB	02H
	DB	00H
	DB	02H
	DB	00H
	DB	02H
	DB	00H
	DB	02H
	DB	00H
	DB	02H
	DB	00H
	DB	02H
	DB	00H
	DB	02H
	DB	00H
	DB	0cH
	DB	01H
	DB	0cH
	DB	01H
	DB	0cH
	DB	01H
	DB	0cH
	DB	01H
	DB	0cH
	DB	01H
	DB	0cH
	DB	01H
	DB	0cH
	DB	01H
	DB	0cH
	DB	01H
	DB	0cH
	DB	01H
	DB	0cH
	DB	01H
	DB	0cH
	DB	01H
	DB	0cH
	DB	01H
	DB	09H
	DB	00H
	DB	09H
	DB	00H
	DB	0cH
	DB	01H
	DB	0cH
	DB	01H
	DB	05H
	DB	02H
	DB	05H
	DB	02H
	DB	05H
	DB	02H
	DB	06H
	DB	02H
	DB	06H
	DB	02H
	DB	06H
	DB	01H
	DB	06H
	DB	01H
	DB	0cH
	DB	01H
	DB	0cH
	DB	01H
	DB	0cH
	DB	01H
	DB	07H
	DB	00H
	DB	08H
	DB	01H
	DB	08H
	DB	01H
	DB	07H
	DB	01H
	DB	02H
	DB	01H
	DB	09H
	DB	01H
	DB	09H
	DB	01H
	DB	09H
	DB	01H
	DB	09H
	DB	01H
	DB	09H
	DB	01H
	DB	02H
	DB	00H
	DB	02H
	DB	00H
	DB	02H
	DB	00H
	DB	02H
	DB	00H
	DB	02H
	DB	00H
	DB	02H
	DB	00H
	DB	02H
	DB	00H
	DB	02H
	DB	00H
	DB	09H
	DB	00H
	DB	09H
	DB	00H
	DB	0cH
	DB	02H
	DB	02H
	DB	02H
	DB	02H
	DB	02H
	DB	0dH
	DB	02H
	DB	09H
	DB	02H
	DB	0dH
	DB	02H
	DB	09H
	DB	02H
	DB	02H
	DB	01H
	DB	09H
	DB	00H
	DB	0bH
	DB	02H
	DB	0bH
	DB	02H
	DB	0bH
	DB	01H
	DB	06H
	DB	02H
	DB	06H
	DB	02H
	DB	07H
	DB	01H
	DB	0dH
	DB	00H
	DB	0dH
	DB	00H
	DB	0dH
	DB	00H
	DB	02H
	DB	01H
	DB	02H
	DB	01H
	DB	02H
	DB	01H
	DB	02H
	DB	01H
	DB	02H
	DB	01H
	DB	09H
	DB	01H
	DB	09H
	DB	01H
	DB	09H
	DB	01H
	DB	09H
	DB	01H
	DB	09H
	DB	01H
	DB	03H
	DB	00H
	DB	02H
	DB	00H
	DB	03H
	DB	00H
	DB	02H
	DB	00H
	DB	00H
	DB	00H
	DB	00H
	DB	00H
	DB	09H
	DB	00H
	DB	09H
	DB	00H
	DB	00H
	DB	00H
	DB	00H
	DB	00H
	DB	09H
	DB	00H
	DB	07H
	DB	01H
	DB	02H
	DB	01H
	DB	02H
	DB	01H
	DB	00H
	DB	00H
	DB	00H
	DB	00H
	DB	00H
	DB	00H
	DB	00H
	DB	00H
	DB	00H
	DB	00H
	DB	00H
	DB	00H
	DB	00H
	DB	00H
	DB	00H
	DB	00H
	DB	00H
	DB	00H
	DB	00H
	DB	00H
	DB	00H
	DB	00H
	DB	00H
	DB	00H
	DB	00H
	DB	00H
	DB	00H
	DB	00H
	DB	00H
	DB	00H
	DB	00H
	DB	00H
	DB	00H
	DB	00H
	DB	00H
	DB	00H
	DB	00H
	DB	00H
	DB	00H
	DB	00H
	DB	00H
	DB	00H
	DB	00H
	DB	00H
	DB	09H
	DB	00H
	DB	00H
	DB	00H
	DB	00H
	DB	00H
	DB	09H
	DB	00H
	DB	09H
	DB	00H
	DB	02H
	DB	00H
	DB	02H
	DB	00H
	DB	02H
	DB	00H
	DB	02H
	DB	00H
	DB	02H
	DB	00H
	DB	00H
	DB	00H
	DB	00H
	DB	00H
	DB	02H
	DB	00H
	DB	02H
	DB	00H
	DB	02H
	DB	00H
	DB	02H
	DB	00H
	DB	02H
	DB	00H
	DB	02H
	DB	00H
	DB	02H
	DB	00H
	DB	02H
	DB	00H
	DB	02H
	DB	00H
	DB	0aH
	DB	00H
	DB	0aH
	DB	00H
	DB	0aH
	DB	00H
	DB	0aH
	DB	00H
	DB	0aH
	DB	00H
	DB	01H
	DB	01H
	DB	01H
	DB	01H
	DB	01H
	DB	01H
	DB	01H
	DB	00H
	DB	01H
	DB	00H
	DB	01H
	DB	00H
	DB	01H
	DB	00H
	DB	0aH
	DB	00H
	DB	01H
	DB	00H
	DB	01H
	DB	00H
	DB	01H
	DB	00H
	DB	01H
	DB	00H
	DB	01H
	DB	00H
	DB	01H
	DB	00H
	DB	01H
	DB	00H
	DB	01H
	DB	00H
	DB	01H
	DB	00H
	DB	01H
	DB	00H
	DB	01H
	DB	00H
	DB	01H
	DB	00H
	DB	01H
	DB	00H
	DB	01H
	DB	00H
	DB	01H
	DB	00H
	DB	01H
	DB	00H
	DB	01H
	DB	00H
	DB	01H
	DB	00H
	DB	01H
	DB	00H
	DB	01H
	DB	00H
	DB	01H
	DB	00H
	DB	01H
	DB	00H
	DB	01H
	DB	00H
	DB	08H
	DB	00H
	DB	04H
	DB	00H
	DB	01H
	DB	01H
	DB	01H
	DB	01H
	DB	01H
	DB	01H
	DB	01H
	DB	01H
	DB	01H
	DB	01H
	DB	01H
	DB	01H
	DB	01H
	DB	01H
	DB	01H
	DB	01H
	DB	01H
	DB	01H
	DB	01H
	DB	01H
	DB	0aH
	DB	01H
	DB	01H
	DB	01H
	DB	01H
	DB	01H
	DB	01H
	DB	01H
	DB	01H
	DB	01H
	DB	01H
	DB	01H
	DB	01H
	DB	01H
	DB	01H
	DB	01H
	DB	01H
	DB	01H
	DB	04H
	DB	00H
	DB	04H
	DB	00H
	DB	0aH
	DB	01H
	DB	0aH
	DB	01H
	DB	0aH
	DB	01H
	DB	01H
	DB	00H
CONST	ENDS
PUBLIC	?getInstance@TypedTextDatabase@@YAPBUTypedTextData@TypedText@touchgfx@@G@Z ; TypedTextDatabase::getInstance
PUBLIC	?getFonts@TypedTextDatabase@@YAPAPBVFont@touchgfx@@XZ ; TypedTextDatabase::getFonts
PUBLIC	?setFont@TypedTextDatabase@@YAPBVFont@touchgfx@@GPBV23@@Z ; TypedTextDatabase::setFont
PUBLIC	?resetFont@TypedTextDatabase@@YAXG@Z		; TypedTextDatabase::resetFont
PUBLIC	?getInstanceSize@TypedTextDatabase@@YAGXZ	; TypedTextDatabase::getInstanceSize
PUBLIC	__JustMyCode_Default
PUBLIC	?touchgfx_fonts@@3PAPBVFont@touchgfx@@A		; touchgfx_fonts
EXTRN	?getFont_RobotoCondensed_Bold_48_4bpp@@YAAAVGeneratedFont@touchgfx@@XZ:PROC ; getFont_RobotoCondensed_Bold_48_4bpp
EXTRN	?getFont_RobotoCondensed_Regular_18_4bpp@@YAAAVGeneratedFont@touchgfx@@XZ:PROC ; getFont_RobotoCondensed_Regular_18_4bpp
EXTRN	?getFont_RobotoCondensed_Regular_26_4bpp@@YAAAVGeneratedFont@touchgfx@@XZ:PROC ; getFont_RobotoCondensed_Regular_26_4bpp
EXTRN	?getFont_RobotoCondensed_Regular_36_4bpp@@YAAAVGeneratedFont@touchgfx@@XZ:PROC ; getFont_RobotoCondensed_Regular_36_4bpp
EXTRN	?getFont_RobotoCondensed_Bold_40_4bpp@@YAAAVGeneratedFont@touchgfx@@XZ:PROC ; getFont_RobotoCondensed_Bold_40_4bpp
EXTRN	?getFont_RobotoMono_Regular_26_4bpp@@YAAAVGeneratedFont@touchgfx@@XZ:PROC ; getFont_RobotoMono_Regular_26_4bpp
EXTRN	?getFont_RobotoMono_Bold_40_4bpp@@YAAAVGeneratedFont@touchgfx@@XZ:PROC ; getFont_RobotoMono_Bold_40_4bpp
EXTRN	?getFont_RobotoCondensed_Regular_24_4bpp@@YAAAVGeneratedFont@touchgfx@@XZ:PROC ; getFont_RobotoCondensed_Regular_24_4bpp
EXTRN	?getFont_RobotoCondensed_Bold_24_4bpp@@YAAAVGeneratedFont@touchgfx@@XZ:PROC ; getFont_RobotoCondensed_Bold_24_4bpp
EXTRN	?getFont_RobotoCondensed_Bold_26_4bpp@@YAAAVGeneratedFont@touchgfx@@XZ:PROC ; getFont_RobotoCondensed_Bold_26_4bpp
EXTRN	?getFont_RobotoCondensed_Bold_20_4bpp@@YAAAVGeneratedFont@touchgfx@@XZ:PROC ; getFont_RobotoCondensed_Bold_20_4bpp
EXTRN	?getFont_RobotoMono_Regular_32_4bpp@@YAAAVGeneratedFont@touchgfx@@XZ:PROC ; getFont_RobotoMono_Regular_32_4bpp
EXTRN	?getFont_RobotoCondensed_Regular_32_4bpp@@YAAAVGeneratedFont@touchgfx@@XZ:PROC ; getFont_RobotoCondensed_Regular_32_4bpp
EXTRN	?getFont_RobotoCondensed_Bold_32_4bpp@@YAAAVGeneratedFont@touchgfx@@XZ:PROC ; getFont_RobotoCondensed_Bold_32_4bpp
EXTRN	@__CheckForDebuggerJustMyCode@4:PROC
EXTRN	__RTC_CheckEsp:PROC
EXTRN	__RTC_InitBase:PROC
EXTRN	__RTC_Shutdown:PROC
_BSS	SEGMENT
?touchgfx_fonts@@3PAPBVFont@touchgfx@@A DD 0eH DUP (?)	; touchgfx_fonts
_BSS	ENDS
CRT$XCU	SEGMENT
?touchgfx_fonts$initializer$@@3P6AXXZA DD FLAT:??__Etouchgfx_fonts@@YAXXZ ; touchgfx_fonts$initializer$
CRT$XCU	ENDS
;	COMDAT rtc$TMZ
rtc$TMZ	SEGMENT
__RTC_Shutdown.rtc$TMZ DD FLAT:__RTC_Shutdown
rtc$TMZ	ENDS
;	COMDAT rtc$IMZ
rtc$IMZ	SEGMENT
__RTC_InitBase.rtc$IMZ DD FLAT:__RTC_InitBase
rtc$IMZ	ENDS
; Function compile flags: /Odt
;	COMDAT __JustMyCode_Default
_TEXT	SEGMENT
__JustMyCode_Default PROC				; COMDAT
	push	ebp
	mov	ebp, esp
	pop	ebp
	ret	0
__JustMyCode_Default ENDP
_TEXT	ENDS
; Function compile flags: /Odtp /RTCsu /ZI
;	COMDAT ??__Etouchgfx_fonts@@YAXXZ
text$di	SEGMENT
??__Etouchgfx_fonts@@YAXXZ PROC				; `dynamic initializer for 'touchgfx_fonts'', COMDAT
; File C:\TouchGFXProjects\KraftHeinz_DS3600\TouchGFX\generated\texts\src\TypedTextDatabase.cpp
; Line 39
	push	ebp
	mov	ebp, esp
	sub	esp, 192				; 000000c0H
	push	ebx
	push	esi
	push	edi
	mov	edi, ebp
	xor	ecx, ecx
	mov	eax, -858993460				; ccccccccH
	rep stosd
	mov	ecx, OFFSET __FC1C3AF1_TypedTextDatabase@cpp
	call	@__CheckForDebuggerJustMyCode@4
; Line 25
	call	?getFont_RobotoCondensed_Bold_48_4bpp@@YAAAVGeneratedFont@touchgfx@@XZ ; getFont_RobotoCondensed_Bold_48_4bpp
	mov	DWORD PTR ?touchgfx_fonts@@3PAPBVFont@touchgfx@@A, eax
; Line 26
	call	?getFont_RobotoCondensed_Regular_18_4bpp@@YAAAVGeneratedFont@touchgfx@@XZ ; getFont_RobotoCondensed_Regular_18_4bpp
	mov	DWORD PTR ?touchgfx_fonts@@3PAPBVFont@touchgfx@@A+4, eax
; Line 27
	call	?getFont_RobotoCondensed_Regular_26_4bpp@@YAAAVGeneratedFont@touchgfx@@XZ ; getFont_RobotoCondensed_Regular_26_4bpp
	mov	DWORD PTR ?touchgfx_fonts@@3PAPBVFont@touchgfx@@A+8, eax
; Line 28
	call	?getFont_RobotoCondensed_Regular_36_4bpp@@YAAAVGeneratedFont@touchgfx@@XZ ; getFont_RobotoCondensed_Regular_36_4bpp
	mov	DWORD PTR ?touchgfx_fonts@@3PAPBVFont@touchgfx@@A+12, eax
; Line 29
	call	?getFont_RobotoCondensed_Bold_40_4bpp@@YAAAVGeneratedFont@touchgfx@@XZ ; getFont_RobotoCondensed_Bold_40_4bpp
	mov	DWORD PTR ?touchgfx_fonts@@3PAPBVFont@touchgfx@@A+16, eax
; Line 30
	call	?getFont_RobotoMono_Regular_26_4bpp@@YAAAVGeneratedFont@touchgfx@@XZ ; getFont_RobotoMono_Regular_26_4bpp
	mov	DWORD PTR ?touchgfx_fonts@@3PAPBVFont@touchgfx@@A+20, eax
; Line 31
	call	?getFont_RobotoMono_Bold_40_4bpp@@YAAAVGeneratedFont@touchgfx@@XZ ; getFont_RobotoMono_Bold_40_4bpp
	mov	DWORD PTR ?touchgfx_fonts@@3PAPBVFont@touchgfx@@A+24, eax
; Line 32
	call	?getFont_RobotoCondensed_Regular_24_4bpp@@YAAAVGeneratedFont@touchgfx@@XZ ; getFont_RobotoCondensed_Regular_24_4bpp
	mov	DWORD PTR ?touchgfx_fonts@@3PAPBVFont@touchgfx@@A+28, eax
; Line 33
	call	?getFont_RobotoCondensed_Bold_24_4bpp@@YAAAVGeneratedFont@touchgfx@@XZ ; getFont_RobotoCondensed_Bold_24_4bpp
	mov	DWORD PTR ?touchgfx_fonts@@3PAPBVFont@touchgfx@@A+32, eax
; Line 34
	call	?getFont_RobotoCondensed_Bold_26_4bpp@@YAAAVGeneratedFont@touchgfx@@XZ ; getFont_RobotoCondensed_Bold_26_4bpp
	mov	DWORD PTR ?touchgfx_fonts@@3PAPBVFont@touchgfx@@A+36, eax
; Line 35
	call	?getFont_RobotoCondensed_Bold_20_4bpp@@YAAAVGeneratedFont@touchgfx@@XZ ; getFont_RobotoCondensed_Bold_20_4bpp
	mov	DWORD PTR ?touchgfx_fonts@@3PAPBVFont@touchgfx@@A+40, eax
; Line 36
	call	?getFont_RobotoMono_Regular_32_4bpp@@YAAAVGeneratedFont@touchgfx@@XZ ; getFont_RobotoMono_Regular_32_4bpp
	mov	DWORD PTR ?touchgfx_fonts@@3PAPBVFont@touchgfx@@A+44, eax
; Line 37
	call	?getFont_RobotoCondensed_Regular_32_4bpp@@YAAAVGeneratedFont@touchgfx@@XZ ; getFont_RobotoCondensed_Regular_32_4bpp
	mov	DWORD PTR ?touchgfx_fonts@@3PAPBVFont@touchgfx@@A+48, eax
; Line 38
	call	?getFont_RobotoCondensed_Bold_32_4bpp@@YAAAVGeneratedFont@touchgfx@@XZ ; getFont_RobotoCondensed_Bold_32_4bpp
	mov	DWORD PTR ?touchgfx_fonts@@3PAPBVFont@touchgfx@@A+52, eax
	pop	edi
	pop	esi
	pop	ebx
	add	esp, 192				; 000000c0H
	cmp	ebp, esp
	call	__RTC_CheckEsp
	mov	esp, ebp
	pop	ebp
	ret	0
??__Etouchgfx_fonts@@YAXXZ ENDP				; `dynamic initializer for 'touchgfx_fonts''
text$di	ENDS
; Function compile flags: /Odtp /RTCsu /ZI
;	COMDAT ?getInstanceSize@TypedTextDatabase@@YAGXZ
_TEXT	SEGMENT
?getInstanceSize@TypedTextDatabase@@YAGXZ PROC		; TypedTextDatabase::getInstanceSize, COMDAT
; File C:\TouchGFXProjects\KraftHeinz_DS3600\TouchGFX\generated\texts\src\TypedTextDatabase.cpp
; Line 1017
	push	ebp
	mov	ebp, esp
	sub	esp, 192				; 000000c0H
	push	ebx
	push	esi
	push	edi
	mov	edi, ebp
	xor	ecx, ecx
	mov	eax, -858993460				; ccccccccH
	rep stosd
	mov	ecx, OFFSET __FC1C3AF1_TypedTextDatabase@cpp
	call	@__CheckForDebuggerJustMyCode@4
; Line 1018
	mov	eax, 475				; 000001dbH
; Line 1019
	pop	edi
	pop	esi
	pop	ebx
	add	esp, 192				; 000000c0H
	cmp	ebp, esp
	call	__RTC_CheckEsp
	mov	esp, ebp
	pop	ebp
	ret	0
?getInstanceSize@TypedTextDatabase@@YAGXZ ENDP		; TypedTextDatabase::getInstanceSize
_TEXT	ENDS
; Function compile flags: /Odtp /RTCsu /ZI
;	COMDAT ?resetFont@TypedTextDatabase@@YAXG@Z
_TEXT	SEGMENT
tv65 = -196						; size = 4
_fontId$ = 8						; size = 2
?resetFont@TypedTextDatabase@@YAXG@Z PROC		; TypedTextDatabase::resetFont, COMDAT
; File C:\TouchGFXProjects\KraftHeinz_DS3600\TouchGFX\generated\texts\src\TypedTextDatabase.cpp
; Line 1034
	push	ebp
	mov	ebp, esp
	sub	esp, 196				; 000000c4H
	push	ebx
	push	esi
	push	edi
	lea	edi, DWORD PTR [ebp-4]
	mov	ecx, 1
	mov	eax, -858993460				; ccccccccH
	rep stosd
	mov	ecx, OFFSET __FC1C3AF1_TypedTextDatabase@cpp
	call	@__CheckForDebuggerJustMyCode@4
; Line 1035
	movzx	eax, WORD PTR _fontId$[ebp]
	mov	DWORD PTR tv65[ebp], eax
	cmp	DWORD PTR tv65[ebp], 13			; 0000000dH
	ja	$LN1@resetFont
	mov	ecx, DWORD PTR tv65[ebp]
	jmp	DWORD PTR $LN19@resetFont[ecx*4]
$LN4@resetFont:
; Line 1038
	call	?getFont_RobotoCondensed_Bold_48_4bpp@@YAAAVGeneratedFont@touchgfx@@XZ ; getFont_RobotoCondensed_Bold_48_4bpp
	mov	ecx, 4
	imul	edx, ecx, 0
	mov	DWORD PTR ?touchgfx_fonts@@3PAPBVFont@touchgfx@@A[edx], eax
; Line 1039
	jmp	$LN1@resetFont
$LN5@resetFont:
; Line 1041
	call	?getFont_RobotoCondensed_Regular_18_4bpp@@YAAAVGeneratedFont@touchgfx@@XZ ; getFont_RobotoCondensed_Regular_18_4bpp
	mov	ecx, 4
	shl	ecx, 0
	mov	DWORD PTR ?touchgfx_fonts@@3PAPBVFont@touchgfx@@A[ecx], eax
; Line 1042
	jmp	$LN1@resetFont
$LN6@resetFont:
; Line 1044
	call	?getFont_RobotoCondensed_Regular_26_4bpp@@YAAAVGeneratedFont@touchgfx@@XZ ; getFont_RobotoCondensed_Regular_26_4bpp
	mov	ecx, 4
	shl	ecx, 1
	mov	DWORD PTR ?touchgfx_fonts@@3PAPBVFont@touchgfx@@A[ecx], eax
; Line 1045
	jmp	$LN1@resetFont
$LN7@resetFont:
; Line 1047
	call	?getFont_RobotoCondensed_Regular_36_4bpp@@YAAAVGeneratedFont@touchgfx@@XZ ; getFont_RobotoCondensed_Regular_36_4bpp
	mov	ecx, 4
	imul	edx, ecx, 3
	mov	DWORD PTR ?touchgfx_fonts@@3PAPBVFont@touchgfx@@A[edx], eax
; Line 1048
	jmp	$LN1@resetFont
$LN8@resetFont:
; Line 1050
	call	?getFont_RobotoCondensed_Bold_40_4bpp@@YAAAVGeneratedFont@touchgfx@@XZ ; getFont_RobotoCondensed_Bold_40_4bpp
	mov	ecx, 4
	shl	ecx, 2
	mov	DWORD PTR ?touchgfx_fonts@@3PAPBVFont@touchgfx@@A[ecx], eax
; Line 1051
	jmp	$LN1@resetFont
$LN9@resetFont:
; Line 1053
	call	?getFont_RobotoMono_Regular_26_4bpp@@YAAAVGeneratedFont@touchgfx@@XZ ; getFont_RobotoMono_Regular_26_4bpp
	mov	ecx, 4
	imul	edx, ecx, 5
	mov	DWORD PTR ?touchgfx_fonts@@3PAPBVFont@touchgfx@@A[edx], eax
; Line 1054
	jmp	$LN1@resetFont
$LN10@resetFont:
; Line 1056
	call	?getFont_RobotoMono_Bold_40_4bpp@@YAAAVGeneratedFont@touchgfx@@XZ ; getFont_RobotoMono_Bold_40_4bpp
	mov	ecx, 4
	imul	edx, ecx, 6
	mov	DWORD PTR ?touchgfx_fonts@@3PAPBVFont@touchgfx@@A[edx], eax
; Line 1057
	jmp	$LN1@resetFont
$LN11@resetFont:
; Line 1059
	call	?getFont_RobotoCondensed_Regular_24_4bpp@@YAAAVGeneratedFont@touchgfx@@XZ ; getFont_RobotoCondensed_Regular_24_4bpp
	mov	ecx, 4
	imul	edx, ecx, 7
	mov	DWORD PTR ?touchgfx_fonts@@3PAPBVFont@touchgfx@@A[edx], eax
; Line 1060
	jmp	SHORT $LN1@resetFont
$LN12@resetFont:
; Line 1062
	call	?getFont_RobotoCondensed_Bold_24_4bpp@@YAAAVGeneratedFont@touchgfx@@XZ ; getFont_RobotoCondensed_Bold_24_4bpp
	mov	ecx, 4
	shl	ecx, 3
	mov	DWORD PTR ?touchgfx_fonts@@3PAPBVFont@touchgfx@@A[ecx], eax
; Line 1063
	jmp	SHORT $LN1@resetFont
$LN13@resetFont:
; Line 1065
	call	?getFont_RobotoCondensed_Bold_26_4bpp@@YAAAVGeneratedFont@touchgfx@@XZ ; getFont_RobotoCondensed_Bold_26_4bpp
	mov	ecx, 4
	imul	edx, ecx, 9
	mov	DWORD PTR ?touchgfx_fonts@@3PAPBVFont@touchgfx@@A[edx], eax
; Line 1066
	jmp	SHORT $LN1@resetFont
$LN14@resetFont:
; Line 1068
	call	?getFont_RobotoCondensed_Bold_20_4bpp@@YAAAVGeneratedFont@touchgfx@@XZ ; getFont_RobotoCondensed_Bold_20_4bpp
	mov	ecx, 4
	imul	edx, ecx, 10
	mov	DWORD PTR ?touchgfx_fonts@@3PAPBVFont@touchgfx@@A[edx], eax
; Line 1069
	jmp	SHORT $LN1@resetFont
$LN15@resetFont:
; Line 1071
	call	?getFont_RobotoMono_Regular_32_4bpp@@YAAAVGeneratedFont@touchgfx@@XZ ; getFont_RobotoMono_Regular_32_4bpp
	mov	ecx, 4
	imul	edx, ecx, 11
	mov	DWORD PTR ?touchgfx_fonts@@3PAPBVFont@touchgfx@@A[edx], eax
; Line 1072
	jmp	SHORT $LN1@resetFont
$LN16@resetFont:
; Line 1074
	call	?getFont_RobotoCondensed_Regular_32_4bpp@@YAAAVGeneratedFont@touchgfx@@XZ ; getFont_RobotoCondensed_Regular_32_4bpp
	mov	ecx, 4
	imul	edx, ecx, 12
	mov	DWORD PTR ?touchgfx_fonts@@3PAPBVFont@touchgfx@@A[edx], eax
; Line 1075
	jmp	SHORT $LN1@resetFont
$LN17@resetFont:
; Line 1077
	call	?getFont_RobotoCondensed_Bold_32_4bpp@@YAAAVGeneratedFont@touchgfx@@XZ ; getFont_RobotoCondensed_Bold_32_4bpp
	mov	ecx, 4
	imul	edx, ecx, 13
	mov	DWORD PTR ?touchgfx_fonts@@3PAPBVFont@touchgfx@@A[edx], eax
$LN1@resetFont:
; Line 1080
	pop	edi
	pop	esi
	pop	ebx
	add	esp, 196				; 000000c4H
	cmp	ebp, esp
	call	__RTC_CheckEsp
	mov	esp, ebp
	pop	ebp
	ret	0
	npad	3
$LN19@resetFont:
	DD	$LN4@resetFont
	DD	$LN5@resetFont
	DD	$LN6@resetFont
	DD	$LN7@resetFont
	DD	$LN8@resetFont
	DD	$LN9@resetFont
	DD	$LN10@resetFont
	DD	$LN11@resetFont
	DD	$LN12@resetFont
	DD	$LN13@resetFont
	DD	$LN14@resetFont
	DD	$LN15@resetFont
	DD	$LN16@resetFont
	DD	$LN17@resetFont
?resetFont@TypedTextDatabase@@YAXG@Z ENDP		; TypedTextDatabase::resetFont
_TEXT	ENDS
; Function compile flags: /Odtp /RTCsu /ZI
;	COMDAT ?setFont@TypedTextDatabase@@YAPBVFont@touchgfx@@GPBV23@@Z
_TEXT	SEGMENT
_old$ = -8						; size = 4
_fontId$ = 8						; size = 2
_font$ = 12						; size = 4
?setFont@TypedTextDatabase@@YAPBVFont@touchgfx@@GPBV23@@Z PROC ; TypedTextDatabase::setFont, COMDAT
; File C:\TouchGFXProjects\KraftHeinz_DS3600\TouchGFX\generated\texts\src\TypedTextDatabase.cpp
; Line 1027
	push	ebp
	mov	ebp, esp
	sub	esp, 204				; 000000ccH
	push	ebx
	push	esi
	push	edi
	lea	edi, DWORD PTR [ebp-12]
	mov	ecx, 3
	mov	eax, -858993460				; ccccccccH
	rep stosd
	mov	ecx, OFFSET __FC1C3AF1_TypedTextDatabase@cpp
	call	@__CheckForDebuggerJustMyCode@4
; Line 1028
	movzx	eax, WORD PTR _fontId$[ebp]
	mov	ecx, DWORD PTR ?touchgfx_fonts@@3PAPBVFont@touchgfx@@A[eax*4]
	mov	DWORD PTR _old$[ebp], ecx
; Line 1029
	movzx	eax, WORD PTR _fontId$[ebp]
	mov	ecx, DWORD PTR _font$[ebp]
	mov	DWORD PTR ?touchgfx_fonts@@3PAPBVFont@touchgfx@@A[eax*4], ecx
; Line 1030
	mov	eax, DWORD PTR _old$[ebp]
; Line 1031
	pop	edi
	pop	esi
	pop	ebx
	add	esp, 204				; 000000ccH
	cmp	ebp, esp
	call	__RTC_CheckEsp
	mov	esp, ebp
	pop	ebp
	ret	0
?setFont@TypedTextDatabase@@YAPBVFont@touchgfx@@GPBV23@@Z ENDP ; TypedTextDatabase::setFont
_TEXT	ENDS
; Function compile flags: /Odtp /RTCsu /ZI
;	COMDAT ?getFonts@TypedTextDatabase@@YAPAPBVFont@touchgfx@@XZ
_TEXT	SEGMENT
?getFonts@TypedTextDatabase@@YAPAPBVFont@touchgfx@@XZ PROC ; TypedTextDatabase::getFonts, COMDAT
; File C:\TouchGFXProjects\KraftHeinz_DS3600\TouchGFX\generated\texts\src\TypedTextDatabase.cpp
; Line 1022
	push	ebp
	mov	ebp, esp
	sub	esp, 192				; 000000c0H
	push	ebx
	push	esi
	push	edi
	mov	edi, ebp
	xor	ecx, ecx
	mov	eax, -858993460				; ccccccccH
	rep stosd
	mov	ecx, OFFSET __FC1C3AF1_TypedTextDatabase@cpp
	call	@__CheckForDebuggerJustMyCode@4
; Line 1023
	mov	eax, OFFSET ?touchgfx_fonts@@3PAPBVFont@touchgfx@@A ; touchgfx_fonts
; Line 1024
	pop	edi
	pop	esi
	pop	ebx
	add	esp, 192				; 000000c0H
	cmp	ebp, esp
	call	__RTC_CheckEsp
	mov	esp, ebp
	pop	ebp
	ret	0
?getFonts@TypedTextDatabase@@YAPAPBVFont@touchgfx@@XZ ENDP ; TypedTextDatabase::getFonts
_TEXT	ENDS
; Function compile flags: /Odtp /RTCsu /ZI
;	COMDAT ?getInstance@TypedTextDatabase@@YAPBUTypedTextData@TypedText@touchgfx@@G@Z
_TEXT	SEGMENT
_id$ = 8						; size = 2
?getInstance@TypedTextDatabase@@YAPBUTypedTextData@TypedText@touchgfx@@G@Z PROC ; TypedTextDatabase::getInstance, COMDAT
; File C:\TouchGFXProjects\KraftHeinz_DS3600\TouchGFX\generated\texts\src\TypedTextDatabase.cpp
; Line 1012
	push	ebp
	mov	ebp, esp
	sub	esp, 192				; 000000c0H
	push	ebx
	push	esi
	push	edi
	mov	edi, ebp
	xor	ecx, ecx
	mov	eax, -858993460				; ccccccccH
	rep stosd
	mov	ecx, OFFSET __FC1C3AF1_TypedTextDatabase@cpp
	call	@__CheckForDebuggerJustMyCode@4
; Line 1013
	movzx	eax, WORD PTR _id$[ebp]
	mov	eax, DWORD PTR ?typedTextDatabaseArray@@3QBQBUTypedTextData@TypedText@touchgfx@@B[eax*4]
; Line 1014
	pop	edi
	pop	esi
	pop	ebx
	add	esp, 192				; 000000c0H
	cmp	ebp, esp
	call	__RTC_CheckEsp
	mov	esp, ebp
	pop	ebp
	ret	0
?getInstance@TypedTextDatabase@@YAPBUTypedTextData@TypedText@touchgfx@@G@Z ENDP ; TypedTextDatabase::getInstance
_TEXT	ENDS
END
